ARM GAS  /tmp/ccGmUGHU.s 			page 1


   1              		.cpu cortex-m4
   2              		.eabi_attribute 27, 1
   3              		.eabi_attribute 28, 1
   4              		.eabi_attribute 20, 1
   5              		.eabi_attribute 21, 1
   6              		.eabi_attribute 23, 3
   7              		.eabi_attribute 24, 1
   8              		.eabi_attribute 25, 1
   9              		.eabi_attribute 26, 1
  10              		.eabi_attribute 30, 1
  11              		.eabi_attribute 34, 1
  12              		.eabi_attribute 18, 4
  13              		.file	"stm32g4xx_hal_comp.c"
  14              		.text
  15              	.Ltext0:
  16              		.cfi_sections	.debug_frame
  17              		.section	.text.HAL_COMP_MspInit,"ax",%progbits
  18              		.align	1
  19              		.weak	HAL_COMP_MspInit
  20              		.arch armv7e-m
  21              		.syntax unified
  22              		.thumb
  23              		.thumb_func
  24              		.fpu fpv4-sp-d16
  26              	HAL_COMP_MspInit:
  27              	.LVL0:
  28              	.LFB164:
  29              		.file 1 "Drivers/STM32G4xx_HAL_Driver/Src/stm32g4xx_hal_comp.c"
   1:Drivers/STM32G4xx_HAL_Driver/Src/stm32g4xx_hal_comp.c **** /**
   2:Drivers/STM32G4xx_HAL_Driver/Src/stm32g4xx_hal_comp.c ****   ******************************************************************************
   3:Drivers/STM32G4xx_HAL_Driver/Src/stm32g4xx_hal_comp.c ****   * @file    stm32g4xx_hal_comp.c
   4:Drivers/STM32G4xx_HAL_Driver/Src/stm32g4xx_hal_comp.c ****   * @author  MCD Application Team
   5:Drivers/STM32G4xx_HAL_Driver/Src/stm32g4xx_hal_comp.c ****   * @brief   COMP HAL module driver.
   6:Drivers/STM32G4xx_HAL_Driver/Src/stm32g4xx_hal_comp.c ****   *          This file provides firmware functions to manage the following
   7:Drivers/STM32G4xx_HAL_Driver/Src/stm32g4xx_hal_comp.c ****   *          functionalities of the COMP peripheral:
   8:Drivers/STM32G4xx_HAL_Driver/Src/stm32g4xx_hal_comp.c ****   *           + Initialization and de-initialization functions
   9:Drivers/STM32G4xx_HAL_Driver/Src/stm32g4xx_hal_comp.c ****   *           + Start/Stop operation functions in polling mode
  10:Drivers/STM32G4xx_HAL_Driver/Src/stm32g4xx_hal_comp.c ****   *           + Start/Stop operation functions in interrupt mode (through EXTI interrupt)
  11:Drivers/STM32G4xx_HAL_Driver/Src/stm32g4xx_hal_comp.c ****   *           + Peripheral control functions
  12:Drivers/STM32G4xx_HAL_Driver/Src/stm32g4xx_hal_comp.c ****   *           + Peripheral state functions
  13:Drivers/STM32G4xx_HAL_Driver/Src/stm32g4xx_hal_comp.c ****   *
  14:Drivers/STM32G4xx_HAL_Driver/Src/stm32g4xx_hal_comp.c ****   @verbatim
  15:Drivers/STM32G4xx_HAL_Driver/Src/stm32g4xx_hal_comp.c **** ================================================================================
  16:Drivers/STM32G4xx_HAL_Driver/Src/stm32g4xx_hal_comp.c ****           ##### COMP Peripheral features #####
  17:Drivers/STM32G4xx_HAL_Driver/Src/stm32g4xx_hal_comp.c **** ================================================================================
  18:Drivers/STM32G4xx_HAL_Driver/Src/stm32g4xx_hal_comp.c **** 
  19:Drivers/STM32G4xx_HAL_Driver/Src/stm32g4xx_hal_comp.c ****   [..]
  20:Drivers/STM32G4xx_HAL_Driver/Src/stm32g4xx_hal_comp.c ****       The STM32G4xx device family integrates seven analog comparators instances:
  21:Drivers/STM32G4xx_HAL_Driver/Src/stm32g4xx_hal_comp.c ****       COMP1, COMP2, COMP3, COMP4, COMP5, COMP6 and COMP7.
  22:Drivers/STM32G4xx_HAL_Driver/Src/stm32g4xx_hal_comp.c ****       (#) Comparators input minus (inverting input) and input plus (non inverting input)
  23:Drivers/STM32G4xx_HAL_Driver/Src/stm32g4xx_hal_comp.c ****           can be set to internal references or to GPIO pins
  24:Drivers/STM32G4xx_HAL_Driver/Src/stm32g4xx_hal_comp.c ****           (refer to GPIO list in reference manual).
  25:Drivers/STM32G4xx_HAL_Driver/Src/stm32g4xx_hal_comp.c **** 
  26:Drivers/STM32G4xx_HAL_Driver/Src/stm32g4xx_hal_comp.c ****       (#) Comparators output level is available using HAL_COMP_GetOutputLevel()
  27:Drivers/STM32G4xx_HAL_Driver/Src/stm32g4xx_hal_comp.c ****           and can be redirected to other peripherals: GPIO pins (in mode
  28:Drivers/STM32G4xx_HAL_Driver/Src/stm32g4xx_hal_comp.c ****           alternate functions for comparator), timers.
  29:Drivers/STM32G4xx_HAL_Driver/Src/stm32g4xx_hal_comp.c ****           (refer to GPIO list in reference manual).
ARM GAS  /tmp/ccGmUGHU.s 			page 2


  30:Drivers/STM32G4xx_HAL_Driver/Src/stm32g4xx_hal_comp.c **** 
  31:Drivers/STM32G4xx_HAL_Driver/Src/stm32g4xx_hal_comp.c ****       (#) The comparators have interrupt capability through the EXTI controller
  32:Drivers/STM32G4xx_HAL_Driver/Src/stm32g4xx_hal_comp.c ****           with wake-up from sleep and stop modes.
  33:Drivers/STM32G4xx_HAL_Driver/Src/stm32g4xx_hal_comp.c **** 
  34:Drivers/STM32G4xx_HAL_Driver/Src/stm32g4xx_hal_comp.c ****           From the corresponding IRQ handler, the right interrupt source can be retrieved
  35:Drivers/STM32G4xx_HAL_Driver/Src/stm32g4xx_hal_comp.c ****           using macro __HAL_COMP_COMPx_EXTI_GET_FLAG().
  36:Drivers/STM32G4xx_HAL_Driver/Src/stm32g4xx_hal_comp.c **** 
  37:Drivers/STM32G4xx_HAL_Driver/Src/stm32g4xx_hal_comp.c ****             ##### How to use this driver #####
  38:Drivers/STM32G4xx_HAL_Driver/Src/stm32g4xx_hal_comp.c **** ================================================================================
  39:Drivers/STM32G4xx_HAL_Driver/Src/stm32g4xx_hal_comp.c ****   [..]
  40:Drivers/STM32G4xx_HAL_Driver/Src/stm32g4xx_hal_comp.c ****       This driver provides functions to configure and program the comparator instances
  41:Drivers/STM32G4xx_HAL_Driver/Src/stm32g4xx_hal_comp.c ****       of STM32G4xx devices.
  42:Drivers/STM32G4xx_HAL_Driver/Src/stm32g4xx_hal_comp.c **** 
  43:Drivers/STM32G4xx_HAL_Driver/Src/stm32g4xx_hal_comp.c ****       To use the comparator, perform the following steps:
  44:Drivers/STM32G4xx_HAL_Driver/Src/stm32g4xx_hal_comp.c **** 
  45:Drivers/STM32G4xx_HAL_Driver/Src/stm32g4xx_hal_comp.c ****       (#)  Initialize the COMP low level resources by implementing the HAL_COMP_MspInit():
  46:Drivers/STM32G4xx_HAL_Driver/Src/stm32g4xx_hal_comp.c ****       (++) Configure the GPIO connected to comparator inputs plus and minus in analog mode
  47:Drivers/STM32G4xx_HAL_Driver/Src/stm32g4xx_hal_comp.c ****            using HAL_GPIO_Init().
  48:Drivers/STM32G4xx_HAL_Driver/Src/stm32g4xx_hal_comp.c ****       (++) If needed, configure the GPIO connected to comparator output in alternate function mode
  49:Drivers/STM32G4xx_HAL_Driver/Src/stm32g4xx_hal_comp.c ****            using HAL_GPIO_Init().
  50:Drivers/STM32G4xx_HAL_Driver/Src/stm32g4xx_hal_comp.c ****       (++) If required enable the COMP interrupt by configuring and enabling EXTI line in Interrupt
  51:Drivers/STM32G4xx_HAL_Driver/Src/stm32g4xx_hal_comp.c ****            selecting the desired sensitivity level using HAL_GPIO_Init() function. After that enabl
  52:Drivers/STM32G4xx_HAL_Driver/Src/stm32g4xx_hal_comp.c ****            interrupt vector using HAL_NVIC_EnableIRQ() function.
  53:Drivers/STM32G4xx_HAL_Driver/Src/stm32g4xx_hal_comp.c **** 
  54:Drivers/STM32G4xx_HAL_Driver/Src/stm32g4xx_hal_comp.c ****       (#) Configure the comparator using HAL_COMP_Init() function:
  55:Drivers/STM32G4xx_HAL_Driver/Src/stm32g4xx_hal_comp.c ****       (++) Select the input minus (inverting input)
  56:Drivers/STM32G4xx_HAL_Driver/Src/stm32g4xx_hal_comp.c ****       (++) Select the input plus (non-inverting input)
  57:Drivers/STM32G4xx_HAL_Driver/Src/stm32g4xx_hal_comp.c ****       (++) Select the hysteresis
  58:Drivers/STM32G4xx_HAL_Driver/Src/stm32g4xx_hal_comp.c ****       (++) Select the blanking source
  59:Drivers/STM32G4xx_HAL_Driver/Src/stm32g4xx_hal_comp.c ****       (++) Select the output polarity
  60:Drivers/STM32G4xx_HAL_Driver/Src/stm32g4xx_hal_comp.c **** 
  61:Drivers/STM32G4xx_HAL_Driver/Src/stm32g4xx_hal_comp.c ****       -@@- HAL_COMP_Init() calls internally __HAL_RCC_SYSCFG_CLK_ENABLE()
  62:Drivers/STM32G4xx_HAL_Driver/Src/stm32g4xx_hal_comp.c ****           to enable internal control clock of the comparators.
  63:Drivers/STM32G4xx_HAL_Driver/Src/stm32g4xx_hal_comp.c ****           However, this is a legacy strategy. In future STM32 families,
  64:Drivers/STM32G4xx_HAL_Driver/Src/stm32g4xx_hal_comp.c ****           COMP clock enable must be implemented by user in "HAL_COMP_MspInit()".
  65:Drivers/STM32G4xx_HAL_Driver/Src/stm32g4xx_hal_comp.c ****           Therefore, for compatibility anticipation, it is recommended to
  66:Drivers/STM32G4xx_HAL_Driver/Src/stm32g4xx_hal_comp.c ****           implement __HAL_RCC_SYSCFG_CLK_ENABLE() in "HAL_COMP_MspInit()".
  67:Drivers/STM32G4xx_HAL_Driver/Src/stm32g4xx_hal_comp.c **** 
  68:Drivers/STM32G4xx_HAL_Driver/Src/stm32g4xx_hal_comp.c ****       (#) Reconfiguration on-the-fly of comparator can be done by calling again
  69:Drivers/STM32G4xx_HAL_Driver/Src/stm32g4xx_hal_comp.c ****           function HAL_COMP_Init() with new input structure parameters values.
  70:Drivers/STM32G4xx_HAL_Driver/Src/stm32g4xx_hal_comp.c **** 
  71:Drivers/STM32G4xx_HAL_Driver/Src/stm32g4xx_hal_comp.c ****       (#) Enable the comparator using HAL_COMP_Start() function.
  72:Drivers/STM32G4xx_HAL_Driver/Src/stm32g4xx_hal_comp.c **** 
  73:Drivers/STM32G4xx_HAL_Driver/Src/stm32g4xx_hal_comp.c ****       (#) Use HAL_COMP_TriggerCallback() or HAL_COMP_GetOutputLevel() functions
  74:Drivers/STM32G4xx_HAL_Driver/Src/stm32g4xx_hal_comp.c ****           to manage comparator outputs (events and output level).
  75:Drivers/STM32G4xx_HAL_Driver/Src/stm32g4xx_hal_comp.c **** 
  76:Drivers/STM32G4xx_HAL_Driver/Src/stm32g4xx_hal_comp.c ****       (#) Disable the comparator using HAL_COMP_Stop() function.
  77:Drivers/STM32G4xx_HAL_Driver/Src/stm32g4xx_hal_comp.c **** 
  78:Drivers/STM32G4xx_HAL_Driver/Src/stm32g4xx_hal_comp.c ****       (#) De-initialize the comparator using HAL_COMP_DeInit() function.
  79:Drivers/STM32G4xx_HAL_Driver/Src/stm32g4xx_hal_comp.c **** 
  80:Drivers/STM32G4xx_HAL_Driver/Src/stm32g4xx_hal_comp.c ****       (#) For safety purpose, comparator configuration can be locked using HAL_COMP_Lock() function
  81:Drivers/STM32G4xx_HAL_Driver/Src/stm32g4xx_hal_comp.c ****           The only way to unlock the comparator is a device hardware reset.
  82:Drivers/STM32G4xx_HAL_Driver/Src/stm32g4xx_hal_comp.c **** 
  83:Drivers/STM32G4xx_HAL_Driver/Src/stm32g4xx_hal_comp.c ****     *** Callback registration ***
  84:Drivers/STM32G4xx_HAL_Driver/Src/stm32g4xx_hal_comp.c ****     =============================================
  85:Drivers/STM32G4xx_HAL_Driver/Src/stm32g4xx_hal_comp.c ****     [..]
  86:Drivers/STM32G4xx_HAL_Driver/Src/stm32g4xx_hal_comp.c **** 
ARM GAS  /tmp/ccGmUGHU.s 			page 3


  87:Drivers/STM32G4xx_HAL_Driver/Src/stm32g4xx_hal_comp.c ****      The compilation flag USE_HAL_COMP_REGISTER_CALLBACKS, when set to 1,
  88:Drivers/STM32G4xx_HAL_Driver/Src/stm32g4xx_hal_comp.c ****      allows the user to configure dynamically the driver callbacks.
  89:Drivers/STM32G4xx_HAL_Driver/Src/stm32g4xx_hal_comp.c ****      Use Functions @ref HAL_COMP_RegisterCallback()
  90:Drivers/STM32G4xx_HAL_Driver/Src/stm32g4xx_hal_comp.c ****      to register an interrupt callback.
  91:Drivers/STM32G4xx_HAL_Driver/Src/stm32g4xx_hal_comp.c ****     [..]
  92:Drivers/STM32G4xx_HAL_Driver/Src/stm32g4xx_hal_comp.c **** 
  93:Drivers/STM32G4xx_HAL_Driver/Src/stm32g4xx_hal_comp.c ****      Function @ref HAL_COMP_RegisterCallback() allows to register following callbacks:
  94:Drivers/STM32G4xx_HAL_Driver/Src/stm32g4xx_hal_comp.c ****        (+) TriggerCallback       : callback for COMP trigger.
  95:Drivers/STM32G4xx_HAL_Driver/Src/stm32g4xx_hal_comp.c ****        (+) MspInitCallback       : callback for Msp Init.
  96:Drivers/STM32G4xx_HAL_Driver/Src/stm32g4xx_hal_comp.c ****        (+) MspDeInitCallback     : callback for Msp DeInit.
  97:Drivers/STM32G4xx_HAL_Driver/Src/stm32g4xx_hal_comp.c ****      This function takes as parameters the HAL peripheral handle, the Callback ID
  98:Drivers/STM32G4xx_HAL_Driver/Src/stm32g4xx_hal_comp.c ****      and a pointer to the user callback function.
  99:Drivers/STM32G4xx_HAL_Driver/Src/stm32g4xx_hal_comp.c ****     [..]
 100:Drivers/STM32G4xx_HAL_Driver/Src/stm32g4xx_hal_comp.c **** 
 101:Drivers/STM32G4xx_HAL_Driver/Src/stm32g4xx_hal_comp.c ****      Use function @ref HAL_COMP_UnRegisterCallback to reset a callback to the default
 102:Drivers/STM32G4xx_HAL_Driver/Src/stm32g4xx_hal_comp.c ****      weak function.
 103:Drivers/STM32G4xx_HAL_Driver/Src/stm32g4xx_hal_comp.c ****     [..]
 104:Drivers/STM32G4xx_HAL_Driver/Src/stm32g4xx_hal_comp.c **** 
 105:Drivers/STM32G4xx_HAL_Driver/Src/stm32g4xx_hal_comp.c ****      @ref HAL_COMP_UnRegisterCallback takes as parameters the HAL peripheral handle,
 106:Drivers/STM32G4xx_HAL_Driver/Src/stm32g4xx_hal_comp.c ****      and the Callback ID.
 107:Drivers/STM32G4xx_HAL_Driver/Src/stm32g4xx_hal_comp.c ****      This function allows to reset following callbacks:
 108:Drivers/STM32G4xx_HAL_Driver/Src/stm32g4xx_hal_comp.c ****        (+) TriggerCallback       : callback for COMP trigger.
 109:Drivers/STM32G4xx_HAL_Driver/Src/stm32g4xx_hal_comp.c ****        (+) MspInitCallback       : callback for Msp Init.
 110:Drivers/STM32G4xx_HAL_Driver/Src/stm32g4xx_hal_comp.c ****        (+) MspDeInitCallback     : callback for Msp DeInit.
 111:Drivers/STM32G4xx_HAL_Driver/Src/stm32g4xx_hal_comp.c ****      [..]
 112:Drivers/STM32G4xx_HAL_Driver/Src/stm32g4xx_hal_comp.c **** 
 113:Drivers/STM32G4xx_HAL_Driver/Src/stm32g4xx_hal_comp.c ****      By default, after the @ref HAL_COMP_Init() and when the state is @ref HAL_COMP_STATE_RESET
 114:Drivers/STM32G4xx_HAL_Driver/Src/stm32g4xx_hal_comp.c ****      all callbacks are set to the corresponding weak functions:
 115:Drivers/STM32G4xx_HAL_Driver/Src/stm32g4xx_hal_comp.c ****      example @ref HAL_COMP_TriggerCallback().
 116:Drivers/STM32G4xx_HAL_Driver/Src/stm32g4xx_hal_comp.c ****      Exception done for MspInit and MspDeInit functions that are
 117:Drivers/STM32G4xx_HAL_Driver/Src/stm32g4xx_hal_comp.c ****      reset to the legacy weak functions in the @ref HAL_COMP_Init()/ @ref HAL_COMP_DeInit() only wh
 118:Drivers/STM32G4xx_HAL_Driver/Src/stm32g4xx_hal_comp.c ****      these callbacks are null (not registered beforehand).
 119:Drivers/STM32G4xx_HAL_Driver/Src/stm32g4xx_hal_comp.c ****     [..]
 120:Drivers/STM32G4xx_HAL_Driver/Src/stm32g4xx_hal_comp.c **** 
 121:Drivers/STM32G4xx_HAL_Driver/Src/stm32g4xx_hal_comp.c ****      If MspInit or MspDeInit are not null, the @ref HAL_COMP_Init()/ @ref HAL_COMP_DeInit()
 122:Drivers/STM32G4xx_HAL_Driver/Src/stm32g4xx_hal_comp.c ****      keep and use the user MspInit/MspDeInit callbacks (registered beforehand) whatever the state.
 123:Drivers/STM32G4xx_HAL_Driver/Src/stm32g4xx_hal_comp.c ****      [..]
 124:Drivers/STM32G4xx_HAL_Driver/Src/stm32g4xx_hal_comp.c **** 
 125:Drivers/STM32G4xx_HAL_Driver/Src/stm32g4xx_hal_comp.c ****      Callbacks can be registered/unregistered in @ref HAL_COMP_STATE_READY state only.
 126:Drivers/STM32G4xx_HAL_Driver/Src/stm32g4xx_hal_comp.c ****      Exception done MspInit/MspDeInit functions that can be registered/unregistered
 127:Drivers/STM32G4xx_HAL_Driver/Src/stm32g4xx_hal_comp.c ****      in @ref HAL_COMP_STATE_READY or @ref HAL_COMP_STATE_RESET state,
 128:Drivers/STM32G4xx_HAL_Driver/Src/stm32g4xx_hal_comp.c ****      thus registered (user) MspInit/DeInit callbacks can be used during the Init/DeInit.
 129:Drivers/STM32G4xx_HAL_Driver/Src/stm32g4xx_hal_comp.c ****     [..]
 130:Drivers/STM32G4xx_HAL_Driver/Src/stm32g4xx_hal_comp.c **** 
 131:Drivers/STM32G4xx_HAL_Driver/Src/stm32g4xx_hal_comp.c ****      Then, the user first registers the MspInit/MspDeInit user callbacks
 132:Drivers/STM32G4xx_HAL_Driver/Src/stm32g4xx_hal_comp.c ****      using @ref HAL_COMP_RegisterCallback() before calling @ref HAL_COMP_DeInit()
 133:Drivers/STM32G4xx_HAL_Driver/Src/stm32g4xx_hal_comp.c ****      or @ref HAL_COMP_Init() function.
 134:Drivers/STM32G4xx_HAL_Driver/Src/stm32g4xx_hal_comp.c ****      [..]
 135:Drivers/STM32G4xx_HAL_Driver/Src/stm32g4xx_hal_comp.c **** 
 136:Drivers/STM32G4xx_HAL_Driver/Src/stm32g4xx_hal_comp.c ****      When the compilation flag USE_HAL_COMP_REGISTER_CALLBACKS is set to 0 or
 137:Drivers/STM32G4xx_HAL_Driver/Src/stm32g4xx_hal_comp.c ****      not defined, the callback registration feature is not available and all callbacks
 138:Drivers/STM32G4xx_HAL_Driver/Src/stm32g4xx_hal_comp.c ****      are set to the corresponding weak functions.
 139:Drivers/STM32G4xx_HAL_Driver/Src/stm32g4xx_hal_comp.c **** 
 140:Drivers/STM32G4xx_HAL_Driver/Src/stm32g4xx_hal_comp.c ****   @endverbatim
 141:Drivers/STM32G4xx_HAL_Driver/Src/stm32g4xx_hal_comp.c ****   ******************************************************************************
 142:Drivers/STM32G4xx_HAL_Driver/Src/stm32g4xx_hal_comp.c **** 
 143:Drivers/STM32G4xx_HAL_Driver/Src/stm32g4xx_hal_comp.c ****   ******************************************************************************
ARM GAS  /tmp/ccGmUGHU.s 			page 4


 144:Drivers/STM32G4xx_HAL_Driver/Src/stm32g4xx_hal_comp.c ****   * @attention
 145:Drivers/STM32G4xx_HAL_Driver/Src/stm32g4xx_hal_comp.c ****   *
 146:Drivers/STM32G4xx_HAL_Driver/Src/stm32g4xx_hal_comp.c ****   * <h2><center>&copy; Copyright (c) 2019 STMicroelectronics.
 147:Drivers/STM32G4xx_HAL_Driver/Src/stm32g4xx_hal_comp.c ****   * All rights reserved.</center></h2>
 148:Drivers/STM32G4xx_HAL_Driver/Src/stm32g4xx_hal_comp.c ****   *
 149:Drivers/STM32G4xx_HAL_Driver/Src/stm32g4xx_hal_comp.c ****   * This software component is licensed by ST under BSD 3-Clause license,
 150:Drivers/STM32G4xx_HAL_Driver/Src/stm32g4xx_hal_comp.c ****   * the "License"; You may not use this file except in compliance with the
 151:Drivers/STM32G4xx_HAL_Driver/Src/stm32g4xx_hal_comp.c ****   * License. You may obtain a copy of the License at:
 152:Drivers/STM32G4xx_HAL_Driver/Src/stm32g4xx_hal_comp.c ****   *                        opensource.org/licenses/BSD-3-Clause
 153:Drivers/STM32G4xx_HAL_Driver/Src/stm32g4xx_hal_comp.c ****   *
 154:Drivers/STM32G4xx_HAL_Driver/Src/stm32g4xx_hal_comp.c ****   ******************************************************************************
 155:Drivers/STM32G4xx_HAL_Driver/Src/stm32g4xx_hal_comp.c ****   */
 156:Drivers/STM32G4xx_HAL_Driver/Src/stm32g4xx_hal_comp.c **** 
 157:Drivers/STM32G4xx_HAL_Driver/Src/stm32g4xx_hal_comp.c **** /* Includes ------------------------------------------------------------------*/
 158:Drivers/STM32G4xx_HAL_Driver/Src/stm32g4xx_hal_comp.c **** #include "stm32g4xx_hal.h"
 159:Drivers/STM32G4xx_HAL_Driver/Src/stm32g4xx_hal_comp.c **** 
 160:Drivers/STM32G4xx_HAL_Driver/Src/stm32g4xx_hal_comp.c **** /** @addtogroup STM32G4xx_HAL_Driver
 161:Drivers/STM32G4xx_HAL_Driver/Src/stm32g4xx_hal_comp.c ****   * @{
 162:Drivers/STM32G4xx_HAL_Driver/Src/stm32g4xx_hal_comp.c ****   */
 163:Drivers/STM32G4xx_HAL_Driver/Src/stm32g4xx_hal_comp.c **** 
 164:Drivers/STM32G4xx_HAL_Driver/Src/stm32g4xx_hal_comp.c **** #ifdef HAL_COMP_MODULE_ENABLED
 165:Drivers/STM32G4xx_HAL_Driver/Src/stm32g4xx_hal_comp.c **** 
 166:Drivers/STM32G4xx_HAL_Driver/Src/stm32g4xx_hal_comp.c **** 
 167:Drivers/STM32G4xx_HAL_Driver/Src/stm32g4xx_hal_comp.c **** 
 168:Drivers/STM32G4xx_HAL_Driver/Src/stm32g4xx_hal_comp.c **** /** @defgroup COMP COMP
 169:Drivers/STM32G4xx_HAL_Driver/Src/stm32g4xx_hal_comp.c ****   * @brief COMP HAL module driver
 170:Drivers/STM32G4xx_HAL_Driver/Src/stm32g4xx_hal_comp.c ****   * @{
 171:Drivers/STM32G4xx_HAL_Driver/Src/stm32g4xx_hal_comp.c ****   */
 172:Drivers/STM32G4xx_HAL_Driver/Src/stm32g4xx_hal_comp.c **** 
 173:Drivers/STM32G4xx_HAL_Driver/Src/stm32g4xx_hal_comp.c **** /* Private typedef -----------------------------------------------------------*/
 174:Drivers/STM32G4xx_HAL_Driver/Src/stm32g4xx_hal_comp.c **** /* Private define ------------------------------------------------------------*/
 175:Drivers/STM32G4xx_HAL_Driver/Src/stm32g4xx_hal_comp.c **** /** @addtogroup COMP_Private_Constants
 176:Drivers/STM32G4xx_HAL_Driver/Src/stm32g4xx_hal_comp.c ****   * @{
 177:Drivers/STM32G4xx_HAL_Driver/Src/stm32g4xx_hal_comp.c ****   */
 178:Drivers/STM32G4xx_HAL_Driver/Src/stm32g4xx_hal_comp.c **** 
 179:Drivers/STM32G4xx_HAL_Driver/Src/stm32g4xx_hal_comp.c **** /* Delay for COMP startup time.                                               */
 180:Drivers/STM32G4xx_HAL_Driver/Src/stm32g4xx_hal_comp.c **** /* Note: Delay required to reach propagation delay specification.             */
 181:Drivers/STM32G4xx_HAL_Driver/Src/stm32g4xx_hal_comp.c **** /* Literal set to maximum value (refer to device datasheet,                   */
 182:Drivers/STM32G4xx_HAL_Driver/Src/stm32g4xx_hal_comp.c **** /* parameter "tSTART").                                                       */
 183:Drivers/STM32G4xx_HAL_Driver/Src/stm32g4xx_hal_comp.c **** /* Unit: us                                                                   */
 184:Drivers/STM32G4xx_HAL_Driver/Src/stm32g4xx_hal_comp.c **** #define COMP_DELAY_STARTUP_US           (5UL) /*!< Delay for COMP startup time */
 185:Drivers/STM32G4xx_HAL_Driver/Src/stm32g4xx_hal_comp.c **** 
 186:Drivers/STM32G4xx_HAL_Driver/Src/stm32g4xx_hal_comp.c **** /* Delay for COMP voltage scaler stabilization time.                          */
 187:Drivers/STM32G4xx_HAL_Driver/Src/stm32g4xx_hal_comp.c **** /* Literal set to maximum value (refer to device datasheet,                   */
 188:Drivers/STM32G4xx_HAL_Driver/Src/stm32g4xx_hal_comp.c **** /* parameter "tSTART_SCALER").                                                */
 189:Drivers/STM32G4xx_HAL_Driver/Src/stm32g4xx_hal_comp.c **** /* Unit: us                                                                   */
 190:Drivers/STM32G4xx_HAL_Driver/Src/stm32g4xx_hal_comp.c **** #define COMP_DELAY_VOLTAGE_SCALER_STAB_US (200UL)  /*!< Delay for COMP voltage scaler stabilization
 191:Drivers/STM32G4xx_HAL_Driver/Src/stm32g4xx_hal_comp.c **** 
 192:Drivers/STM32G4xx_HAL_Driver/Src/stm32g4xx_hal_comp.c **** #define COMP_OUTPUT_LEVEL_BITOFFSET_POS    (30UL)
 193:Drivers/STM32G4xx_HAL_Driver/Src/stm32g4xx_hal_comp.c **** 
 194:Drivers/STM32G4xx_HAL_Driver/Src/stm32g4xx_hal_comp.c **** /**
 195:Drivers/STM32G4xx_HAL_Driver/Src/stm32g4xx_hal_comp.c ****   * @}
 196:Drivers/STM32G4xx_HAL_Driver/Src/stm32g4xx_hal_comp.c ****   */
 197:Drivers/STM32G4xx_HAL_Driver/Src/stm32g4xx_hal_comp.c **** 
 198:Drivers/STM32G4xx_HAL_Driver/Src/stm32g4xx_hal_comp.c **** /* Private macro -------------------------------------------------------------*/
 199:Drivers/STM32G4xx_HAL_Driver/Src/stm32g4xx_hal_comp.c **** /* Private variables ---------------------------------------------------------*/
 200:Drivers/STM32G4xx_HAL_Driver/Src/stm32g4xx_hal_comp.c **** /* Private function prototypes -----------------------------------------------*/
ARM GAS  /tmp/ccGmUGHU.s 			page 5


 201:Drivers/STM32G4xx_HAL_Driver/Src/stm32g4xx_hal_comp.c **** /* Exported functions --------------------------------------------------------*/
 202:Drivers/STM32G4xx_HAL_Driver/Src/stm32g4xx_hal_comp.c **** 
 203:Drivers/STM32G4xx_HAL_Driver/Src/stm32g4xx_hal_comp.c **** /** @defgroup COMP_Exported_Functions COMP Exported Functions
 204:Drivers/STM32G4xx_HAL_Driver/Src/stm32g4xx_hal_comp.c ****   * @{
 205:Drivers/STM32G4xx_HAL_Driver/Src/stm32g4xx_hal_comp.c ****   */
 206:Drivers/STM32G4xx_HAL_Driver/Src/stm32g4xx_hal_comp.c **** 
 207:Drivers/STM32G4xx_HAL_Driver/Src/stm32g4xx_hal_comp.c **** /** @defgroup COMP_Exported_Functions_Group1 Initialization/de-initialization functions
 208:Drivers/STM32G4xx_HAL_Driver/Src/stm32g4xx_hal_comp.c ****   *  @brief    Initialization and de-initialization functions.
 209:Drivers/STM32G4xx_HAL_Driver/Src/stm32g4xx_hal_comp.c ****   *
 210:Drivers/STM32G4xx_HAL_Driver/Src/stm32g4xx_hal_comp.c **** @verbatim
 211:Drivers/STM32G4xx_HAL_Driver/Src/stm32g4xx_hal_comp.c ****  ===============================================================================
 212:Drivers/STM32G4xx_HAL_Driver/Src/stm32g4xx_hal_comp.c ****               ##### Initialization and de-initialization functions #####
 213:Drivers/STM32G4xx_HAL_Driver/Src/stm32g4xx_hal_comp.c ****  ===============================================================================
 214:Drivers/STM32G4xx_HAL_Driver/Src/stm32g4xx_hal_comp.c ****     [..]  This section provides functions to initialize and de-initialize comparators
 215:Drivers/STM32G4xx_HAL_Driver/Src/stm32g4xx_hal_comp.c **** 
 216:Drivers/STM32G4xx_HAL_Driver/Src/stm32g4xx_hal_comp.c **** @endverbatim
 217:Drivers/STM32G4xx_HAL_Driver/Src/stm32g4xx_hal_comp.c ****   * @{
 218:Drivers/STM32G4xx_HAL_Driver/Src/stm32g4xx_hal_comp.c ****   */
 219:Drivers/STM32G4xx_HAL_Driver/Src/stm32g4xx_hal_comp.c **** 
 220:Drivers/STM32G4xx_HAL_Driver/Src/stm32g4xx_hal_comp.c **** /**
 221:Drivers/STM32G4xx_HAL_Driver/Src/stm32g4xx_hal_comp.c ****   * @brief  Initialize the COMP according to the specified
 222:Drivers/STM32G4xx_HAL_Driver/Src/stm32g4xx_hal_comp.c ****   *         parameters in the COMP_InitTypeDef and initialize the associated handle.
 223:Drivers/STM32G4xx_HAL_Driver/Src/stm32g4xx_hal_comp.c ****   * @note   If the selected comparator is locked, initialization can't be performed.
 224:Drivers/STM32G4xx_HAL_Driver/Src/stm32g4xx_hal_comp.c ****   *         To unlock the configuration, perform a system reset.
 225:Drivers/STM32G4xx_HAL_Driver/Src/stm32g4xx_hal_comp.c ****   * @param  hcomp  COMP handle
 226:Drivers/STM32G4xx_HAL_Driver/Src/stm32g4xx_hal_comp.c ****   * @retval HAL status
 227:Drivers/STM32G4xx_HAL_Driver/Src/stm32g4xx_hal_comp.c ****   */
 228:Drivers/STM32G4xx_HAL_Driver/Src/stm32g4xx_hal_comp.c **** HAL_StatusTypeDef HAL_COMP_Init(COMP_HandleTypeDef *hcomp)
 229:Drivers/STM32G4xx_HAL_Driver/Src/stm32g4xx_hal_comp.c **** {
 230:Drivers/STM32G4xx_HAL_Driver/Src/stm32g4xx_hal_comp.c ****   uint32_t tmp_csr;
 231:Drivers/STM32G4xx_HAL_Driver/Src/stm32g4xx_hal_comp.c ****   uint32_t exti_line;
 232:Drivers/STM32G4xx_HAL_Driver/Src/stm32g4xx_hal_comp.c ****   uint32_t comp_voltage_scaler_initialized; /* Value "0" if comparator voltage scaler is not initia
 233:Drivers/STM32G4xx_HAL_Driver/Src/stm32g4xx_hal_comp.c ****   __IO uint32_t wait_loop_index = 0UL;
 234:Drivers/STM32G4xx_HAL_Driver/Src/stm32g4xx_hal_comp.c ****   HAL_StatusTypeDef status = HAL_OK;
 235:Drivers/STM32G4xx_HAL_Driver/Src/stm32g4xx_hal_comp.c **** 
 236:Drivers/STM32G4xx_HAL_Driver/Src/stm32g4xx_hal_comp.c ****   /* Check the COMP handle allocation and lock status */
 237:Drivers/STM32G4xx_HAL_Driver/Src/stm32g4xx_hal_comp.c ****   if(hcomp == NULL)
 238:Drivers/STM32G4xx_HAL_Driver/Src/stm32g4xx_hal_comp.c ****   {
 239:Drivers/STM32G4xx_HAL_Driver/Src/stm32g4xx_hal_comp.c ****     status = HAL_ERROR;
 240:Drivers/STM32G4xx_HAL_Driver/Src/stm32g4xx_hal_comp.c ****   }
 241:Drivers/STM32G4xx_HAL_Driver/Src/stm32g4xx_hal_comp.c ****   else if(__HAL_COMP_IS_LOCKED(hcomp))
 242:Drivers/STM32G4xx_HAL_Driver/Src/stm32g4xx_hal_comp.c ****   {
 243:Drivers/STM32G4xx_HAL_Driver/Src/stm32g4xx_hal_comp.c ****     status = HAL_ERROR;
 244:Drivers/STM32G4xx_HAL_Driver/Src/stm32g4xx_hal_comp.c ****   }
 245:Drivers/STM32G4xx_HAL_Driver/Src/stm32g4xx_hal_comp.c ****   else
 246:Drivers/STM32G4xx_HAL_Driver/Src/stm32g4xx_hal_comp.c ****   {
 247:Drivers/STM32G4xx_HAL_Driver/Src/stm32g4xx_hal_comp.c ****     /* Check the parameters */
 248:Drivers/STM32G4xx_HAL_Driver/Src/stm32g4xx_hal_comp.c ****     assert_param(IS_COMP_ALL_INSTANCE(hcomp->Instance));
 249:Drivers/STM32G4xx_HAL_Driver/Src/stm32g4xx_hal_comp.c ****     assert_param(IS_COMP_INPUT_PLUS(hcomp->Instance, hcomp->Init.InputPlus));
 250:Drivers/STM32G4xx_HAL_Driver/Src/stm32g4xx_hal_comp.c ****     assert_param(IS_COMP_INPUT_MINUS(hcomp->Instance, hcomp->Init.InputMinus));
 251:Drivers/STM32G4xx_HAL_Driver/Src/stm32g4xx_hal_comp.c ****     assert_param(IS_COMP_OUTPUTPOL(hcomp->Init.OutputPol));
 252:Drivers/STM32G4xx_HAL_Driver/Src/stm32g4xx_hal_comp.c ****     assert_param(IS_COMP_HYSTERESIS(hcomp->Init.Hysteresis));
 253:Drivers/STM32G4xx_HAL_Driver/Src/stm32g4xx_hal_comp.c ****     assert_param(IS_COMP_BLANKINGSRC_INSTANCE(hcomp->Instance, hcomp->Init.BlankingSrce));
 254:Drivers/STM32G4xx_HAL_Driver/Src/stm32g4xx_hal_comp.c ****     assert_param(IS_COMP_TRIGGERMODE(hcomp->Init.TriggerMode));
 255:Drivers/STM32G4xx_HAL_Driver/Src/stm32g4xx_hal_comp.c **** 
 256:Drivers/STM32G4xx_HAL_Driver/Src/stm32g4xx_hal_comp.c ****     if(hcomp->State == HAL_COMP_STATE_RESET)
 257:Drivers/STM32G4xx_HAL_Driver/Src/stm32g4xx_hal_comp.c ****     {
ARM GAS  /tmp/ccGmUGHU.s 			page 6


 258:Drivers/STM32G4xx_HAL_Driver/Src/stm32g4xx_hal_comp.c ****       /* Allocate lock resource and initialize it */
 259:Drivers/STM32G4xx_HAL_Driver/Src/stm32g4xx_hal_comp.c ****       hcomp->Lock = HAL_UNLOCKED;
 260:Drivers/STM32G4xx_HAL_Driver/Src/stm32g4xx_hal_comp.c **** 
 261:Drivers/STM32G4xx_HAL_Driver/Src/stm32g4xx_hal_comp.c ****       /* Set COMP error code to none */
 262:Drivers/STM32G4xx_HAL_Driver/Src/stm32g4xx_hal_comp.c ****       COMP_CLEAR_ERRORCODE(hcomp);
 263:Drivers/STM32G4xx_HAL_Driver/Src/stm32g4xx_hal_comp.c **** 
 264:Drivers/STM32G4xx_HAL_Driver/Src/stm32g4xx_hal_comp.c **** 
 265:Drivers/STM32G4xx_HAL_Driver/Src/stm32g4xx_hal_comp.c **** #if (USE_HAL_COMP_REGISTER_CALLBACKS == 1)
 266:Drivers/STM32G4xx_HAL_Driver/Src/stm32g4xx_hal_comp.c ****       /* Init the COMP Callback settings */
 267:Drivers/STM32G4xx_HAL_Driver/Src/stm32g4xx_hal_comp.c ****       hcomp->TriggerCallback = HAL_COMP_TriggerCallback; /* Legacy weak callback */
 268:Drivers/STM32G4xx_HAL_Driver/Src/stm32g4xx_hal_comp.c **** 
 269:Drivers/STM32G4xx_HAL_Driver/Src/stm32g4xx_hal_comp.c ****       if (hcomp->MspInitCallback == NULL)
 270:Drivers/STM32G4xx_HAL_Driver/Src/stm32g4xx_hal_comp.c ****       {
 271:Drivers/STM32G4xx_HAL_Driver/Src/stm32g4xx_hal_comp.c ****         hcomp->MspInitCallback = HAL_COMP_MspInit; /* Legacy weak MspInit  */
 272:Drivers/STM32G4xx_HAL_Driver/Src/stm32g4xx_hal_comp.c ****       }
 273:Drivers/STM32G4xx_HAL_Driver/Src/stm32g4xx_hal_comp.c **** 
 274:Drivers/STM32G4xx_HAL_Driver/Src/stm32g4xx_hal_comp.c ****       /* Init the low level hardware */
 275:Drivers/STM32G4xx_HAL_Driver/Src/stm32g4xx_hal_comp.c ****       /* Note: Internal control clock of the comparators must                 */
 276:Drivers/STM32G4xx_HAL_Driver/Src/stm32g4xx_hal_comp.c ****       /*       be enabled in "HAL_COMP_MspInit()"                             */
 277:Drivers/STM32G4xx_HAL_Driver/Src/stm32g4xx_hal_comp.c ****       /*       using "__HAL_RCC_SYSCFG_CLK_ENABLE()".                         */
 278:Drivers/STM32G4xx_HAL_Driver/Src/stm32g4xx_hal_comp.c ****       hcomp->MspInitCallback(hcomp);
 279:Drivers/STM32G4xx_HAL_Driver/Src/stm32g4xx_hal_comp.c **** #else
 280:Drivers/STM32G4xx_HAL_Driver/Src/stm32g4xx_hal_comp.c ****       /* Init the low level hardware */
 281:Drivers/STM32G4xx_HAL_Driver/Src/stm32g4xx_hal_comp.c ****       /* Note: Internal control clock of the comparators must                 */
 282:Drivers/STM32G4xx_HAL_Driver/Src/stm32g4xx_hal_comp.c ****       /*       be enabled in "HAL_COMP_MspInit()"                             */
 283:Drivers/STM32G4xx_HAL_Driver/Src/stm32g4xx_hal_comp.c ****       /*       using "__HAL_RCC_SYSCFG_CLK_ENABLE()".                         */
 284:Drivers/STM32G4xx_HAL_Driver/Src/stm32g4xx_hal_comp.c ****       HAL_COMP_MspInit(hcomp);
 285:Drivers/STM32G4xx_HAL_Driver/Src/stm32g4xx_hal_comp.c **** #endif /* USE_HAL_COMP_REGISTER_CALLBACKS */
 286:Drivers/STM32G4xx_HAL_Driver/Src/stm32g4xx_hal_comp.c ****     }
 287:Drivers/STM32G4xx_HAL_Driver/Src/stm32g4xx_hal_comp.c **** 
 288:Drivers/STM32G4xx_HAL_Driver/Src/stm32g4xx_hal_comp.c ****     /* Memorize voltage scaler state before initialization */
 289:Drivers/STM32G4xx_HAL_Driver/Src/stm32g4xx_hal_comp.c ****     comp_voltage_scaler_initialized = READ_BIT(hcomp->Instance->CSR, COMP_CSR_SCALEN);
 290:Drivers/STM32G4xx_HAL_Driver/Src/stm32g4xx_hal_comp.c **** 
 291:Drivers/STM32G4xx_HAL_Driver/Src/stm32g4xx_hal_comp.c ****     /* Set COMP parameters */
 292:Drivers/STM32G4xx_HAL_Driver/Src/stm32g4xx_hal_comp.c ****     tmp_csr = (  hcomp->Init.InputMinus
 293:Drivers/STM32G4xx_HAL_Driver/Src/stm32g4xx_hal_comp.c ****                | hcomp->Init.InputPlus
 294:Drivers/STM32G4xx_HAL_Driver/Src/stm32g4xx_hal_comp.c ****                | hcomp->Init.BlankingSrce
 295:Drivers/STM32G4xx_HAL_Driver/Src/stm32g4xx_hal_comp.c ****                | hcomp->Init.Hysteresis
 296:Drivers/STM32G4xx_HAL_Driver/Src/stm32g4xx_hal_comp.c ****                | hcomp->Init.OutputPol
 297:Drivers/STM32G4xx_HAL_Driver/Src/stm32g4xx_hal_comp.c ****               );
 298:Drivers/STM32G4xx_HAL_Driver/Src/stm32g4xx_hal_comp.c **** 
 299:Drivers/STM32G4xx_HAL_Driver/Src/stm32g4xx_hal_comp.c ****     /* Set parameters in COMP register */
 300:Drivers/STM32G4xx_HAL_Driver/Src/stm32g4xx_hal_comp.c ****     /* Note: Update all bits except read-only, lock and enable bits */
 301:Drivers/STM32G4xx_HAL_Driver/Src/stm32g4xx_hal_comp.c ****     MODIFY_REG(hcomp->Instance->CSR,
 302:Drivers/STM32G4xx_HAL_Driver/Src/stm32g4xx_hal_comp.c ****                COMP_CSR_INMSEL   | COMP_CSR_INPSEL |
 303:Drivers/STM32G4xx_HAL_Driver/Src/stm32g4xx_hal_comp.c ****                COMP_CSR_POLARITY | COMP_CSR_HYST   |
 304:Drivers/STM32G4xx_HAL_Driver/Src/stm32g4xx_hal_comp.c ****                COMP_CSR_BLANKING | COMP_CSR_BRGEN  | COMP_CSR_SCALEN,
 305:Drivers/STM32G4xx_HAL_Driver/Src/stm32g4xx_hal_comp.c ****                tmp_csr
 306:Drivers/STM32G4xx_HAL_Driver/Src/stm32g4xx_hal_comp.c ****               );
 307:Drivers/STM32G4xx_HAL_Driver/Src/stm32g4xx_hal_comp.c **** 
 308:Drivers/STM32G4xx_HAL_Driver/Src/stm32g4xx_hal_comp.c ****     /* Delay for COMP scaler bridge voltage stabilization */
 309:Drivers/STM32G4xx_HAL_Driver/Src/stm32g4xx_hal_comp.c ****     /* Apply the delay if voltage scaler bridge is required and not already enabled */
 310:Drivers/STM32G4xx_HAL_Driver/Src/stm32g4xx_hal_comp.c ****     if ((READ_BIT(hcomp->Instance->CSR, COMP_CSR_SCALEN) != 0UL) &&
 311:Drivers/STM32G4xx_HAL_Driver/Src/stm32g4xx_hal_comp.c ****         (comp_voltage_scaler_initialized == 0UL)               )
 312:Drivers/STM32G4xx_HAL_Driver/Src/stm32g4xx_hal_comp.c ****     {
 313:Drivers/STM32G4xx_HAL_Driver/Src/stm32g4xx_hal_comp.c ****       /* Wait loop initialization and execution */
 314:Drivers/STM32G4xx_HAL_Driver/Src/stm32g4xx_hal_comp.c ****       /* Note: Variable divided by 2 to compensate partially              */
ARM GAS  /tmp/ccGmUGHU.s 			page 7


 315:Drivers/STM32G4xx_HAL_Driver/Src/stm32g4xx_hal_comp.c ****       /*       CPU processing cycles, scaling in us split to not          */
 316:Drivers/STM32G4xx_HAL_Driver/Src/stm32g4xx_hal_comp.c ****       /*       exceed 32 bits register capacity and handle low frequency. */
 317:Drivers/STM32G4xx_HAL_Driver/Src/stm32g4xx_hal_comp.c ****       wait_loop_index = ((COMP_DELAY_VOLTAGE_SCALER_STAB_US / 10UL) * (SystemCoreClock / (100000UL 
 318:Drivers/STM32G4xx_HAL_Driver/Src/stm32g4xx_hal_comp.c ****       while(wait_loop_index != 0UL)
 319:Drivers/STM32G4xx_HAL_Driver/Src/stm32g4xx_hal_comp.c ****       {
 320:Drivers/STM32G4xx_HAL_Driver/Src/stm32g4xx_hal_comp.c ****         wait_loop_index--;
 321:Drivers/STM32G4xx_HAL_Driver/Src/stm32g4xx_hal_comp.c ****       }
 322:Drivers/STM32G4xx_HAL_Driver/Src/stm32g4xx_hal_comp.c ****     }
 323:Drivers/STM32G4xx_HAL_Driver/Src/stm32g4xx_hal_comp.c **** 
 324:Drivers/STM32G4xx_HAL_Driver/Src/stm32g4xx_hal_comp.c ****     /* Get the EXTI line corresponding to the selected COMP instance */
 325:Drivers/STM32G4xx_HAL_Driver/Src/stm32g4xx_hal_comp.c ****     exti_line = COMP_GET_EXTI_LINE(hcomp->Instance);
 326:Drivers/STM32G4xx_HAL_Driver/Src/stm32g4xx_hal_comp.c **** 
 327:Drivers/STM32G4xx_HAL_Driver/Src/stm32g4xx_hal_comp.c ****     /* Manage EXTI settings */
 328:Drivers/STM32G4xx_HAL_Driver/Src/stm32g4xx_hal_comp.c ****     if((hcomp->Init.TriggerMode & (COMP_EXTI_IT | COMP_EXTI_EVENT)) != 0UL)
 329:Drivers/STM32G4xx_HAL_Driver/Src/stm32g4xx_hal_comp.c ****     {
 330:Drivers/STM32G4xx_HAL_Driver/Src/stm32g4xx_hal_comp.c ****       /* Configure EXTI rising edge */
 331:Drivers/STM32G4xx_HAL_Driver/Src/stm32g4xx_hal_comp.c ****       if((hcomp->Init.TriggerMode & COMP_EXTI_RISING) != 0UL)
 332:Drivers/STM32G4xx_HAL_Driver/Src/stm32g4xx_hal_comp.c ****       {
 333:Drivers/STM32G4xx_HAL_Driver/Src/stm32g4xx_hal_comp.c **** #if defined(STM32G474xx) || defined(STM32G484xx) || defined(STM32G473xx) || defined(STM32G483xx)
 334:Drivers/STM32G4xx_HAL_Driver/Src/stm32g4xx_hal_comp.c ****         if((hcomp->Instance == COMP6) || (hcomp->Instance == COMP7))
 335:Drivers/STM32G4xx_HAL_Driver/Src/stm32g4xx_hal_comp.c ****         {
 336:Drivers/STM32G4xx_HAL_Driver/Src/stm32g4xx_hal_comp.c ****           LL_EXTI_EnableRisingTrig_32_63(exti_line);
 337:Drivers/STM32G4xx_HAL_Driver/Src/stm32g4xx_hal_comp.c ****         }
 338:Drivers/STM32G4xx_HAL_Driver/Src/stm32g4xx_hal_comp.c ****         else
 339:Drivers/STM32G4xx_HAL_Driver/Src/stm32g4xx_hal_comp.c ****         {
 340:Drivers/STM32G4xx_HAL_Driver/Src/stm32g4xx_hal_comp.c ****           LL_EXTI_EnableRisingTrig_0_31(exti_line);
 341:Drivers/STM32G4xx_HAL_Driver/Src/stm32g4xx_hal_comp.c ****         }
 342:Drivers/STM32G4xx_HAL_Driver/Src/stm32g4xx_hal_comp.c **** #else
 343:Drivers/STM32G4xx_HAL_Driver/Src/stm32g4xx_hal_comp.c ****         LL_EXTI_EnableRisingTrig_0_31(exti_line);
 344:Drivers/STM32G4xx_HAL_Driver/Src/stm32g4xx_hal_comp.c **** #endif
 345:Drivers/STM32G4xx_HAL_Driver/Src/stm32g4xx_hal_comp.c ****       }
 346:Drivers/STM32G4xx_HAL_Driver/Src/stm32g4xx_hal_comp.c ****       else
 347:Drivers/STM32G4xx_HAL_Driver/Src/stm32g4xx_hal_comp.c ****       {
 348:Drivers/STM32G4xx_HAL_Driver/Src/stm32g4xx_hal_comp.c **** #if defined(STM32G474xx) || defined(STM32G484xx) || defined(STM32G473xx) || defined(STM32G483xx)
 349:Drivers/STM32G4xx_HAL_Driver/Src/stm32g4xx_hal_comp.c ****         if((hcomp->Instance == COMP6) || (hcomp->Instance == COMP7))
 350:Drivers/STM32G4xx_HAL_Driver/Src/stm32g4xx_hal_comp.c ****         {
 351:Drivers/STM32G4xx_HAL_Driver/Src/stm32g4xx_hal_comp.c ****           LL_EXTI_DisableRisingTrig_32_63(exti_line);
 352:Drivers/STM32G4xx_HAL_Driver/Src/stm32g4xx_hal_comp.c ****         }
 353:Drivers/STM32G4xx_HAL_Driver/Src/stm32g4xx_hal_comp.c ****         else
 354:Drivers/STM32G4xx_HAL_Driver/Src/stm32g4xx_hal_comp.c ****         {
 355:Drivers/STM32G4xx_HAL_Driver/Src/stm32g4xx_hal_comp.c ****           LL_EXTI_DisableRisingTrig_0_31(exti_line);
 356:Drivers/STM32G4xx_HAL_Driver/Src/stm32g4xx_hal_comp.c ****         }
 357:Drivers/STM32G4xx_HAL_Driver/Src/stm32g4xx_hal_comp.c **** #else
 358:Drivers/STM32G4xx_HAL_Driver/Src/stm32g4xx_hal_comp.c ****         LL_EXTI_DisableRisingTrig_0_31(exti_line);
 359:Drivers/STM32G4xx_HAL_Driver/Src/stm32g4xx_hal_comp.c **** #endif
 360:Drivers/STM32G4xx_HAL_Driver/Src/stm32g4xx_hal_comp.c ****       }
 361:Drivers/STM32G4xx_HAL_Driver/Src/stm32g4xx_hal_comp.c **** 
 362:Drivers/STM32G4xx_HAL_Driver/Src/stm32g4xx_hal_comp.c ****       /* Configure EXTI falling edge */
 363:Drivers/STM32G4xx_HAL_Driver/Src/stm32g4xx_hal_comp.c ****       if((hcomp->Init.TriggerMode & COMP_EXTI_FALLING) != 0UL)
 364:Drivers/STM32G4xx_HAL_Driver/Src/stm32g4xx_hal_comp.c ****       {
 365:Drivers/STM32G4xx_HAL_Driver/Src/stm32g4xx_hal_comp.c **** #if defined(STM32G474xx) || defined(STM32G484xx) || defined(STM32G473xx) || defined(STM32G483xx)
 366:Drivers/STM32G4xx_HAL_Driver/Src/stm32g4xx_hal_comp.c ****         if((hcomp->Instance == COMP6) || (hcomp->Instance == COMP7))
 367:Drivers/STM32G4xx_HAL_Driver/Src/stm32g4xx_hal_comp.c ****         {
 368:Drivers/STM32G4xx_HAL_Driver/Src/stm32g4xx_hal_comp.c ****           LL_EXTI_EnableFallingTrig_32_63(exti_line);
 369:Drivers/STM32G4xx_HAL_Driver/Src/stm32g4xx_hal_comp.c ****         }
 370:Drivers/STM32G4xx_HAL_Driver/Src/stm32g4xx_hal_comp.c ****         else
 371:Drivers/STM32G4xx_HAL_Driver/Src/stm32g4xx_hal_comp.c ****         {
ARM GAS  /tmp/ccGmUGHU.s 			page 8


 372:Drivers/STM32G4xx_HAL_Driver/Src/stm32g4xx_hal_comp.c ****           LL_EXTI_EnableFallingTrig_0_31(exti_line);
 373:Drivers/STM32G4xx_HAL_Driver/Src/stm32g4xx_hal_comp.c ****         }
 374:Drivers/STM32G4xx_HAL_Driver/Src/stm32g4xx_hal_comp.c **** #else
 375:Drivers/STM32G4xx_HAL_Driver/Src/stm32g4xx_hal_comp.c ****         LL_EXTI_EnableFallingTrig_0_31(exti_line);
 376:Drivers/STM32G4xx_HAL_Driver/Src/stm32g4xx_hal_comp.c **** #endif
 377:Drivers/STM32G4xx_HAL_Driver/Src/stm32g4xx_hal_comp.c ****       }
 378:Drivers/STM32G4xx_HAL_Driver/Src/stm32g4xx_hal_comp.c ****       else
 379:Drivers/STM32G4xx_HAL_Driver/Src/stm32g4xx_hal_comp.c ****       {
 380:Drivers/STM32G4xx_HAL_Driver/Src/stm32g4xx_hal_comp.c **** #if defined(STM32G474xx) || defined(STM32G484xx) || defined(STM32G473xx) || defined(STM32G483xx)
 381:Drivers/STM32G4xx_HAL_Driver/Src/stm32g4xx_hal_comp.c ****         if((hcomp->Instance == COMP6) || (hcomp->Instance == COMP7))
 382:Drivers/STM32G4xx_HAL_Driver/Src/stm32g4xx_hal_comp.c ****         {
 383:Drivers/STM32G4xx_HAL_Driver/Src/stm32g4xx_hal_comp.c ****           LL_EXTI_DisableFallingTrig_32_63(exti_line);
 384:Drivers/STM32G4xx_HAL_Driver/Src/stm32g4xx_hal_comp.c ****         }
 385:Drivers/STM32G4xx_HAL_Driver/Src/stm32g4xx_hal_comp.c ****         else
 386:Drivers/STM32G4xx_HAL_Driver/Src/stm32g4xx_hal_comp.c ****         {
 387:Drivers/STM32G4xx_HAL_Driver/Src/stm32g4xx_hal_comp.c ****           LL_EXTI_DisableFallingTrig_0_31(exti_line);
 388:Drivers/STM32G4xx_HAL_Driver/Src/stm32g4xx_hal_comp.c ****         }
 389:Drivers/STM32G4xx_HAL_Driver/Src/stm32g4xx_hal_comp.c **** #else
 390:Drivers/STM32G4xx_HAL_Driver/Src/stm32g4xx_hal_comp.c ****         LL_EXTI_DisableFallingTrig_0_31(exti_line);
 391:Drivers/STM32G4xx_HAL_Driver/Src/stm32g4xx_hal_comp.c **** #endif
 392:Drivers/STM32G4xx_HAL_Driver/Src/stm32g4xx_hal_comp.c ****       }
 393:Drivers/STM32G4xx_HAL_Driver/Src/stm32g4xx_hal_comp.c **** 
 394:Drivers/STM32G4xx_HAL_Driver/Src/stm32g4xx_hal_comp.c ****       /* Clear COMP EXTI pending bit (if any) */
 395:Drivers/STM32G4xx_HAL_Driver/Src/stm32g4xx_hal_comp.c **** #if defined(STM32G474xx) || defined(STM32G484xx) || defined(STM32G473xx) || defined(STM32G483xx)
 396:Drivers/STM32G4xx_HAL_Driver/Src/stm32g4xx_hal_comp.c ****       if((hcomp->Instance == COMP6) || (hcomp->Instance == COMP7))
 397:Drivers/STM32G4xx_HAL_Driver/Src/stm32g4xx_hal_comp.c ****       {
 398:Drivers/STM32G4xx_HAL_Driver/Src/stm32g4xx_hal_comp.c ****         LL_EXTI_ClearFlag_32_63(exti_line);
 399:Drivers/STM32G4xx_HAL_Driver/Src/stm32g4xx_hal_comp.c ****       }
 400:Drivers/STM32G4xx_HAL_Driver/Src/stm32g4xx_hal_comp.c ****       else
 401:Drivers/STM32G4xx_HAL_Driver/Src/stm32g4xx_hal_comp.c ****       {
 402:Drivers/STM32G4xx_HAL_Driver/Src/stm32g4xx_hal_comp.c ****         LL_EXTI_ClearFlag_0_31(exti_line);
 403:Drivers/STM32G4xx_HAL_Driver/Src/stm32g4xx_hal_comp.c ****       }
 404:Drivers/STM32G4xx_HAL_Driver/Src/stm32g4xx_hal_comp.c **** #else
 405:Drivers/STM32G4xx_HAL_Driver/Src/stm32g4xx_hal_comp.c ****       LL_EXTI_ClearFlag_0_31(exti_line);
 406:Drivers/STM32G4xx_HAL_Driver/Src/stm32g4xx_hal_comp.c **** #endif
 407:Drivers/STM32G4xx_HAL_Driver/Src/stm32g4xx_hal_comp.c **** 
 408:Drivers/STM32G4xx_HAL_Driver/Src/stm32g4xx_hal_comp.c ****       /* Configure EXTI event mode */
 409:Drivers/STM32G4xx_HAL_Driver/Src/stm32g4xx_hal_comp.c ****       if((hcomp->Init.TriggerMode & COMP_EXTI_EVENT) != 0UL)
 410:Drivers/STM32G4xx_HAL_Driver/Src/stm32g4xx_hal_comp.c ****       {
 411:Drivers/STM32G4xx_HAL_Driver/Src/stm32g4xx_hal_comp.c **** #if defined(STM32G474xx) || defined(STM32G484xx) || defined(STM32G473xx) || defined(STM32G483xx)
 412:Drivers/STM32G4xx_HAL_Driver/Src/stm32g4xx_hal_comp.c ****         if((hcomp->Instance == COMP6) || (hcomp->Instance == COMP7))
 413:Drivers/STM32G4xx_HAL_Driver/Src/stm32g4xx_hal_comp.c ****         {
 414:Drivers/STM32G4xx_HAL_Driver/Src/stm32g4xx_hal_comp.c ****           LL_EXTI_EnableEvent_32_63(exti_line);
 415:Drivers/STM32G4xx_HAL_Driver/Src/stm32g4xx_hal_comp.c ****         }
 416:Drivers/STM32G4xx_HAL_Driver/Src/stm32g4xx_hal_comp.c ****         else
 417:Drivers/STM32G4xx_HAL_Driver/Src/stm32g4xx_hal_comp.c ****         {
 418:Drivers/STM32G4xx_HAL_Driver/Src/stm32g4xx_hal_comp.c ****           LL_EXTI_EnableEvent_0_31(exti_line);
 419:Drivers/STM32G4xx_HAL_Driver/Src/stm32g4xx_hal_comp.c ****         }
 420:Drivers/STM32G4xx_HAL_Driver/Src/stm32g4xx_hal_comp.c **** #else
 421:Drivers/STM32G4xx_HAL_Driver/Src/stm32g4xx_hal_comp.c ****         LL_EXTI_EnableEvent_0_31(exti_line);
 422:Drivers/STM32G4xx_HAL_Driver/Src/stm32g4xx_hal_comp.c **** #endif
 423:Drivers/STM32G4xx_HAL_Driver/Src/stm32g4xx_hal_comp.c ****       }
 424:Drivers/STM32G4xx_HAL_Driver/Src/stm32g4xx_hal_comp.c ****       else
 425:Drivers/STM32G4xx_HAL_Driver/Src/stm32g4xx_hal_comp.c ****       {
 426:Drivers/STM32G4xx_HAL_Driver/Src/stm32g4xx_hal_comp.c **** #if defined(STM32G474xx) || defined(STM32G484xx) || defined(STM32G473xx) || defined(STM32G483xx)
 427:Drivers/STM32G4xx_HAL_Driver/Src/stm32g4xx_hal_comp.c ****         if((hcomp->Instance == COMP6) || (hcomp->Instance == COMP7))
 428:Drivers/STM32G4xx_HAL_Driver/Src/stm32g4xx_hal_comp.c ****         {
ARM GAS  /tmp/ccGmUGHU.s 			page 9


 429:Drivers/STM32G4xx_HAL_Driver/Src/stm32g4xx_hal_comp.c ****           LL_EXTI_DisableEvent_32_63(exti_line);
 430:Drivers/STM32G4xx_HAL_Driver/Src/stm32g4xx_hal_comp.c ****         }
 431:Drivers/STM32G4xx_HAL_Driver/Src/stm32g4xx_hal_comp.c ****         else
 432:Drivers/STM32G4xx_HAL_Driver/Src/stm32g4xx_hal_comp.c ****         {
 433:Drivers/STM32G4xx_HAL_Driver/Src/stm32g4xx_hal_comp.c ****           LL_EXTI_DisableEvent_0_31(exti_line);
 434:Drivers/STM32G4xx_HAL_Driver/Src/stm32g4xx_hal_comp.c ****         }
 435:Drivers/STM32G4xx_HAL_Driver/Src/stm32g4xx_hal_comp.c **** #else
 436:Drivers/STM32G4xx_HAL_Driver/Src/stm32g4xx_hal_comp.c ****         LL_EXTI_DisableEvent_0_31(exti_line);
 437:Drivers/STM32G4xx_HAL_Driver/Src/stm32g4xx_hal_comp.c **** #endif
 438:Drivers/STM32G4xx_HAL_Driver/Src/stm32g4xx_hal_comp.c ****       }
 439:Drivers/STM32G4xx_HAL_Driver/Src/stm32g4xx_hal_comp.c **** 
 440:Drivers/STM32G4xx_HAL_Driver/Src/stm32g4xx_hal_comp.c ****       /* Configure EXTI interrupt mode */
 441:Drivers/STM32G4xx_HAL_Driver/Src/stm32g4xx_hal_comp.c ****       if((hcomp->Init.TriggerMode & COMP_EXTI_IT) != 0UL)
 442:Drivers/STM32G4xx_HAL_Driver/Src/stm32g4xx_hal_comp.c ****       {
 443:Drivers/STM32G4xx_HAL_Driver/Src/stm32g4xx_hal_comp.c **** #if defined(STM32G474xx) || defined(STM32G484xx) || defined(STM32G473xx) || defined(STM32G483xx)
 444:Drivers/STM32G4xx_HAL_Driver/Src/stm32g4xx_hal_comp.c ****         if((hcomp->Instance == COMP6) || (hcomp->Instance == COMP7))
 445:Drivers/STM32G4xx_HAL_Driver/Src/stm32g4xx_hal_comp.c ****         {
 446:Drivers/STM32G4xx_HAL_Driver/Src/stm32g4xx_hal_comp.c ****           LL_EXTI_EnableIT_32_63(exti_line);
 447:Drivers/STM32G4xx_HAL_Driver/Src/stm32g4xx_hal_comp.c ****         }
 448:Drivers/STM32G4xx_HAL_Driver/Src/stm32g4xx_hal_comp.c ****         else
 449:Drivers/STM32G4xx_HAL_Driver/Src/stm32g4xx_hal_comp.c ****         {
 450:Drivers/STM32G4xx_HAL_Driver/Src/stm32g4xx_hal_comp.c ****           LL_EXTI_EnableIT_0_31(exti_line);
 451:Drivers/STM32G4xx_HAL_Driver/Src/stm32g4xx_hal_comp.c ****         }
 452:Drivers/STM32G4xx_HAL_Driver/Src/stm32g4xx_hal_comp.c **** #else
 453:Drivers/STM32G4xx_HAL_Driver/Src/stm32g4xx_hal_comp.c ****         LL_EXTI_EnableIT_0_31(exti_line);
 454:Drivers/STM32G4xx_HAL_Driver/Src/stm32g4xx_hal_comp.c **** #endif
 455:Drivers/STM32G4xx_HAL_Driver/Src/stm32g4xx_hal_comp.c ****       }
 456:Drivers/STM32G4xx_HAL_Driver/Src/stm32g4xx_hal_comp.c ****       else
 457:Drivers/STM32G4xx_HAL_Driver/Src/stm32g4xx_hal_comp.c ****       {
 458:Drivers/STM32G4xx_HAL_Driver/Src/stm32g4xx_hal_comp.c **** #if defined(STM32G474xx) || defined(STM32G484xx) || defined(STM32G473xx) || defined(STM32G483xx)
 459:Drivers/STM32G4xx_HAL_Driver/Src/stm32g4xx_hal_comp.c ****         if((hcomp->Instance == COMP6) || (hcomp->Instance == COMP7))
 460:Drivers/STM32G4xx_HAL_Driver/Src/stm32g4xx_hal_comp.c ****         {
 461:Drivers/STM32G4xx_HAL_Driver/Src/stm32g4xx_hal_comp.c ****           LL_EXTI_DisableIT_32_63(exti_line);
 462:Drivers/STM32G4xx_HAL_Driver/Src/stm32g4xx_hal_comp.c ****         }
 463:Drivers/STM32G4xx_HAL_Driver/Src/stm32g4xx_hal_comp.c ****         else
 464:Drivers/STM32G4xx_HAL_Driver/Src/stm32g4xx_hal_comp.c ****         {
 465:Drivers/STM32G4xx_HAL_Driver/Src/stm32g4xx_hal_comp.c ****           LL_EXTI_DisableIT_0_31(exti_line);
 466:Drivers/STM32G4xx_HAL_Driver/Src/stm32g4xx_hal_comp.c ****         }
 467:Drivers/STM32G4xx_HAL_Driver/Src/stm32g4xx_hal_comp.c **** #else
 468:Drivers/STM32G4xx_HAL_Driver/Src/stm32g4xx_hal_comp.c ****         LL_EXTI_DisableIT_0_31(exti_line);
 469:Drivers/STM32G4xx_HAL_Driver/Src/stm32g4xx_hal_comp.c **** #endif
 470:Drivers/STM32G4xx_HAL_Driver/Src/stm32g4xx_hal_comp.c ****       }
 471:Drivers/STM32G4xx_HAL_Driver/Src/stm32g4xx_hal_comp.c ****     }
 472:Drivers/STM32G4xx_HAL_Driver/Src/stm32g4xx_hal_comp.c ****     else
 473:Drivers/STM32G4xx_HAL_Driver/Src/stm32g4xx_hal_comp.c ****     {
 474:Drivers/STM32G4xx_HAL_Driver/Src/stm32g4xx_hal_comp.c ****       /* Disable EXTI event mode */
 475:Drivers/STM32G4xx_HAL_Driver/Src/stm32g4xx_hal_comp.c **** #if defined(STM32G474xx) || defined(STM32G484xx) || defined(STM32G473xx) || defined(STM32G483xx)
 476:Drivers/STM32G4xx_HAL_Driver/Src/stm32g4xx_hal_comp.c ****       if((hcomp->Instance == COMP6) || (hcomp->Instance == COMP7))
 477:Drivers/STM32G4xx_HAL_Driver/Src/stm32g4xx_hal_comp.c ****       {
 478:Drivers/STM32G4xx_HAL_Driver/Src/stm32g4xx_hal_comp.c ****         LL_EXTI_DisableEvent_32_63(exti_line);
 479:Drivers/STM32G4xx_HAL_Driver/Src/stm32g4xx_hal_comp.c ****       }
 480:Drivers/STM32G4xx_HAL_Driver/Src/stm32g4xx_hal_comp.c ****       else
 481:Drivers/STM32G4xx_HAL_Driver/Src/stm32g4xx_hal_comp.c ****       {
 482:Drivers/STM32G4xx_HAL_Driver/Src/stm32g4xx_hal_comp.c ****         LL_EXTI_DisableEvent_0_31(exti_line);
 483:Drivers/STM32G4xx_HAL_Driver/Src/stm32g4xx_hal_comp.c ****       }
 484:Drivers/STM32G4xx_HAL_Driver/Src/stm32g4xx_hal_comp.c **** #else
 485:Drivers/STM32G4xx_HAL_Driver/Src/stm32g4xx_hal_comp.c ****       LL_EXTI_DisableEvent_0_31(exti_line);
ARM GAS  /tmp/ccGmUGHU.s 			page 10


 486:Drivers/STM32G4xx_HAL_Driver/Src/stm32g4xx_hal_comp.c **** #endif
 487:Drivers/STM32G4xx_HAL_Driver/Src/stm32g4xx_hal_comp.c **** 
 488:Drivers/STM32G4xx_HAL_Driver/Src/stm32g4xx_hal_comp.c ****       /* Disable EXTI interrupt mode */
 489:Drivers/STM32G4xx_HAL_Driver/Src/stm32g4xx_hal_comp.c **** #if defined(STM32G474xx) || defined(STM32G484xx) || defined(STM32G473xx) || defined(STM32G483xx)
 490:Drivers/STM32G4xx_HAL_Driver/Src/stm32g4xx_hal_comp.c ****       if((hcomp->Instance == COMP6) || (hcomp->Instance == COMP7))
 491:Drivers/STM32G4xx_HAL_Driver/Src/stm32g4xx_hal_comp.c ****       {
 492:Drivers/STM32G4xx_HAL_Driver/Src/stm32g4xx_hal_comp.c ****         LL_EXTI_DisableIT_32_63(exti_line);
 493:Drivers/STM32G4xx_HAL_Driver/Src/stm32g4xx_hal_comp.c ****       }
 494:Drivers/STM32G4xx_HAL_Driver/Src/stm32g4xx_hal_comp.c ****       else
 495:Drivers/STM32G4xx_HAL_Driver/Src/stm32g4xx_hal_comp.c ****       {
 496:Drivers/STM32G4xx_HAL_Driver/Src/stm32g4xx_hal_comp.c ****         LL_EXTI_DisableIT_0_31(exti_line);
 497:Drivers/STM32G4xx_HAL_Driver/Src/stm32g4xx_hal_comp.c ****       }
 498:Drivers/STM32G4xx_HAL_Driver/Src/stm32g4xx_hal_comp.c **** #else
 499:Drivers/STM32G4xx_HAL_Driver/Src/stm32g4xx_hal_comp.c ****       LL_EXTI_DisableIT_0_31(exti_line);
 500:Drivers/STM32G4xx_HAL_Driver/Src/stm32g4xx_hal_comp.c **** #endif
 501:Drivers/STM32G4xx_HAL_Driver/Src/stm32g4xx_hal_comp.c ****     }
 502:Drivers/STM32G4xx_HAL_Driver/Src/stm32g4xx_hal_comp.c **** 
 503:Drivers/STM32G4xx_HAL_Driver/Src/stm32g4xx_hal_comp.c ****     /* Set HAL COMP handle state */
 504:Drivers/STM32G4xx_HAL_Driver/Src/stm32g4xx_hal_comp.c ****     /* Note: Transition from state reset to state ready,                      */
 505:Drivers/STM32G4xx_HAL_Driver/Src/stm32g4xx_hal_comp.c ****     /*       otherwise (coming from state ready or busy) no state update.     */
 506:Drivers/STM32G4xx_HAL_Driver/Src/stm32g4xx_hal_comp.c ****     if (hcomp->State == HAL_COMP_STATE_RESET)
 507:Drivers/STM32G4xx_HAL_Driver/Src/stm32g4xx_hal_comp.c ****     {
 508:Drivers/STM32G4xx_HAL_Driver/Src/stm32g4xx_hal_comp.c ****       hcomp->State = HAL_COMP_STATE_READY;
 509:Drivers/STM32G4xx_HAL_Driver/Src/stm32g4xx_hal_comp.c ****     }
 510:Drivers/STM32G4xx_HAL_Driver/Src/stm32g4xx_hal_comp.c ****   }
 511:Drivers/STM32G4xx_HAL_Driver/Src/stm32g4xx_hal_comp.c **** 
 512:Drivers/STM32G4xx_HAL_Driver/Src/stm32g4xx_hal_comp.c ****   return status;
 513:Drivers/STM32G4xx_HAL_Driver/Src/stm32g4xx_hal_comp.c **** }
 514:Drivers/STM32G4xx_HAL_Driver/Src/stm32g4xx_hal_comp.c **** 
 515:Drivers/STM32G4xx_HAL_Driver/Src/stm32g4xx_hal_comp.c **** /**
 516:Drivers/STM32G4xx_HAL_Driver/Src/stm32g4xx_hal_comp.c ****   * @brief  DeInitialize the COMP peripheral.
 517:Drivers/STM32G4xx_HAL_Driver/Src/stm32g4xx_hal_comp.c ****   * @note   Deinitialization cannot be performed if the COMP configuration is locked.
 518:Drivers/STM32G4xx_HAL_Driver/Src/stm32g4xx_hal_comp.c ****   *         To unlock the configuration, perform a system reset.
 519:Drivers/STM32G4xx_HAL_Driver/Src/stm32g4xx_hal_comp.c ****   * @param  hcomp  COMP handle
 520:Drivers/STM32G4xx_HAL_Driver/Src/stm32g4xx_hal_comp.c ****   * @retval HAL status
 521:Drivers/STM32G4xx_HAL_Driver/Src/stm32g4xx_hal_comp.c ****   */
 522:Drivers/STM32G4xx_HAL_Driver/Src/stm32g4xx_hal_comp.c **** HAL_StatusTypeDef HAL_COMP_DeInit(COMP_HandleTypeDef *hcomp)
 523:Drivers/STM32G4xx_HAL_Driver/Src/stm32g4xx_hal_comp.c **** {
 524:Drivers/STM32G4xx_HAL_Driver/Src/stm32g4xx_hal_comp.c ****   HAL_StatusTypeDef status = HAL_OK;
 525:Drivers/STM32G4xx_HAL_Driver/Src/stm32g4xx_hal_comp.c **** 
 526:Drivers/STM32G4xx_HAL_Driver/Src/stm32g4xx_hal_comp.c ****   /* Check the COMP handle allocation and lock status */
 527:Drivers/STM32G4xx_HAL_Driver/Src/stm32g4xx_hal_comp.c ****   if(hcomp == NULL)
 528:Drivers/STM32G4xx_HAL_Driver/Src/stm32g4xx_hal_comp.c ****   {
 529:Drivers/STM32G4xx_HAL_Driver/Src/stm32g4xx_hal_comp.c ****     status = HAL_ERROR;
 530:Drivers/STM32G4xx_HAL_Driver/Src/stm32g4xx_hal_comp.c ****   }
 531:Drivers/STM32G4xx_HAL_Driver/Src/stm32g4xx_hal_comp.c ****   else if(__HAL_COMP_IS_LOCKED(hcomp))
 532:Drivers/STM32G4xx_HAL_Driver/Src/stm32g4xx_hal_comp.c ****   {
 533:Drivers/STM32G4xx_HAL_Driver/Src/stm32g4xx_hal_comp.c ****     status = HAL_ERROR;
 534:Drivers/STM32G4xx_HAL_Driver/Src/stm32g4xx_hal_comp.c ****   }
 535:Drivers/STM32G4xx_HAL_Driver/Src/stm32g4xx_hal_comp.c ****   else
 536:Drivers/STM32G4xx_HAL_Driver/Src/stm32g4xx_hal_comp.c ****   {
 537:Drivers/STM32G4xx_HAL_Driver/Src/stm32g4xx_hal_comp.c ****     /* Check the parameter */
 538:Drivers/STM32G4xx_HAL_Driver/Src/stm32g4xx_hal_comp.c ****     assert_param(IS_COMP_ALL_INSTANCE(hcomp->Instance));
 539:Drivers/STM32G4xx_HAL_Driver/Src/stm32g4xx_hal_comp.c **** 
 540:Drivers/STM32G4xx_HAL_Driver/Src/stm32g4xx_hal_comp.c ****     /* Set COMP_CSR register to reset value */
 541:Drivers/STM32G4xx_HAL_Driver/Src/stm32g4xx_hal_comp.c ****     WRITE_REG(hcomp->Instance->CSR, 0x00000000UL);
 542:Drivers/STM32G4xx_HAL_Driver/Src/stm32g4xx_hal_comp.c **** 
ARM GAS  /tmp/ccGmUGHU.s 			page 11


 543:Drivers/STM32G4xx_HAL_Driver/Src/stm32g4xx_hal_comp.c **** #if (USE_HAL_COMP_REGISTER_CALLBACKS == 1)
 544:Drivers/STM32G4xx_HAL_Driver/Src/stm32g4xx_hal_comp.c ****     if (hcomp->MspDeInitCallback == NULL)
 545:Drivers/STM32G4xx_HAL_Driver/Src/stm32g4xx_hal_comp.c ****     {
 546:Drivers/STM32G4xx_HAL_Driver/Src/stm32g4xx_hal_comp.c ****       hcomp->MspDeInitCallback = HAL_COMP_MspDeInit; /* Legacy weak MspDeInit  */
 547:Drivers/STM32G4xx_HAL_Driver/Src/stm32g4xx_hal_comp.c ****     }
 548:Drivers/STM32G4xx_HAL_Driver/Src/stm32g4xx_hal_comp.c **** 
 549:Drivers/STM32G4xx_HAL_Driver/Src/stm32g4xx_hal_comp.c ****     /* DeInit the low level hardware: GPIO, RCC clock, NVIC */
 550:Drivers/STM32G4xx_HAL_Driver/Src/stm32g4xx_hal_comp.c ****     hcomp->MspDeInitCallback(hcomp);
 551:Drivers/STM32G4xx_HAL_Driver/Src/stm32g4xx_hal_comp.c **** #else
 552:Drivers/STM32G4xx_HAL_Driver/Src/stm32g4xx_hal_comp.c ****     /* DeInit the low level hardware: GPIO, RCC clock, NVIC */
 553:Drivers/STM32G4xx_HAL_Driver/Src/stm32g4xx_hal_comp.c ****     HAL_COMP_MspDeInit(hcomp);
 554:Drivers/STM32G4xx_HAL_Driver/Src/stm32g4xx_hal_comp.c **** #endif /* USE_HAL_COMP_REGISTER_CALLBACKS */
 555:Drivers/STM32G4xx_HAL_Driver/Src/stm32g4xx_hal_comp.c **** 
 556:Drivers/STM32G4xx_HAL_Driver/Src/stm32g4xx_hal_comp.c ****     /* Set HAL COMP handle state */
 557:Drivers/STM32G4xx_HAL_Driver/Src/stm32g4xx_hal_comp.c ****     hcomp->State = HAL_COMP_STATE_RESET;
 558:Drivers/STM32G4xx_HAL_Driver/Src/stm32g4xx_hal_comp.c **** 
 559:Drivers/STM32G4xx_HAL_Driver/Src/stm32g4xx_hal_comp.c ****     /* Release Lock */
 560:Drivers/STM32G4xx_HAL_Driver/Src/stm32g4xx_hal_comp.c ****     __HAL_UNLOCK(hcomp);
 561:Drivers/STM32G4xx_HAL_Driver/Src/stm32g4xx_hal_comp.c ****   }
 562:Drivers/STM32G4xx_HAL_Driver/Src/stm32g4xx_hal_comp.c **** 
 563:Drivers/STM32G4xx_HAL_Driver/Src/stm32g4xx_hal_comp.c ****   return status;
 564:Drivers/STM32G4xx_HAL_Driver/Src/stm32g4xx_hal_comp.c **** }
 565:Drivers/STM32G4xx_HAL_Driver/Src/stm32g4xx_hal_comp.c **** 
 566:Drivers/STM32G4xx_HAL_Driver/Src/stm32g4xx_hal_comp.c **** /**
 567:Drivers/STM32G4xx_HAL_Driver/Src/stm32g4xx_hal_comp.c ****   * @brief  Initialize the COMP MSP.
 568:Drivers/STM32G4xx_HAL_Driver/Src/stm32g4xx_hal_comp.c ****   * @param  hcomp  COMP handle
 569:Drivers/STM32G4xx_HAL_Driver/Src/stm32g4xx_hal_comp.c ****   * @retval None
 570:Drivers/STM32G4xx_HAL_Driver/Src/stm32g4xx_hal_comp.c ****   */
 571:Drivers/STM32G4xx_HAL_Driver/Src/stm32g4xx_hal_comp.c **** __weak void HAL_COMP_MspInit(COMP_HandleTypeDef *hcomp)
 572:Drivers/STM32G4xx_HAL_Driver/Src/stm32g4xx_hal_comp.c **** {
  30              		.loc 1 572 1 view -0
  31              		.cfi_startproc
  32              		@ args = 0, pretend = 0, frame = 0
  33              		@ frame_needed = 0, uses_anonymous_args = 0
  34              		@ link register save eliminated.
 573:Drivers/STM32G4xx_HAL_Driver/Src/stm32g4xx_hal_comp.c ****   /* Prevent unused argument(s) compilation warning */
 574:Drivers/STM32G4xx_HAL_Driver/Src/stm32g4xx_hal_comp.c ****   UNUSED(hcomp);
  35              		.loc 1 574 3 view .LVU1
 575:Drivers/STM32G4xx_HAL_Driver/Src/stm32g4xx_hal_comp.c **** 
 576:Drivers/STM32G4xx_HAL_Driver/Src/stm32g4xx_hal_comp.c ****   /* NOTE : This function should not be modified, when the callback is needed,
 577:Drivers/STM32G4xx_HAL_Driver/Src/stm32g4xx_hal_comp.c ****             the HAL_COMP_MspInit could be implemented in the user file
 578:Drivers/STM32G4xx_HAL_Driver/Src/stm32g4xx_hal_comp.c ****    */
 579:Drivers/STM32G4xx_HAL_Driver/Src/stm32g4xx_hal_comp.c **** }
  36              		.loc 1 579 1 is_stmt 0 view .LVU2
  37 0000 7047     		bx	lr
  38              		.cfi_endproc
  39              	.LFE164:
  41              		.section	.text.HAL_COMP_Init,"ax",%progbits
  42              		.align	1
  43              		.global	HAL_COMP_Init
  44              		.syntax unified
  45              		.thumb
  46              		.thumb_func
  47              		.fpu fpv4-sp-d16
  49              	HAL_COMP_Init:
  50              	.LVL1:
  51              	.LFB162:
ARM GAS  /tmp/ccGmUGHU.s 			page 12


 229:Drivers/STM32G4xx_HAL_Driver/Src/stm32g4xx_hal_comp.c ****   uint32_t tmp_csr;
  52              		.loc 1 229 1 is_stmt 1 view -0
  53              		.cfi_startproc
  54              		@ args = 0, pretend = 0, frame = 8
  55              		@ frame_needed = 0, uses_anonymous_args = 0
 229:Drivers/STM32G4xx_HAL_Driver/Src/stm32g4xx_hal_comp.c ****   uint32_t tmp_csr;
  56              		.loc 1 229 1 is_stmt 0 view .LVU4
  57 0000 30B5     		push	{r4, r5, lr}
  58              	.LCFI0:
  59              		.cfi_def_cfa_offset 12
  60              		.cfi_offset 4, -12
  61              		.cfi_offset 5, -8
  62              		.cfi_offset 14, -4
  63 0002 83B0     		sub	sp, sp, #12
  64              	.LCFI1:
  65              		.cfi_def_cfa_offset 24
 230:Drivers/STM32G4xx_HAL_Driver/Src/stm32g4xx_hal_comp.c ****   uint32_t exti_line;
  66              		.loc 1 230 3 is_stmt 1 view .LVU5
 231:Drivers/STM32G4xx_HAL_Driver/Src/stm32g4xx_hal_comp.c ****   uint32_t comp_voltage_scaler_initialized; /* Value "0" if comparator voltage scaler is not initia
  67              		.loc 1 231 3 view .LVU6
 232:Drivers/STM32G4xx_HAL_Driver/Src/stm32g4xx_hal_comp.c ****   __IO uint32_t wait_loop_index = 0UL;
  68              		.loc 1 232 3 view .LVU7
 233:Drivers/STM32G4xx_HAL_Driver/Src/stm32g4xx_hal_comp.c ****   HAL_StatusTypeDef status = HAL_OK;
  69              		.loc 1 233 3 view .LVU8
 233:Drivers/STM32G4xx_HAL_Driver/Src/stm32g4xx_hal_comp.c ****   HAL_StatusTypeDef status = HAL_OK;
  70              		.loc 1 233 17 is_stmt 0 view .LVU9
  71 0004 0023     		movs	r3, #0
  72 0006 0193     		str	r3, [sp, #4]
 234:Drivers/STM32G4xx_HAL_Driver/Src/stm32g4xx_hal_comp.c **** 
  73              		.loc 1 234 3 is_stmt 1 view .LVU10
  74              	.LVL2:
 237:Drivers/STM32G4xx_HAL_Driver/Src/stm32g4xx_hal_comp.c ****   {
  75              		.loc 1 237 3 view .LVU11
 237:Drivers/STM32G4xx_HAL_Driver/Src/stm32g4xx_hal_comp.c ****   {
  76              		.loc 1 237 5 is_stmt 0 view .LVU12
  77 0008 0028     		cmp	r0, #0
  78 000a 00F02F81 		beq	.L42
  79 000e 0446     		mov	r4, r0
 241:Drivers/STM32G4xx_HAL_Driver/Src/stm32g4xx_hal_comp.c ****   {
  80              		.loc 1 241 8 is_stmt 1 view .LVU13
 241:Drivers/STM32G4xx_HAL_Driver/Src/stm32g4xx_hal_comp.c ****   {
  81              		.loc 1 241 11 is_stmt 0 view .LVU14
  82 0010 0368     		ldr	r3, [r0]
  83 0012 1B68     		ldr	r3, [r3]
 241:Drivers/STM32G4xx_HAL_Driver/Src/stm32g4xx_hal_comp.c ****   {
  84              		.loc 1 241 10 view .LVU15
  85 0014 002B     		cmp	r3, #0
  86 0016 C0F22C81 		blt	.L43
 248:Drivers/STM32G4xx_HAL_Driver/Src/stm32g4xx_hal_comp.c ****     assert_param(IS_COMP_INPUT_PLUS(hcomp->Instance, hcomp->Init.InputPlus));
  87              		.loc 1 248 5 is_stmt 1 view .LVU16
 249:Drivers/STM32G4xx_HAL_Driver/Src/stm32g4xx_hal_comp.c ****     assert_param(IS_COMP_INPUT_MINUS(hcomp->Instance, hcomp->Init.InputMinus));
  88              		.loc 1 249 5 view .LVU17
 250:Drivers/STM32G4xx_HAL_Driver/Src/stm32g4xx_hal_comp.c ****     assert_param(IS_COMP_OUTPUTPOL(hcomp->Init.OutputPol));
  89              		.loc 1 250 5 view .LVU18
 251:Drivers/STM32G4xx_HAL_Driver/Src/stm32g4xx_hal_comp.c ****     assert_param(IS_COMP_HYSTERESIS(hcomp->Init.Hysteresis));
  90              		.loc 1 251 5 view .LVU19
 252:Drivers/STM32G4xx_HAL_Driver/Src/stm32g4xx_hal_comp.c ****     assert_param(IS_COMP_BLANKINGSRC_INSTANCE(hcomp->Instance, hcomp->Init.BlankingSrce));
ARM GAS  /tmp/ccGmUGHU.s 			page 13


  91              		.loc 1 252 5 view .LVU20
 253:Drivers/STM32G4xx_HAL_Driver/Src/stm32g4xx_hal_comp.c ****     assert_param(IS_COMP_TRIGGERMODE(hcomp->Init.TriggerMode));
  92              		.loc 1 253 5 view .LVU21
 254:Drivers/STM32G4xx_HAL_Driver/Src/stm32g4xx_hal_comp.c **** 
  93              		.loc 1 254 5 view .LVU22
 256:Drivers/STM32G4xx_HAL_Driver/Src/stm32g4xx_hal_comp.c ****     {
  94              		.loc 1 256 5 view .LVU23
 256:Drivers/STM32G4xx_HAL_Driver/Src/stm32g4xx_hal_comp.c ****     {
  95              		.loc 1 256 13 is_stmt 0 view .LVU24
  96 001a 437F     		ldrb	r3, [r0, #29]	@ zero_extendqisi2
 256:Drivers/STM32G4xx_HAL_Driver/Src/stm32g4xx_hal_comp.c ****     {
  97              		.loc 1 256 7 view .LVU25
  98 001c 43B3     		cbz	r3, .L52
  99              	.LVL3:
 100              	.L4:
 289:Drivers/STM32G4xx_HAL_Driver/Src/stm32g4xx_hal_comp.c **** 
 101              		.loc 1 289 5 is_stmt 1 view .LVU26
 289:Drivers/STM32G4xx_HAL_Driver/Src/stm32g4xx_hal_comp.c **** 
 102              		.loc 1 289 39 is_stmt 0 view .LVU27
 103 001e 2168     		ldr	r1, [r4]
 104 0020 0868     		ldr	r0, [r1]
 289:Drivers/STM32G4xx_HAL_Driver/Src/stm32g4xx_hal_comp.c **** 
 105              		.loc 1 289 37 view .LVU28
 106 0022 00F40000 		and	r0, r0, #8388608
 107              	.LVL4:
 292:Drivers/STM32G4xx_HAL_Driver/Src/stm32g4xx_hal_comp.c ****                | hcomp->Init.InputPlus
 108              		.loc 1 292 5 is_stmt 1 view .LVU29
 292:Drivers/STM32G4xx_HAL_Driver/Src/stm32g4xx_hal_comp.c ****                | hcomp->Init.InputPlus
 109              		.loc 1 292 29 is_stmt 0 view .LVU30
 110 0026 A368     		ldr	r3, [r4, #8]
 293:Drivers/STM32G4xx_HAL_Driver/Src/stm32g4xx_hal_comp.c ****                | hcomp->Init.BlankingSrce
 111              		.loc 1 293 29 view .LVU31
 112 0028 6268     		ldr	r2, [r4, #4]
 293:Drivers/STM32G4xx_HAL_Driver/Src/stm32g4xx_hal_comp.c ****                | hcomp->Init.BlankingSrce
 113              		.loc 1 293 16 view .LVU32
 114 002a 1343     		orrs	r3, r3, r2
 294:Drivers/STM32G4xx_HAL_Driver/Src/stm32g4xx_hal_comp.c ****                | hcomp->Init.Hysteresis
 115              		.loc 1 294 29 view .LVU33
 116 002c 6269     		ldr	r2, [r4, #20]
 294:Drivers/STM32G4xx_HAL_Driver/Src/stm32g4xx_hal_comp.c ****                | hcomp->Init.Hysteresis
 117              		.loc 1 294 16 view .LVU34
 118 002e 1343     		orrs	r3, r3, r2
 295:Drivers/STM32G4xx_HAL_Driver/Src/stm32g4xx_hal_comp.c ****                | hcomp->Init.OutputPol
 119              		.loc 1 295 29 view .LVU35
 120 0030 E268     		ldr	r2, [r4, #12]
 295:Drivers/STM32G4xx_HAL_Driver/Src/stm32g4xx_hal_comp.c ****                | hcomp->Init.OutputPol
 121              		.loc 1 295 16 view .LVU36
 122 0032 1343     		orrs	r3, r3, r2
 296:Drivers/STM32G4xx_HAL_Driver/Src/stm32g4xx_hal_comp.c ****               );
 123              		.loc 1 296 29 view .LVU37
 124 0034 2269     		ldr	r2, [r4, #16]
 292:Drivers/STM32G4xx_HAL_Driver/Src/stm32g4xx_hal_comp.c ****                | hcomp->Init.InputPlus
 125              		.loc 1 292 13 view .LVU38
 126 0036 1343     		orrs	r3, r3, r2
 127              	.LVL5:
 301:Drivers/STM32G4xx_HAL_Driver/Src/stm32g4xx_hal_comp.c ****                COMP_CSR_INMSEL   | COMP_CSR_INPSEL |
 128              		.loc 1 301 5 is_stmt 1 view .LVU39
ARM GAS  /tmp/ccGmUGHU.s 			page 14


 129 0038 0D68     		ldr	r5, [r1]
 130 003a 904A     		ldr	r2, .L54
 131 003c 2A40     		ands	r2, r2, r5
 132 003e 1343     		orrs	r3, r3, r2
 133              	.LVL6:
 301:Drivers/STM32G4xx_HAL_Driver/Src/stm32g4xx_hal_comp.c ****                COMP_CSR_INMSEL   | COMP_CSR_INPSEL |
 134              		.loc 1 301 5 is_stmt 0 view .LVU40
 135 0040 0B60     		str	r3, [r1]
 136              	.LVL7:
 310:Drivers/STM32G4xx_HAL_Driver/Src/stm32g4xx_hal_comp.c ****         (comp_voltage_scaler_initialized == 0UL)               )
 137              		.loc 1 310 5 is_stmt 1 view .LVU41
 310:Drivers/STM32G4xx_HAL_Driver/Src/stm32g4xx_hal_comp.c ****         (comp_voltage_scaler_initialized == 0UL)               )
 138              		.loc 1 310 10 is_stmt 0 view .LVU42
 139 0042 2268     		ldr	r2, [r4]
 140 0044 1368     		ldr	r3, [r2]
 310:Drivers/STM32G4xx_HAL_Driver/Src/stm32g4xx_hal_comp.c ****         (comp_voltage_scaler_initialized == 0UL)               )
 141              		.loc 1 310 8 view .LVU43
 142 0046 13F4000F 		tst	r3, #8388608
 143 004a 16D0     		beq	.L5
 310:Drivers/STM32G4xx_HAL_Driver/Src/stm32g4xx_hal_comp.c ****         (comp_voltage_scaler_initialized == 0UL)               )
 144              		.loc 1 310 66 discriminator 1 view .LVU44
 145 004c A8B9     		cbnz	r0, .L5
 317:Drivers/STM32G4xx_HAL_Driver/Src/stm32g4xx_hal_comp.c ****       while(wait_loop_index != 0UL)
 146              		.loc 1 317 7 is_stmt 1 view .LVU45
 317:Drivers/STM32G4xx_HAL_Driver/Src/stm32g4xx_hal_comp.c ****       while(wait_loop_index != 0UL)
 147              		.loc 1 317 88 is_stmt 0 view .LVU46
 148 004e 8C4B     		ldr	r3, .L54+4
 149 0050 1B68     		ldr	r3, [r3]
 150 0052 9B09     		lsrs	r3, r3, #6
 151 0054 8B49     		ldr	r1, .L54+8
 152 0056 A1FB0313 		umull	r1, r3, r1, r3
 153 005a 9B09     		lsrs	r3, r3, #6
 317:Drivers/STM32G4xx_HAL_Driver/Src/stm32g4xx_hal_comp.c ****       while(wait_loop_index != 0UL)
 154              		.loc 1 317 69 view .LVU47
 155 005c 03EB8303 		add	r3, r3, r3, lsl #2
 156 0060 9B00     		lsls	r3, r3, #2
 317:Drivers/STM32G4xx_HAL_Driver/Src/stm32g4xx_hal_comp.c ****       while(wait_loop_index != 0UL)
 157              		.loc 1 317 23 view .LVU48
 158 0062 0193     		str	r3, [sp, #4]
 318:Drivers/STM32G4xx_HAL_Driver/Src/stm32g4xx_hal_comp.c ****       {
 159              		.loc 1 318 7 is_stmt 1 view .LVU49
 160              	.L6:
 318:Drivers/STM32G4xx_HAL_Driver/Src/stm32g4xx_hal_comp.c ****       {
 161              		.loc 1 318 12 view .LVU50
 318:Drivers/STM32G4xx_HAL_Driver/Src/stm32g4xx_hal_comp.c ****       {
 162              		.loc 1 318 29 is_stmt 0 view .LVU51
 163 0064 019B     		ldr	r3, [sp, #4]
 318:Drivers/STM32G4xx_HAL_Driver/Src/stm32g4xx_hal_comp.c ****       {
 164              		.loc 1 318 12 view .LVU52
 165 0066 43B1     		cbz	r3, .L5
 320:Drivers/STM32G4xx_HAL_Driver/Src/stm32g4xx_hal_comp.c ****       }
 166              		.loc 1 320 9 is_stmt 1 view .LVU53
 320:Drivers/STM32G4xx_HAL_Driver/Src/stm32g4xx_hal_comp.c ****       }
 167              		.loc 1 320 24 is_stmt 0 view .LVU54
 168 0068 019B     		ldr	r3, [sp, #4]
 169 006a 013B     		subs	r3, r3, #1
 170 006c 0193     		str	r3, [sp, #4]
ARM GAS  /tmp/ccGmUGHU.s 			page 15


 171 006e F9E7     		b	.L6
 172              	.LVL8:
 173              	.L52:
 259:Drivers/STM32G4xx_HAL_Driver/Src/stm32g4xx_hal_comp.c **** 
 174              		.loc 1 259 7 is_stmt 1 view .LVU55
 259:Drivers/STM32G4xx_HAL_Driver/Src/stm32g4xx_hal_comp.c **** 
 175              		.loc 1 259 19 is_stmt 0 view .LVU56
 176 0070 0377     		strb	r3, [r0, #28]
 262:Drivers/STM32G4xx_HAL_Driver/Src/stm32g4xx_hal_comp.c **** 
 177              		.loc 1 262 7 is_stmt 1 view .LVU57
 178 0072 0362     		str	r3, [r0, #32]
 284:Drivers/STM32G4xx_HAL_Driver/Src/stm32g4xx_hal_comp.c **** #endif /* USE_HAL_COMP_REGISTER_CALLBACKS */
 179              		.loc 1 284 7 view .LVU58
 180 0074 FFF7FEFF 		bl	HAL_COMP_MspInit
 181              	.LVL9:
 284:Drivers/STM32G4xx_HAL_Driver/Src/stm32g4xx_hal_comp.c **** #endif /* USE_HAL_COMP_REGISTER_CALLBACKS */
 182              		.loc 1 284 7 is_stmt 0 view .LVU59
 183 0078 D1E7     		b	.L4
 184              	.LVL10:
 185              	.L5:
 325:Drivers/STM32G4xx_HAL_Driver/Src/stm32g4xx_hal_comp.c **** 
 186              		.loc 1 325 5 is_stmt 1 view .LVU60
 325:Drivers/STM32G4xx_HAL_Driver/Src/stm32g4xx_hal_comp.c **** 
 187              		.loc 1 325 17 is_stmt 0 view .LVU61
 188 007a 834B     		ldr	r3, .L54+12
 189 007c 9A42     		cmp	r2, r3
 190 007e 12D0     		beq	.L44
 325:Drivers/STM32G4xx_HAL_Driver/Src/stm32g4xx_hal_comp.c **** 
 191              		.loc 1 325 17 discriminator 1 view .LVU62
 192 0080 0433     		adds	r3, r3, #4
 193 0082 9A42     		cmp	r2, r3
 194 0084 24D0     		beq	.L45
 325:Drivers/STM32G4xx_HAL_Driver/Src/stm32g4xx_hal_comp.c **** 
 195              		.loc 1 325 17 discriminator 3 view .LVU63
 196 0086 0433     		adds	r3, r3, #4
 197 0088 9A42     		cmp	r2, r3
 198 008a 24D0     		beq	.L46
 325:Drivers/STM32G4xx_HAL_Driver/Src/stm32g4xx_hal_comp.c **** 
 199              		.loc 1 325 17 discriminator 5 view .LVU64
 200 008c 0433     		adds	r3, r3, #4
 201 008e 9A42     		cmp	r2, r3
 202 0090 24D0     		beq	.L47
 325:Drivers/STM32G4xx_HAL_Driver/Src/stm32g4xx_hal_comp.c **** 
 203              		.loc 1 325 17 discriminator 7 view .LVU65
 204 0092 0433     		adds	r3, r3, #4
 205 0094 9A42     		cmp	r2, r3
 206 0096 24D0     		beq	.L48
 325:Drivers/STM32G4xx_HAL_Driver/Src/stm32g4xx_hal_comp.c **** 
 207              		.loc 1 325 17 discriminator 9 view .LVU66
 208 0098 0433     		adds	r3, r3, #4
 209 009a 9A42     		cmp	r2, r3
 210 009c 01D0     		beq	.L53
 325:Drivers/STM32G4xx_HAL_Driver/Src/stm32g4xx_hal_comp.c **** 
 211              		.loc 1 325 17 view .LVU67
 212 009e 0223     		movs	r3, #2
 213 00a0 03E0     		b	.L8
 214              	.L53:
ARM GAS  /tmp/ccGmUGHU.s 			page 16


 215 00a2 0123     		movs	r3, #1
 216 00a4 01E0     		b	.L8
 217              	.L44:
 218 00a6 4FF40013 		mov	r3, #2097152
 219              	.L8:
 220              	.LVL11:
 328:Drivers/STM32G4xx_HAL_Driver/Src/stm32g4xx_hal_comp.c ****     {
 221              		.loc 1 328 5 is_stmt 1 discriminator 24 view .LVU68
 328:Drivers/STM32G4xx_HAL_Driver/Src/stm32g4xx_hal_comp.c ****     {
 222              		.loc 1 328 20 is_stmt 0 discriminator 24 view .LVU69
 223 00aa A169     		ldr	r1, [r4, #24]
 328:Drivers/STM32G4xx_HAL_Driver/Src/stm32g4xx_hal_comp.c ****     {
 224              		.loc 1 328 7 discriminator 24 view .LVU70
 225 00ac 11F0030F 		tst	r1, #3
 226 00b0 00F0B280 		beq	.L9
 331:Drivers/STM32G4xx_HAL_Driver/Src/stm32g4xx_hal_comp.c ****       {
 227              		.loc 1 331 7 is_stmt 1 view .LVU71
 331:Drivers/STM32G4xx_HAL_Driver/Src/stm32g4xx_hal_comp.c ****       {
 228              		.loc 1 331 9 is_stmt 0 view .LVU72
 229 00b4 11F0100F 		tst	r1, #16
 230 00b8 2AD0     		beq	.L10
 334:Drivers/STM32G4xx_HAL_Driver/Src/stm32g4xx_hal_comp.c ****         {
 231              		.loc 1 334 9 is_stmt 1 view .LVU73
 334:Drivers/STM32G4xx_HAL_Driver/Src/stm32g4xx_hal_comp.c ****         {
 232              		.loc 1 334 11 is_stmt 0 view .LVU74
 233 00ba 7449     		ldr	r1, .L54+16
 234 00bc 8A42     		cmp	r2, r1
 235 00be 13D0     		beq	.L11
 334:Drivers/STM32G4xx_HAL_Driver/Src/stm32g4xx_hal_comp.c ****         {
 236              		.loc 1 334 39 discriminator 1 view .LVU75
 237 00c0 0431     		adds	r1, r1, #4
 238 00c2 8A42     		cmp	r2, r1
 239 00c4 10D0     		beq	.L11
 340:Drivers/STM32G4xx_HAL_Driver/Src/stm32g4xx_hal_comp.c ****         }
 240              		.loc 1 340 11 is_stmt 1 view .LVU76
 241              	.LVL12:
 242              	.LBB54:
 243              	.LBI54:
 244              		.file 2 "Drivers/STM32G4xx_HAL_Driver/Inc/stm32g4xx_ll_exti.h"
   1:Drivers/STM32G4xx_HAL_Driver/Inc/stm32g4xx_ll_exti.h **** /**
   2:Drivers/STM32G4xx_HAL_Driver/Inc/stm32g4xx_ll_exti.h ****   ******************************************************************************
   3:Drivers/STM32G4xx_HAL_Driver/Inc/stm32g4xx_ll_exti.h ****   * @file    stm32g4xx_ll_exti.h
   4:Drivers/STM32G4xx_HAL_Driver/Inc/stm32g4xx_ll_exti.h ****   * @author  MCD Application Team
   5:Drivers/STM32G4xx_HAL_Driver/Inc/stm32g4xx_ll_exti.h ****   * @brief   Header file of EXTI LL module.
   6:Drivers/STM32G4xx_HAL_Driver/Inc/stm32g4xx_ll_exti.h ****   ******************************************************************************
   7:Drivers/STM32G4xx_HAL_Driver/Inc/stm32g4xx_ll_exti.h ****   * @attention
   8:Drivers/STM32G4xx_HAL_Driver/Inc/stm32g4xx_ll_exti.h ****   *
   9:Drivers/STM32G4xx_HAL_Driver/Inc/stm32g4xx_ll_exti.h ****   * <h2><center>&copy; Copyright (c) 2019 STMicroelectronics.
  10:Drivers/STM32G4xx_HAL_Driver/Inc/stm32g4xx_ll_exti.h ****   * All rights reserved.</center></h2>
  11:Drivers/STM32G4xx_HAL_Driver/Inc/stm32g4xx_ll_exti.h ****   *
  12:Drivers/STM32G4xx_HAL_Driver/Inc/stm32g4xx_ll_exti.h ****   * This software component is licensed by ST under BSD 3-Clause license,
  13:Drivers/STM32G4xx_HAL_Driver/Inc/stm32g4xx_ll_exti.h ****   * the "License"; You may not use this file except in compliance with the
  14:Drivers/STM32G4xx_HAL_Driver/Inc/stm32g4xx_ll_exti.h ****   * License. You may obtain a copy of the License at:
  15:Drivers/STM32G4xx_HAL_Driver/Inc/stm32g4xx_ll_exti.h ****   *                        opensource.org/licenses/BSD-3-Clause
  16:Drivers/STM32G4xx_HAL_Driver/Inc/stm32g4xx_ll_exti.h ****   *
  17:Drivers/STM32G4xx_HAL_Driver/Inc/stm32g4xx_ll_exti.h ****   ******************************************************************************
  18:Drivers/STM32G4xx_HAL_Driver/Inc/stm32g4xx_ll_exti.h ****   */
ARM GAS  /tmp/ccGmUGHU.s 			page 17


  19:Drivers/STM32G4xx_HAL_Driver/Inc/stm32g4xx_ll_exti.h **** 
  20:Drivers/STM32G4xx_HAL_Driver/Inc/stm32g4xx_ll_exti.h **** /* Define to prevent recursive inclusion -------------------------------------*/
  21:Drivers/STM32G4xx_HAL_Driver/Inc/stm32g4xx_ll_exti.h **** #ifndef __STM32G4xx_LL_EXTI_H
  22:Drivers/STM32G4xx_HAL_Driver/Inc/stm32g4xx_ll_exti.h **** #define __STM32G4xx_LL_EXTI_H
  23:Drivers/STM32G4xx_HAL_Driver/Inc/stm32g4xx_ll_exti.h **** 
  24:Drivers/STM32G4xx_HAL_Driver/Inc/stm32g4xx_ll_exti.h **** #ifdef __cplusplus
  25:Drivers/STM32G4xx_HAL_Driver/Inc/stm32g4xx_ll_exti.h **** extern "C" {
  26:Drivers/STM32G4xx_HAL_Driver/Inc/stm32g4xx_ll_exti.h **** #endif
  27:Drivers/STM32G4xx_HAL_Driver/Inc/stm32g4xx_ll_exti.h **** 
  28:Drivers/STM32G4xx_HAL_Driver/Inc/stm32g4xx_ll_exti.h **** /* Includes ------------------------------------------------------------------*/
  29:Drivers/STM32G4xx_HAL_Driver/Inc/stm32g4xx_ll_exti.h **** #include "stm32g4xx.h"
  30:Drivers/STM32G4xx_HAL_Driver/Inc/stm32g4xx_ll_exti.h **** 
  31:Drivers/STM32G4xx_HAL_Driver/Inc/stm32g4xx_ll_exti.h **** /** @addtogroup STM32G4xx_LL_Driver
  32:Drivers/STM32G4xx_HAL_Driver/Inc/stm32g4xx_ll_exti.h ****   * @{
  33:Drivers/STM32G4xx_HAL_Driver/Inc/stm32g4xx_ll_exti.h ****   */
  34:Drivers/STM32G4xx_HAL_Driver/Inc/stm32g4xx_ll_exti.h **** 
  35:Drivers/STM32G4xx_HAL_Driver/Inc/stm32g4xx_ll_exti.h **** #if defined (EXTI)
  36:Drivers/STM32G4xx_HAL_Driver/Inc/stm32g4xx_ll_exti.h **** 
  37:Drivers/STM32G4xx_HAL_Driver/Inc/stm32g4xx_ll_exti.h **** /** @defgroup EXTI_LL EXTI
  38:Drivers/STM32G4xx_HAL_Driver/Inc/stm32g4xx_ll_exti.h ****   * @{
  39:Drivers/STM32G4xx_HAL_Driver/Inc/stm32g4xx_ll_exti.h ****   */
  40:Drivers/STM32G4xx_HAL_Driver/Inc/stm32g4xx_ll_exti.h **** 
  41:Drivers/STM32G4xx_HAL_Driver/Inc/stm32g4xx_ll_exti.h **** /* Private types -------------------------------------------------------------*/
  42:Drivers/STM32G4xx_HAL_Driver/Inc/stm32g4xx_ll_exti.h **** /* Private variables ---------------------------------------------------------*/
  43:Drivers/STM32G4xx_HAL_Driver/Inc/stm32g4xx_ll_exti.h **** /* Private constants ---------------------------------------------------------*/
  44:Drivers/STM32G4xx_HAL_Driver/Inc/stm32g4xx_ll_exti.h **** /* Private Macros ------------------------------------------------------------*/
  45:Drivers/STM32G4xx_HAL_Driver/Inc/stm32g4xx_ll_exti.h **** #if defined(USE_FULL_LL_DRIVER)
  46:Drivers/STM32G4xx_HAL_Driver/Inc/stm32g4xx_ll_exti.h **** /** @defgroup EXTI_LL_Private_Macros EXTI Private Macros
  47:Drivers/STM32G4xx_HAL_Driver/Inc/stm32g4xx_ll_exti.h ****   * @{
  48:Drivers/STM32G4xx_HAL_Driver/Inc/stm32g4xx_ll_exti.h ****   */
  49:Drivers/STM32G4xx_HAL_Driver/Inc/stm32g4xx_ll_exti.h **** /**
  50:Drivers/STM32G4xx_HAL_Driver/Inc/stm32g4xx_ll_exti.h ****   * @}
  51:Drivers/STM32G4xx_HAL_Driver/Inc/stm32g4xx_ll_exti.h ****   */
  52:Drivers/STM32G4xx_HAL_Driver/Inc/stm32g4xx_ll_exti.h **** #endif /*USE_FULL_LL_DRIVER*/
  53:Drivers/STM32G4xx_HAL_Driver/Inc/stm32g4xx_ll_exti.h **** /* Exported types ------------------------------------------------------------*/
  54:Drivers/STM32G4xx_HAL_Driver/Inc/stm32g4xx_ll_exti.h **** #if defined(USE_FULL_LL_DRIVER)
  55:Drivers/STM32G4xx_HAL_Driver/Inc/stm32g4xx_ll_exti.h **** /** @defgroup EXTI_LL_ES_INIT EXTI Exported Init structure
  56:Drivers/STM32G4xx_HAL_Driver/Inc/stm32g4xx_ll_exti.h ****   * @{
  57:Drivers/STM32G4xx_HAL_Driver/Inc/stm32g4xx_ll_exti.h ****   */
  58:Drivers/STM32G4xx_HAL_Driver/Inc/stm32g4xx_ll_exti.h **** typedef struct
  59:Drivers/STM32G4xx_HAL_Driver/Inc/stm32g4xx_ll_exti.h **** {
  60:Drivers/STM32G4xx_HAL_Driver/Inc/stm32g4xx_ll_exti.h **** 
  61:Drivers/STM32G4xx_HAL_Driver/Inc/stm32g4xx_ll_exti.h ****   uint32_t Line_0_31;           /*!< Specifies the EXTI lines to be enabled or disabled for Lines i
  62:Drivers/STM32G4xx_HAL_Driver/Inc/stm32g4xx_ll_exti.h ****                                      This parameter can be any combination of @ref EXTI_LL_EC_LINE 
  63:Drivers/STM32G4xx_HAL_Driver/Inc/stm32g4xx_ll_exti.h **** 
  64:Drivers/STM32G4xx_HAL_Driver/Inc/stm32g4xx_ll_exti.h ****   uint32_t Line_32_63;          /*!< Specifies the EXTI lines to be enabled or disabled for Lines i
  65:Drivers/STM32G4xx_HAL_Driver/Inc/stm32g4xx_ll_exti.h ****                                      This parameter can be any combination of @ref EXTI_LL_EC_LINE 
  66:Drivers/STM32G4xx_HAL_Driver/Inc/stm32g4xx_ll_exti.h **** 
  67:Drivers/STM32G4xx_HAL_Driver/Inc/stm32g4xx_ll_exti.h ****   FunctionalState LineCommand;  /*!< Specifies the new state of the selected EXTI lines.
  68:Drivers/STM32G4xx_HAL_Driver/Inc/stm32g4xx_ll_exti.h ****                                      This parameter can be set either to ENABLE or DISABLE */
  69:Drivers/STM32G4xx_HAL_Driver/Inc/stm32g4xx_ll_exti.h **** 
  70:Drivers/STM32G4xx_HAL_Driver/Inc/stm32g4xx_ll_exti.h ****   uint8_t Mode;                 /*!< Specifies the mode for the EXTI lines.
  71:Drivers/STM32G4xx_HAL_Driver/Inc/stm32g4xx_ll_exti.h ****                                      This parameter can be a value of @ref EXTI_LL_EC_MODE. */
  72:Drivers/STM32G4xx_HAL_Driver/Inc/stm32g4xx_ll_exti.h **** 
  73:Drivers/STM32G4xx_HAL_Driver/Inc/stm32g4xx_ll_exti.h ****   uint8_t Trigger;              /*!< Specifies the trigger signal active edge for the EXTI lines.
  74:Drivers/STM32G4xx_HAL_Driver/Inc/stm32g4xx_ll_exti.h ****                                      This parameter can be a value of @ref EXTI_LL_EC_TRIGGER. */
  75:Drivers/STM32G4xx_HAL_Driver/Inc/stm32g4xx_ll_exti.h **** } LL_EXTI_InitTypeDef;
ARM GAS  /tmp/ccGmUGHU.s 			page 18


  76:Drivers/STM32G4xx_HAL_Driver/Inc/stm32g4xx_ll_exti.h **** 
  77:Drivers/STM32G4xx_HAL_Driver/Inc/stm32g4xx_ll_exti.h **** /**
  78:Drivers/STM32G4xx_HAL_Driver/Inc/stm32g4xx_ll_exti.h ****   * @}
  79:Drivers/STM32G4xx_HAL_Driver/Inc/stm32g4xx_ll_exti.h ****   */
  80:Drivers/STM32G4xx_HAL_Driver/Inc/stm32g4xx_ll_exti.h **** #endif /*USE_FULL_LL_DRIVER*/
  81:Drivers/STM32G4xx_HAL_Driver/Inc/stm32g4xx_ll_exti.h **** 
  82:Drivers/STM32G4xx_HAL_Driver/Inc/stm32g4xx_ll_exti.h **** /* Exported constants --------------------------------------------------------*/
  83:Drivers/STM32G4xx_HAL_Driver/Inc/stm32g4xx_ll_exti.h **** /** @defgroup EXTI_LL_Exported_Constants EXTI Exported Constants
  84:Drivers/STM32G4xx_HAL_Driver/Inc/stm32g4xx_ll_exti.h ****   * @{
  85:Drivers/STM32G4xx_HAL_Driver/Inc/stm32g4xx_ll_exti.h ****   */
  86:Drivers/STM32G4xx_HAL_Driver/Inc/stm32g4xx_ll_exti.h **** 
  87:Drivers/STM32G4xx_HAL_Driver/Inc/stm32g4xx_ll_exti.h **** /** @defgroup EXTI_LL_EC_LINE LINE
  88:Drivers/STM32G4xx_HAL_Driver/Inc/stm32g4xx_ll_exti.h ****   * @{
  89:Drivers/STM32G4xx_HAL_Driver/Inc/stm32g4xx_ll_exti.h ****   */
  90:Drivers/STM32G4xx_HAL_Driver/Inc/stm32g4xx_ll_exti.h **** #define LL_EXTI_LINE_0                 EXTI_IMR1_IM0           /*!< Extended line 0 */
  91:Drivers/STM32G4xx_HAL_Driver/Inc/stm32g4xx_ll_exti.h **** #define LL_EXTI_LINE_1                 EXTI_IMR1_IM1           /*!< Extended line 1 */
  92:Drivers/STM32G4xx_HAL_Driver/Inc/stm32g4xx_ll_exti.h **** #define LL_EXTI_LINE_2                 EXTI_IMR1_IM2           /*!< Extended line 2 */
  93:Drivers/STM32G4xx_HAL_Driver/Inc/stm32g4xx_ll_exti.h **** #define LL_EXTI_LINE_3                 EXTI_IMR1_IM3           /*!< Extended line 3 */
  94:Drivers/STM32G4xx_HAL_Driver/Inc/stm32g4xx_ll_exti.h **** #define LL_EXTI_LINE_4                 EXTI_IMR1_IM4           /*!< Extended line 4 */
  95:Drivers/STM32G4xx_HAL_Driver/Inc/stm32g4xx_ll_exti.h **** #define LL_EXTI_LINE_5                 EXTI_IMR1_IM5           /*!< Extended line 5 */
  96:Drivers/STM32G4xx_HAL_Driver/Inc/stm32g4xx_ll_exti.h **** #define LL_EXTI_LINE_6                 EXTI_IMR1_IM6           /*!< Extended line 6 */
  97:Drivers/STM32G4xx_HAL_Driver/Inc/stm32g4xx_ll_exti.h **** #define LL_EXTI_LINE_7                 EXTI_IMR1_IM7           /*!< Extended line 7 */
  98:Drivers/STM32G4xx_HAL_Driver/Inc/stm32g4xx_ll_exti.h **** #define LL_EXTI_LINE_8                 EXTI_IMR1_IM8           /*!< Extended line 8 */
  99:Drivers/STM32G4xx_HAL_Driver/Inc/stm32g4xx_ll_exti.h **** #define LL_EXTI_LINE_9                 EXTI_IMR1_IM9           /*!< Extended line 9 */
 100:Drivers/STM32G4xx_HAL_Driver/Inc/stm32g4xx_ll_exti.h **** #define LL_EXTI_LINE_10                EXTI_IMR1_IM10          /*!< Extended line 10 */
 101:Drivers/STM32G4xx_HAL_Driver/Inc/stm32g4xx_ll_exti.h **** #define LL_EXTI_LINE_11                EXTI_IMR1_IM11          /*!< Extended line 11 */
 102:Drivers/STM32G4xx_HAL_Driver/Inc/stm32g4xx_ll_exti.h **** #define LL_EXTI_LINE_12                EXTI_IMR1_IM12          /*!< Extended line 12 */
 103:Drivers/STM32G4xx_HAL_Driver/Inc/stm32g4xx_ll_exti.h **** #define LL_EXTI_LINE_13                EXTI_IMR1_IM13          /*!< Extended line 13 */
 104:Drivers/STM32G4xx_HAL_Driver/Inc/stm32g4xx_ll_exti.h **** #define LL_EXTI_LINE_14                EXTI_IMR1_IM14          /*!< Extended line 14 */
 105:Drivers/STM32G4xx_HAL_Driver/Inc/stm32g4xx_ll_exti.h **** #define LL_EXTI_LINE_15                EXTI_IMR1_IM15          /*!< Extended line 15 */
 106:Drivers/STM32G4xx_HAL_Driver/Inc/stm32g4xx_ll_exti.h **** #if defined(EXTI_IMR1_IM16)
 107:Drivers/STM32G4xx_HAL_Driver/Inc/stm32g4xx_ll_exti.h **** #define LL_EXTI_LINE_16                EXTI_IMR1_IM16          /*!< Extended line 16 */
 108:Drivers/STM32G4xx_HAL_Driver/Inc/stm32g4xx_ll_exti.h **** #endif /* EXTI_IMR1_IM16 */
 109:Drivers/STM32G4xx_HAL_Driver/Inc/stm32g4xx_ll_exti.h **** #define LL_EXTI_LINE_17                EXTI_IMR1_IM17          /*!< Extended line 17 */
 110:Drivers/STM32G4xx_HAL_Driver/Inc/stm32g4xx_ll_exti.h **** #if defined(EXTI_IMR1_IM18)
 111:Drivers/STM32G4xx_HAL_Driver/Inc/stm32g4xx_ll_exti.h **** #define LL_EXTI_LINE_18                EXTI_IMR1_IM18          /*!< Extended line 18 */
 112:Drivers/STM32G4xx_HAL_Driver/Inc/stm32g4xx_ll_exti.h **** #endif /* EXTI_IMR1_IM18 */
 113:Drivers/STM32G4xx_HAL_Driver/Inc/stm32g4xx_ll_exti.h **** #define LL_EXTI_LINE_19                EXTI_IMR1_IM19          /*!< Extended line 19 */
 114:Drivers/STM32G4xx_HAL_Driver/Inc/stm32g4xx_ll_exti.h **** #if defined(EXTI_IMR1_IM20)
 115:Drivers/STM32G4xx_HAL_Driver/Inc/stm32g4xx_ll_exti.h **** #define LL_EXTI_LINE_20                EXTI_IMR1_IM20          /*!< Extended line 20 */
 116:Drivers/STM32G4xx_HAL_Driver/Inc/stm32g4xx_ll_exti.h **** #endif /* EXTI_IMR1_IM20 */
 117:Drivers/STM32G4xx_HAL_Driver/Inc/stm32g4xx_ll_exti.h **** #if defined(EXTI_IMR1_IM21)
 118:Drivers/STM32G4xx_HAL_Driver/Inc/stm32g4xx_ll_exti.h **** #define LL_EXTI_LINE_21                EXTI_IMR1_IM21          /*!< Extended line 21 */
 119:Drivers/STM32G4xx_HAL_Driver/Inc/stm32g4xx_ll_exti.h **** #endif /* EXTI_IMR1_IM21 */
 120:Drivers/STM32G4xx_HAL_Driver/Inc/stm32g4xx_ll_exti.h **** #if defined(EXTI_IMR1_IM22)
 121:Drivers/STM32G4xx_HAL_Driver/Inc/stm32g4xx_ll_exti.h **** #define LL_EXTI_LINE_22                EXTI_IMR1_IM22          /*!< Extended line 22 */
 122:Drivers/STM32G4xx_HAL_Driver/Inc/stm32g4xx_ll_exti.h **** #endif /* EXTI_IMR1_IM22 */
 123:Drivers/STM32G4xx_HAL_Driver/Inc/stm32g4xx_ll_exti.h **** #define LL_EXTI_LINE_23                EXTI_IMR1_IM23          /*!< Extended line 23 */
 124:Drivers/STM32G4xx_HAL_Driver/Inc/stm32g4xx_ll_exti.h **** #if defined(EXTI_IMR1_IM24)
 125:Drivers/STM32G4xx_HAL_Driver/Inc/stm32g4xx_ll_exti.h **** #define LL_EXTI_LINE_24                EXTI_IMR1_IM24          /*!< Extended line 24 */
 126:Drivers/STM32G4xx_HAL_Driver/Inc/stm32g4xx_ll_exti.h **** #endif /* EXTI_IMR1_IM24 */
 127:Drivers/STM32G4xx_HAL_Driver/Inc/stm32g4xx_ll_exti.h **** #if defined(EXTI_IMR1_IM25)
 128:Drivers/STM32G4xx_HAL_Driver/Inc/stm32g4xx_ll_exti.h **** #define LL_EXTI_LINE_25                EXTI_IMR1_IM25          /*!< Extended line 25 */
 129:Drivers/STM32G4xx_HAL_Driver/Inc/stm32g4xx_ll_exti.h **** #endif /* EXTI_IMR1_IM25 */
 130:Drivers/STM32G4xx_HAL_Driver/Inc/stm32g4xx_ll_exti.h **** #if defined(EXTI_IMR1_IM26)
 131:Drivers/STM32G4xx_HAL_Driver/Inc/stm32g4xx_ll_exti.h **** #define LL_EXTI_LINE_26                EXTI_IMR1_IM26          /*!< Extended line 26 */
 132:Drivers/STM32G4xx_HAL_Driver/Inc/stm32g4xx_ll_exti.h **** #endif /* EXTI_IMR1_IM26 */
ARM GAS  /tmp/ccGmUGHU.s 			page 19


 133:Drivers/STM32G4xx_HAL_Driver/Inc/stm32g4xx_ll_exti.h **** #if defined(EXTI_IMR1_IM27)
 134:Drivers/STM32G4xx_HAL_Driver/Inc/stm32g4xx_ll_exti.h **** #define LL_EXTI_LINE_27                EXTI_IMR1_IM27          /*!< Extended line 27 */
 135:Drivers/STM32G4xx_HAL_Driver/Inc/stm32g4xx_ll_exti.h **** #endif /* EXTI_IMR1_IM27 */
 136:Drivers/STM32G4xx_HAL_Driver/Inc/stm32g4xx_ll_exti.h **** #if defined(EXTI_IMR1_IM28)
 137:Drivers/STM32G4xx_HAL_Driver/Inc/stm32g4xx_ll_exti.h **** #define LL_EXTI_LINE_28                EXTI_IMR1_IM28          /*!< Extended line 28 */
 138:Drivers/STM32G4xx_HAL_Driver/Inc/stm32g4xx_ll_exti.h **** #endif /* EXTI_IMR1_IM28 */
 139:Drivers/STM32G4xx_HAL_Driver/Inc/stm32g4xx_ll_exti.h **** #if defined(EXTI_IMR1_IM29)
 140:Drivers/STM32G4xx_HAL_Driver/Inc/stm32g4xx_ll_exti.h **** #define LL_EXTI_LINE_29                EXTI_IMR1_IM29          /*!< Extended line 29 */
 141:Drivers/STM32G4xx_HAL_Driver/Inc/stm32g4xx_ll_exti.h **** #endif /* EXTI_IMR1_IM29 */
 142:Drivers/STM32G4xx_HAL_Driver/Inc/stm32g4xx_ll_exti.h **** #if defined(EXTI_IMR1_IM30)
 143:Drivers/STM32G4xx_HAL_Driver/Inc/stm32g4xx_ll_exti.h **** #define LL_EXTI_LINE_30                EXTI_IMR1_IM30          /*!< Extended line 30 */
 144:Drivers/STM32G4xx_HAL_Driver/Inc/stm32g4xx_ll_exti.h **** #endif /* EXTI_IMR1_IM30 */
 145:Drivers/STM32G4xx_HAL_Driver/Inc/stm32g4xx_ll_exti.h **** #if defined(EXTI_IMR1_IM31)
 146:Drivers/STM32G4xx_HAL_Driver/Inc/stm32g4xx_ll_exti.h **** #define LL_EXTI_LINE_31                EXTI_IMR1_IM31          /*!< Extended line 31 */
 147:Drivers/STM32G4xx_HAL_Driver/Inc/stm32g4xx_ll_exti.h **** #endif /* EXTI_IMR1_IM31 */
 148:Drivers/STM32G4xx_HAL_Driver/Inc/stm32g4xx_ll_exti.h **** #define LL_EXTI_LINE_ALL_0_31          EXTI_IMR1_IM            /*!< All Extended line not reserved*
 149:Drivers/STM32G4xx_HAL_Driver/Inc/stm32g4xx_ll_exti.h **** 
 150:Drivers/STM32G4xx_HAL_Driver/Inc/stm32g4xx_ll_exti.h **** #if defined(EXTI_IMR2_IM32)
 151:Drivers/STM32G4xx_HAL_Driver/Inc/stm32g4xx_ll_exti.h **** #define LL_EXTI_LINE_32                EXTI_IMR2_IM32          /*!< Extended line 32 */
 152:Drivers/STM32G4xx_HAL_Driver/Inc/stm32g4xx_ll_exti.h **** #endif /* EXTI_IMR2_IM32 */
 153:Drivers/STM32G4xx_HAL_Driver/Inc/stm32g4xx_ll_exti.h **** #if defined(EXTI_IMR2_IM33)
 154:Drivers/STM32G4xx_HAL_Driver/Inc/stm32g4xx_ll_exti.h **** #define LL_EXTI_LINE_33                EXTI_IMR2_IM33          /*!< Extended line 33 */
 155:Drivers/STM32G4xx_HAL_Driver/Inc/stm32g4xx_ll_exti.h **** #endif /* EXTI_IMR2_IM33 */
 156:Drivers/STM32G4xx_HAL_Driver/Inc/stm32g4xx_ll_exti.h **** #if defined(EXTI_IMR2_IM34)
 157:Drivers/STM32G4xx_HAL_Driver/Inc/stm32g4xx_ll_exti.h **** #define LL_EXTI_LINE_34                EXTI_IMR2_IM34          /*!< Extended line 34 */
 158:Drivers/STM32G4xx_HAL_Driver/Inc/stm32g4xx_ll_exti.h **** #endif /* EXTI_IMR2_IM34 */
 159:Drivers/STM32G4xx_HAL_Driver/Inc/stm32g4xx_ll_exti.h **** #if defined(EXTI_IMR2_IM35)
 160:Drivers/STM32G4xx_HAL_Driver/Inc/stm32g4xx_ll_exti.h **** #define LL_EXTI_LINE_35                EXTI_IMR2_IM35          /*!< Extended line 35 */
 161:Drivers/STM32G4xx_HAL_Driver/Inc/stm32g4xx_ll_exti.h **** #endif /* EXTI_IMR2_IM35 */
 162:Drivers/STM32G4xx_HAL_Driver/Inc/stm32g4xx_ll_exti.h **** #if defined(EXTI_IMR2_IM36)
 163:Drivers/STM32G4xx_HAL_Driver/Inc/stm32g4xx_ll_exti.h **** #define LL_EXTI_LINE_36                EXTI_IMR2_IM36          /*!< Extended line 36 */
 164:Drivers/STM32G4xx_HAL_Driver/Inc/stm32g4xx_ll_exti.h **** #endif /* EXTI_IMR2_IM36 */
 165:Drivers/STM32G4xx_HAL_Driver/Inc/stm32g4xx_ll_exti.h **** #if defined(EXTI_IMR2_IM37)
 166:Drivers/STM32G4xx_HAL_Driver/Inc/stm32g4xx_ll_exti.h **** #define LL_EXTI_LINE_37                EXTI_IMR2_IM37          /*!< Extended line 37 */
 167:Drivers/STM32G4xx_HAL_Driver/Inc/stm32g4xx_ll_exti.h **** #endif /* EXTI_IMR2_IM37 */
 168:Drivers/STM32G4xx_HAL_Driver/Inc/stm32g4xx_ll_exti.h **** #if defined(EXTI_IMR2_IM38)
 169:Drivers/STM32G4xx_HAL_Driver/Inc/stm32g4xx_ll_exti.h **** #define LL_EXTI_LINE_38                EXTI_IMR2_IM38          /*!< Extended line 38 */
 170:Drivers/STM32G4xx_HAL_Driver/Inc/stm32g4xx_ll_exti.h **** #endif /* EXTI_IMR2_IM38 */
 171:Drivers/STM32G4xx_HAL_Driver/Inc/stm32g4xx_ll_exti.h **** #if defined(EXTI_IMR2_IM39)
 172:Drivers/STM32G4xx_HAL_Driver/Inc/stm32g4xx_ll_exti.h **** #define LL_EXTI_LINE_39                EXTI_IMR2_IM39          /*!< Extended line 39 */
 173:Drivers/STM32G4xx_HAL_Driver/Inc/stm32g4xx_ll_exti.h **** #endif /* EXTI_IMR2_IM39 */
 174:Drivers/STM32G4xx_HAL_Driver/Inc/stm32g4xx_ll_exti.h **** #if defined(EXTI_IMR2_IM40)
 175:Drivers/STM32G4xx_HAL_Driver/Inc/stm32g4xx_ll_exti.h **** #define LL_EXTI_LINE_40                EXTI_IMR2_IM40          /*!< Extended line 40 */
 176:Drivers/STM32G4xx_HAL_Driver/Inc/stm32g4xx_ll_exti.h **** #endif /* EXTI_IMR2_IM40 */
 177:Drivers/STM32G4xx_HAL_Driver/Inc/stm32g4xx_ll_exti.h **** #if defined(EXTI_IMR2_IM41)
 178:Drivers/STM32G4xx_HAL_Driver/Inc/stm32g4xx_ll_exti.h **** #define LL_EXTI_LINE_41                EXTI_IMR2_IM41          /*!< Extended line 41 */
 179:Drivers/STM32G4xx_HAL_Driver/Inc/stm32g4xx_ll_exti.h **** #endif /* EXTI_IMR2_IM41 */
 180:Drivers/STM32G4xx_HAL_Driver/Inc/stm32g4xx_ll_exti.h **** #if defined(EXTI_IMR2_IM42)
 181:Drivers/STM32G4xx_HAL_Driver/Inc/stm32g4xx_ll_exti.h **** #define LL_EXTI_LINE_42                EXTI_IMR2_IM42          /*!< Extended line 42 */
 182:Drivers/STM32G4xx_HAL_Driver/Inc/stm32g4xx_ll_exti.h **** #endif /* EXTI_IMR2_IM42 */
 183:Drivers/STM32G4xx_HAL_Driver/Inc/stm32g4xx_ll_exti.h **** #define LL_EXTI_LINE_ALL_32_63         EXTI_IMR2_IM            /*!< All Extended line not reserved*
 184:Drivers/STM32G4xx_HAL_Driver/Inc/stm32g4xx_ll_exti.h **** 
 185:Drivers/STM32G4xx_HAL_Driver/Inc/stm32g4xx_ll_exti.h **** 
 186:Drivers/STM32G4xx_HAL_Driver/Inc/stm32g4xx_ll_exti.h **** #define LL_EXTI_LINE_ALL               (0xFFFFFFFFU)  /*!< All Extended line */
 187:Drivers/STM32G4xx_HAL_Driver/Inc/stm32g4xx_ll_exti.h **** 
 188:Drivers/STM32G4xx_HAL_Driver/Inc/stm32g4xx_ll_exti.h **** #if defined(USE_FULL_LL_DRIVER)
 189:Drivers/STM32G4xx_HAL_Driver/Inc/stm32g4xx_ll_exti.h **** #define LL_EXTI_LINE_NONE              0x00000000U             /*!< None Extended line */
ARM GAS  /tmp/ccGmUGHU.s 			page 20


 190:Drivers/STM32G4xx_HAL_Driver/Inc/stm32g4xx_ll_exti.h **** #endif /*USE_FULL_LL_DRIVER*/
 191:Drivers/STM32G4xx_HAL_Driver/Inc/stm32g4xx_ll_exti.h **** 
 192:Drivers/STM32G4xx_HAL_Driver/Inc/stm32g4xx_ll_exti.h **** /**
 193:Drivers/STM32G4xx_HAL_Driver/Inc/stm32g4xx_ll_exti.h ****   * @}
 194:Drivers/STM32G4xx_HAL_Driver/Inc/stm32g4xx_ll_exti.h ****   */
 195:Drivers/STM32G4xx_HAL_Driver/Inc/stm32g4xx_ll_exti.h **** #if defined(USE_FULL_LL_DRIVER)
 196:Drivers/STM32G4xx_HAL_Driver/Inc/stm32g4xx_ll_exti.h **** 
 197:Drivers/STM32G4xx_HAL_Driver/Inc/stm32g4xx_ll_exti.h **** /** @defgroup EXTI_LL_EC_MODE Mode
 198:Drivers/STM32G4xx_HAL_Driver/Inc/stm32g4xx_ll_exti.h ****   * @{
 199:Drivers/STM32G4xx_HAL_Driver/Inc/stm32g4xx_ll_exti.h ****   */
 200:Drivers/STM32G4xx_HAL_Driver/Inc/stm32g4xx_ll_exti.h **** #define LL_EXTI_MODE_IT                 ((uint8_t)0x00U) /*!< Interrupt Mode */
 201:Drivers/STM32G4xx_HAL_Driver/Inc/stm32g4xx_ll_exti.h **** #define LL_EXTI_MODE_EVENT              ((uint8_t)0x01U) /*!< Event Mode */
 202:Drivers/STM32G4xx_HAL_Driver/Inc/stm32g4xx_ll_exti.h **** #define LL_EXTI_MODE_IT_EVENT           ((uint8_t)0x02U) /*!< Interrupt & Event Mode */
 203:Drivers/STM32G4xx_HAL_Driver/Inc/stm32g4xx_ll_exti.h **** /**
 204:Drivers/STM32G4xx_HAL_Driver/Inc/stm32g4xx_ll_exti.h ****   * @}
 205:Drivers/STM32G4xx_HAL_Driver/Inc/stm32g4xx_ll_exti.h ****   */
 206:Drivers/STM32G4xx_HAL_Driver/Inc/stm32g4xx_ll_exti.h **** 
 207:Drivers/STM32G4xx_HAL_Driver/Inc/stm32g4xx_ll_exti.h **** /** @defgroup EXTI_LL_EC_TRIGGER Edge Trigger
 208:Drivers/STM32G4xx_HAL_Driver/Inc/stm32g4xx_ll_exti.h ****   * @{
 209:Drivers/STM32G4xx_HAL_Driver/Inc/stm32g4xx_ll_exti.h ****   */
 210:Drivers/STM32G4xx_HAL_Driver/Inc/stm32g4xx_ll_exti.h **** #define LL_EXTI_TRIGGER_NONE            ((uint8_t)0x00U) /*!< No Trigger Mode */
 211:Drivers/STM32G4xx_HAL_Driver/Inc/stm32g4xx_ll_exti.h **** #define LL_EXTI_TRIGGER_RISING          ((uint8_t)0x01U) /*!< Trigger Rising Mode */
 212:Drivers/STM32G4xx_HAL_Driver/Inc/stm32g4xx_ll_exti.h **** #define LL_EXTI_TRIGGER_FALLING         ((uint8_t)0x02U) /*!< Trigger Falling Mode */
 213:Drivers/STM32G4xx_HAL_Driver/Inc/stm32g4xx_ll_exti.h **** #define LL_EXTI_TRIGGER_RISING_FALLING  ((uint8_t)0x03U) /*!< Trigger Rising & Falling Mode */
 214:Drivers/STM32G4xx_HAL_Driver/Inc/stm32g4xx_ll_exti.h **** 
 215:Drivers/STM32G4xx_HAL_Driver/Inc/stm32g4xx_ll_exti.h **** /**
 216:Drivers/STM32G4xx_HAL_Driver/Inc/stm32g4xx_ll_exti.h ****   * @}
 217:Drivers/STM32G4xx_HAL_Driver/Inc/stm32g4xx_ll_exti.h ****   */
 218:Drivers/STM32G4xx_HAL_Driver/Inc/stm32g4xx_ll_exti.h **** 
 219:Drivers/STM32G4xx_HAL_Driver/Inc/stm32g4xx_ll_exti.h **** 
 220:Drivers/STM32G4xx_HAL_Driver/Inc/stm32g4xx_ll_exti.h **** #endif /*USE_FULL_LL_DRIVER*/
 221:Drivers/STM32G4xx_HAL_Driver/Inc/stm32g4xx_ll_exti.h **** 
 222:Drivers/STM32G4xx_HAL_Driver/Inc/stm32g4xx_ll_exti.h **** 
 223:Drivers/STM32G4xx_HAL_Driver/Inc/stm32g4xx_ll_exti.h **** /**
 224:Drivers/STM32G4xx_HAL_Driver/Inc/stm32g4xx_ll_exti.h ****   * @}
 225:Drivers/STM32G4xx_HAL_Driver/Inc/stm32g4xx_ll_exti.h ****   */
 226:Drivers/STM32G4xx_HAL_Driver/Inc/stm32g4xx_ll_exti.h **** 
 227:Drivers/STM32G4xx_HAL_Driver/Inc/stm32g4xx_ll_exti.h **** /* Exported macro ------------------------------------------------------------*/
 228:Drivers/STM32G4xx_HAL_Driver/Inc/stm32g4xx_ll_exti.h **** /** @defgroup EXTI_LL_Exported_Macros EXTI Exported Macros
 229:Drivers/STM32G4xx_HAL_Driver/Inc/stm32g4xx_ll_exti.h ****   * @{
 230:Drivers/STM32G4xx_HAL_Driver/Inc/stm32g4xx_ll_exti.h ****   */
 231:Drivers/STM32G4xx_HAL_Driver/Inc/stm32g4xx_ll_exti.h **** 
 232:Drivers/STM32G4xx_HAL_Driver/Inc/stm32g4xx_ll_exti.h **** /** @defgroup EXTI_LL_EM_WRITE_READ Common Write and read registers Macros
 233:Drivers/STM32G4xx_HAL_Driver/Inc/stm32g4xx_ll_exti.h ****   * @{
 234:Drivers/STM32G4xx_HAL_Driver/Inc/stm32g4xx_ll_exti.h ****   */
 235:Drivers/STM32G4xx_HAL_Driver/Inc/stm32g4xx_ll_exti.h **** 
 236:Drivers/STM32G4xx_HAL_Driver/Inc/stm32g4xx_ll_exti.h **** /**
 237:Drivers/STM32G4xx_HAL_Driver/Inc/stm32g4xx_ll_exti.h ****   * @brief  Write a value in EXTI register
 238:Drivers/STM32G4xx_HAL_Driver/Inc/stm32g4xx_ll_exti.h ****   * @param  __REG__ Register to be written
 239:Drivers/STM32G4xx_HAL_Driver/Inc/stm32g4xx_ll_exti.h ****   * @param  __VALUE__ Value to be written in the register
 240:Drivers/STM32G4xx_HAL_Driver/Inc/stm32g4xx_ll_exti.h ****   * @retval None
 241:Drivers/STM32G4xx_HAL_Driver/Inc/stm32g4xx_ll_exti.h ****   */
 242:Drivers/STM32G4xx_HAL_Driver/Inc/stm32g4xx_ll_exti.h **** #define LL_EXTI_WriteReg(__REG__, __VALUE__) WRITE_REG(EXTI->__REG__, (__VALUE__))
 243:Drivers/STM32G4xx_HAL_Driver/Inc/stm32g4xx_ll_exti.h **** 
 244:Drivers/STM32G4xx_HAL_Driver/Inc/stm32g4xx_ll_exti.h **** /**
 245:Drivers/STM32G4xx_HAL_Driver/Inc/stm32g4xx_ll_exti.h ****   * @brief  Read a value in EXTI register
 246:Drivers/STM32G4xx_HAL_Driver/Inc/stm32g4xx_ll_exti.h ****   * @param  __REG__ Register to be read
ARM GAS  /tmp/ccGmUGHU.s 			page 21


 247:Drivers/STM32G4xx_HAL_Driver/Inc/stm32g4xx_ll_exti.h ****   * @retval Register value
 248:Drivers/STM32G4xx_HAL_Driver/Inc/stm32g4xx_ll_exti.h ****   */
 249:Drivers/STM32G4xx_HAL_Driver/Inc/stm32g4xx_ll_exti.h **** #define LL_EXTI_ReadReg(__REG__) READ_REG(EXTI->__REG__)
 250:Drivers/STM32G4xx_HAL_Driver/Inc/stm32g4xx_ll_exti.h **** /**
 251:Drivers/STM32G4xx_HAL_Driver/Inc/stm32g4xx_ll_exti.h ****   * @}
 252:Drivers/STM32G4xx_HAL_Driver/Inc/stm32g4xx_ll_exti.h ****   */
 253:Drivers/STM32G4xx_HAL_Driver/Inc/stm32g4xx_ll_exti.h **** 
 254:Drivers/STM32G4xx_HAL_Driver/Inc/stm32g4xx_ll_exti.h **** 
 255:Drivers/STM32G4xx_HAL_Driver/Inc/stm32g4xx_ll_exti.h **** /**
 256:Drivers/STM32G4xx_HAL_Driver/Inc/stm32g4xx_ll_exti.h ****   * @}
 257:Drivers/STM32G4xx_HAL_Driver/Inc/stm32g4xx_ll_exti.h ****   */
 258:Drivers/STM32G4xx_HAL_Driver/Inc/stm32g4xx_ll_exti.h **** 
 259:Drivers/STM32G4xx_HAL_Driver/Inc/stm32g4xx_ll_exti.h **** 
 260:Drivers/STM32G4xx_HAL_Driver/Inc/stm32g4xx_ll_exti.h **** 
 261:Drivers/STM32G4xx_HAL_Driver/Inc/stm32g4xx_ll_exti.h **** /* Exported functions --------------------------------------------------------*/
 262:Drivers/STM32G4xx_HAL_Driver/Inc/stm32g4xx_ll_exti.h **** /** @defgroup EXTI_LL_Exported_Functions EXTI Exported Functions
 263:Drivers/STM32G4xx_HAL_Driver/Inc/stm32g4xx_ll_exti.h ****   * @{
 264:Drivers/STM32G4xx_HAL_Driver/Inc/stm32g4xx_ll_exti.h ****   */
 265:Drivers/STM32G4xx_HAL_Driver/Inc/stm32g4xx_ll_exti.h **** /** @defgroup EXTI_LL_EF_IT_Management IT_Management
 266:Drivers/STM32G4xx_HAL_Driver/Inc/stm32g4xx_ll_exti.h ****   * @{
 267:Drivers/STM32G4xx_HAL_Driver/Inc/stm32g4xx_ll_exti.h ****   */
 268:Drivers/STM32G4xx_HAL_Driver/Inc/stm32g4xx_ll_exti.h **** 
 269:Drivers/STM32G4xx_HAL_Driver/Inc/stm32g4xx_ll_exti.h **** /**
 270:Drivers/STM32G4xx_HAL_Driver/Inc/stm32g4xx_ll_exti.h ****   * @brief  Enable ExtiLine Interrupt request for Lines in range 0 to 31
 271:Drivers/STM32G4xx_HAL_Driver/Inc/stm32g4xx_ll_exti.h ****   * @note The reset value for the direct or internal lines (see RM)
 272:Drivers/STM32G4xx_HAL_Driver/Inc/stm32g4xx_ll_exti.h ****   *       is set to 1 in order to enable the interrupt by default.
 273:Drivers/STM32G4xx_HAL_Driver/Inc/stm32g4xx_ll_exti.h ****   *       Bits are set automatically at Power on.
 274:Drivers/STM32G4xx_HAL_Driver/Inc/stm32g4xx_ll_exti.h ****   * @rmtoll IMR1         IMx           LL_EXTI_EnableIT_0_31
 275:Drivers/STM32G4xx_HAL_Driver/Inc/stm32g4xx_ll_exti.h ****   * @param  ExtiLine This parameter can be one of the following values:
 276:Drivers/STM32G4xx_HAL_Driver/Inc/stm32g4xx_ll_exti.h ****   *         @arg @ref LL_EXTI_LINE_0
 277:Drivers/STM32G4xx_HAL_Driver/Inc/stm32g4xx_ll_exti.h ****   *         @arg @ref LL_EXTI_LINE_1
 278:Drivers/STM32G4xx_HAL_Driver/Inc/stm32g4xx_ll_exti.h ****   *         @arg @ref LL_EXTI_LINE_2
 279:Drivers/STM32G4xx_HAL_Driver/Inc/stm32g4xx_ll_exti.h ****   *         @arg @ref LL_EXTI_LINE_3
 280:Drivers/STM32G4xx_HAL_Driver/Inc/stm32g4xx_ll_exti.h ****   *         @arg @ref LL_EXTI_LINE_4
 281:Drivers/STM32G4xx_HAL_Driver/Inc/stm32g4xx_ll_exti.h ****   *         @arg @ref LL_EXTI_LINE_5
 282:Drivers/STM32G4xx_HAL_Driver/Inc/stm32g4xx_ll_exti.h ****   *         @arg @ref LL_EXTI_LINE_6
 283:Drivers/STM32G4xx_HAL_Driver/Inc/stm32g4xx_ll_exti.h ****   *         @arg @ref LL_EXTI_LINE_7
 284:Drivers/STM32G4xx_HAL_Driver/Inc/stm32g4xx_ll_exti.h ****   *         @arg @ref LL_EXTI_LINE_8
 285:Drivers/STM32G4xx_HAL_Driver/Inc/stm32g4xx_ll_exti.h ****   *         @arg @ref LL_EXTI_LINE_9
 286:Drivers/STM32G4xx_HAL_Driver/Inc/stm32g4xx_ll_exti.h ****   *         @arg @ref LL_EXTI_LINE_10
 287:Drivers/STM32G4xx_HAL_Driver/Inc/stm32g4xx_ll_exti.h ****   *         @arg @ref LL_EXTI_LINE_11
 288:Drivers/STM32G4xx_HAL_Driver/Inc/stm32g4xx_ll_exti.h ****   *         @arg @ref LL_EXTI_LINE_12
 289:Drivers/STM32G4xx_HAL_Driver/Inc/stm32g4xx_ll_exti.h ****   *         @arg @ref LL_EXTI_LINE_13
 290:Drivers/STM32G4xx_HAL_Driver/Inc/stm32g4xx_ll_exti.h ****   *         @arg @ref LL_EXTI_LINE_14
 291:Drivers/STM32G4xx_HAL_Driver/Inc/stm32g4xx_ll_exti.h ****   *         @arg @ref LL_EXTI_LINE_15
 292:Drivers/STM32G4xx_HAL_Driver/Inc/stm32g4xx_ll_exti.h ****   *         @arg @ref LL_EXTI_LINE_16
 293:Drivers/STM32G4xx_HAL_Driver/Inc/stm32g4xx_ll_exti.h ****   *         @arg @ref LL_EXTI_LINE_17
 294:Drivers/STM32G4xx_HAL_Driver/Inc/stm32g4xx_ll_exti.h ****   *         @arg @ref LL_EXTI_LINE_18
 295:Drivers/STM32G4xx_HAL_Driver/Inc/stm32g4xx_ll_exti.h ****   *         @arg @ref LL_EXTI_LINE_19
 296:Drivers/STM32G4xx_HAL_Driver/Inc/stm32g4xx_ll_exti.h ****   *         @arg @ref LL_EXTI_LINE_20
 297:Drivers/STM32G4xx_HAL_Driver/Inc/stm32g4xx_ll_exti.h ****   *         @arg @ref LL_EXTI_LINE_21
 298:Drivers/STM32G4xx_HAL_Driver/Inc/stm32g4xx_ll_exti.h ****   *         @arg @ref LL_EXTI_LINE_22
 299:Drivers/STM32G4xx_HAL_Driver/Inc/stm32g4xx_ll_exti.h ****   *         @arg @ref LL_EXTI_LINE_23
 300:Drivers/STM32G4xx_HAL_Driver/Inc/stm32g4xx_ll_exti.h ****   *         @arg @ref LL_EXTI_LINE_24
 301:Drivers/STM32G4xx_HAL_Driver/Inc/stm32g4xx_ll_exti.h ****   *         @arg @ref LL_EXTI_LINE_25
 302:Drivers/STM32G4xx_HAL_Driver/Inc/stm32g4xx_ll_exti.h ****   *         @arg @ref LL_EXTI_LINE_26
 303:Drivers/STM32G4xx_HAL_Driver/Inc/stm32g4xx_ll_exti.h ****   *         @arg @ref LL_EXTI_LINE_27
ARM GAS  /tmp/ccGmUGHU.s 			page 22


 304:Drivers/STM32G4xx_HAL_Driver/Inc/stm32g4xx_ll_exti.h ****   *         @arg @ref LL_EXTI_LINE_28
 305:Drivers/STM32G4xx_HAL_Driver/Inc/stm32g4xx_ll_exti.h ****   *         @arg @ref LL_EXTI_LINE_29
 306:Drivers/STM32G4xx_HAL_Driver/Inc/stm32g4xx_ll_exti.h ****   *         @arg @ref LL_EXTI_LINE_30
 307:Drivers/STM32G4xx_HAL_Driver/Inc/stm32g4xx_ll_exti.h ****   *         @arg @ref LL_EXTI_LINE_31 (*)
 308:Drivers/STM32G4xx_HAL_Driver/Inc/stm32g4xx_ll_exti.h ****   *         @arg @ref LL_EXTI_LINE_ALL_0_31
 309:Drivers/STM32G4xx_HAL_Driver/Inc/stm32g4xx_ll_exti.h ****   * @note   (*): Available in some devices
 310:Drivers/STM32G4xx_HAL_Driver/Inc/stm32g4xx_ll_exti.h ****   * @note   Please check each device line mapping for EXTI Line availability
 311:Drivers/STM32G4xx_HAL_Driver/Inc/stm32g4xx_ll_exti.h ****   * @retval None
 312:Drivers/STM32G4xx_HAL_Driver/Inc/stm32g4xx_ll_exti.h ****   */
 313:Drivers/STM32G4xx_HAL_Driver/Inc/stm32g4xx_ll_exti.h **** __STATIC_INLINE void LL_EXTI_EnableIT_0_31(uint32_t ExtiLine)
 314:Drivers/STM32G4xx_HAL_Driver/Inc/stm32g4xx_ll_exti.h **** {
 315:Drivers/STM32G4xx_HAL_Driver/Inc/stm32g4xx_ll_exti.h ****   SET_BIT(EXTI->IMR1, ExtiLine);
 316:Drivers/STM32G4xx_HAL_Driver/Inc/stm32g4xx_ll_exti.h **** }
 317:Drivers/STM32G4xx_HAL_Driver/Inc/stm32g4xx_ll_exti.h **** /**
 318:Drivers/STM32G4xx_HAL_Driver/Inc/stm32g4xx_ll_exti.h ****   * @brief  Enable ExtiLine Interrupt request for Lines in range 32 to 63
 319:Drivers/STM32G4xx_HAL_Driver/Inc/stm32g4xx_ll_exti.h ****   * @note The reset value for the direct lines (lines from 32 to 34, line
 320:Drivers/STM32G4xx_HAL_Driver/Inc/stm32g4xx_ll_exti.h ****   *       39) is set to 1 in order to enable the interrupt by default.
 321:Drivers/STM32G4xx_HAL_Driver/Inc/stm32g4xx_ll_exti.h ****   *       Bits are set automatically at Power on.
 322:Drivers/STM32G4xx_HAL_Driver/Inc/stm32g4xx_ll_exti.h ****   * @rmtoll IMR2         IMx           LL_EXTI_EnableIT_32_63
 323:Drivers/STM32G4xx_HAL_Driver/Inc/stm32g4xx_ll_exti.h ****   * @param  ExtiLine This parameter can be one of the following values:
 324:Drivers/STM32G4xx_HAL_Driver/Inc/stm32g4xx_ll_exti.h ****   *         @arg @ref LL_EXTI_LINE_32 (*)
 325:Drivers/STM32G4xx_HAL_Driver/Inc/stm32g4xx_ll_exti.h ****   *         @arg @ref LL_EXTI_LINE_33 (*)
 326:Drivers/STM32G4xx_HAL_Driver/Inc/stm32g4xx_ll_exti.h ****   *         @arg @ref LL_EXTI_LINE_34
 327:Drivers/STM32G4xx_HAL_Driver/Inc/stm32g4xx_ll_exti.h ****   *         @arg @ref LL_EXTI_LINE_35 (*)
 328:Drivers/STM32G4xx_HAL_Driver/Inc/stm32g4xx_ll_exti.h ****   *         @arg @ref LL_EXTI_LINE_36
 329:Drivers/STM32G4xx_HAL_Driver/Inc/stm32g4xx_ll_exti.h ****   *         @arg @ref LL_EXTI_LINE_37
 330:Drivers/STM32G4xx_HAL_Driver/Inc/stm32g4xx_ll_exti.h ****   *         @arg @ref LL_EXTI_LINE_38
 331:Drivers/STM32G4xx_HAL_Driver/Inc/stm32g4xx_ll_exti.h ****   *         @arg @ref LL_EXTI_LINE_39
 332:Drivers/STM32G4xx_HAL_Driver/Inc/stm32g4xx_ll_exti.h ****   *         @arg @ref LL_EXTI_LINE_40
 333:Drivers/STM32G4xx_HAL_Driver/Inc/stm32g4xx_ll_exti.h ****   *         @arg @ref LL_EXTI_LINE_41
 334:Drivers/STM32G4xx_HAL_Driver/Inc/stm32g4xx_ll_exti.h ****   *         @arg @ref LL_EXTI_LINE_42(*)
 335:Drivers/STM32G4xx_HAL_Driver/Inc/stm32g4xx_ll_exti.h ****   *         @arg @ref LL_EXTI_LINE_ALL_32_63
 336:Drivers/STM32G4xx_HAL_Driver/Inc/stm32g4xx_ll_exti.h ****   * @note   (*): Available in some devices
 337:Drivers/STM32G4xx_HAL_Driver/Inc/stm32g4xx_ll_exti.h ****   * @retval None
 338:Drivers/STM32G4xx_HAL_Driver/Inc/stm32g4xx_ll_exti.h ****   */
 339:Drivers/STM32G4xx_HAL_Driver/Inc/stm32g4xx_ll_exti.h **** __STATIC_INLINE void LL_EXTI_EnableIT_32_63(uint32_t ExtiLine)
 340:Drivers/STM32G4xx_HAL_Driver/Inc/stm32g4xx_ll_exti.h **** {
 341:Drivers/STM32G4xx_HAL_Driver/Inc/stm32g4xx_ll_exti.h ****   SET_BIT(EXTI->IMR2, ExtiLine);
 342:Drivers/STM32G4xx_HAL_Driver/Inc/stm32g4xx_ll_exti.h **** }
 343:Drivers/STM32G4xx_HAL_Driver/Inc/stm32g4xx_ll_exti.h **** 
 344:Drivers/STM32G4xx_HAL_Driver/Inc/stm32g4xx_ll_exti.h **** /**
 345:Drivers/STM32G4xx_HAL_Driver/Inc/stm32g4xx_ll_exti.h ****   * @brief  Disable ExtiLine Interrupt request for Lines in range 0 to 31
 346:Drivers/STM32G4xx_HAL_Driver/Inc/stm32g4xx_ll_exti.h ****   * @note The reset value for the direct or internal lines (see RM)
 347:Drivers/STM32G4xx_HAL_Driver/Inc/stm32g4xx_ll_exti.h ****   *       is set to 1 in order to enable the interrupt by default.
 348:Drivers/STM32G4xx_HAL_Driver/Inc/stm32g4xx_ll_exti.h ****   *       Bits are set automatically at Power on.
 349:Drivers/STM32G4xx_HAL_Driver/Inc/stm32g4xx_ll_exti.h ****   * @rmtoll IMR1         IMx           LL_EXTI_DisableIT_0_31
 350:Drivers/STM32G4xx_HAL_Driver/Inc/stm32g4xx_ll_exti.h ****   * @param  ExtiLine This parameter can be one of the following values:
 351:Drivers/STM32G4xx_HAL_Driver/Inc/stm32g4xx_ll_exti.h ****   *         @arg @ref LL_EXTI_LINE_0
 352:Drivers/STM32G4xx_HAL_Driver/Inc/stm32g4xx_ll_exti.h ****   *         @arg @ref LL_EXTI_LINE_1
 353:Drivers/STM32G4xx_HAL_Driver/Inc/stm32g4xx_ll_exti.h ****   *         @arg @ref LL_EXTI_LINE_2
 354:Drivers/STM32G4xx_HAL_Driver/Inc/stm32g4xx_ll_exti.h ****   *         @arg @ref LL_EXTI_LINE_3
 355:Drivers/STM32G4xx_HAL_Driver/Inc/stm32g4xx_ll_exti.h ****   *         @arg @ref LL_EXTI_LINE_4
 356:Drivers/STM32G4xx_HAL_Driver/Inc/stm32g4xx_ll_exti.h ****   *         @arg @ref LL_EXTI_LINE_5
 357:Drivers/STM32G4xx_HAL_Driver/Inc/stm32g4xx_ll_exti.h ****   *         @arg @ref LL_EXTI_LINE_6
 358:Drivers/STM32G4xx_HAL_Driver/Inc/stm32g4xx_ll_exti.h ****   *         @arg @ref LL_EXTI_LINE_7
 359:Drivers/STM32G4xx_HAL_Driver/Inc/stm32g4xx_ll_exti.h ****   *         @arg @ref LL_EXTI_LINE_8
 360:Drivers/STM32G4xx_HAL_Driver/Inc/stm32g4xx_ll_exti.h ****   *         @arg @ref LL_EXTI_LINE_9
ARM GAS  /tmp/ccGmUGHU.s 			page 23


 361:Drivers/STM32G4xx_HAL_Driver/Inc/stm32g4xx_ll_exti.h ****   *         @arg @ref LL_EXTI_LINE_10
 362:Drivers/STM32G4xx_HAL_Driver/Inc/stm32g4xx_ll_exti.h ****   *         @arg @ref LL_EXTI_LINE_11
 363:Drivers/STM32G4xx_HAL_Driver/Inc/stm32g4xx_ll_exti.h ****   *         @arg @ref LL_EXTI_LINE_12
 364:Drivers/STM32G4xx_HAL_Driver/Inc/stm32g4xx_ll_exti.h ****   *         @arg @ref LL_EXTI_LINE_13
 365:Drivers/STM32G4xx_HAL_Driver/Inc/stm32g4xx_ll_exti.h ****   *         @arg @ref LL_EXTI_LINE_14
 366:Drivers/STM32G4xx_HAL_Driver/Inc/stm32g4xx_ll_exti.h ****   *         @arg @ref LL_EXTI_LINE_15
 367:Drivers/STM32G4xx_HAL_Driver/Inc/stm32g4xx_ll_exti.h ****   *         @arg @ref LL_EXTI_LINE_16
 368:Drivers/STM32G4xx_HAL_Driver/Inc/stm32g4xx_ll_exti.h ****   *         @arg @ref LL_EXTI_LINE_17
 369:Drivers/STM32G4xx_HAL_Driver/Inc/stm32g4xx_ll_exti.h ****   *         @arg @ref LL_EXTI_LINE_18
 370:Drivers/STM32G4xx_HAL_Driver/Inc/stm32g4xx_ll_exti.h ****   *         @arg @ref LL_EXTI_LINE_19
 371:Drivers/STM32G4xx_HAL_Driver/Inc/stm32g4xx_ll_exti.h ****   *         @arg @ref LL_EXTI_LINE_20
 372:Drivers/STM32G4xx_HAL_Driver/Inc/stm32g4xx_ll_exti.h ****   *         @arg @ref LL_EXTI_LINE_21
 373:Drivers/STM32G4xx_HAL_Driver/Inc/stm32g4xx_ll_exti.h ****   *         @arg @ref LL_EXTI_LINE_22
 374:Drivers/STM32G4xx_HAL_Driver/Inc/stm32g4xx_ll_exti.h ****   *         @arg @ref LL_EXTI_LINE_23
 375:Drivers/STM32G4xx_HAL_Driver/Inc/stm32g4xx_ll_exti.h ****   *         @arg @ref LL_EXTI_LINE_24
 376:Drivers/STM32G4xx_HAL_Driver/Inc/stm32g4xx_ll_exti.h ****   *         @arg @ref LL_EXTI_LINE_25
 377:Drivers/STM32G4xx_HAL_Driver/Inc/stm32g4xx_ll_exti.h ****   *         @arg @ref LL_EXTI_LINE_26
 378:Drivers/STM32G4xx_HAL_Driver/Inc/stm32g4xx_ll_exti.h ****   *         @arg @ref LL_EXTI_LINE_27
 379:Drivers/STM32G4xx_HAL_Driver/Inc/stm32g4xx_ll_exti.h ****   *         @arg @ref LL_EXTI_LINE_28
 380:Drivers/STM32G4xx_HAL_Driver/Inc/stm32g4xx_ll_exti.h ****   *         @arg @ref LL_EXTI_LINE_29
 381:Drivers/STM32G4xx_HAL_Driver/Inc/stm32g4xx_ll_exti.h ****   *         @arg @ref LL_EXTI_LINE_30
 382:Drivers/STM32G4xx_HAL_Driver/Inc/stm32g4xx_ll_exti.h ****   *         @arg @ref LL_EXTI_LINE_31
 383:Drivers/STM32G4xx_HAL_Driver/Inc/stm32g4xx_ll_exti.h ****   *         @arg @ref LL_EXTI_LINE_ALL_0_31 (*)
 384:Drivers/STM32G4xx_HAL_Driver/Inc/stm32g4xx_ll_exti.h ****   * @note   (*): Available in some devices
 385:Drivers/STM32G4xx_HAL_Driver/Inc/stm32g4xx_ll_exti.h ****   * @note   Please check each device line mapping for EXTI Line availability
 386:Drivers/STM32G4xx_HAL_Driver/Inc/stm32g4xx_ll_exti.h ****   * @retval None
 387:Drivers/STM32G4xx_HAL_Driver/Inc/stm32g4xx_ll_exti.h ****   */
 388:Drivers/STM32G4xx_HAL_Driver/Inc/stm32g4xx_ll_exti.h **** __STATIC_INLINE void LL_EXTI_DisableIT_0_31(uint32_t ExtiLine)
 389:Drivers/STM32G4xx_HAL_Driver/Inc/stm32g4xx_ll_exti.h **** {
 390:Drivers/STM32G4xx_HAL_Driver/Inc/stm32g4xx_ll_exti.h ****   CLEAR_BIT(EXTI->IMR1, ExtiLine);
 391:Drivers/STM32G4xx_HAL_Driver/Inc/stm32g4xx_ll_exti.h **** }
 392:Drivers/STM32G4xx_HAL_Driver/Inc/stm32g4xx_ll_exti.h **** 
 393:Drivers/STM32G4xx_HAL_Driver/Inc/stm32g4xx_ll_exti.h **** /**
 394:Drivers/STM32G4xx_HAL_Driver/Inc/stm32g4xx_ll_exti.h ****   * @brief  Disable ExtiLine Interrupt request for Lines in range 32 to 63
 395:Drivers/STM32G4xx_HAL_Driver/Inc/stm32g4xx_ll_exti.h ****   * @note The reset value for the direct lines (lines from 32 to 34, line
 396:Drivers/STM32G4xx_HAL_Driver/Inc/stm32g4xx_ll_exti.h ****   *       39) is set to 1 in order to enable the interrupt by default.
 397:Drivers/STM32G4xx_HAL_Driver/Inc/stm32g4xx_ll_exti.h ****   *       Bits are set automatically at Power on.
 398:Drivers/STM32G4xx_HAL_Driver/Inc/stm32g4xx_ll_exti.h ****   * @rmtoll IMR2         IMx           LL_EXTI_DisableIT_32_63
 399:Drivers/STM32G4xx_HAL_Driver/Inc/stm32g4xx_ll_exti.h ****   * @param  ExtiLine This parameter can be one of the following values:
 400:Drivers/STM32G4xx_HAL_Driver/Inc/stm32g4xx_ll_exti.h ****   *         @arg @ref LL_EXTI_LINE_32 (*)
 401:Drivers/STM32G4xx_HAL_Driver/Inc/stm32g4xx_ll_exti.h ****   *         @arg @ref LL_EXTI_LINE_33 (*)
 402:Drivers/STM32G4xx_HAL_Driver/Inc/stm32g4xx_ll_exti.h ****   *         @arg @ref LL_EXTI_LINE_34
 403:Drivers/STM32G4xx_HAL_Driver/Inc/stm32g4xx_ll_exti.h ****   *         @arg @ref LL_EXTI_LINE_35 (*)
 404:Drivers/STM32G4xx_HAL_Driver/Inc/stm32g4xx_ll_exti.h ****   *         @arg @ref LL_EXTI_LINE_36
 405:Drivers/STM32G4xx_HAL_Driver/Inc/stm32g4xx_ll_exti.h ****   *         @arg @ref LL_EXTI_LINE_37
 406:Drivers/STM32G4xx_HAL_Driver/Inc/stm32g4xx_ll_exti.h ****   *         @arg @ref LL_EXTI_LINE_38
 407:Drivers/STM32G4xx_HAL_Driver/Inc/stm32g4xx_ll_exti.h ****   *         @arg @ref LL_EXTI_LINE_39
 408:Drivers/STM32G4xx_HAL_Driver/Inc/stm32g4xx_ll_exti.h ****   *         @arg @ref LL_EXTI_LINE_40
 409:Drivers/STM32G4xx_HAL_Driver/Inc/stm32g4xx_ll_exti.h ****   *         @arg @ref LL_EXTI_LINE_41
 410:Drivers/STM32G4xx_HAL_Driver/Inc/stm32g4xx_ll_exti.h ****   *         @arg @ref LL_EXTI_LINE_42(*)
 411:Drivers/STM32G4xx_HAL_Driver/Inc/stm32g4xx_ll_exti.h ****   *         @arg @ref LL_EXTI_LINE_ALL_32_63
 412:Drivers/STM32G4xx_HAL_Driver/Inc/stm32g4xx_ll_exti.h ****   * @note   (*): Available in some devices
 413:Drivers/STM32G4xx_HAL_Driver/Inc/stm32g4xx_ll_exti.h ****   * @retval None
 414:Drivers/STM32G4xx_HAL_Driver/Inc/stm32g4xx_ll_exti.h ****   */
 415:Drivers/STM32G4xx_HAL_Driver/Inc/stm32g4xx_ll_exti.h **** __STATIC_INLINE void LL_EXTI_DisableIT_32_63(uint32_t ExtiLine)
 416:Drivers/STM32G4xx_HAL_Driver/Inc/stm32g4xx_ll_exti.h **** {
 417:Drivers/STM32G4xx_HAL_Driver/Inc/stm32g4xx_ll_exti.h ****   CLEAR_BIT(EXTI->IMR2, ExtiLine);
ARM GAS  /tmp/ccGmUGHU.s 			page 24


 418:Drivers/STM32G4xx_HAL_Driver/Inc/stm32g4xx_ll_exti.h **** }
 419:Drivers/STM32G4xx_HAL_Driver/Inc/stm32g4xx_ll_exti.h **** 
 420:Drivers/STM32G4xx_HAL_Driver/Inc/stm32g4xx_ll_exti.h **** /**
 421:Drivers/STM32G4xx_HAL_Driver/Inc/stm32g4xx_ll_exti.h ****   * @brief  Indicate if ExtiLine Interrupt request is enabled for Lines in range 0 to 31
 422:Drivers/STM32G4xx_HAL_Driver/Inc/stm32g4xx_ll_exti.h ****   * @note The reset value for the direct or internal lines (see RM)
 423:Drivers/STM32G4xx_HAL_Driver/Inc/stm32g4xx_ll_exti.h ****   *       is set to 1 in order to enable the interrupt by default.
 424:Drivers/STM32G4xx_HAL_Driver/Inc/stm32g4xx_ll_exti.h ****   *       Bits are set automatically at Power on.
 425:Drivers/STM32G4xx_HAL_Driver/Inc/stm32g4xx_ll_exti.h ****   * @rmtoll IMR1         IMx           LL_EXTI_IsEnabledIT_0_31
 426:Drivers/STM32G4xx_HAL_Driver/Inc/stm32g4xx_ll_exti.h ****   * @param  ExtiLine This parameter can be one of the following values:
 427:Drivers/STM32G4xx_HAL_Driver/Inc/stm32g4xx_ll_exti.h ****   *         @arg @ref LL_EXTI_LINE_0
 428:Drivers/STM32G4xx_HAL_Driver/Inc/stm32g4xx_ll_exti.h ****   *         @arg @ref LL_EXTI_LINE_1
 429:Drivers/STM32G4xx_HAL_Driver/Inc/stm32g4xx_ll_exti.h ****   *         @arg @ref LL_EXTI_LINE_2
 430:Drivers/STM32G4xx_HAL_Driver/Inc/stm32g4xx_ll_exti.h ****   *         @arg @ref LL_EXTI_LINE_3
 431:Drivers/STM32G4xx_HAL_Driver/Inc/stm32g4xx_ll_exti.h ****   *         @arg @ref LL_EXTI_LINE_4
 432:Drivers/STM32G4xx_HAL_Driver/Inc/stm32g4xx_ll_exti.h ****   *         @arg @ref LL_EXTI_LINE_5
 433:Drivers/STM32G4xx_HAL_Driver/Inc/stm32g4xx_ll_exti.h ****   *         @arg @ref LL_EXTI_LINE_6
 434:Drivers/STM32G4xx_HAL_Driver/Inc/stm32g4xx_ll_exti.h ****   *         @arg @ref LL_EXTI_LINE_7
 435:Drivers/STM32G4xx_HAL_Driver/Inc/stm32g4xx_ll_exti.h ****   *         @arg @ref LL_EXTI_LINE_8
 436:Drivers/STM32G4xx_HAL_Driver/Inc/stm32g4xx_ll_exti.h ****   *         @arg @ref LL_EXTI_LINE_9
 437:Drivers/STM32G4xx_HAL_Driver/Inc/stm32g4xx_ll_exti.h ****   *         @arg @ref LL_EXTI_LINE_10
 438:Drivers/STM32G4xx_HAL_Driver/Inc/stm32g4xx_ll_exti.h ****   *         @arg @ref LL_EXTI_LINE_11
 439:Drivers/STM32G4xx_HAL_Driver/Inc/stm32g4xx_ll_exti.h ****   *         @arg @ref LL_EXTI_LINE_12
 440:Drivers/STM32G4xx_HAL_Driver/Inc/stm32g4xx_ll_exti.h ****   *         @arg @ref LL_EXTI_LINE_13
 441:Drivers/STM32G4xx_HAL_Driver/Inc/stm32g4xx_ll_exti.h ****   *         @arg @ref LL_EXTI_LINE_14
 442:Drivers/STM32G4xx_HAL_Driver/Inc/stm32g4xx_ll_exti.h ****   *         @arg @ref LL_EXTI_LINE_15
 443:Drivers/STM32G4xx_HAL_Driver/Inc/stm32g4xx_ll_exti.h ****   *         @arg @ref LL_EXTI_LINE_16
 444:Drivers/STM32G4xx_HAL_Driver/Inc/stm32g4xx_ll_exti.h ****   *         @arg @ref LL_EXTI_LINE_17
 445:Drivers/STM32G4xx_HAL_Driver/Inc/stm32g4xx_ll_exti.h ****   *         @arg @ref LL_EXTI_LINE_18
 446:Drivers/STM32G4xx_HAL_Driver/Inc/stm32g4xx_ll_exti.h ****   *         @arg @ref LL_EXTI_LINE_19
 447:Drivers/STM32G4xx_HAL_Driver/Inc/stm32g4xx_ll_exti.h ****   *         @arg @ref LL_EXTI_LINE_20
 448:Drivers/STM32G4xx_HAL_Driver/Inc/stm32g4xx_ll_exti.h ****   *         @arg @ref LL_EXTI_LINE_21
 449:Drivers/STM32G4xx_HAL_Driver/Inc/stm32g4xx_ll_exti.h ****   *         @arg @ref LL_EXTI_LINE_22
 450:Drivers/STM32G4xx_HAL_Driver/Inc/stm32g4xx_ll_exti.h ****   *         @arg @ref LL_EXTI_LINE_23
 451:Drivers/STM32G4xx_HAL_Driver/Inc/stm32g4xx_ll_exti.h ****   *         @arg @ref LL_EXTI_LINE_24
 452:Drivers/STM32G4xx_HAL_Driver/Inc/stm32g4xx_ll_exti.h ****   *         @arg @ref LL_EXTI_LINE_25
 453:Drivers/STM32G4xx_HAL_Driver/Inc/stm32g4xx_ll_exti.h ****   *         @arg @ref LL_EXTI_LINE_26
 454:Drivers/STM32G4xx_HAL_Driver/Inc/stm32g4xx_ll_exti.h ****   *         @arg @ref LL_EXTI_LINE_27
 455:Drivers/STM32G4xx_HAL_Driver/Inc/stm32g4xx_ll_exti.h ****   *         @arg @ref LL_EXTI_LINE_28
 456:Drivers/STM32G4xx_HAL_Driver/Inc/stm32g4xx_ll_exti.h ****   *         @arg @ref LL_EXTI_LINE_29
 457:Drivers/STM32G4xx_HAL_Driver/Inc/stm32g4xx_ll_exti.h ****   *         @arg @ref LL_EXTI_LINE_30
 458:Drivers/STM32G4xx_HAL_Driver/Inc/stm32g4xx_ll_exti.h ****   *         @arg @ref LL_EXTI_LINE_31 (*)
 459:Drivers/STM32G4xx_HAL_Driver/Inc/stm32g4xx_ll_exti.h ****   *         @arg @ref LL_EXTI_LINE_ALL_0_31
 460:Drivers/STM32G4xx_HAL_Driver/Inc/stm32g4xx_ll_exti.h ****   * @note   (*): Available in some devices
 461:Drivers/STM32G4xx_HAL_Driver/Inc/stm32g4xx_ll_exti.h ****   * @note   Please check each device line mapping for EXTI Line availability
 462:Drivers/STM32G4xx_HAL_Driver/Inc/stm32g4xx_ll_exti.h ****   * @retval State of bit (1 or 0).
 463:Drivers/STM32G4xx_HAL_Driver/Inc/stm32g4xx_ll_exti.h ****   */
 464:Drivers/STM32G4xx_HAL_Driver/Inc/stm32g4xx_ll_exti.h **** __STATIC_INLINE uint32_t LL_EXTI_IsEnabledIT_0_31(uint32_t ExtiLine)
 465:Drivers/STM32G4xx_HAL_Driver/Inc/stm32g4xx_ll_exti.h **** {
 466:Drivers/STM32G4xx_HAL_Driver/Inc/stm32g4xx_ll_exti.h ****   return ((READ_BIT(EXTI->IMR1, ExtiLine) == (ExtiLine)) ? 1UL : 0UL);
 467:Drivers/STM32G4xx_HAL_Driver/Inc/stm32g4xx_ll_exti.h **** }
 468:Drivers/STM32G4xx_HAL_Driver/Inc/stm32g4xx_ll_exti.h **** 
 469:Drivers/STM32G4xx_HAL_Driver/Inc/stm32g4xx_ll_exti.h **** /**
 470:Drivers/STM32G4xx_HAL_Driver/Inc/stm32g4xx_ll_exti.h ****   * @brief  Indicate if ExtiLine Interrupt request is enabled for Lines in range 32 to 63
 471:Drivers/STM32G4xx_HAL_Driver/Inc/stm32g4xx_ll_exti.h ****   * @note The reset value for the direct lines (lines from 32 to 34, line
 472:Drivers/STM32G4xx_HAL_Driver/Inc/stm32g4xx_ll_exti.h ****   *       39) is set to 1 in order to enable the interrupt by default.
 473:Drivers/STM32G4xx_HAL_Driver/Inc/stm32g4xx_ll_exti.h ****   *       Bits are set automatically at Power on.
 474:Drivers/STM32G4xx_HAL_Driver/Inc/stm32g4xx_ll_exti.h ****   * @rmtoll IMR2         IMx           LL_EXTI_IsEnabledIT_32_63
ARM GAS  /tmp/ccGmUGHU.s 			page 25


 475:Drivers/STM32G4xx_HAL_Driver/Inc/stm32g4xx_ll_exti.h ****   * @param  ExtiLine This parameter can be one of the following values:
 476:Drivers/STM32G4xx_HAL_Driver/Inc/stm32g4xx_ll_exti.h ****   *         @arg @ref LL_EXTI_LINE_32 (*)
 477:Drivers/STM32G4xx_HAL_Driver/Inc/stm32g4xx_ll_exti.h ****   *         @arg @ref LL_EXTI_LINE_33 (*)
 478:Drivers/STM32G4xx_HAL_Driver/Inc/stm32g4xx_ll_exti.h ****   *         @arg @ref LL_EXTI_LINE_34
 479:Drivers/STM32G4xx_HAL_Driver/Inc/stm32g4xx_ll_exti.h ****   *         @arg @ref LL_EXTI_LINE_35 (*)
 480:Drivers/STM32G4xx_HAL_Driver/Inc/stm32g4xx_ll_exti.h ****   *         @arg @ref LL_EXTI_LINE_36
 481:Drivers/STM32G4xx_HAL_Driver/Inc/stm32g4xx_ll_exti.h ****   *         @arg @ref LL_EXTI_LINE_37
 482:Drivers/STM32G4xx_HAL_Driver/Inc/stm32g4xx_ll_exti.h ****   *         @arg @ref LL_EXTI_LINE_38
 483:Drivers/STM32G4xx_HAL_Driver/Inc/stm32g4xx_ll_exti.h ****   *         @arg @ref LL_EXTI_LINE_39
 484:Drivers/STM32G4xx_HAL_Driver/Inc/stm32g4xx_ll_exti.h ****   *         @arg @ref LL_EXTI_LINE_40
 485:Drivers/STM32G4xx_HAL_Driver/Inc/stm32g4xx_ll_exti.h ****   *         @arg @ref LL_EXTI_LINE_41
 486:Drivers/STM32G4xx_HAL_Driver/Inc/stm32g4xx_ll_exti.h ****   *         @arg @ref LL_EXTI_LINE_42(*)
 487:Drivers/STM32G4xx_HAL_Driver/Inc/stm32g4xx_ll_exti.h ****   *         @arg @ref LL_EXTI_LINE_ALL_32_63
 488:Drivers/STM32G4xx_HAL_Driver/Inc/stm32g4xx_ll_exti.h ****   * @note   (*): Available in some devices
 489:Drivers/STM32G4xx_HAL_Driver/Inc/stm32g4xx_ll_exti.h ****   * @retval State of bit (1 or 0).
 490:Drivers/STM32G4xx_HAL_Driver/Inc/stm32g4xx_ll_exti.h ****   */
 491:Drivers/STM32G4xx_HAL_Driver/Inc/stm32g4xx_ll_exti.h **** __STATIC_INLINE uint32_t LL_EXTI_IsEnabledIT_32_63(uint32_t ExtiLine)
 492:Drivers/STM32G4xx_HAL_Driver/Inc/stm32g4xx_ll_exti.h **** {
 493:Drivers/STM32G4xx_HAL_Driver/Inc/stm32g4xx_ll_exti.h ****   return ((READ_BIT(EXTI->IMR2, ExtiLine) == (ExtiLine)) ? 1UL : 0UL);
 494:Drivers/STM32G4xx_HAL_Driver/Inc/stm32g4xx_ll_exti.h **** }
 495:Drivers/STM32G4xx_HAL_Driver/Inc/stm32g4xx_ll_exti.h **** 
 496:Drivers/STM32G4xx_HAL_Driver/Inc/stm32g4xx_ll_exti.h **** /**
 497:Drivers/STM32G4xx_HAL_Driver/Inc/stm32g4xx_ll_exti.h ****   * @}
 498:Drivers/STM32G4xx_HAL_Driver/Inc/stm32g4xx_ll_exti.h ****   */
 499:Drivers/STM32G4xx_HAL_Driver/Inc/stm32g4xx_ll_exti.h **** 
 500:Drivers/STM32G4xx_HAL_Driver/Inc/stm32g4xx_ll_exti.h **** /** @defgroup EXTI_LL_EF_Event_Management Event_Management
 501:Drivers/STM32G4xx_HAL_Driver/Inc/stm32g4xx_ll_exti.h ****   * @{
 502:Drivers/STM32G4xx_HAL_Driver/Inc/stm32g4xx_ll_exti.h ****   */
 503:Drivers/STM32G4xx_HAL_Driver/Inc/stm32g4xx_ll_exti.h **** 
 504:Drivers/STM32G4xx_HAL_Driver/Inc/stm32g4xx_ll_exti.h **** /**
 505:Drivers/STM32G4xx_HAL_Driver/Inc/stm32g4xx_ll_exti.h ****   * @brief  Enable ExtiLine Event request for Lines in range 0 to 31
 506:Drivers/STM32G4xx_HAL_Driver/Inc/stm32g4xx_ll_exti.h ****   * @rmtoll EMR1         EMx           LL_EXTI_EnableEvent_0_31
 507:Drivers/STM32G4xx_HAL_Driver/Inc/stm32g4xx_ll_exti.h ****   * @param  ExtiLine This parameter can be one of the following values:
 508:Drivers/STM32G4xx_HAL_Driver/Inc/stm32g4xx_ll_exti.h ****   *         @arg @ref LL_EXTI_LINE_0
 509:Drivers/STM32G4xx_HAL_Driver/Inc/stm32g4xx_ll_exti.h ****   *         @arg @ref LL_EXTI_LINE_1
 510:Drivers/STM32G4xx_HAL_Driver/Inc/stm32g4xx_ll_exti.h ****   *         @arg @ref LL_EXTI_LINE_2
 511:Drivers/STM32G4xx_HAL_Driver/Inc/stm32g4xx_ll_exti.h ****   *         @arg @ref LL_EXTI_LINE_3
 512:Drivers/STM32G4xx_HAL_Driver/Inc/stm32g4xx_ll_exti.h ****   *         @arg @ref LL_EXTI_LINE_4
 513:Drivers/STM32G4xx_HAL_Driver/Inc/stm32g4xx_ll_exti.h ****   *         @arg @ref LL_EXTI_LINE_5
 514:Drivers/STM32G4xx_HAL_Driver/Inc/stm32g4xx_ll_exti.h ****   *         @arg @ref LL_EXTI_LINE_6
 515:Drivers/STM32G4xx_HAL_Driver/Inc/stm32g4xx_ll_exti.h ****   *         @arg @ref LL_EXTI_LINE_7
 516:Drivers/STM32G4xx_HAL_Driver/Inc/stm32g4xx_ll_exti.h ****   *         @arg @ref LL_EXTI_LINE_8
 517:Drivers/STM32G4xx_HAL_Driver/Inc/stm32g4xx_ll_exti.h ****   *         @arg @ref LL_EXTI_LINE_9
 518:Drivers/STM32G4xx_HAL_Driver/Inc/stm32g4xx_ll_exti.h ****   *         @arg @ref LL_EXTI_LINE_10
 519:Drivers/STM32G4xx_HAL_Driver/Inc/stm32g4xx_ll_exti.h ****   *         @arg @ref LL_EXTI_LINE_11
 520:Drivers/STM32G4xx_HAL_Driver/Inc/stm32g4xx_ll_exti.h ****   *         @arg @ref LL_EXTI_LINE_12
 521:Drivers/STM32G4xx_HAL_Driver/Inc/stm32g4xx_ll_exti.h ****   *         @arg @ref LL_EXTI_LINE_13
 522:Drivers/STM32G4xx_HAL_Driver/Inc/stm32g4xx_ll_exti.h ****   *         @arg @ref LL_EXTI_LINE_14
 523:Drivers/STM32G4xx_HAL_Driver/Inc/stm32g4xx_ll_exti.h ****   *         @arg @ref LL_EXTI_LINE_15
 524:Drivers/STM32G4xx_HAL_Driver/Inc/stm32g4xx_ll_exti.h ****   *         @arg @ref LL_EXTI_LINE_16
 525:Drivers/STM32G4xx_HAL_Driver/Inc/stm32g4xx_ll_exti.h ****   *         @arg @ref LL_EXTI_LINE_17
 526:Drivers/STM32G4xx_HAL_Driver/Inc/stm32g4xx_ll_exti.h ****   *         @arg @ref LL_EXTI_LINE_18
 527:Drivers/STM32G4xx_HAL_Driver/Inc/stm32g4xx_ll_exti.h ****   *         @arg @ref LL_EXTI_LINE_19
 528:Drivers/STM32G4xx_HAL_Driver/Inc/stm32g4xx_ll_exti.h ****   *         @arg @ref LL_EXTI_LINE_20
 529:Drivers/STM32G4xx_HAL_Driver/Inc/stm32g4xx_ll_exti.h ****   *         @arg @ref LL_EXTI_LINE_21
 530:Drivers/STM32G4xx_HAL_Driver/Inc/stm32g4xx_ll_exti.h ****   *         @arg @ref LL_EXTI_LINE_22
 531:Drivers/STM32G4xx_HAL_Driver/Inc/stm32g4xx_ll_exti.h ****   *         @arg @ref LL_EXTI_LINE_23
ARM GAS  /tmp/ccGmUGHU.s 			page 26


 532:Drivers/STM32G4xx_HAL_Driver/Inc/stm32g4xx_ll_exti.h ****   *         @arg @ref LL_EXTI_LINE_24
 533:Drivers/STM32G4xx_HAL_Driver/Inc/stm32g4xx_ll_exti.h ****   *         @arg @ref LL_EXTI_LINE_25
 534:Drivers/STM32G4xx_HAL_Driver/Inc/stm32g4xx_ll_exti.h ****   *         @arg @ref LL_EXTI_LINE_26
 535:Drivers/STM32G4xx_HAL_Driver/Inc/stm32g4xx_ll_exti.h ****   *         @arg @ref LL_EXTI_LINE_27
 536:Drivers/STM32G4xx_HAL_Driver/Inc/stm32g4xx_ll_exti.h ****   *         @arg @ref LL_EXTI_LINE_28
 537:Drivers/STM32G4xx_HAL_Driver/Inc/stm32g4xx_ll_exti.h ****   *         @arg @ref LL_EXTI_LINE_29
 538:Drivers/STM32G4xx_HAL_Driver/Inc/stm32g4xx_ll_exti.h ****   *         @arg @ref LL_EXTI_LINE_30
 539:Drivers/STM32G4xx_HAL_Driver/Inc/stm32g4xx_ll_exti.h ****   *         @arg @ref LL_EXTI_LINE_31
 540:Drivers/STM32G4xx_HAL_Driver/Inc/stm32g4xx_ll_exti.h ****   *         @arg @ref LL_EXTI_LINE_ALL_0_31 (*)
 541:Drivers/STM32G4xx_HAL_Driver/Inc/stm32g4xx_ll_exti.h ****   * @note   (*): Available in some devices
 542:Drivers/STM32G4xx_HAL_Driver/Inc/stm32g4xx_ll_exti.h ****   * @note   Please check each device line mapping for EXTI Line availability
 543:Drivers/STM32G4xx_HAL_Driver/Inc/stm32g4xx_ll_exti.h ****   * @retval None
 544:Drivers/STM32G4xx_HAL_Driver/Inc/stm32g4xx_ll_exti.h ****   */
 545:Drivers/STM32G4xx_HAL_Driver/Inc/stm32g4xx_ll_exti.h **** __STATIC_INLINE void LL_EXTI_EnableEvent_0_31(uint32_t ExtiLine)
 546:Drivers/STM32G4xx_HAL_Driver/Inc/stm32g4xx_ll_exti.h **** {
 547:Drivers/STM32G4xx_HAL_Driver/Inc/stm32g4xx_ll_exti.h ****   SET_BIT(EXTI->EMR1, ExtiLine);
 548:Drivers/STM32G4xx_HAL_Driver/Inc/stm32g4xx_ll_exti.h **** 
 549:Drivers/STM32G4xx_HAL_Driver/Inc/stm32g4xx_ll_exti.h **** }
 550:Drivers/STM32G4xx_HAL_Driver/Inc/stm32g4xx_ll_exti.h **** 
 551:Drivers/STM32G4xx_HAL_Driver/Inc/stm32g4xx_ll_exti.h **** /**
 552:Drivers/STM32G4xx_HAL_Driver/Inc/stm32g4xx_ll_exti.h ****   * @brief  Enable ExtiLine Event request for Lines in range 32 to 63
 553:Drivers/STM32G4xx_HAL_Driver/Inc/stm32g4xx_ll_exti.h ****   * @rmtoll EMR2         EMx           LL_EXTI_EnableEvent_32_63
 554:Drivers/STM32G4xx_HAL_Driver/Inc/stm32g4xx_ll_exti.h ****   * @param  ExtiLine This parameter can be a combination of the following values:
 555:Drivers/STM32G4xx_HAL_Driver/Inc/stm32g4xx_ll_exti.h ****   *         @arg @ref LL_EXTI_LINE_32 (*)
 556:Drivers/STM32G4xx_HAL_Driver/Inc/stm32g4xx_ll_exti.h ****   *         @arg @ref LL_EXTI_LINE_33 (*)
 557:Drivers/STM32G4xx_HAL_Driver/Inc/stm32g4xx_ll_exti.h ****   *         @arg @ref LL_EXTI_LINE_34
 558:Drivers/STM32G4xx_HAL_Driver/Inc/stm32g4xx_ll_exti.h ****   *         @arg @ref LL_EXTI_LINE_35 (*)
 559:Drivers/STM32G4xx_HAL_Driver/Inc/stm32g4xx_ll_exti.h ****   *         @arg @ref LL_EXTI_LINE_36
 560:Drivers/STM32G4xx_HAL_Driver/Inc/stm32g4xx_ll_exti.h ****   *         @arg @ref LL_EXTI_LINE_37
 561:Drivers/STM32G4xx_HAL_Driver/Inc/stm32g4xx_ll_exti.h ****   *         @arg @ref LL_EXTI_LINE_38
 562:Drivers/STM32G4xx_HAL_Driver/Inc/stm32g4xx_ll_exti.h ****   *         @arg @ref LL_EXTI_LINE_39
 563:Drivers/STM32G4xx_HAL_Driver/Inc/stm32g4xx_ll_exti.h ****   *         @arg @ref LL_EXTI_LINE_40
 564:Drivers/STM32G4xx_HAL_Driver/Inc/stm32g4xx_ll_exti.h ****   *         @arg @ref LL_EXTI_LINE_41
 565:Drivers/STM32G4xx_HAL_Driver/Inc/stm32g4xx_ll_exti.h ****   *         @arg @ref LL_EXTI_LINE_42(*)
 566:Drivers/STM32G4xx_HAL_Driver/Inc/stm32g4xx_ll_exti.h ****   *         @arg @ref LL_EXTI_LINE_ALL_32_63
 567:Drivers/STM32G4xx_HAL_Driver/Inc/stm32g4xx_ll_exti.h ****   * @note   (*): Available in some devices
 568:Drivers/STM32G4xx_HAL_Driver/Inc/stm32g4xx_ll_exti.h ****   * @retval None
 569:Drivers/STM32G4xx_HAL_Driver/Inc/stm32g4xx_ll_exti.h ****   */
 570:Drivers/STM32G4xx_HAL_Driver/Inc/stm32g4xx_ll_exti.h **** __STATIC_INLINE void LL_EXTI_EnableEvent_32_63(uint32_t ExtiLine)
 571:Drivers/STM32G4xx_HAL_Driver/Inc/stm32g4xx_ll_exti.h **** {
 572:Drivers/STM32G4xx_HAL_Driver/Inc/stm32g4xx_ll_exti.h ****   SET_BIT(EXTI->EMR2, ExtiLine);
 573:Drivers/STM32G4xx_HAL_Driver/Inc/stm32g4xx_ll_exti.h **** }
 574:Drivers/STM32G4xx_HAL_Driver/Inc/stm32g4xx_ll_exti.h **** 
 575:Drivers/STM32G4xx_HAL_Driver/Inc/stm32g4xx_ll_exti.h **** /**
 576:Drivers/STM32G4xx_HAL_Driver/Inc/stm32g4xx_ll_exti.h ****   * @brief  Disable ExtiLine Event request for Lines in range 0 to 31
 577:Drivers/STM32G4xx_HAL_Driver/Inc/stm32g4xx_ll_exti.h ****   * @rmtoll EMR1         EMx           LL_EXTI_DisableEvent_0_31
 578:Drivers/STM32G4xx_HAL_Driver/Inc/stm32g4xx_ll_exti.h ****   * @param  ExtiLine This parameter can be one of the following values:
 579:Drivers/STM32G4xx_HAL_Driver/Inc/stm32g4xx_ll_exti.h ****   *         @arg @ref LL_EXTI_LINE_0
 580:Drivers/STM32G4xx_HAL_Driver/Inc/stm32g4xx_ll_exti.h ****   *         @arg @ref LL_EXTI_LINE_1
 581:Drivers/STM32G4xx_HAL_Driver/Inc/stm32g4xx_ll_exti.h ****   *         @arg @ref LL_EXTI_LINE_2
 582:Drivers/STM32G4xx_HAL_Driver/Inc/stm32g4xx_ll_exti.h ****   *         @arg @ref LL_EXTI_LINE_3
 583:Drivers/STM32G4xx_HAL_Driver/Inc/stm32g4xx_ll_exti.h ****   *         @arg @ref LL_EXTI_LINE_4
 584:Drivers/STM32G4xx_HAL_Driver/Inc/stm32g4xx_ll_exti.h ****   *         @arg @ref LL_EXTI_LINE_5
 585:Drivers/STM32G4xx_HAL_Driver/Inc/stm32g4xx_ll_exti.h ****   *         @arg @ref LL_EXTI_LINE_6
 586:Drivers/STM32G4xx_HAL_Driver/Inc/stm32g4xx_ll_exti.h ****   *         @arg @ref LL_EXTI_LINE_7
 587:Drivers/STM32G4xx_HAL_Driver/Inc/stm32g4xx_ll_exti.h ****   *         @arg @ref LL_EXTI_LINE_8
 588:Drivers/STM32G4xx_HAL_Driver/Inc/stm32g4xx_ll_exti.h ****   *         @arg @ref LL_EXTI_LINE_9
ARM GAS  /tmp/ccGmUGHU.s 			page 27


 589:Drivers/STM32G4xx_HAL_Driver/Inc/stm32g4xx_ll_exti.h ****   *         @arg @ref LL_EXTI_LINE_10
 590:Drivers/STM32G4xx_HAL_Driver/Inc/stm32g4xx_ll_exti.h ****   *         @arg @ref LL_EXTI_LINE_11
 591:Drivers/STM32G4xx_HAL_Driver/Inc/stm32g4xx_ll_exti.h ****   *         @arg @ref LL_EXTI_LINE_12
 592:Drivers/STM32G4xx_HAL_Driver/Inc/stm32g4xx_ll_exti.h ****   *         @arg @ref LL_EXTI_LINE_13
 593:Drivers/STM32G4xx_HAL_Driver/Inc/stm32g4xx_ll_exti.h ****   *         @arg @ref LL_EXTI_LINE_14
 594:Drivers/STM32G4xx_HAL_Driver/Inc/stm32g4xx_ll_exti.h ****   *         @arg @ref LL_EXTI_LINE_15
 595:Drivers/STM32G4xx_HAL_Driver/Inc/stm32g4xx_ll_exti.h ****   *         @arg @ref LL_EXTI_LINE_16
 596:Drivers/STM32G4xx_HAL_Driver/Inc/stm32g4xx_ll_exti.h ****   *         @arg @ref LL_EXTI_LINE_17
 597:Drivers/STM32G4xx_HAL_Driver/Inc/stm32g4xx_ll_exti.h ****   *         @arg @ref LL_EXTI_LINE_18
 598:Drivers/STM32G4xx_HAL_Driver/Inc/stm32g4xx_ll_exti.h ****   *         @arg @ref LL_EXTI_LINE_19
 599:Drivers/STM32G4xx_HAL_Driver/Inc/stm32g4xx_ll_exti.h ****   *         @arg @ref LL_EXTI_LINE_20
 600:Drivers/STM32G4xx_HAL_Driver/Inc/stm32g4xx_ll_exti.h ****   *         @arg @ref LL_EXTI_LINE_21
 601:Drivers/STM32G4xx_HAL_Driver/Inc/stm32g4xx_ll_exti.h ****   *         @arg @ref LL_EXTI_LINE_22
 602:Drivers/STM32G4xx_HAL_Driver/Inc/stm32g4xx_ll_exti.h ****   *         @arg @ref LL_EXTI_LINE_23
 603:Drivers/STM32G4xx_HAL_Driver/Inc/stm32g4xx_ll_exti.h ****   *         @arg @ref LL_EXTI_LINE_24
 604:Drivers/STM32G4xx_HAL_Driver/Inc/stm32g4xx_ll_exti.h ****   *         @arg @ref LL_EXTI_LINE_25
 605:Drivers/STM32G4xx_HAL_Driver/Inc/stm32g4xx_ll_exti.h ****   *         @arg @ref LL_EXTI_LINE_26
 606:Drivers/STM32G4xx_HAL_Driver/Inc/stm32g4xx_ll_exti.h ****   *         @arg @ref LL_EXTI_LINE_27
 607:Drivers/STM32G4xx_HAL_Driver/Inc/stm32g4xx_ll_exti.h ****   *         @arg @ref LL_EXTI_LINE_28
 608:Drivers/STM32G4xx_HAL_Driver/Inc/stm32g4xx_ll_exti.h ****   *         @arg @ref LL_EXTI_LINE_29
 609:Drivers/STM32G4xx_HAL_Driver/Inc/stm32g4xx_ll_exti.h ****   *         @arg @ref LL_EXTI_LINE_30
 610:Drivers/STM32G4xx_HAL_Driver/Inc/stm32g4xx_ll_exti.h ****   *         @arg @ref LL_EXTI_LINE_31 (*)
 611:Drivers/STM32G4xx_HAL_Driver/Inc/stm32g4xx_ll_exti.h ****   *         @arg @ref LL_EXTI_LINE_ALL_0_31
 612:Drivers/STM32G4xx_HAL_Driver/Inc/stm32g4xx_ll_exti.h ****   * @note   (*): Available in some devices
 613:Drivers/STM32G4xx_HAL_Driver/Inc/stm32g4xx_ll_exti.h ****   * @note   Please check each device line mapping for EXTI Line availability
 614:Drivers/STM32G4xx_HAL_Driver/Inc/stm32g4xx_ll_exti.h ****   * @retval None
 615:Drivers/STM32G4xx_HAL_Driver/Inc/stm32g4xx_ll_exti.h ****   */
 616:Drivers/STM32G4xx_HAL_Driver/Inc/stm32g4xx_ll_exti.h **** __STATIC_INLINE void LL_EXTI_DisableEvent_0_31(uint32_t ExtiLine)
 617:Drivers/STM32G4xx_HAL_Driver/Inc/stm32g4xx_ll_exti.h **** {
 618:Drivers/STM32G4xx_HAL_Driver/Inc/stm32g4xx_ll_exti.h ****   CLEAR_BIT(EXTI->EMR1, ExtiLine);
 619:Drivers/STM32G4xx_HAL_Driver/Inc/stm32g4xx_ll_exti.h **** }
 620:Drivers/STM32G4xx_HAL_Driver/Inc/stm32g4xx_ll_exti.h **** 
 621:Drivers/STM32G4xx_HAL_Driver/Inc/stm32g4xx_ll_exti.h **** /**
 622:Drivers/STM32G4xx_HAL_Driver/Inc/stm32g4xx_ll_exti.h ****   * @brief  Disable ExtiLine Event request for Lines in range 32 to 63
 623:Drivers/STM32G4xx_HAL_Driver/Inc/stm32g4xx_ll_exti.h ****   * @rmtoll EMR2         EMx           LL_EXTI_DisableEvent_32_63
 624:Drivers/STM32G4xx_HAL_Driver/Inc/stm32g4xx_ll_exti.h ****   * @param  ExtiLine This parameter can be a combination of the following values:
 625:Drivers/STM32G4xx_HAL_Driver/Inc/stm32g4xx_ll_exti.h ****   *         @arg @ref LL_EXTI_LINE_32 (*)
 626:Drivers/STM32G4xx_HAL_Driver/Inc/stm32g4xx_ll_exti.h ****   *         @arg @ref LL_EXTI_LINE_33 (*)
 627:Drivers/STM32G4xx_HAL_Driver/Inc/stm32g4xx_ll_exti.h ****   *         @arg @ref LL_EXTI_LINE_34
 628:Drivers/STM32G4xx_HAL_Driver/Inc/stm32g4xx_ll_exti.h ****   *         @arg @ref LL_EXTI_LINE_35 (*)
 629:Drivers/STM32G4xx_HAL_Driver/Inc/stm32g4xx_ll_exti.h ****   *         @arg @ref LL_EXTI_LINE_36
 630:Drivers/STM32G4xx_HAL_Driver/Inc/stm32g4xx_ll_exti.h ****   *         @arg @ref LL_EXTI_LINE_37
 631:Drivers/STM32G4xx_HAL_Driver/Inc/stm32g4xx_ll_exti.h ****   *         @arg @ref LL_EXTI_LINE_38
 632:Drivers/STM32G4xx_HAL_Driver/Inc/stm32g4xx_ll_exti.h ****   *         @arg @ref LL_EXTI_LINE_39
 633:Drivers/STM32G4xx_HAL_Driver/Inc/stm32g4xx_ll_exti.h ****   *         @arg @ref LL_EXTI_LINE_40
 634:Drivers/STM32G4xx_HAL_Driver/Inc/stm32g4xx_ll_exti.h ****   *         @arg @ref LL_EXTI_LINE_41
 635:Drivers/STM32G4xx_HAL_Driver/Inc/stm32g4xx_ll_exti.h ****   *         @arg @ref LL_EXTI_LINE_42(*)
 636:Drivers/STM32G4xx_HAL_Driver/Inc/stm32g4xx_ll_exti.h ****   *         @arg @ref LL_EXTI_LINE_ALL_32_63
 637:Drivers/STM32G4xx_HAL_Driver/Inc/stm32g4xx_ll_exti.h ****   * @note   (*): Available in some devices
 638:Drivers/STM32G4xx_HAL_Driver/Inc/stm32g4xx_ll_exti.h ****   * @retval None
 639:Drivers/STM32G4xx_HAL_Driver/Inc/stm32g4xx_ll_exti.h ****   */
 640:Drivers/STM32G4xx_HAL_Driver/Inc/stm32g4xx_ll_exti.h **** __STATIC_INLINE void LL_EXTI_DisableEvent_32_63(uint32_t ExtiLine)
 641:Drivers/STM32G4xx_HAL_Driver/Inc/stm32g4xx_ll_exti.h **** {
 642:Drivers/STM32G4xx_HAL_Driver/Inc/stm32g4xx_ll_exti.h ****   CLEAR_BIT(EXTI->EMR2, ExtiLine);
 643:Drivers/STM32G4xx_HAL_Driver/Inc/stm32g4xx_ll_exti.h **** }
 644:Drivers/STM32G4xx_HAL_Driver/Inc/stm32g4xx_ll_exti.h **** 
 645:Drivers/STM32G4xx_HAL_Driver/Inc/stm32g4xx_ll_exti.h **** /**
ARM GAS  /tmp/ccGmUGHU.s 			page 28


 646:Drivers/STM32G4xx_HAL_Driver/Inc/stm32g4xx_ll_exti.h ****   * @brief  Indicate if ExtiLine Event request is enabled for Lines in range 0 to 31
 647:Drivers/STM32G4xx_HAL_Driver/Inc/stm32g4xx_ll_exti.h ****   * @rmtoll EMR1         EMx           LL_EXTI_IsEnabledEvent_0_31
 648:Drivers/STM32G4xx_HAL_Driver/Inc/stm32g4xx_ll_exti.h ****   * @param  ExtiLine This parameter can be one of the following values:
 649:Drivers/STM32G4xx_HAL_Driver/Inc/stm32g4xx_ll_exti.h ****   *         @arg @ref LL_EXTI_LINE_0
 650:Drivers/STM32G4xx_HAL_Driver/Inc/stm32g4xx_ll_exti.h ****   *         @arg @ref LL_EXTI_LINE_1
 651:Drivers/STM32G4xx_HAL_Driver/Inc/stm32g4xx_ll_exti.h ****   *         @arg @ref LL_EXTI_LINE_2
 652:Drivers/STM32G4xx_HAL_Driver/Inc/stm32g4xx_ll_exti.h ****   *         @arg @ref LL_EXTI_LINE_3
 653:Drivers/STM32G4xx_HAL_Driver/Inc/stm32g4xx_ll_exti.h ****   *         @arg @ref LL_EXTI_LINE_4
 654:Drivers/STM32G4xx_HAL_Driver/Inc/stm32g4xx_ll_exti.h ****   *         @arg @ref LL_EXTI_LINE_5
 655:Drivers/STM32G4xx_HAL_Driver/Inc/stm32g4xx_ll_exti.h ****   *         @arg @ref LL_EXTI_LINE_6
 656:Drivers/STM32G4xx_HAL_Driver/Inc/stm32g4xx_ll_exti.h ****   *         @arg @ref LL_EXTI_LINE_7
 657:Drivers/STM32G4xx_HAL_Driver/Inc/stm32g4xx_ll_exti.h ****   *         @arg @ref LL_EXTI_LINE_8
 658:Drivers/STM32G4xx_HAL_Driver/Inc/stm32g4xx_ll_exti.h ****   *         @arg @ref LL_EXTI_LINE_9
 659:Drivers/STM32G4xx_HAL_Driver/Inc/stm32g4xx_ll_exti.h ****   *         @arg @ref LL_EXTI_LINE_10
 660:Drivers/STM32G4xx_HAL_Driver/Inc/stm32g4xx_ll_exti.h ****   *         @arg @ref LL_EXTI_LINE_11
 661:Drivers/STM32G4xx_HAL_Driver/Inc/stm32g4xx_ll_exti.h ****   *         @arg @ref LL_EXTI_LINE_12
 662:Drivers/STM32G4xx_HAL_Driver/Inc/stm32g4xx_ll_exti.h ****   *         @arg @ref LL_EXTI_LINE_13
 663:Drivers/STM32G4xx_HAL_Driver/Inc/stm32g4xx_ll_exti.h ****   *         @arg @ref LL_EXTI_LINE_14
 664:Drivers/STM32G4xx_HAL_Driver/Inc/stm32g4xx_ll_exti.h ****   *         @arg @ref LL_EXTI_LINE_15
 665:Drivers/STM32G4xx_HAL_Driver/Inc/stm32g4xx_ll_exti.h ****   *         @arg @ref LL_EXTI_LINE_16
 666:Drivers/STM32G4xx_HAL_Driver/Inc/stm32g4xx_ll_exti.h ****   *         @arg @ref LL_EXTI_LINE_17
 667:Drivers/STM32G4xx_HAL_Driver/Inc/stm32g4xx_ll_exti.h ****   *         @arg @ref LL_EXTI_LINE_18
 668:Drivers/STM32G4xx_HAL_Driver/Inc/stm32g4xx_ll_exti.h ****   *         @arg @ref LL_EXTI_LINE_19
 669:Drivers/STM32G4xx_HAL_Driver/Inc/stm32g4xx_ll_exti.h ****   *         @arg @ref LL_EXTI_LINE_20
 670:Drivers/STM32G4xx_HAL_Driver/Inc/stm32g4xx_ll_exti.h ****   *         @arg @ref LL_EXTI_LINE_21
 671:Drivers/STM32G4xx_HAL_Driver/Inc/stm32g4xx_ll_exti.h ****   *         @arg @ref LL_EXTI_LINE_22
 672:Drivers/STM32G4xx_HAL_Driver/Inc/stm32g4xx_ll_exti.h ****   *         @arg @ref LL_EXTI_LINE_23
 673:Drivers/STM32G4xx_HAL_Driver/Inc/stm32g4xx_ll_exti.h ****   *         @arg @ref LL_EXTI_LINE_24
 674:Drivers/STM32G4xx_HAL_Driver/Inc/stm32g4xx_ll_exti.h ****   *         @arg @ref LL_EXTI_LINE_25
 675:Drivers/STM32G4xx_HAL_Driver/Inc/stm32g4xx_ll_exti.h ****   *         @arg @ref LL_EXTI_LINE_26
 676:Drivers/STM32G4xx_HAL_Driver/Inc/stm32g4xx_ll_exti.h ****   *         @arg @ref LL_EXTI_LINE_27
 677:Drivers/STM32G4xx_HAL_Driver/Inc/stm32g4xx_ll_exti.h ****   *         @arg @ref LL_EXTI_LINE_28
 678:Drivers/STM32G4xx_HAL_Driver/Inc/stm32g4xx_ll_exti.h ****   *         @arg @ref LL_EXTI_LINE_29
 679:Drivers/STM32G4xx_HAL_Driver/Inc/stm32g4xx_ll_exti.h ****   *         @arg @ref LL_EXTI_LINE_30
 680:Drivers/STM32G4xx_HAL_Driver/Inc/stm32g4xx_ll_exti.h ****   *         @arg @ref LL_EXTI_LINE_31
 681:Drivers/STM32G4xx_HAL_Driver/Inc/stm32g4xx_ll_exti.h ****   *         @arg @ref LL_EXTI_LINE_ALL_0_31 (*)
 682:Drivers/STM32G4xx_HAL_Driver/Inc/stm32g4xx_ll_exti.h ****   * @note   (*): Available in some devices
 683:Drivers/STM32G4xx_HAL_Driver/Inc/stm32g4xx_ll_exti.h ****   * @note   Please check each device line mapping for EXTI Line availability
 684:Drivers/STM32G4xx_HAL_Driver/Inc/stm32g4xx_ll_exti.h ****   * @retval State of bit (1 or 0).
 685:Drivers/STM32G4xx_HAL_Driver/Inc/stm32g4xx_ll_exti.h ****   */
 686:Drivers/STM32G4xx_HAL_Driver/Inc/stm32g4xx_ll_exti.h **** __STATIC_INLINE uint32_t LL_EXTI_IsEnabledEvent_0_31(uint32_t ExtiLine)
 687:Drivers/STM32G4xx_HAL_Driver/Inc/stm32g4xx_ll_exti.h **** {
 688:Drivers/STM32G4xx_HAL_Driver/Inc/stm32g4xx_ll_exti.h ****   return ((READ_BIT(EXTI->EMR1, ExtiLine) == (ExtiLine)) ? 1UL : 0UL);
 689:Drivers/STM32G4xx_HAL_Driver/Inc/stm32g4xx_ll_exti.h **** 
 690:Drivers/STM32G4xx_HAL_Driver/Inc/stm32g4xx_ll_exti.h **** }
 691:Drivers/STM32G4xx_HAL_Driver/Inc/stm32g4xx_ll_exti.h **** 
 692:Drivers/STM32G4xx_HAL_Driver/Inc/stm32g4xx_ll_exti.h **** /**
 693:Drivers/STM32G4xx_HAL_Driver/Inc/stm32g4xx_ll_exti.h ****   * @brief  Indicate if ExtiLine Event request is enabled for Lines in range 32 to 63
 694:Drivers/STM32G4xx_HAL_Driver/Inc/stm32g4xx_ll_exti.h ****   * @rmtoll EMR2         EMx           LL_EXTI_IsEnabledEvent_32_63
 695:Drivers/STM32G4xx_HAL_Driver/Inc/stm32g4xx_ll_exti.h ****   * @param  ExtiLine This parameter can be a combination of the following values:
 696:Drivers/STM32G4xx_HAL_Driver/Inc/stm32g4xx_ll_exti.h ****   *         @arg @ref LL_EXTI_LINE_32 (*)
 697:Drivers/STM32G4xx_HAL_Driver/Inc/stm32g4xx_ll_exti.h ****   *         @arg @ref LL_EXTI_LINE_33 (*)
 698:Drivers/STM32G4xx_HAL_Driver/Inc/stm32g4xx_ll_exti.h ****   *         @arg @ref LL_EXTI_LINE_34
 699:Drivers/STM32G4xx_HAL_Driver/Inc/stm32g4xx_ll_exti.h ****   *         @arg @ref LL_EXTI_LINE_35 (*)
 700:Drivers/STM32G4xx_HAL_Driver/Inc/stm32g4xx_ll_exti.h ****   *         @arg @ref LL_EXTI_LINE_36
 701:Drivers/STM32G4xx_HAL_Driver/Inc/stm32g4xx_ll_exti.h ****   *         @arg @ref LL_EXTI_LINE_37
 702:Drivers/STM32G4xx_HAL_Driver/Inc/stm32g4xx_ll_exti.h ****   *         @arg @ref LL_EXTI_LINE_38
ARM GAS  /tmp/ccGmUGHU.s 			page 29


 703:Drivers/STM32G4xx_HAL_Driver/Inc/stm32g4xx_ll_exti.h ****   *         @arg @ref LL_EXTI_LINE_39
 704:Drivers/STM32G4xx_HAL_Driver/Inc/stm32g4xx_ll_exti.h ****   *         @arg @ref LL_EXTI_LINE_40
 705:Drivers/STM32G4xx_HAL_Driver/Inc/stm32g4xx_ll_exti.h ****   *         @arg @ref LL_EXTI_LINE_41
 706:Drivers/STM32G4xx_HAL_Driver/Inc/stm32g4xx_ll_exti.h ****   *         @arg @ref LL_EXTI_LINE_42(*)
 707:Drivers/STM32G4xx_HAL_Driver/Inc/stm32g4xx_ll_exti.h ****   *         @arg @ref LL_EXTI_LINE_ALL_32_63
 708:Drivers/STM32G4xx_HAL_Driver/Inc/stm32g4xx_ll_exti.h ****   * @note   (*): Available in some devices
 709:Drivers/STM32G4xx_HAL_Driver/Inc/stm32g4xx_ll_exti.h ****   * @retval State of bit (1 or 0).
 710:Drivers/STM32G4xx_HAL_Driver/Inc/stm32g4xx_ll_exti.h ****   */
 711:Drivers/STM32G4xx_HAL_Driver/Inc/stm32g4xx_ll_exti.h **** __STATIC_INLINE uint32_t LL_EXTI_IsEnabledEvent_32_63(uint32_t ExtiLine)
 712:Drivers/STM32G4xx_HAL_Driver/Inc/stm32g4xx_ll_exti.h **** {
 713:Drivers/STM32G4xx_HAL_Driver/Inc/stm32g4xx_ll_exti.h ****   return ((READ_BIT(EXTI->EMR2, ExtiLine) == (ExtiLine)) ? 1UL : 0UL);
 714:Drivers/STM32G4xx_HAL_Driver/Inc/stm32g4xx_ll_exti.h **** }
 715:Drivers/STM32G4xx_HAL_Driver/Inc/stm32g4xx_ll_exti.h **** 
 716:Drivers/STM32G4xx_HAL_Driver/Inc/stm32g4xx_ll_exti.h **** /**
 717:Drivers/STM32G4xx_HAL_Driver/Inc/stm32g4xx_ll_exti.h ****   * @}
 718:Drivers/STM32G4xx_HAL_Driver/Inc/stm32g4xx_ll_exti.h ****   */
 719:Drivers/STM32G4xx_HAL_Driver/Inc/stm32g4xx_ll_exti.h **** 
 720:Drivers/STM32G4xx_HAL_Driver/Inc/stm32g4xx_ll_exti.h **** /** @defgroup EXTI_LL_EF_Rising_Trigger_Management Rising_Trigger_Management
 721:Drivers/STM32G4xx_HAL_Driver/Inc/stm32g4xx_ll_exti.h ****   * @{
 722:Drivers/STM32G4xx_HAL_Driver/Inc/stm32g4xx_ll_exti.h ****   */
 723:Drivers/STM32G4xx_HAL_Driver/Inc/stm32g4xx_ll_exti.h **** 
 724:Drivers/STM32G4xx_HAL_Driver/Inc/stm32g4xx_ll_exti.h **** /**
 725:Drivers/STM32G4xx_HAL_Driver/Inc/stm32g4xx_ll_exti.h ****   * @brief  Enable ExtiLine Rising Edge Trigger for Lines in range 0 to 31
 726:Drivers/STM32G4xx_HAL_Driver/Inc/stm32g4xx_ll_exti.h ****   * @note The configurable wakeup lines are edge-triggered. No glitch must be
 727:Drivers/STM32G4xx_HAL_Driver/Inc/stm32g4xx_ll_exti.h ****   *       generated on these lines. If a rising edge on a configurable interrupt
 728:Drivers/STM32G4xx_HAL_Driver/Inc/stm32g4xx_ll_exti.h ****   *       line occurs during a write operation in the EXTI_RTSR register, the
 729:Drivers/STM32G4xx_HAL_Driver/Inc/stm32g4xx_ll_exti.h ****   *       pending bit is not set.
 730:Drivers/STM32G4xx_HAL_Driver/Inc/stm32g4xx_ll_exti.h ****   *       Rising and falling edge triggers can be set for
 731:Drivers/STM32G4xx_HAL_Driver/Inc/stm32g4xx_ll_exti.h ****   *       the same interrupt line. In this case, both generate a trigger
 732:Drivers/STM32G4xx_HAL_Driver/Inc/stm32g4xx_ll_exti.h ****   *       condition.
 733:Drivers/STM32G4xx_HAL_Driver/Inc/stm32g4xx_ll_exti.h ****   * @rmtoll RTSR1        RTx           LL_EXTI_EnableRisingTrig_0_31
 734:Drivers/STM32G4xx_HAL_Driver/Inc/stm32g4xx_ll_exti.h ****   * @param  ExtiLine This parameter can be a combination of the following values:
 735:Drivers/STM32G4xx_HAL_Driver/Inc/stm32g4xx_ll_exti.h ****   *         @arg @ref LL_EXTI_LINE_0
 736:Drivers/STM32G4xx_HAL_Driver/Inc/stm32g4xx_ll_exti.h ****   *         @arg @ref LL_EXTI_LINE_1
 737:Drivers/STM32G4xx_HAL_Driver/Inc/stm32g4xx_ll_exti.h ****   *         @arg @ref LL_EXTI_LINE_2
 738:Drivers/STM32G4xx_HAL_Driver/Inc/stm32g4xx_ll_exti.h ****   *         @arg @ref LL_EXTI_LINE_3
 739:Drivers/STM32G4xx_HAL_Driver/Inc/stm32g4xx_ll_exti.h ****   *         @arg @ref LL_EXTI_LINE_4
 740:Drivers/STM32G4xx_HAL_Driver/Inc/stm32g4xx_ll_exti.h ****   *         @arg @ref LL_EXTI_LINE_5
 741:Drivers/STM32G4xx_HAL_Driver/Inc/stm32g4xx_ll_exti.h ****   *         @arg @ref LL_EXTI_LINE_6
 742:Drivers/STM32G4xx_HAL_Driver/Inc/stm32g4xx_ll_exti.h ****   *         @arg @ref LL_EXTI_LINE_7
 743:Drivers/STM32G4xx_HAL_Driver/Inc/stm32g4xx_ll_exti.h ****   *         @arg @ref LL_EXTI_LINE_8
 744:Drivers/STM32G4xx_HAL_Driver/Inc/stm32g4xx_ll_exti.h ****   *         @arg @ref LL_EXTI_LINE_9
 745:Drivers/STM32G4xx_HAL_Driver/Inc/stm32g4xx_ll_exti.h ****   *         @arg @ref LL_EXTI_LINE_10
 746:Drivers/STM32G4xx_HAL_Driver/Inc/stm32g4xx_ll_exti.h ****   *         @arg @ref LL_EXTI_LINE_11
 747:Drivers/STM32G4xx_HAL_Driver/Inc/stm32g4xx_ll_exti.h ****   *         @arg @ref LL_EXTI_LINE_12
 748:Drivers/STM32G4xx_HAL_Driver/Inc/stm32g4xx_ll_exti.h ****   *         @arg @ref LL_EXTI_LINE_13
 749:Drivers/STM32G4xx_HAL_Driver/Inc/stm32g4xx_ll_exti.h ****   *         @arg @ref LL_EXTI_LINE_14
 750:Drivers/STM32G4xx_HAL_Driver/Inc/stm32g4xx_ll_exti.h ****   *         @arg @ref LL_EXTI_LINE_15
 751:Drivers/STM32G4xx_HAL_Driver/Inc/stm32g4xx_ll_exti.h ****   *         @arg @ref LL_EXTI_LINE_16
 752:Drivers/STM32G4xx_HAL_Driver/Inc/stm32g4xx_ll_exti.h ****   *         @arg @ref LL_EXTI_LINE_18
 753:Drivers/STM32G4xx_HAL_Driver/Inc/stm32g4xx_ll_exti.h ****   *         @arg @ref LL_EXTI_LINE_19
 754:Drivers/STM32G4xx_HAL_Driver/Inc/stm32g4xx_ll_exti.h ****   *         @arg @ref LL_EXTI_LINE_20
 755:Drivers/STM32G4xx_HAL_Driver/Inc/stm32g4xx_ll_exti.h ****   *         @arg @ref LL_EXTI_LINE_21
 756:Drivers/STM32G4xx_HAL_Driver/Inc/stm32g4xx_ll_exti.h ****   *         @arg @ref LL_EXTI_LINE_22
 757:Drivers/STM32G4xx_HAL_Driver/Inc/stm32g4xx_ll_exti.h ****   *         @arg @ref LL_EXTI_LINE_29
 758:Drivers/STM32G4xx_HAL_Driver/Inc/stm32g4xx_ll_exti.h ****   *         @arg @ref LL_EXTI_LINE_30
 759:Drivers/STM32G4xx_HAL_Driver/Inc/stm32g4xx_ll_exti.h ****   *         @arg @ref LL_EXTI_LINE_31 (*)
ARM GAS  /tmp/ccGmUGHU.s 			page 30


 760:Drivers/STM32G4xx_HAL_Driver/Inc/stm32g4xx_ll_exti.h ****   * @note   (*): Available in some devices
 761:Drivers/STM32G4xx_HAL_Driver/Inc/stm32g4xx_ll_exti.h ****   * @note   Please check each device line mapping for EXTI Line availability
 762:Drivers/STM32G4xx_HAL_Driver/Inc/stm32g4xx_ll_exti.h ****   * @retval None
 763:Drivers/STM32G4xx_HAL_Driver/Inc/stm32g4xx_ll_exti.h ****   */
 764:Drivers/STM32G4xx_HAL_Driver/Inc/stm32g4xx_ll_exti.h **** __STATIC_INLINE void LL_EXTI_EnableRisingTrig_0_31(uint32_t ExtiLine)
 245              		.loc 2 764 22 view .LVU77
 246              	.LBB55:
 765:Drivers/STM32G4xx_HAL_Driver/Inc/stm32g4xx_ll_exti.h **** {
 766:Drivers/STM32G4xx_HAL_Driver/Inc/stm32g4xx_ll_exti.h ****   SET_BIT(EXTI->RTSR1, ExtiLine);
 247              		.loc 2 766 3 view .LVU78
 248 00c6 7249     		ldr	r1, .L54+20
 249 00c8 8A68     		ldr	r2, [r1, #8]
 250 00ca 1A43     		orrs	r2, r2, r3
 251 00cc 8A60     		str	r2, [r1, #8]
 767:Drivers/STM32G4xx_HAL_Driver/Inc/stm32g4xx_ll_exti.h **** 
 768:Drivers/STM32G4xx_HAL_Driver/Inc/stm32g4xx_ll_exti.h **** }
 252              		.loc 2 768 1 is_stmt 0 view .LVU79
 253 00ce 0FE0     		b	.L13
 254              	.LVL13:
 255              	.L45:
 256              		.loc 2 768 1 view .LVU80
 257              	.LBE55:
 258              	.LBE54:
 325:Drivers/STM32G4xx_HAL_Driver/Src/stm32g4xx_hal_comp.c **** 
 259              		.loc 1 325 17 view .LVU81
 260 00d0 4FF48003 		mov	r3, #4194304
 261 00d4 E9E7     		b	.L8
 262              	.L46:
 263 00d6 4FF00053 		mov	r3, #536870912
 264 00da E6E7     		b	.L8
 265              	.L47:
 266 00dc 4FF08043 		mov	r3, #1073741824
 267 00e0 E3E7     		b	.L8
 268              	.L48:
 269 00e2 4FF00043 		mov	r3, #-2147483648
 270 00e6 E0E7     		b	.L8
 271              	.LVL14:
 272              	.L11:
 336:Drivers/STM32G4xx_HAL_Driver/Src/stm32g4xx_hal_comp.c ****         }
 273              		.loc 1 336 11 is_stmt 1 view .LVU82
 274              	.LBB56:
 275              	.LBI56:
 769:Drivers/STM32G4xx_HAL_Driver/Inc/stm32g4xx_ll_exti.h **** 
 770:Drivers/STM32G4xx_HAL_Driver/Inc/stm32g4xx_ll_exti.h **** /**
 771:Drivers/STM32G4xx_HAL_Driver/Inc/stm32g4xx_ll_exti.h ****   * @brief  Enable ExtiLine Rising Edge Trigger for Lines in range 32 to 63
 772:Drivers/STM32G4xx_HAL_Driver/Inc/stm32g4xx_ll_exti.h ****   * @note The configurable wakeup lines are edge-triggered. No glitch must be
 773:Drivers/STM32G4xx_HAL_Driver/Inc/stm32g4xx_ll_exti.h ****   *       generated on these lines. If a rising edge on a configurable interrupt
 774:Drivers/STM32G4xx_HAL_Driver/Inc/stm32g4xx_ll_exti.h ****   *       line occurs during a write operation in the EXTI_RTSR register, the
 775:Drivers/STM32G4xx_HAL_Driver/Inc/stm32g4xx_ll_exti.h ****   *       pending bit is not set.Rising and falling edge triggers can be set for
 776:Drivers/STM32G4xx_HAL_Driver/Inc/stm32g4xx_ll_exti.h ****   *       the same interrupt line. In this case, both generate a trigger
 777:Drivers/STM32G4xx_HAL_Driver/Inc/stm32g4xx_ll_exti.h ****   *       condition.
 778:Drivers/STM32G4xx_HAL_Driver/Inc/stm32g4xx_ll_exti.h ****   * @rmtoll RTSR2        RTx           LL_EXTI_EnableRisingTrig_32_63
 779:Drivers/STM32G4xx_HAL_Driver/Inc/stm32g4xx_ll_exti.h ****   * @param  ExtiLine This parameter can be a combination of the following values:
 780:Drivers/STM32G4xx_HAL_Driver/Inc/stm32g4xx_ll_exti.h ****   *         @arg @ref LL_EXTI_LINE_32 (*)
 781:Drivers/STM32G4xx_HAL_Driver/Inc/stm32g4xx_ll_exti.h ****   *         @arg @ref LL_EXTI_LINE_33 (*)
 782:Drivers/STM32G4xx_HAL_Driver/Inc/stm32g4xx_ll_exti.h ****   *         @arg @ref LL_EXTI_LINE_38
 783:Drivers/STM32G4xx_HAL_Driver/Inc/stm32g4xx_ll_exti.h ****   *         @arg @ref LL_EXTI_LINE_39
ARM GAS  /tmp/ccGmUGHU.s 			page 31


 784:Drivers/STM32G4xx_HAL_Driver/Inc/stm32g4xx_ll_exti.h ****   *         @arg @ref LL_EXTI_LINE_40
 785:Drivers/STM32G4xx_HAL_Driver/Inc/stm32g4xx_ll_exti.h ****   *         @arg @ref LL_EXTI_LINE_41
 786:Drivers/STM32G4xx_HAL_Driver/Inc/stm32g4xx_ll_exti.h ****   * @note   (*): Available in some devices
 787:Drivers/STM32G4xx_HAL_Driver/Inc/stm32g4xx_ll_exti.h ****   * @retval None
 788:Drivers/STM32G4xx_HAL_Driver/Inc/stm32g4xx_ll_exti.h ****   */
 789:Drivers/STM32G4xx_HAL_Driver/Inc/stm32g4xx_ll_exti.h **** __STATIC_INLINE void LL_EXTI_EnableRisingTrig_32_63(uint32_t ExtiLine)
 276              		.loc 2 789 22 view .LVU83
 277              	.LBB57:
 790:Drivers/STM32G4xx_HAL_Driver/Inc/stm32g4xx_ll_exti.h **** {
 791:Drivers/STM32G4xx_HAL_Driver/Inc/stm32g4xx_ll_exti.h ****   SET_BIT(EXTI->RTSR2, ExtiLine);
 278              		.loc 2 791 3 view .LVU84
 279 00e8 6949     		ldr	r1, .L54+20
 280 00ea 8A6A     		ldr	r2, [r1, #40]
 281 00ec 1A43     		orrs	r2, r2, r3
 282 00ee 8A62     		str	r2, [r1, #40]
 283              	.LVL15:
 284              	.L13:
 285              		.loc 2 791 3 is_stmt 0 view .LVU85
 286              	.LBE57:
 287              	.LBE56:
 363:Drivers/STM32G4xx_HAL_Driver/Src/stm32g4xx_hal_comp.c ****       {
 288              		.loc 1 363 7 is_stmt 1 view .LVU86
 363:Drivers/STM32G4xx_HAL_Driver/Src/stm32g4xx_hal_comp.c ****       {
 289              		.loc 1 363 22 is_stmt 0 view .LVU87
 290 00f0 A269     		ldr	r2, [r4, #24]
 363:Drivers/STM32G4xx_HAL_Driver/Src/stm32g4xx_hal_comp.c ****       {
 291              		.loc 1 363 9 view .LVU88
 292 00f2 12F0200F 		tst	r2, #32
 293 00f6 2BD0     		beq	.L16
 366:Drivers/STM32G4xx_HAL_Driver/Src/stm32g4xx_hal_comp.c ****         {
 294              		.loc 1 366 9 is_stmt 1 view .LVU89
 366:Drivers/STM32G4xx_HAL_Driver/Src/stm32g4xx_hal_comp.c ****         {
 295              		.loc 1 366 18 is_stmt 0 view .LVU90
 296 00f8 2268     		ldr	r2, [r4]
 366:Drivers/STM32G4xx_HAL_Driver/Src/stm32g4xx_hal_comp.c ****         {
 297              		.loc 1 366 11 view .LVU91
 298 00fa 6449     		ldr	r1, .L54+16
 299 00fc 8A42     		cmp	r2, r1
 300 00fe 19D0     		beq	.L17
 366:Drivers/STM32G4xx_HAL_Driver/Src/stm32g4xx_hal_comp.c ****         {
 301              		.loc 1 366 39 discriminator 1 view .LVU92
 302 0100 0431     		adds	r1, r1, #4
 303 0102 8A42     		cmp	r2, r1
 304 0104 16D0     		beq	.L17
 372:Drivers/STM32G4xx_HAL_Driver/Src/stm32g4xx_hal_comp.c ****         }
 305              		.loc 1 372 11 is_stmt 1 view .LVU93
 306              	.LVL16:
 307              	.LBB58:
 308              	.LBI58:
 792:Drivers/STM32G4xx_HAL_Driver/Inc/stm32g4xx_ll_exti.h **** }
 793:Drivers/STM32G4xx_HAL_Driver/Inc/stm32g4xx_ll_exti.h **** 
 794:Drivers/STM32G4xx_HAL_Driver/Inc/stm32g4xx_ll_exti.h **** /**
 795:Drivers/STM32G4xx_HAL_Driver/Inc/stm32g4xx_ll_exti.h ****   * @brief  Disable ExtiLine Rising Edge Trigger for Lines in range 0 to 31
 796:Drivers/STM32G4xx_HAL_Driver/Inc/stm32g4xx_ll_exti.h ****   * @note The configurable wakeup lines are edge-triggered. No glitch must be
 797:Drivers/STM32G4xx_HAL_Driver/Inc/stm32g4xx_ll_exti.h ****   *       generated on these lines. If a rising edge on a configurable interrupt
 798:Drivers/STM32G4xx_HAL_Driver/Inc/stm32g4xx_ll_exti.h ****   *       line occurs during a write operation in the EXTI_RTSR register, the
 799:Drivers/STM32G4xx_HAL_Driver/Inc/stm32g4xx_ll_exti.h ****   *       pending bit is not set.
ARM GAS  /tmp/ccGmUGHU.s 			page 32


 800:Drivers/STM32G4xx_HAL_Driver/Inc/stm32g4xx_ll_exti.h ****   *       Rising and falling edge triggers can be set for
 801:Drivers/STM32G4xx_HAL_Driver/Inc/stm32g4xx_ll_exti.h ****   *       the same interrupt line. In this case, both generate a trigger
 802:Drivers/STM32G4xx_HAL_Driver/Inc/stm32g4xx_ll_exti.h ****   *       condition.
 803:Drivers/STM32G4xx_HAL_Driver/Inc/stm32g4xx_ll_exti.h ****   * @rmtoll RTSR1        RTx           LL_EXTI_DisableRisingTrig_0_31
 804:Drivers/STM32G4xx_HAL_Driver/Inc/stm32g4xx_ll_exti.h ****   * @param  ExtiLine This parameter can be a combination of the following values:
 805:Drivers/STM32G4xx_HAL_Driver/Inc/stm32g4xx_ll_exti.h ****   *         @arg @ref LL_EXTI_LINE_0
 806:Drivers/STM32G4xx_HAL_Driver/Inc/stm32g4xx_ll_exti.h ****   *         @arg @ref LL_EXTI_LINE_1
 807:Drivers/STM32G4xx_HAL_Driver/Inc/stm32g4xx_ll_exti.h ****   *         @arg @ref LL_EXTI_LINE_2
 808:Drivers/STM32G4xx_HAL_Driver/Inc/stm32g4xx_ll_exti.h ****   *         @arg @ref LL_EXTI_LINE_3
 809:Drivers/STM32G4xx_HAL_Driver/Inc/stm32g4xx_ll_exti.h ****   *         @arg @ref LL_EXTI_LINE_4
 810:Drivers/STM32G4xx_HAL_Driver/Inc/stm32g4xx_ll_exti.h ****   *         @arg @ref LL_EXTI_LINE_5
 811:Drivers/STM32G4xx_HAL_Driver/Inc/stm32g4xx_ll_exti.h ****   *         @arg @ref LL_EXTI_LINE_6
 812:Drivers/STM32G4xx_HAL_Driver/Inc/stm32g4xx_ll_exti.h ****   *         @arg @ref LL_EXTI_LINE_7
 813:Drivers/STM32G4xx_HAL_Driver/Inc/stm32g4xx_ll_exti.h ****   *         @arg @ref LL_EXTI_LINE_8
 814:Drivers/STM32G4xx_HAL_Driver/Inc/stm32g4xx_ll_exti.h ****   *         @arg @ref LL_EXTI_LINE_9
 815:Drivers/STM32G4xx_HAL_Driver/Inc/stm32g4xx_ll_exti.h ****   *         @arg @ref LL_EXTI_LINE_10
 816:Drivers/STM32G4xx_HAL_Driver/Inc/stm32g4xx_ll_exti.h ****   *         @arg @ref LL_EXTI_LINE_11
 817:Drivers/STM32G4xx_HAL_Driver/Inc/stm32g4xx_ll_exti.h ****   *         @arg @ref LL_EXTI_LINE_12
 818:Drivers/STM32G4xx_HAL_Driver/Inc/stm32g4xx_ll_exti.h ****   *         @arg @ref LL_EXTI_LINE_13
 819:Drivers/STM32G4xx_HAL_Driver/Inc/stm32g4xx_ll_exti.h ****   *         @arg @ref LL_EXTI_LINE_14
 820:Drivers/STM32G4xx_HAL_Driver/Inc/stm32g4xx_ll_exti.h ****   *         @arg @ref LL_EXTI_LINE_15
 821:Drivers/STM32G4xx_HAL_Driver/Inc/stm32g4xx_ll_exti.h ****   *         @arg @ref LL_EXTI_LINE_16
 822:Drivers/STM32G4xx_HAL_Driver/Inc/stm32g4xx_ll_exti.h ****   *         @arg @ref LL_EXTI_LINE_18
 823:Drivers/STM32G4xx_HAL_Driver/Inc/stm32g4xx_ll_exti.h ****   *         @arg @ref LL_EXTI_LINE_19
 824:Drivers/STM32G4xx_HAL_Driver/Inc/stm32g4xx_ll_exti.h ****   *         @arg @ref LL_EXTI_LINE_20
 825:Drivers/STM32G4xx_HAL_Driver/Inc/stm32g4xx_ll_exti.h ****   *         @arg @ref LL_EXTI_LINE_21
 826:Drivers/STM32G4xx_HAL_Driver/Inc/stm32g4xx_ll_exti.h ****   *         @arg @ref LL_EXTI_LINE_22
 827:Drivers/STM32G4xx_HAL_Driver/Inc/stm32g4xx_ll_exti.h ****   *         @arg @ref LL_EXTI_LINE_29
 828:Drivers/STM32G4xx_HAL_Driver/Inc/stm32g4xx_ll_exti.h ****   *         @arg @ref LL_EXTI_LINE_30
 829:Drivers/STM32G4xx_HAL_Driver/Inc/stm32g4xx_ll_exti.h ****   *         @arg @ref LL_EXTI_LINE_31 (*)
 830:Drivers/STM32G4xx_HAL_Driver/Inc/stm32g4xx_ll_exti.h ****   * @note   (*): Available in some devices
 831:Drivers/STM32G4xx_HAL_Driver/Inc/stm32g4xx_ll_exti.h ****   * @note   Please check each device line mapping for EXTI Line availability
 832:Drivers/STM32G4xx_HAL_Driver/Inc/stm32g4xx_ll_exti.h ****   * @retval None
 833:Drivers/STM32G4xx_HAL_Driver/Inc/stm32g4xx_ll_exti.h ****   */
 834:Drivers/STM32G4xx_HAL_Driver/Inc/stm32g4xx_ll_exti.h **** __STATIC_INLINE void LL_EXTI_DisableRisingTrig_0_31(uint32_t ExtiLine)
 835:Drivers/STM32G4xx_HAL_Driver/Inc/stm32g4xx_ll_exti.h **** {
 836:Drivers/STM32G4xx_HAL_Driver/Inc/stm32g4xx_ll_exti.h ****   CLEAR_BIT(EXTI->RTSR1, ExtiLine);
 837:Drivers/STM32G4xx_HAL_Driver/Inc/stm32g4xx_ll_exti.h **** 
 838:Drivers/STM32G4xx_HAL_Driver/Inc/stm32g4xx_ll_exti.h **** }
 839:Drivers/STM32G4xx_HAL_Driver/Inc/stm32g4xx_ll_exti.h **** 
 840:Drivers/STM32G4xx_HAL_Driver/Inc/stm32g4xx_ll_exti.h **** /**
 841:Drivers/STM32G4xx_HAL_Driver/Inc/stm32g4xx_ll_exti.h ****   * @brief  Disable ExtiLine Rising Edge Trigger for Lines in range 32 to 63
 842:Drivers/STM32G4xx_HAL_Driver/Inc/stm32g4xx_ll_exti.h ****   * @note The configurable wakeup lines are edge-triggered. No glitch must be
 843:Drivers/STM32G4xx_HAL_Driver/Inc/stm32g4xx_ll_exti.h ****   *       generated on these lines. If a rising edge on a configurable interrupt
 844:Drivers/STM32G4xx_HAL_Driver/Inc/stm32g4xx_ll_exti.h ****   *       line occurs during a write operation in the EXTI_RTSR register, the
 845:Drivers/STM32G4xx_HAL_Driver/Inc/stm32g4xx_ll_exti.h ****   *       pending bit is not set.
 846:Drivers/STM32G4xx_HAL_Driver/Inc/stm32g4xx_ll_exti.h ****   *       Rising and falling edge triggers can be set for
 847:Drivers/STM32G4xx_HAL_Driver/Inc/stm32g4xx_ll_exti.h ****   *       the same interrupt line. In this case, both generate a trigger
 848:Drivers/STM32G4xx_HAL_Driver/Inc/stm32g4xx_ll_exti.h ****   *       condition.
 849:Drivers/STM32G4xx_HAL_Driver/Inc/stm32g4xx_ll_exti.h ****   * @rmtoll RTSR2        RTx           LL_EXTI_DisableRisingTrig_32_63
 850:Drivers/STM32G4xx_HAL_Driver/Inc/stm32g4xx_ll_exti.h ****   * @param  ExtiLine This parameter can be a combination of the following values:
 851:Drivers/STM32G4xx_HAL_Driver/Inc/stm32g4xx_ll_exti.h ****   *         @arg @ref LL_EXTI_LINE_32 (*)
 852:Drivers/STM32G4xx_HAL_Driver/Inc/stm32g4xx_ll_exti.h ****   *         @arg @ref LL_EXTI_LINE_33 (*)
 853:Drivers/STM32G4xx_HAL_Driver/Inc/stm32g4xx_ll_exti.h ****   *         @arg @ref LL_EXTI_LINE_38
 854:Drivers/STM32G4xx_HAL_Driver/Inc/stm32g4xx_ll_exti.h ****   *         @arg @ref LL_EXTI_LINE_39
 855:Drivers/STM32G4xx_HAL_Driver/Inc/stm32g4xx_ll_exti.h ****   *         @arg @ref LL_EXTI_LINE_40
 856:Drivers/STM32G4xx_HAL_Driver/Inc/stm32g4xx_ll_exti.h ****   *         @arg @ref LL_EXTI_LINE_41
ARM GAS  /tmp/ccGmUGHU.s 			page 33


 857:Drivers/STM32G4xx_HAL_Driver/Inc/stm32g4xx_ll_exti.h ****   * @note   (*): Available in some devices
 858:Drivers/STM32G4xx_HAL_Driver/Inc/stm32g4xx_ll_exti.h ****   * @retval None
 859:Drivers/STM32G4xx_HAL_Driver/Inc/stm32g4xx_ll_exti.h ****   */
 860:Drivers/STM32G4xx_HAL_Driver/Inc/stm32g4xx_ll_exti.h **** __STATIC_INLINE void LL_EXTI_DisableRisingTrig_32_63(uint32_t ExtiLine)
 861:Drivers/STM32G4xx_HAL_Driver/Inc/stm32g4xx_ll_exti.h **** {
 862:Drivers/STM32G4xx_HAL_Driver/Inc/stm32g4xx_ll_exti.h ****   CLEAR_BIT(EXTI->RTSR2, ExtiLine);
 863:Drivers/STM32G4xx_HAL_Driver/Inc/stm32g4xx_ll_exti.h **** }
 864:Drivers/STM32G4xx_HAL_Driver/Inc/stm32g4xx_ll_exti.h **** 
 865:Drivers/STM32G4xx_HAL_Driver/Inc/stm32g4xx_ll_exti.h **** /**
 866:Drivers/STM32G4xx_HAL_Driver/Inc/stm32g4xx_ll_exti.h ****   * @brief  Check if rising edge trigger is enabled for Lines in range 0 to 31
 867:Drivers/STM32G4xx_HAL_Driver/Inc/stm32g4xx_ll_exti.h ****   * @rmtoll RTSR1        RTx           LL_EXTI_IsEnabledRisingTrig_0_31
 868:Drivers/STM32G4xx_HAL_Driver/Inc/stm32g4xx_ll_exti.h ****   * @param  ExtiLine This parameter can be a combination of the following values:
 869:Drivers/STM32G4xx_HAL_Driver/Inc/stm32g4xx_ll_exti.h ****   *         @arg @ref LL_EXTI_LINE_0
 870:Drivers/STM32G4xx_HAL_Driver/Inc/stm32g4xx_ll_exti.h ****   *         @arg @ref LL_EXTI_LINE_1
 871:Drivers/STM32G4xx_HAL_Driver/Inc/stm32g4xx_ll_exti.h ****   *         @arg @ref LL_EXTI_LINE_2
 872:Drivers/STM32G4xx_HAL_Driver/Inc/stm32g4xx_ll_exti.h ****   *         @arg @ref LL_EXTI_LINE_3
 873:Drivers/STM32G4xx_HAL_Driver/Inc/stm32g4xx_ll_exti.h ****   *         @arg @ref LL_EXTI_LINE_4
 874:Drivers/STM32G4xx_HAL_Driver/Inc/stm32g4xx_ll_exti.h ****   *         @arg @ref LL_EXTI_LINE_5
 875:Drivers/STM32G4xx_HAL_Driver/Inc/stm32g4xx_ll_exti.h ****   *         @arg @ref LL_EXTI_LINE_6
 876:Drivers/STM32G4xx_HAL_Driver/Inc/stm32g4xx_ll_exti.h ****   *         @arg @ref LL_EXTI_LINE_7
 877:Drivers/STM32G4xx_HAL_Driver/Inc/stm32g4xx_ll_exti.h ****   *         @arg @ref LL_EXTI_LINE_8
 878:Drivers/STM32G4xx_HAL_Driver/Inc/stm32g4xx_ll_exti.h ****   *         @arg @ref LL_EXTI_LINE_9
 879:Drivers/STM32G4xx_HAL_Driver/Inc/stm32g4xx_ll_exti.h ****   *         @arg @ref LL_EXTI_LINE_10
 880:Drivers/STM32G4xx_HAL_Driver/Inc/stm32g4xx_ll_exti.h ****   *         @arg @ref LL_EXTI_LINE_11
 881:Drivers/STM32G4xx_HAL_Driver/Inc/stm32g4xx_ll_exti.h ****   *         @arg @ref LL_EXTI_LINE_12
 882:Drivers/STM32G4xx_HAL_Driver/Inc/stm32g4xx_ll_exti.h ****   *         @arg @ref LL_EXTI_LINE_13
 883:Drivers/STM32G4xx_HAL_Driver/Inc/stm32g4xx_ll_exti.h ****   *         @arg @ref LL_EXTI_LINE_14
 884:Drivers/STM32G4xx_HAL_Driver/Inc/stm32g4xx_ll_exti.h ****   *         @arg @ref LL_EXTI_LINE_15
 885:Drivers/STM32G4xx_HAL_Driver/Inc/stm32g4xx_ll_exti.h ****   *         @arg @ref LL_EXTI_LINE_16
 886:Drivers/STM32G4xx_HAL_Driver/Inc/stm32g4xx_ll_exti.h ****   *         @arg @ref LL_EXTI_LINE_18
 887:Drivers/STM32G4xx_HAL_Driver/Inc/stm32g4xx_ll_exti.h ****   *         @arg @ref LL_EXTI_LINE_19
 888:Drivers/STM32G4xx_HAL_Driver/Inc/stm32g4xx_ll_exti.h ****   *         @arg @ref LL_EXTI_LINE_20
 889:Drivers/STM32G4xx_HAL_Driver/Inc/stm32g4xx_ll_exti.h ****   *         @arg @ref LL_EXTI_LINE_21
 890:Drivers/STM32G4xx_HAL_Driver/Inc/stm32g4xx_ll_exti.h ****   *         @arg @ref LL_EXTI_LINE_22
 891:Drivers/STM32G4xx_HAL_Driver/Inc/stm32g4xx_ll_exti.h ****   *         @arg @ref LL_EXTI_LINE_29
 892:Drivers/STM32G4xx_HAL_Driver/Inc/stm32g4xx_ll_exti.h ****   *         @arg @ref LL_EXTI_LINE_30
 893:Drivers/STM32G4xx_HAL_Driver/Inc/stm32g4xx_ll_exti.h ****   *         @arg @ref LL_EXTI_LINE_31 (*)
 894:Drivers/STM32G4xx_HAL_Driver/Inc/stm32g4xx_ll_exti.h ****   * @note   (*): Available in some devices
 895:Drivers/STM32G4xx_HAL_Driver/Inc/stm32g4xx_ll_exti.h ****   * @note   Please check each device line mapping for EXTI Line availability
 896:Drivers/STM32G4xx_HAL_Driver/Inc/stm32g4xx_ll_exti.h ****   * @retval State of bit (1 or 0).
 897:Drivers/STM32G4xx_HAL_Driver/Inc/stm32g4xx_ll_exti.h ****   */
 898:Drivers/STM32G4xx_HAL_Driver/Inc/stm32g4xx_ll_exti.h **** __STATIC_INLINE uint32_t LL_EXTI_IsEnabledRisingTrig_0_31(uint32_t ExtiLine)
 899:Drivers/STM32G4xx_HAL_Driver/Inc/stm32g4xx_ll_exti.h **** {
 900:Drivers/STM32G4xx_HAL_Driver/Inc/stm32g4xx_ll_exti.h ****   return ((READ_BIT(EXTI->RTSR1, ExtiLine) == (ExtiLine)) ? 1UL : 0UL);
 901:Drivers/STM32G4xx_HAL_Driver/Inc/stm32g4xx_ll_exti.h **** }
 902:Drivers/STM32G4xx_HAL_Driver/Inc/stm32g4xx_ll_exti.h **** 
 903:Drivers/STM32G4xx_HAL_Driver/Inc/stm32g4xx_ll_exti.h **** /**
 904:Drivers/STM32G4xx_HAL_Driver/Inc/stm32g4xx_ll_exti.h ****   * @brief  Check if rising edge trigger is enabled for Lines in range 32 to 63
 905:Drivers/STM32G4xx_HAL_Driver/Inc/stm32g4xx_ll_exti.h ****   * @rmtoll RTSR2        RTx           LL_EXTI_IsEnabledRisingTrig_32_63
 906:Drivers/STM32G4xx_HAL_Driver/Inc/stm32g4xx_ll_exti.h ****   * @param  ExtiLine This parameter can be a combination of the following values:
 907:Drivers/STM32G4xx_HAL_Driver/Inc/stm32g4xx_ll_exti.h ****   *         @arg @ref LL_EXTI_LINE_32 (*)
 908:Drivers/STM32G4xx_HAL_Driver/Inc/stm32g4xx_ll_exti.h ****   *         @arg @ref LL_EXTI_LINE_33 (*)
 909:Drivers/STM32G4xx_HAL_Driver/Inc/stm32g4xx_ll_exti.h ****   *         @arg @ref LL_EXTI_LINE_38
 910:Drivers/STM32G4xx_HAL_Driver/Inc/stm32g4xx_ll_exti.h ****   *         @arg @ref LL_EXTI_LINE_39
 911:Drivers/STM32G4xx_HAL_Driver/Inc/stm32g4xx_ll_exti.h ****   *         @arg @ref LL_EXTI_LINE_40
 912:Drivers/STM32G4xx_HAL_Driver/Inc/stm32g4xx_ll_exti.h ****   *         @arg @ref LL_EXTI_LINE_41
 913:Drivers/STM32G4xx_HAL_Driver/Inc/stm32g4xx_ll_exti.h ****   * @note   (*): Available in some devices
ARM GAS  /tmp/ccGmUGHU.s 			page 34


 914:Drivers/STM32G4xx_HAL_Driver/Inc/stm32g4xx_ll_exti.h ****   * @retval State of bit (1 or 0).
 915:Drivers/STM32G4xx_HAL_Driver/Inc/stm32g4xx_ll_exti.h ****   */
 916:Drivers/STM32G4xx_HAL_Driver/Inc/stm32g4xx_ll_exti.h **** __STATIC_INLINE uint32_t LL_EXTI_IsEnabledRisingTrig_32_63(uint32_t ExtiLine)
 917:Drivers/STM32G4xx_HAL_Driver/Inc/stm32g4xx_ll_exti.h **** {
 918:Drivers/STM32G4xx_HAL_Driver/Inc/stm32g4xx_ll_exti.h ****   return ((READ_BIT(EXTI->RTSR2, ExtiLine) == (ExtiLine)) ? 1UL : 0UL);
 919:Drivers/STM32G4xx_HAL_Driver/Inc/stm32g4xx_ll_exti.h **** }
 920:Drivers/STM32G4xx_HAL_Driver/Inc/stm32g4xx_ll_exti.h **** 
 921:Drivers/STM32G4xx_HAL_Driver/Inc/stm32g4xx_ll_exti.h **** /**
 922:Drivers/STM32G4xx_HAL_Driver/Inc/stm32g4xx_ll_exti.h ****   * @}
 923:Drivers/STM32G4xx_HAL_Driver/Inc/stm32g4xx_ll_exti.h ****   */
 924:Drivers/STM32G4xx_HAL_Driver/Inc/stm32g4xx_ll_exti.h **** 
 925:Drivers/STM32G4xx_HAL_Driver/Inc/stm32g4xx_ll_exti.h **** /** @defgroup EXTI_LL_EF_Falling_Trigger_Management Falling_Trigger_Management
 926:Drivers/STM32G4xx_HAL_Driver/Inc/stm32g4xx_ll_exti.h ****   * @{
 927:Drivers/STM32G4xx_HAL_Driver/Inc/stm32g4xx_ll_exti.h ****   */
 928:Drivers/STM32G4xx_HAL_Driver/Inc/stm32g4xx_ll_exti.h **** 
 929:Drivers/STM32G4xx_HAL_Driver/Inc/stm32g4xx_ll_exti.h **** /**
 930:Drivers/STM32G4xx_HAL_Driver/Inc/stm32g4xx_ll_exti.h ****   * @brief  Enable ExtiLine Falling Edge Trigger for Lines in range 0 to 31
 931:Drivers/STM32G4xx_HAL_Driver/Inc/stm32g4xx_ll_exti.h ****   * @note The configurable wakeup lines are edge-triggered. No glitch must be
 932:Drivers/STM32G4xx_HAL_Driver/Inc/stm32g4xx_ll_exti.h ****   *       generated on these lines. If a falling edge on a configurable interrupt
 933:Drivers/STM32G4xx_HAL_Driver/Inc/stm32g4xx_ll_exti.h ****   *       line occurs during a write operation in the EXTI_FTSR register, the
 934:Drivers/STM32G4xx_HAL_Driver/Inc/stm32g4xx_ll_exti.h ****   *       pending bit is not set.
 935:Drivers/STM32G4xx_HAL_Driver/Inc/stm32g4xx_ll_exti.h ****   *       Rising and falling edge triggers can be set for
 936:Drivers/STM32G4xx_HAL_Driver/Inc/stm32g4xx_ll_exti.h ****   *       the same interrupt line. In this case, both generate a trigger
 937:Drivers/STM32G4xx_HAL_Driver/Inc/stm32g4xx_ll_exti.h ****   *       condition.
 938:Drivers/STM32G4xx_HAL_Driver/Inc/stm32g4xx_ll_exti.h ****   * @rmtoll FTSR1        FTx           LL_EXTI_EnableFallingTrig_0_31
 939:Drivers/STM32G4xx_HAL_Driver/Inc/stm32g4xx_ll_exti.h ****   * @param  ExtiLine This parameter can be a combination of the following values:
 940:Drivers/STM32G4xx_HAL_Driver/Inc/stm32g4xx_ll_exti.h ****   *         @arg @ref LL_EXTI_LINE_0
 941:Drivers/STM32G4xx_HAL_Driver/Inc/stm32g4xx_ll_exti.h ****   *         @arg @ref LL_EXTI_LINE_1
 942:Drivers/STM32G4xx_HAL_Driver/Inc/stm32g4xx_ll_exti.h ****   *         @arg @ref LL_EXTI_LINE_2
 943:Drivers/STM32G4xx_HAL_Driver/Inc/stm32g4xx_ll_exti.h ****   *         @arg @ref LL_EXTI_LINE_3
 944:Drivers/STM32G4xx_HAL_Driver/Inc/stm32g4xx_ll_exti.h ****   *         @arg @ref LL_EXTI_LINE_4
 945:Drivers/STM32G4xx_HAL_Driver/Inc/stm32g4xx_ll_exti.h ****   *         @arg @ref LL_EXTI_LINE_5
 946:Drivers/STM32G4xx_HAL_Driver/Inc/stm32g4xx_ll_exti.h ****   *         @arg @ref LL_EXTI_LINE_6
 947:Drivers/STM32G4xx_HAL_Driver/Inc/stm32g4xx_ll_exti.h ****   *         @arg @ref LL_EXTI_LINE_7
 948:Drivers/STM32G4xx_HAL_Driver/Inc/stm32g4xx_ll_exti.h ****   *         @arg @ref LL_EXTI_LINE_8
 949:Drivers/STM32G4xx_HAL_Driver/Inc/stm32g4xx_ll_exti.h ****   *         @arg @ref LL_EXTI_LINE_9
 950:Drivers/STM32G4xx_HAL_Driver/Inc/stm32g4xx_ll_exti.h ****   *         @arg @ref LL_EXTI_LINE_10
 951:Drivers/STM32G4xx_HAL_Driver/Inc/stm32g4xx_ll_exti.h ****   *         @arg @ref LL_EXTI_LINE_11
 952:Drivers/STM32G4xx_HAL_Driver/Inc/stm32g4xx_ll_exti.h ****   *         @arg @ref LL_EXTI_LINE_12
 953:Drivers/STM32G4xx_HAL_Driver/Inc/stm32g4xx_ll_exti.h ****   *         @arg @ref LL_EXTI_LINE_13
 954:Drivers/STM32G4xx_HAL_Driver/Inc/stm32g4xx_ll_exti.h ****   *         @arg @ref LL_EXTI_LINE_14
 955:Drivers/STM32G4xx_HAL_Driver/Inc/stm32g4xx_ll_exti.h ****   *         @arg @ref LL_EXTI_LINE_15
 956:Drivers/STM32G4xx_HAL_Driver/Inc/stm32g4xx_ll_exti.h ****   *         @arg @ref LL_EXTI_LINE_16
 957:Drivers/STM32G4xx_HAL_Driver/Inc/stm32g4xx_ll_exti.h ****   *         @arg @ref LL_EXTI_LINE_18
 958:Drivers/STM32G4xx_HAL_Driver/Inc/stm32g4xx_ll_exti.h ****   *         @arg @ref LL_EXTI_LINE_19
 959:Drivers/STM32G4xx_HAL_Driver/Inc/stm32g4xx_ll_exti.h ****   *         @arg @ref LL_EXTI_LINE_20
 960:Drivers/STM32G4xx_HAL_Driver/Inc/stm32g4xx_ll_exti.h ****   *         @arg @ref LL_EXTI_LINE_21
 961:Drivers/STM32G4xx_HAL_Driver/Inc/stm32g4xx_ll_exti.h ****   *         @arg @ref LL_EXTI_LINE_22
 962:Drivers/STM32G4xx_HAL_Driver/Inc/stm32g4xx_ll_exti.h ****   *         @arg @ref LL_EXTI_LINE_29
 963:Drivers/STM32G4xx_HAL_Driver/Inc/stm32g4xx_ll_exti.h ****   *         @arg @ref LL_EXTI_LINE_30
 964:Drivers/STM32G4xx_HAL_Driver/Inc/stm32g4xx_ll_exti.h ****   *         @arg @ref LL_EXTI_LINE_31 (*)
 965:Drivers/STM32G4xx_HAL_Driver/Inc/stm32g4xx_ll_exti.h ****   * @note   (*): Available in some devices
 966:Drivers/STM32G4xx_HAL_Driver/Inc/stm32g4xx_ll_exti.h ****   * @note   Please check each device line mapping for EXTI Line availability
 967:Drivers/STM32G4xx_HAL_Driver/Inc/stm32g4xx_ll_exti.h ****   * @retval None
 968:Drivers/STM32G4xx_HAL_Driver/Inc/stm32g4xx_ll_exti.h ****   */
 969:Drivers/STM32G4xx_HAL_Driver/Inc/stm32g4xx_ll_exti.h **** __STATIC_INLINE void LL_EXTI_EnableFallingTrig_0_31(uint32_t ExtiLine)
 309              		.loc 2 969 22 view .LVU94
ARM GAS  /tmp/ccGmUGHU.s 			page 35


 310              	.LBB59:
 970:Drivers/STM32G4xx_HAL_Driver/Inc/stm32g4xx_ll_exti.h **** {
 971:Drivers/STM32G4xx_HAL_Driver/Inc/stm32g4xx_ll_exti.h ****   SET_BIT(EXTI->FTSR1, ExtiLine);
 311              		.loc 2 971 3 view .LVU95
 312 0106 6249     		ldr	r1, .L54+20
 313 0108 CA68     		ldr	r2, [r1, #12]
 314 010a 1A43     		orrs	r2, r2, r3
 315 010c CA60     		str	r2, [r1, #12]
 972:Drivers/STM32G4xx_HAL_Driver/Inc/stm32g4xx_ll_exti.h **** }
 316              		.loc 2 972 1 is_stmt 0 view .LVU96
 317 010e 15E0     		b	.L19
 318              	.LVL17:
 319              	.L10:
 320              		.loc 2 972 1 view .LVU97
 321              	.LBE59:
 322              	.LBE58:
 349:Drivers/STM32G4xx_HAL_Driver/Src/stm32g4xx_hal_comp.c ****         {
 323              		.loc 1 349 9 is_stmt 1 view .LVU98
 349:Drivers/STM32G4xx_HAL_Driver/Src/stm32g4xx_hal_comp.c ****         {
 324              		.loc 1 349 11 is_stmt 0 view .LVU99
 325 0110 5E49     		ldr	r1, .L54+16
 326 0112 8A42     		cmp	r2, r1
 327 0114 08D0     		beq	.L14
 349:Drivers/STM32G4xx_HAL_Driver/Src/stm32g4xx_hal_comp.c ****         {
 328              		.loc 1 349 39 discriminator 1 view .LVU100
 329 0116 0431     		adds	r1, r1, #4
 330 0118 8A42     		cmp	r2, r1
 331 011a 05D0     		beq	.L14
 355:Drivers/STM32G4xx_HAL_Driver/Src/stm32g4xx_hal_comp.c ****         }
 332              		.loc 1 355 11 is_stmt 1 view .LVU101
 333              	.LVL18:
 334              	.LBB60:
 335              	.LBI60:
 834:Drivers/STM32G4xx_HAL_Driver/Inc/stm32g4xx_ll_exti.h **** {
 336              		.loc 2 834 22 view .LVU102
 337              	.LBB61:
 836:Drivers/STM32G4xx_HAL_Driver/Inc/stm32g4xx_ll_exti.h **** 
 338              		.loc 2 836 3 view .LVU103
 339 011c 5C49     		ldr	r1, .L54+20
 340 011e 8A68     		ldr	r2, [r1, #8]
 341 0120 22EA0302 		bic	r2, r2, r3
 342 0124 8A60     		str	r2, [r1, #8]
 838:Drivers/STM32G4xx_HAL_Driver/Inc/stm32g4xx_ll_exti.h **** 
 343              		.loc 2 838 1 is_stmt 0 view .LVU104
 344 0126 E3E7     		b	.L13
 345              	.LVL19:
 346              	.L14:
 838:Drivers/STM32G4xx_HAL_Driver/Inc/stm32g4xx_ll_exti.h **** 
 347              		.loc 2 838 1 view .LVU105
 348              	.LBE61:
 349              	.LBE60:
 351:Drivers/STM32G4xx_HAL_Driver/Src/stm32g4xx_hal_comp.c ****         }
 350              		.loc 1 351 11 is_stmt 1 view .LVU106
 351              	.LBB62:
 352              	.LBI62:
 860:Drivers/STM32G4xx_HAL_Driver/Inc/stm32g4xx_ll_exti.h **** {
 353              		.loc 2 860 22 view .LVU107
ARM GAS  /tmp/ccGmUGHU.s 			page 36


 354              	.LBB63:
 862:Drivers/STM32G4xx_HAL_Driver/Inc/stm32g4xx_ll_exti.h **** }
 355              		.loc 2 862 3 view .LVU108
 356 0128 5949     		ldr	r1, .L54+20
 357 012a 8A6A     		ldr	r2, [r1, #40]
 358 012c 22EA0302 		bic	r2, r2, r3
 359 0130 8A62     		str	r2, [r1, #40]
 863:Drivers/STM32G4xx_HAL_Driver/Inc/stm32g4xx_ll_exti.h **** 
 360              		.loc 2 863 1 is_stmt 0 view .LVU109
 361 0132 DDE7     		b	.L13
 362              	.LVL20:
 363              	.L17:
 863:Drivers/STM32G4xx_HAL_Driver/Inc/stm32g4xx_ll_exti.h **** 
 364              		.loc 2 863 1 view .LVU110
 365              	.LBE63:
 366              	.LBE62:
 368:Drivers/STM32G4xx_HAL_Driver/Src/stm32g4xx_hal_comp.c ****         }
 367              		.loc 1 368 11 is_stmt 1 view .LVU111
 368              	.LBB64:
 369              	.LBI64:
 973:Drivers/STM32G4xx_HAL_Driver/Inc/stm32g4xx_ll_exti.h **** 
 974:Drivers/STM32G4xx_HAL_Driver/Inc/stm32g4xx_ll_exti.h **** /**
 975:Drivers/STM32G4xx_HAL_Driver/Inc/stm32g4xx_ll_exti.h ****   * @brief  Enable ExtiLine Falling Edge Trigger for Lines in range 32 to 63
 976:Drivers/STM32G4xx_HAL_Driver/Inc/stm32g4xx_ll_exti.h ****   * @note The configurable wakeup lines are edge-triggered. No glitch must be
 977:Drivers/STM32G4xx_HAL_Driver/Inc/stm32g4xx_ll_exti.h ****   *       generated on these lines. If a Falling edge on a configurable interrupt
 978:Drivers/STM32G4xx_HAL_Driver/Inc/stm32g4xx_ll_exti.h ****   *       line occurs during a write operation in the EXTI_FTSR register, the
 979:Drivers/STM32G4xx_HAL_Driver/Inc/stm32g4xx_ll_exti.h ****   *       pending bit is not set.
 980:Drivers/STM32G4xx_HAL_Driver/Inc/stm32g4xx_ll_exti.h ****   *       Rising and falling edge triggers can be set for
 981:Drivers/STM32G4xx_HAL_Driver/Inc/stm32g4xx_ll_exti.h ****   *       the same interrupt line. In this case, both generate a trigger
 982:Drivers/STM32G4xx_HAL_Driver/Inc/stm32g4xx_ll_exti.h ****   *       condition.
 983:Drivers/STM32G4xx_HAL_Driver/Inc/stm32g4xx_ll_exti.h ****   * @rmtoll FTSR2        FTx           LL_EXTI_EnableFallingTrig_32_63
 984:Drivers/STM32G4xx_HAL_Driver/Inc/stm32g4xx_ll_exti.h ****   * @param  ExtiLine This parameter can be a combination of the following values:
 985:Drivers/STM32G4xx_HAL_Driver/Inc/stm32g4xx_ll_exti.h ****   *         @arg @ref LL_EXTI_LINE_32 (*)
 986:Drivers/STM32G4xx_HAL_Driver/Inc/stm32g4xx_ll_exti.h ****   *         @arg @ref LL_EXTI_LINE_33 (*)
 987:Drivers/STM32G4xx_HAL_Driver/Inc/stm32g4xx_ll_exti.h ****   *         @arg @ref LL_EXTI_LINE_38
 988:Drivers/STM32G4xx_HAL_Driver/Inc/stm32g4xx_ll_exti.h ****   *         @arg @ref LL_EXTI_LINE_39
 989:Drivers/STM32G4xx_HAL_Driver/Inc/stm32g4xx_ll_exti.h ****   *         @arg @ref LL_EXTI_LINE_40
 990:Drivers/STM32G4xx_HAL_Driver/Inc/stm32g4xx_ll_exti.h ****   *         @arg @ref LL_EXTI_LINE_41
 991:Drivers/STM32G4xx_HAL_Driver/Inc/stm32g4xx_ll_exti.h ****   * @note   (*): Available in some devices
 992:Drivers/STM32G4xx_HAL_Driver/Inc/stm32g4xx_ll_exti.h ****   * @retval None
 993:Drivers/STM32G4xx_HAL_Driver/Inc/stm32g4xx_ll_exti.h ****   */
 994:Drivers/STM32G4xx_HAL_Driver/Inc/stm32g4xx_ll_exti.h **** __STATIC_INLINE void LL_EXTI_EnableFallingTrig_32_63(uint32_t ExtiLine)
 370              		.loc 2 994 22 view .LVU112
 371              	.LBB65:
 995:Drivers/STM32G4xx_HAL_Driver/Inc/stm32g4xx_ll_exti.h **** {
 996:Drivers/STM32G4xx_HAL_Driver/Inc/stm32g4xx_ll_exti.h ****   SET_BIT(EXTI->FTSR2, ExtiLine);
 372              		.loc 2 996 3 view .LVU113
 373 0134 5649     		ldr	r1, .L54+20
 374 0136 CA6A     		ldr	r2, [r1, #44]
 375 0138 1A43     		orrs	r2, r2, r3
 376 013a CA62     		str	r2, [r1, #44]
 377              	.LVL21:
 378              	.L19:
 379              		.loc 2 996 3 is_stmt 0 view .LVU114
 380              	.LBE65:
 381              	.LBE64:
 396:Drivers/STM32G4xx_HAL_Driver/Src/stm32g4xx_hal_comp.c ****       {
ARM GAS  /tmp/ccGmUGHU.s 			page 37


 382              		.loc 1 396 7 is_stmt 1 view .LVU115
 396:Drivers/STM32G4xx_HAL_Driver/Src/stm32g4xx_hal_comp.c ****       {
 383              		.loc 1 396 16 is_stmt 0 view .LVU116
 384 013c 2268     		ldr	r2, [r4]
 396:Drivers/STM32G4xx_HAL_Driver/Src/stm32g4xx_hal_comp.c ****       {
 385              		.loc 1 396 9 view .LVU117
 386 013e 5349     		ldr	r1, .L54+16
 387 0140 8A42     		cmp	r2, r1
 388 0142 18D0     		beq	.L22
 396:Drivers/STM32G4xx_HAL_Driver/Src/stm32g4xx_hal_comp.c ****       {
 389              		.loc 1 396 37 discriminator 1 view .LVU118
 390 0144 0431     		adds	r1, r1, #4
 391 0146 8A42     		cmp	r2, r1
 392 0148 15D0     		beq	.L22
 402:Drivers/STM32G4xx_HAL_Driver/Src/stm32g4xx_hal_comp.c ****       }
 393              		.loc 1 402 9 is_stmt 1 view .LVU119
 394              	.LVL22:
 395              	.LBB66:
 396              	.LBI66:
 997:Drivers/STM32G4xx_HAL_Driver/Inc/stm32g4xx_ll_exti.h **** }
 998:Drivers/STM32G4xx_HAL_Driver/Inc/stm32g4xx_ll_exti.h **** 
 999:Drivers/STM32G4xx_HAL_Driver/Inc/stm32g4xx_ll_exti.h **** /**
1000:Drivers/STM32G4xx_HAL_Driver/Inc/stm32g4xx_ll_exti.h ****   * @brief  Disable ExtiLine Falling Edge Trigger for Lines in range 0 to 31
1001:Drivers/STM32G4xx_HAL_Driver/Inc/stm32g4xx_ll_exti.h ****   * @note The configurable wakeup lines are edge-triggered. No glitch must be
1002:Drivers/STM32G4xx_HAL_Driver/Inc/stm32g4xx_ll_exti.h ****   *       generated on these lines. If a Falling edge on a configurable interrupt
1003:Drivers/STM32G4xx_HAL_Driver/Inc/stm32g4xx_ll_exti.h ****   *       line occurs during a write operation in the EXTI_FTSR register, the
1004:Drivers/STM32G4xx_HAL_Driver/Inc/stm32g4xx_ll_exti.h ****   *       pending bit is not set.
1005:Drivers/STM32G4xx_HAL_Driver/Inc/stm32g4xx_ll_exti.h ****   *       Rising and falling edge triggers can be set for the same interrupt line.
1006:Drivers/STM32G4xx_HAL_Driver/Inc/stm32g4xx_ll_exti.h ****   *       In this case, both generate a trigger condition.
1007:Drivers/STM32G4xx_HAL_Driver/Inc/stm32g4xx_ll_exti.h ****   * @rmtoll FTSR1        FTx           LL_EXTI_DisableFallingTrig_0_31
1008:Drivers/STM32G4xx_HAL_Driver/Inc/stm32g4xx_ll_exti.h ****   * @param  ExtiLine This parameter can be a combination of the following values:
1009:Drivers/STM32G4xx_HAL_Driver/Inc/stm32g4xx_ll_exti.h ****   *         @arg @ref LL_EXTI_LINE_0
1010:Drivers/STM32G4xx_HAL_Driver/Inc/stm32g4xx_ll_exti.h ****   *         @arg @ref LL_EXTI_LINE_1
1011:Drivers/STM32G4xx_HAL_Driver/Inc/stm32g4xx_ll_exti.h ****   *         @arg @ref LL_EXTI_LINE_2
1012:Drivers/STM32G4xx_HAL_Driver/Inc/stm32g4xx_ll_exti.h ****   *         @arg @ref LL_EXTI_LINE_3
1013:Drivers/STM32G4xx_HAL_Driver/Inc/stm32g4xx_ll_exti.h ****   *         @arg @ref LL_EXTI_LINE_4
1014:Drivers/STM32G4xx_HAL_Driver/Inc/stm32g4xx_ll_exti.h ****   *         @arg @ref LL_EXTI_LINE_5
1015:Drivers/STM32G4xx_HAL_Driver/Inc/stm32g4xx_ll_exti.h ****   *         @arg @ref LL_EXTI_LINE_6
1016:Drivers/STM32G4xx_HAL_Driver/Inc/stm32g4xx_ll_exti.h ****   *         @arg @ref LL_EXTI_LINE_7
1017:Drivers/STM32G4xx_HAL_Driver/Inc/stm32g4xx_ll_exti.h ****   *         @arg @ref LL_EXTI_LINE_8
1018:Drivers/STM32G4xx_HAL_Driver/Inc/stm32g4xx_ll_exti.h ****   *         @arg @ref LL_EXTI_LINE_9
1019:Drivers/STM32G4xx_HAL_Driver/Inc/stm32g4xx_ll_exti.h ****   *         @arg @ref LL_EXTI_LINE_10
1020:Drivers/STM32G4xx_HAL_Driver/Inc/stm32g4xx_ll_exti.h ****   *         @arg @ref LL_EXTI_LINE_11
1021:Drivers/STM32G4xx_HAL_Driver/Inc/stm32g4xx_ll_exti.h ****   *         @arg @ref LL_EXTI_LINE_12
1022:Drivers/STM32G4xx_HAL_Driver/Inc/stm32g4xx_ll_exti.h ****   *         @arg @ref LL_EXTI_LINE_13
1023:Drivers/STM32G4xx_HAL_Driver/Inc/stm32g4xx_ll_exti.h ****   *         @arg @ref LL_EXTI_LINE_14
1024:Drivers/STM32G4xx_HAL_Driver/Inc/stm32g4xx_ll_exti.h ****   *         @arg @ref LL_EXTI_LINE_15
1025:Drivers/STM32G4xx_HAL_Driver/Inc/stm32g4xx_ll_exti.h ****   *         @arg @ref LL_EXTI_LINE_16
1026:Drivers/STM32G4xx_HAL_Driver/Inc/stm32g4xx_ll_exti.h ****   *         @arg @ref LL_EXTI_LINE_18
1027:Drivers/STM32G4xx_HAL_Driver/Inc/stm32g4xx_ll_exti.h ****   *         @arg @ref LL_EXTI_LINE_19
1028:Drivers/STM32G4xx_HAL_Driver/Inc/stm32g4xx_ll_exti.h ****   *         @arg @ref LL_EXTI_LINE_20
1029:Drivers/STM32G4xx_HAL_Driver/Inc/stm32g4xx_ll_exti.h ****   *         @arg @ref LL_EXTI_LINE_21
1030:Drivers/STM32G4xx_HAL_Driver/Inc/stm32g4xx_ll_exti.h ****   *         @arg @ref LL_EXTI_LINE_22
1031:Drivers/STM32G4xx_HAL_Driver/Inc/stm32g4xx_ll_exti.h ****   *         @arg @ref LL_EXTI_LINE_29
1032:Drivers/STM32G4xx_HAL_Driver/Inc/stm32g4xx_ll_exti.h ****   *         @arg @ref LL_EXTI_LINE_30
1033:Drivers/STM32G4xx_HAL_Driver/Inc/stm32g4xx_ll_exti.h ****   *         @arg @ref LL_EXTI_LINE_31 (*)
1034:Drivers/STM32G4xx_HAL_Driver/Inc/stm32g4xx_ll_exti.h ****   * @note   (*): Available in some devices
ARM GAS  /tmp/ccGmUGHU.s 			page 38


1035:Drivers/STM32G4xx_HAL_Driver/Inc/stm32g4xx_ll_exti.h ****   * @note   Please check each device line mapping for EXTI Line availability
1036:Drivers/STM32G4xx_HAL_Driver/Inc/stm32g4xx_ll_exti.h ****   * @retval None
1037:Drivers/STM32G4xx_HAL_Driver/Inc/stm32g4xx_ll_exti.h ****   */
1038:Drivers/STM32G4xx_HAL_Driver/Inc/stm32g4xx_ll_exti.h **** __STATIC_INLINE void LL_EXTI_DisableFallingTrig_0_31(uint32_t ExtiLine)
1039:Drivers/STM32G4xx_HAL_Driver/Inc/stm32g4xx_ll_exti.h **** {
1040:Drivers/STM32G4xx_HAL_Driver/Inc/stm32g4xx_ll_exti.h ****   CLEAR_BIT(EXTI->FTSR1, ExtiLine);
1041:Drivers/STM32G4xx_HAL_Driver/Inc/stm32g4xx_ll_exti.h **** }
1042:Drivers/STM32G4xx_HAL_Driver/Inc/stm32g4xx_ll_exti.h **** 
1043:Drivers/STM32G4xx_HAL_Driver/Inc/stm32g4xx_ll_exti.h **** /**
1044:Drivers/STM32G4xx_HAL_Driver/Inc/stm32g4xx_ll_exti.h ****   * @brief  Disable ExtiLine Falling Edge Trigger for Lines in range 32 to 63
1045:Drivers/STM32G4xx_HAL_Driver/Inc/stm32g4xx_ll_exti.h ****   * @note The configurable wakeup lines are edge-triggered. No glitch must be
1046:Drivers/STM32G4xx_HAL_Driver/Inc/stm32g4xx_ll_exti.h ****   *       generated on these lines. If a Falling edge on a configurable interrupt
1047:Drivers/STM32G4xx_HAL_Driver/Inc/stm32g4xx_ll_exti.h ****   *       line occurs during a write operation in the EXTI_FTSR register, the
1048:Drivers/STM32G4xx_HAL_Driver/Inc/stm32g4xx_ll_exti.h ****   *       pending bit is not set.
1049:Drivers/STM32G4xx_HAL_Driver/Inc/stm32g4xx_ll_exti.h ****   *       Rising and falling edge triggers can be set for the same interrupt line.
1050:Drivers/STM32G4xx_HAL_Driver/Inc/stm32g4xx_ll_exti.h ****   *       In this case, both generate a trigger condition.
1051:Drivers/STM32G4xx_HAL_Driver/Inc/stm32g4xx_ll_exti.h ****   * @rmtoll FTSR2        FTx           LL_EXTI_DisableFallingTrig_32_63
1052:Drivers/STM32G4xx_HAL_Driver/Inc/stm32g4xx_ll_exti.h ****   * @param  ExtiLine This parameter can be a combination of the following values:
1053:Drivers/STM32G4xx_HAL_Driver/Inc/stm32g4xx_ll_exti.h ****   *         @arg @ref LL_EXTI_LINE_32 (*)
1054:Drivers/STM32G4xx_HAL_Driver/Inc/stm32g4xx_ll_exti.h ****   *         @arg @ref LL_EXTI_LINE_33 (*)
1055:Drivers/STM32G4xx_HAL_Driver/Inc/stm32g4xx_ll_exti.h ****   *         @arg @ref LL_EXTI_LINE_38
1056:Drivers/STM32G4xx_HAL_Driver/Inc/stm32g4xx_ll_exti.h ****   *         @arg @ref LL_EXTI_LINE_39
1057:Drivers/STM32G4xx_HAL_Driver/Inc/stm32g4xx_ll_exti.h ****   *         @arg @ref LL_EXTI_LINE_40
1058:Drivers/STM32G4xx_HAL_Driver/Inc/stm32g4xx_ll_exti.h ****   *         @arg @ref LL_EXTI_LINE_41
1059:Drivers/STM32G4xx_HAL_Driver/Inc/stm32g4xx_ll_exti.h ****   * @note   (*): Available in some devices
1060:Drivers/STM32G4xx_HAL_Driver/Inc/stm32g4xx_ll_exti.h ****   * @retval None
1061:Drivers/STM32G4xx_HAL_Driver/Inc/stm32g4xx_ll_exti.h ****   */
1062:Drivers/STM32G4xx_HAL_Driver/Inc/stm32g4xx_ll_exti.h **** __STATIC_INLINE void LL_EXTI_DisableFallingTrig_32_63(uint32_t ExtiLine)
1063:Drivers/STM32G4xx_HAL_Driver/Inc/stm32g4xx_ll_exti.h **** {
1064:Drivers/STM32G4xx_HAL_Driver/Inc/stm32g4xx_ll_exti.h ****   CLEAR_BIT(EXTI->FTSR2, ExtiLine);
1065:Drivers/STM32G4xx_HAL_Driver/Inc/stm32g4xx_ll_exti.h **** }
1066:Drivers/STM32G4xx_HAL_Driver/Inc/stm32g4xx_ll_exti.h **** 
1067:Drivers/STM32G4xx_HAL_Driver/Inc/stm32g4xx_ll_exti.h **** /**
1068:Drivers/STM32G4xx_HAL_Driver/Inc/stm32g4xx_ll_exti.h ****   * @brief  Check if falling edge trigger is enabled for Lines in range 0 to 31
1069:Drivers/STM32G4xx_HAL_Driver/Inc/stm32g4xx_ll_exti.h ****   * @rmtoll FTSR1        FTx           LL_EXTI_IsEnabledFallingTrig_0_31
1070:Drivers/STM32G4xx_HAL_Driver/Inc/stm32g4xx_ll_exti.h ****   * @param  ExtiLine This parameter can be a combination of the following values:
1071:Drivers/STM32G4xx_HAL_Driver/Inc/stm32g4xx_ll_exti.h ****   *         @arg @ref LL_EXTI_LINE_0
1072:Drivers/STM32G4xx_HAL_Driver/Inc/stm32g4xx_ll_exti.h ****   *         @arg @ref LL_EXTI_LINE_1
1073:Drivers/STM32G4xx_HAL_Driver/Inc/stm32g4xx_ll_exti.h ****   *         @arg @ref LL_EXTI_LINE_2
1074:Drivers/STM32G4xx_HAL_Driver/Inc/stm32g4xx_ll_exti.h ****   *         @arg @ref LL_EXTI_LINE_3
1075:Drivers/STM32G4xx_HAL_Driver/Inc/stm32g4xx_ll_exti.h ****   *         @arg @ref LL_EXTI_LINE_4
1076:Drivers/STM32G4xx_HAL_Driver/Inc/stm32g4xx_ll_exti.h ****   *         @arg @ref LL_EXTI_LINE_5
1077:Drivers/STM32G4xx_HAL_Driver/Inc/stm32g4xx_ll_exti.h ****   *         @arg @ref LL_EXTI_LINE_6
1078:Drivers/STM32G4xx_HAL_Driver/Inc/stm32g4xx_ll_exti.h ****   *         @arg @ref LL_EXTI_LINE_7
1079:Drivers/STM32G4xx_HAL_Driver/Inc/stm32g4xx_ll_exti.h ****   *         @arg @ref LL_EXTI_LINE_8
1080:Drivers/STM32G4xx_HAL_Driver/Inc/stm32g4xx_ll_exti.h ****   *         @arg @ref LL_EXTI_LINE_9
1081:Drivers/STM32G4xx_HAL_Driver/Inc/stm32g4xx_ll_exti.h ****   *         @arg @ref LL_EXTI_LINE_10
1082:Drivers/STM32G4xx_HAL_Driver/Inc/stm32g4xx_ll_exti.h ****   *         @arg @ref LL_EXTI_LINE_11
1083:Drivers/STM32G4xx_HAL_Driver/Inc/stm32g4xx_ll_exti.h ****   *         @arg @ref LL_EXTI_LINE_12
1084:Drivers/STM32G4xx_HAL_Driver/Inc/stm32g4xx_ll_exti.h ****   *         @arg @ref LL_EXTI_LINE_13
1085:Drivers/STM32G4xx_HAL_Driver/Inc/stm32g4xx_ll_exti.h ****   *         @arg @ref LL_EXTI_LINE_14
1086:Drivers/STM32G4xx_HAL_Driver/Inc/stm32g4xx_ll_exti.h ****   *         @arg @ref LL_EXTI_LINE_15
1087:Drivers/STM32G4xx_HAL_Driver/Inc/stm32g4xx_ll_exti.h ****   *         @arg @ref LL_EXTI_LINE_16
1088:Drivers/STM32G4xx_HAL_Driver/Inc/stm32g4xx_ll_exti.h ****   *         @arg @ref LL_EXTI_LINE_18
1089:Drivers/STM32G4xx_HAL_Driver/Inc/stm32g4xx_ll_exti.h ****   *         @arg @ref LL_EXTI_LINE_19
1090:Drivers/STM32G4xx_HAL_Driver/Inc/stm32g4xx_ll_exti.h ****   *         @arg @ref LL_EXTI_LINE_20
1091:Drivers/STM32G4xx_HAL_Driver/Inc/stm32g4xx_ll_exti.h ****   *         @arg @ref LL_EXTI_LINE_21
ARM GAS  /tmp/ccGmUGHU.s 			page 39


1092:Drivers/STM32G4xx_HAL_Driver/Inc/stm32g4xx_ll_exti.h ****   *         @arg @ref LL_EXTI_LINE_22
1093:Drivers/STM32G4xx_HAL_Driver/Inc/stm32g4xx_ll_exti.h ****   *         @arg @ref LL_EXTI_LINE_29
1094:Drivers/STM32G4xx_HAL_Driver/Inc/stm32g4xx_ll_exti.h ****   *         @arg @ref LL_EXTI_LINE_30
1095:Drivers/STM32G4xx_HAL_Driver/Inc/stm32g4xx_ll_exti.h ****   *         @arg @ref LL_EXTI_LINE_31 (*)
1096:Drivers/STM32G4xx_HAL_Driver/Inc/stm32g4xx_ll_exti.h ****   * @note   (*): Available in some devices
1097:Drivers/STM32G4xx_HAL_Driver/Inc/stm32g4xx_ll_exti.h ****   * @note   Please check each device line mapping for EXTI Line availability
1098:Drivers/STM32G4xx_HAL_Driver/Inc/stm32g4xx_ll_exti.h ****   * @retval State of bit (1 or 0).
1099:Drivers/STM32G4xx_HAL_Driver/Inc/stm32g4xx_ll_exti.h ****   */
1100:Drivers/STM32G4xx_HAL_Driver/Inc/stm32g4xx_ll_exti.h **** __STATIC_INLINE uint32_t LL_EXTI_IsEnabledFallingTrig_0_31(uint32_t ExtiLine)
1101:Drivers/STM32G4xx_HAL_Driver/Inc/stm32g4xx_ll_exti.h **** {
1102:Drivers/STM32G4xx_HAL_Driver/Inc/stm32g4xx_ll_exti.h ****   return ((READ_BIT(EXTI->FTSR1, ExtiLine) == (ExtiLine)) ? 1UL : 0UL);
1103:Drivers/STM32G4xx_HAL_Driver/Inc/stm32g4xx_ll_exti.h **** }
1104:Drivers/STM32G4xx_HAL_Driver/Inc/stm32g4xx_ll_exti.h **** 
1105:Drivers/STM32G4xx_HAL_Driver/Inc/stm32g4xx_ll_exti.h **** /**
1106:Drivers/STM32G4xx_HAL_Driver/Inc/stm32g4xx_ll_exti.h ****   * @brief  Check if falling edge trigger is enabled for Lines in range 32 to 63
1107:Drivers/STM32G4xx_HAL_Driver/Inc/stm32g4xx_ll_exti.h ****   * @rmtoll FTSR2        FTx           LL_EXTI_IsEnabledFallingTrig_32_63
1108:Drivers/STM32G4xx_HAL_Driver/Inc/stm32g4xx_ll_exti.h ****   * @param  ExtiLine This parameter can be a combination of the following values:
1109:Drivers/STM32G4xx_HAL_Driver/Inc/stm32g4xx_ll_exti.h ****   *         @arg @ref LL_EXTI_LINE_32 (*)
1110:Drivers/STM32G4xx_HAL_Driver/Inc/stm32g4xx_ll_exti.h ****   *         @arg @ref LL_EXTI_LINE_33 (*)
1111:Drivers/STM32G4xx_HAL_Driver/Inc/stm32g4xx_ll_exti.h ****   *         @arg @ref LL_EXTI_LINE_38
1112:Drivers/STM32G4xx_HAL_Driver/Inc/stm32g4xx_ll_exti.h ****   *         @arg @ref LL_EXTI_LINE_39
1113:Drivers/STM32G4xx_HAL_Driver/Inc/stm32g4xx_ll_exti.h ****   *         @arg @ref LL_EXTI_LINE_40
1114:Drivers/STM32G4xx_HAL_Driver/Inc/stm32g4xx_ll_exti.h ****   *         @arg @ref LL_EXTI_LINE_41
1115:Drivers/STM32G4xx_HAL_Driver/Inc/stm32g4xx_ll_exti.h ****   * @note   (*): Available in some devices
1116:Drivers/STM32G4xx_HAL_Driver/Inc/stm32g4xx_ll_exti.h ****   * @retval State of bit (1 or 0).
1117:Drivers/STM32G4xx_HAL_Driver/Inc/stm32g4xx_ll_exti.h ****   */
1118:Drivers/STM32G4xx_HAL_Driver/Inc/stm32g4xx_ll_exti.h **** __STATIC_INLINE uint32_t LL_EXTI_IsEnabledFallingTrig_32_63(uint32_t ExtiLine)
1119:Drivers/STM32G4xx_HAL_Driver/Inc/stm32g4xx_ll_exti.h **** {
1120:Drivers/STM32G4xx_HAL_Driver/Inc/stm32g4xx_ll_exti.h ****   return ((READ_BIT(EXTI->FTSR2, ExtiLine) == (ExtiLine)) ? 1UL : 0UL);
1121:Drivers/STM32G4xx_HAL_Driver/Inc/stm32g4xx_ll_exti.h **** }
1122:Drivers/STM32G4xx_HAL_Driver/Inc/stm32g4xx_ll_exti.h **** 
1123:Drivers/STM32G4xx_HAL_Driver/Inc/stm32g4xx_ll_exti.h **** /**
1124:Drivers/STM32G4xx_HAL_Driver/Inc/stm32g4xx_ll_exti.h ****   * @}
1125:Drivers/STM32G4xx_HAL_Driver/Inc/stm32g4xx_ll_exti.h ****   */
1126:Drivers/STM32G4xx_HAL_Driver/Inc/stm32g4xx_ll_exti.h **** 
1127:Drivers/STM32G4xx_HAL_Driver/Inc/stm32g4xx_ll_exti.h **** /** @defgroup EXTI_LL_EF_Software_Interrupt_Management Software_Interrupt_Management
1128:Drivers/STM32G4xx_HAL_Driver/Inc/stm32g4xx_ll_exti.h ****   * @{
1129:Drivers/STM32G4xx_HAL_Driver/Inc/stm32g4xx_ll_exti.h ****   */
1130:Drivers/STM32G4xx_HAL_Driver/Inc/stm32g4xx_ll_exti.h **** 
1131:Drivers/STM32G4xx_HAL_Driver/Inc/stm32g4xx_ll_exti.h **** /**
1132:Drivers/STM32G4xx_HAL_Driver/Inc/stm32g4xx_ll_exti.h ****   * @brief  Generate a software Interrupt Event for Lines in range 0 to 31
1133:Drivers/STM32G4xx_HAL_Driver/Inc/stm32g4xx_ll_exti.h ****   * @note If the interrupt is enabled on this line in the EXTI_IMR1, writing a 1 to
1134:Drivers/STM32G4xx_HAL_Driver/Inc/stm32g4xx_ll_exti.h ****   *       this bit when it is at '0' sets the corresponding pending bit in EXTI_PR1
1135:Drivers/STM32G4xx_HAL_Driver/Inc/stm32g4xx_ll_exti.h ****   *       resulting in an interrupt request generation.
1136:Drivers/STM32G4xx_HAL_Driver/Inc/stm32g4xx_ll_exti.h ****   *       This bit is cleared by clearing the corresponding bit in the EXTI_PR1
1137:Drivers/STM32G4xx_HAL_Driver/Inc/stm32g4xx_ll_exti.h ****   *       register (by writing a 1 into the bit)
1138:Drivers/STM32G4xx_HAL_Driver/Inc/stm32g4xx_ll_exti.h ****   * @rmtoll SWIER1       SWIx          LL_EXTI_GenerateSWI_0_31
1139:Drivers/STM32G4xx_HAL_Driver/Inc/stm32g4xx_ll_exti.h ****   * @param  ExtiLine This parameter can be a combination of the following values:
1140:Drivers/STM32G4xx_HAL_Driver/Inc/stm32g4xx_ll_exti.h ****   *         @arg @ref LL_EXTI_LINE_0
1141:Drivers/STM32G4xx_HAL_Driver/Inc/stm32g4xx_ll_exti.h ****   *         @arg @ref LL_EXTI_LINE_1
1142:Drivers/STM32G4xx_HAL_Driver/Inc/stm32g4xx_ll_exti.h ****   *         @arg @ref LL_EXTI_LINE_2
1143:Drivers/STM32G4xx_HAL_Driver/Inc/stm32g4xx_ll_exti.h ****   *         @arg @ref LL_EXTI_LINE_3
1144:Drivers/STM32G4xx_HAL_Driver/Inc/stm32g4xx_ll_exti.h ****   *         @arg @ref LL_EXTI_LINE_4
1145:Drivers/STM32G4xx_HAL_Driver/Inc/stm32g4xx_ll_exti.h ****   *         @arg @ref LL_EXTI_LINE_5
1146:Drivers/STM32G4xx_HAL_Driver/Inc/stm32g4xx_ll_exti.h ****   *         @arg @ref LL_EXTI_LINE_6
1147:Drivers/STM32G4xx_HAL_Driver/Inc/stm32g4xx_ll_exti.h ****   *         @arg @ref LL_EXTI_LINE_7
1148:Drivers/STM32G4xx_HAL_Driver/Inc/stm32g4xx_ll_exti.h ****   *         @arg @ref LL_EXTI_LINE_8
ARM GAS  /tmp/ccGmUGHU.s 			page 40


1149:Drivers/STM32G4xx_HAL_Driver/Inc/stm32g4xx_ll_exti.h ****   *         @arg @ref LL_EXTI_LINE_9
1150:Drivers/STM32G4xx_HAL_Driver/Inc/stm32g4xx_ll_exti.h ****   *         @arg @ref LL_EXTI_LINE_10
1151:Drivers/STM32G4xx_HAL_Driver/Inc/stm32g4xx_ll_exti.h ****   *         @arg @ref LL_EXTI_LINE_11
1152:Drivers/STM32G4xx_HAL_Driver/Inc/stm32g4xx_ll_exti.h ****   *         @arg @ref LL_EXTI_LINE_12
1153:Drivers/STM32G4xx_HAL_Driver/Inc/stm32g4xx_ll_exti.h ****   *         @arg @ref LL_EXTI_LINE_13
1154:Drivers/STM32G4xx_HAL_Driver/Inc/stm32g4xx_ll_exti.h ****   *         @arg @ref LL_EXTI_LINE_14
1155:Drivers/STM32G4xx_HAL_Driver/Inc/stm32g4xx_ll_exti.h ****   *         @arg @ref LL_EXTI_LINE_15
1156:Drivers/STM32G4xx_HAL_Driver/Inc/stm32g4xx_ll_exti.h ****   *         @arg @ref LL_EXTI_LINE_16
1157:Drivers/STM32G4xx_HAL_Driver/Inc/stm32g4xx_ll_exti.h ****   *         @arg @ref LL_EXTI_LINE_18
1158:Drivers/STM32G4xx_HAL_Driver/Inc/stm32g4xx_ll_exti.h ****   *         @arg @ref LL_EXTI_LINE_19
1159:Drivers/STM32G4xx_HAL_Driver/Inc/stm32g4xx_ll_exti.h ****   *         @arg @ref LL_EXTI_LINE_20
1160:Drivers/STM32G4xx_HAL_Driver/Inc/stm32g4xx_ll_exti.h ****   *         @arg @ref LL_EXTI_LINE_21
1161:Drivers/STM32G4xx_HAL_Driver/Inc/stm32g4xx_ll_exti.h ****   *         @arg @ref LL_EXTI_LINE_22
1162:Drivers/STM32G4xx_HAL_Driver/Inc/stm32g4xx_ll_exti.h ****   *         @arg @ref LL_EXTI_LINE_29
1163:Drivers/STM32G4xx_HAL_Driver/Inc/stm32g4xx_ll_exti.h ****   *         @arg @ref LL_EXTI_LINE_30
1164:Drivers/STM32G4xx_HAL_Driver/Inc/stm32g4xx_ll_exti.h ****   *         @arg @ref LL_EXTI_LINE_31 (*)
1165:Drivers/STM32G4xx_HAL_Driver/Inc/stm32g4xx_ll_exti.h ****   * @note   (*): Available in some devices
1166:Drivers/STM32G4xx_HAL_Driver/Inc/stm32g4xx_ll_exti.h ****   * @note   Please check each device line mapping for EXTI Line availability
1167:Drivers/STM32G4xx_HAL_Driver/Inc/stm32g4xx_ll_exti.h ****   * @retval None
1168:Drivers/STM32G4xx_HAL_Driver/Inc/stm32g4xx_ll_exti.h ****   */
1169:Drivers/STM32G4xx_HAL_Driver/Inc/stm32g4xx_ll_exti.h **** __STATIC_INLINE void LL_EXTI_GenerateSWI_0_31(uint32_t ExtiLine)
1170:Drivers/STM32G4xx_HAL_Driver/Inc/stm32g4xx_ll_exti.h **** {
1171:Drivers/STM32G4xx_HAL_Driver/Inc/stm32g4xx_ll_exti.h ****   SET_BIT(EXTI->SWIER1, ExtiLine);
1172:Drivers/STM32G4xx_HAL_Driver/Inc/stm32g4xx_ll_exti.h **** }
1173:Drivers/STM32G4xx_HAL_Driver/Inc/stm32g4xx_ll_exti.h **** 
1174:Drivers/STM32G4xx_HAL_Driver/Inc/stm32g4xx_ll_exti.h **** /**
1175:Drivers/STM32G4xx_HAL_Driver/Inc/stm32g4xx_ll_exti.h ****   * @brief  Generate a software Interrupt Event for Lines in range 32 to 63
1176:Drivers/STM32G4xx_HAL_Driver/Inc/stm32g4xx_ll_exti.h ****   * @note If the interrupt is enabled on this line inthe EXTI_IMR2, writing a 1 to
1177:Drivers/STM32G4xx_HAL_Driver/Inc/stm32g4xx_ll_exti.h ****   *       this bit when it is at '0' sets the corresponding pending bit in EXTI_PR2
1178:Drivers/STM32G4xx_HAL_Driver/Inc/stm32g4xx_ll_exti.h ****   *       resulting in an interrupt request generation.
1179:Drivers/STM32G4xx_HAL_Driver/Inc/stm32g4xx_ll_exti.h ****   *       This bit is cleared by clearing the corresponding bit in the EXTI_PR2
1180:Drivers/STM32G4xx_HAL_Driver/Inc/stm32g4xx_ll_exti.h ****   *       register (by writing a 1 into the bit)
1181:Drivers/STM32G4xx_HAL_Driver/Inc/stm32g4xx_ll_exti.h ****   * @rmtoll SWIER2       SWIx          LL_EXTI_GenerateSWI_32_63
1182:Drivers/STM32G4xx_HAL_Driver/Inc/stm32g4xx_ll_exti.h ****   * @param  ExtiLine This parameter can be a combination of the following values:
1183:Drivers/STM32G4xx_HAL_Driver/Inc/stm32g4xx_ll_exti.h ****   *         @arg @ref LL_EXTI_LINE_32 (*)
1184:Drivers/STM32G4xx_HAL_Driver/Inc/stm32g4xx_ll_exti.h ****   *         @arg @ref LL_EXTI_LINE_33 (*)
1185:Drivers/STM32G4xx_HAL_Driver/Inc/stm32g4xx_ll_exti.h ****   *         @arg @ref LL_EXTI_LINE_38
1186:Drivers/STM32G4xx_HAL_Driver/Inc/stm32g4xx_ll_exti.h ****   *         @arg @ref LL_EXTI_LINE_39
1187:Drivers/STM32G4xx_HAL_Driver/Inc/stm32g4xx_ll_exti.h ****   *         @arg @ref LL_EXTI_LINE_40
1188:Drivers/STM32G4xx_HAL_Driver/Inc/stm32g4xx_ll_exti.h ****   *         @arg @ref LL_EXTI_LINE_41
1189:Drivers/STM32G4xx_HAL_Driver/Inc/stm32g4xx_ll_exti.h ****   * @note   (*): Available in some devices
1190:Drivers/STM32G4xx_HAL_Driver/Inc/stm32g4xx_ll_exti.h ****   * @retval None
1191:Drivers/STM32G4xx_HAL_Driver/Inc/stm32g4xx_ll_exti.h ****   */
1192:Drivers/STM32G4xx_HAL_Driver/Inc/stm32g4xx_ll_exti.h **** __STATIC_INLINE void LL_EXTI_GenerateSWI_32_63(uint32_t ExtiLine)
1193:Drivers/STM32G4xx_HAL_Driver/Inc/stm32g4xx_ll_exti.h **** {
1194:Drivers/STM32G4xx_HAL_Driver/Inc/stm32g4xx_ll_exti.h ****   SET_BIT(EXTI->SWIER2, ExtiLine);
1195:Drivers/STM32G4xx_HAL_Driver/Inc/stm32g4xx_ll_exti.h **** }
1196:Drivers/STM32G4xx_HAL_Driver/Inc/stm32g4xx_ll_exti.h **** 
1197:Drivers/STM32G4xx_HAL_Driver/Inc/stm32g4xx_ll_exti.h **** /**
1198:Drivers/STM32G4xx_HAL_Driver/Inc/stm32g4xx_ll_exti.h ****   * @}
1199:Drivers/STM32G4xx_HAL_Driver/Inc/stm32g4xx_ll_exti.h ****   */
1200:Drivers/STM32G4xx_HAL_Driver/Inc/stm32g4xx_ll_exti.h **** 
1201:Drivers/STM32G4xx_HAL_Driver/Inc/stm32g4xx_ll_exti.h **** /** @defgroup EXTI_LL_EF_Flag_Management Flag_Management
1202:Drivers/STM32G4xx_HAL_Driver/Inc/stm32g4xx_ll_exti.h ****   * @{
1203:Drivers/STM32G4xx_HAL_Driver/Inc/stm32g4xx_ll_exti.h ****   */
1204:Drivers/STM32G4xx_HAL_Driver/Inc/stm32g4xx_ll_exti.h **** 
1205:Drivers/STM32G4xx_HAL_Driver/Inc/stm32g4xx_ll_exti.h **** /**
ARM GAS  /tmp/ccGmUGHU.s 			page 41


1206:Drivers/STM32G4xx_HAL_Driver/Inc/stm32g4xx_ll_exti.h ****   * @brief  Check if the ExtLine Flag is set or not for Lines in range 0 to 31
1207:Drivers/STM32G4xx_HAL_Driver/Inc/stm32g4xx_ll_exti.h ****   * @note This bit is set when the selected edge event arrives on the interrupt
1208:Drivers/STM32G4xx_HAL_Driver/Inc/stm32g4xx_ll_exti.h ****   *       line. This bit is cleared by writing a 1 to the bit.
1209:Drivers/STM32G4xx_HAL_Driver/Inc/stm32g4xx_ll_exti.h ****   * @rmtoll PR1          PIFx           LL_EXTI_IsActiveFlag_0_31
1210:Drivers/STM32G4xx_HAL_Driver/Inc/stm32g4xx_ll_exti.h ****   * @param  ExtiLine This parameter can be a combination of the following values:
1211:Drivers/STM32G4xx_HAL_Driver/Inc/stm32g4xx_ll_exti.h ****   *         @arg @ref LL_EXTI_LINE_0
1212:Drivers/STM32G4xx_HAL_Driver/Inc/stm32g4xx_ll_exti.h ****   *         @arg @ref LL_EXTI_LINE_1
1213:Drivers/STM32G4xx_HAL_Driver/Inc/stm32g4xx_ll_exti.h ****   *         @arg @ref LL_EXTI_LINE_2
1214:Drivers/STM32G4xx_HAL_Driver/Inc/stm32g4xx_ll_exti.h ****   *         @arg @ref LL_EXTI_LINE_3
1215:Drivers/STM32G4xx_HAL_Driver/Inc/stm32g4xx_ll_exti.h ****   *         @arg @ref LL_EXTI_LINE_4
1216:Drivers/STM32G4xx_HAL_Driver/Inc/stm32g4xx_ll_exti.h ****   *         @arg @ref LL_EXTI_LINE_5
1217:Drivers/STM32G4xx_HAL_Driver/Inc/stm32g4xx_ll_exti.h ****   *         @arg @ref LL_EXTI_LINE_6
1218:Drivers/STM32G4xx_HAL_Driver/Inc/stm32g4xx_ll_exti.h ****   *         @arg @ref LL_EXTI_LINE_7
1219:Drivers/STM32G4xx_HAL_Driver/Inc/stm32g4xx_ll_exti.h ****   *         @arg @ref LL_EXTI_LINE_8
1220:Drivers/STM32G4xx_HAL_Driver/Inc/stm32g4xx_ll_exti.h ****   *         @arg @ref LL_EXTI_LINE_9
1221:Drivers/STM32G4xx_HAL_Driver/Inc/stm32g4xx_ll_exti.h ****   *         @arg @ref LL_EXTI_LINE_10
1222:Drivers/STM32G4xx_HAL_Driver/Inc/stm32g4xx_ll_exti.h ****   *         @arg @ref LL_EXTI_LINE_11
1223:Drivers/STM32G4xx_HAL_Driver/Inc/stm32g4xx_ll_exti.h ****   *         @arg @ref LL_EXTI_LINE_12
1224:Drivers/STM32G4xx_HAL_Driver/Inc/stm32g4xx_ll_exti.h ****   *         @arg @ref LL_EXTI_LINE_13
1225:Drivers/STM32G4xx_HAL_Driver/Inc/stm32g4xx_ll_exti.h ****   *         @arg @ref LL_EXTI_LINE_14
1226:Drivers/STM32G4xx_HAL_Driver/Inc/stm32g4xx_ll_exti.h ****   *         @arg @ref LL_EXTI_LINE_15
1227:Drivers/STM32G4xx_HAL_Driver/Inc/stm32g4xx_ll_exti.h ****   *         @arg @ref LL_EXTI_LINE_16
1228:Drivers/STM32G4xx_HAL_Driver/Inc/stm32g4xx_ll_exti.h ****   *         @arg @ref LL_EXTI_LINE_18
1229:Drivers/STM32G4xx_HAL_Driver/Inc/stm32g4xx_ll_exti.h ****   *         @arg @ref LL_EXTI_LINE_19
1230:Drivers/STM32G4xx_HAL_Driver/Inc/stm32g4xx_ll_exti.h ****   *         @arg @ref LL_EXTI_LINE_20
1231:Drivers/STM32G4xx_HAL_Driver/Inc/stm32g4xx_ll_exti.h ****   *         @arg @ref LL_EXTI_LINE_21
1232:Drivers/STM32G4xx_HAL_Driver/Inc/stm32g4xx_ll_exti.h ****   *         @arg @ref LL_EXTI_LINE_22
1233:Drivers/STM32G4xx_HAL_Driver/Inc/stm32g4xx_ll_exti.h ****   *         @arg @ref LL_EXTI_LINE_29
1234:Drivers/STM32G4xx_HAL_Driver/Inc/stm32g4xx_ll_exti.h ****   *         @arg @ref LL_EXTI_LINE_30
1235:Drivers/STM32G4xx_HAL_Driver/Inc/stm32g4xx_ll_exti.h ****   *         @arg @ref LL_EXTI_LINE_31 (*)
1236:Drivers/STM32G4xx_HAL_Driver/Inc/stm32g4xx_ll_exti.h ****   * @note   (*): Available in some devices
1237:Drivers/STM32G4xx_HAL_Driver/Inc/stm32g4xx_ll_exti.h ****   * @note   Please check each device line mapping for EXTI Line availability
1238:Drivers/STM32G4xx_HAL_Driver/Inc/stm32g4xx_ll_exti.h ****   * @retval State of bit (1 or 0).
1239:Drivers/STM32G4xx_HAL_Driver/Inc/stm32g4xx_ll_exti.h ****   */
1240:Drivers/STM32G4xx_HAL_Driver/Inc/stm32g4xx_ll_exti.h **** __STATIC_INLINE uint32_t LL_EXTI_IsActiveFlag_0_31(uint32_t ExtiLine)
1241:Drivers/STM32G4xx_HAL_Driver/Inc/stm32g4xx_ll_exti.h **** {
1242:Drivers/STM32G4xx_HAL_Driver/Inc/stm32g4xx_ll_exti.h ****   return ((READ_BIT(EXTI->PR1, ExtiLine) == (ExtiLine)) ? 1UL : 0UL);
1243:Drivers/STM32G4xx_HAL_Driver/Inc/stm32g4xx_ll_exti.h **** }
1244:Drivers/STM32G4xx_HAL_Driver/Inc/stm32g4xx_ll_exti.h **** 
1245:Drivers/STM32G4xx_HAL_Driver/Inc/stm32g4xx_ll_exti.h **** /**
1246:Drivers/STM32G4xx_HAL_Driver/Inc/stm32g4xx_ll_exti.h ****   * @brief  Check if the ExtLine Flag is set or not for  Lines in range 32 to 63
1247:Drivers/STM32G4xx_HAL_Driver/Inc/stm32g4xx_ll_exti.h ****   * @note This bit is set when the selected edge event arrives on the interrupt
1248:Drivers/STM32G4xx_HAL_Driver/Inc/stm32g4xx_ll_exti.h ****   *       line. This bit is cleared by writing a 1 to the bit.
1249:Drivers/STM32G4xx_HAL_Driver/Inc/stm32g4xx_ll_exti.h ****   * @rmtoll PR2          PIFx           LL_EXTI_IsActiveFlag_32_63
1250:Drivers/STM32G4xx_HAL_Driver/Inc/stm32g4xx_ll_exti.h ****   * @param  ExtiLine This parameter can be a combination of the following values:
1251:Drivers/STM32G4xx_HAL_Driver/Inc/stm32g4xx_ll_exti.h ****   *         @arg @ref LL_EXTI_LINE_32 (*)
1252:Drivers/STM32G4xx_HAL_Driver/Inc/stm32g4xx_ll_exti.h ****   *         @arg @ref LL_EXTI_LINE_33 (*)
1253:Drivers/STM32G4xx_HAL_Driver/Inc/stm32g4xx_ll_exti.h ****   *         @arg @ref LL_EXTI_LINE_38
1254:Drivers/STM32G4xx_HAL_Driver/Inc/stm32g4xx_ll_exti.h ****   *         @arg @ref LL_EXTI_LINE_39
1255:Drivers/STM32G4xx_HAL_Driver/Inc/stm32g4xx_ll_exti.h ****   *         @arg @ref LL_EXTI_LINE_40
1256:Drivers/STM32G4xx_HAL_Driver/Inc/stm32g4xx_ll_exti.h ****   *         @arg @ref LL_EXTI_LINE_41
1257:Drivers/STM32G4xx_HAL_Driver/Inc/stm32g4xx_ll_exti.h ****   * @note   (*): Available in some devices
1258:Drivers/STM32G4xx_HAL_Driver/Inc/stm32g4xx_ll_exti.h ****   * @retval State of bit (1 or 0).
1259:Drivers/STM32G4xx_HAL_Driver/Inc/stm32g4xx_ll_exti.h ****   */
1260:Drivers/STM32G4xx_HAL_Driver/Inc/stm32g4xx_ll_exti.h **** __STATIC_INLINE uint32_t LL_EXTI_IsActiveFlag_32_63(uint32_t ExtiLine)
1261:Drivers/STM32G4xx_HAL_Driver/Inc/stm32g4xx_ll_exti.h **** {
1262:Drivers/STM32G4xx_HAL_Driver/Inc/stm32g4xx_ll_exti.h ****   return ((READ_BIT(EXTI->PR2, ExtiLine) == (ExtiLine)) ? 1UL : 0UL);
ARM GAS  /tmp/ccGmUGHU.s 			page 42


1263:Drivers/STM32G4xx_HAL_Driver/Inc/stm32g4xx_ll_exti.h **** }
1264:Drivers/STM32G4xx_HAL_Driver/Inc/stm32g4xx_ll_exti.h **** 
1265:Drivers/STM32G4xx_HAL_Driver/Inc/stm32g4xx_ll_exti.h **** /**
1266:Drivers/STM32G4xx_HAL_Driver/Inc/stm32g4xx_ll_exti.h ****   * @brief  Read ExtLine Combination Flag for Lines in range 0 to 31
1267:Drivers/STM32G4xx_HAL_Driver/Inc/stm32g4xx_ll_exti.h ****   * @note This bit is set when the selected edge event arrives on the interrupt
1268:Drivers/STM32G4xx_HAL_Driver/Inc/stm32g4xx_ll_exti.h ****   *       line. This bit is cleared by writing a 1 to the bit.
1269:Drivers/STM32G4xx_HAL_Driver/Inc/stm32g4xx_ll_exti.h ****   * @rmtoll PR1          PIFx           LL_EXTI_ReadFlag_0_31
1270:Drivers/STM32G4xx_HAL_Driver/Inc/stm32g4xx_ll_exti.h ****   * @param  ExtiLine This parameter can be a combination of the following values:
1271:Drivers/STM32G4xx_HAL_Driver/Inc/stm32g4xx_ll_exti.h ****   *         @arg @ref LL_EXTI_LINE_0
1272:Drivers/STM32G4xx_HAL_Driver/Inc/stm32g4xx_ll_exti.h ****   *         @arg @ref LL_EXTI_LINE_1
1273:Drivers/STM32G4xx_HAL_Driver/Inc/stm32g4xx_ll_exti.h ****   *         @arg @ref LL_EXTI_LINE_2
1274:Drivers/STM32G4xx_HAL_Driver/Inc/stm32g4xx_ll_exti.h ****   *         @arg @ref LL_EXTI_LINE_3
1275:Drivers/STM32G4xx_HAL_Driver/Inc/stm32g4xx_ll_exti.h ****   *         @arg @ref LL_EXTI_LINE_4
1276:Drivers/STM32G4xx_HAL_Driver/Inc/stm32g4xx_ll_exti.h ****   *         @arg @ref LL_EXTI_LINE_5
1277:Drivers/STM32G4xx_HAL_Driver/Inc/stm32g4xx_ll_exti.h ****   *         @arg @ref LL_EXTI_LINE_6
1278:Drivers/STM32G4xx_HAL_Driver/Inc/stm32g4xx_ll_exti.h ****   *         @arg @ref LL_EXTI_LINE_7
1279:Drivers/STM32G4xx_HAL_Driver/Inc/stm32g4xx_ll_exti.h ****   *         @arg @ref LL_EXTI_LINE_8
1280:Drivers/STM32G4xx_HAL_Driver/Inc/stm32g4xx_ll_exti.h ****   *         @arg @ref LL_EXTI_LINE_9
1281:Drivers/STM32G4xx_HAL_Driver/Inc/stm32g4xx_ll_exti.h ****   *         @arg @ref LL_EXTI_LINE_10
1282:Drivers/STM32G4xx_HAL_Driver/Inc/stm32g4xx_ll_exti.h ****   *         @arg @ref LL_EXTI_LINE_11
1283:Drivers/STM32G4xx_HAL_Driver/Inc/stm32g4xx_ll_exti.h ****   *         @arg @ref LL_EXTI_LINE_12
1284:Drivers/STM32G4xx_HAL_Driver/Inc/stm32g4xx_ll_exti.h ****   *         @arg @ref LL_EXTI_LINE_13
1285:Drivers/STM32G4xx_HAL_Driver/Inc/stm32g4xx_ll_exti.h ****   *         @arg @ref LL_EXTI_LINE_14
1286:Drivers/STM32G4xx_HAL_Driver/Inc/stm32g4xx_ll_exti.h ****   *         @arg @ref LL_EXTI_LINE_15
1287:Drivers/STM32G4xx_HAL_Driver/Inc/stm32g4xx_ll_exti.h ****   *         @arg @ref LL_EXTI_LINE_16
1288:Drivers/STM32G4xx_HAL_Driver/Inc/stm32g4xx_ll_exti.h ****   *         @arg @ref LL_EXTI_LINE_18
1289:Drivers/STM32G4xx_HAL_Driver/Inc/stm32g4xx_ll_exti.h ****   *         @arg @ref LL_EXTI_LINE_19
1290:Drivers/STM32G4xx_HAL_Driver/Inc/stm32g4xx_ll_exti.h ****   *         @arg @ref LL_EXTI_LINE_20
1291:Drivers/STM32G4xx_HAL_Driver/Inc/stm32g4xx_ll_exti.h ****   *         @arg @ref LL_EXTI_LINE_21
1292:Drivers/STM32G4xx_HAL_Driver/Inc/stm32g4xx_ll_exti.h ****   *         @arg @ref LL_EXTI_LINE_22
1293:Drivers/STM32G4xx_HAL_Driver/Inc/stm32g4xx_ll_exti.h ****   *         @arg @ref LL_EXTI_LINE_29
1294:Drivers/STM32G4xx_HAL_Driver/Inc/stm32g4xx_ll_exti.h ****   *         @arg @ref LL_EXTI_LINE_30
1295:Drivers/STM32G4xx_HAL_Driver/Inc/stm32g4xx_ll_exti.h ****   *         @arg @ref LL_EXTI_LINE_31 (*)
1296:Drivers/STM32G4xx_HAL_Driver/Inc/stm32g4xx_ll_exti.h ****   * @note   (*): Available in some devices
1297:Drivers/STM32G4xx_HAL_Driver/Inc/stm32g4xx_ll_exti.h ****   * @note   Please check each device line mapping for EXTI Line availability
1298:Drivers/STM32G4xx_HAL_Driver/Inc/stm32g4xx_ll_exti.h ****   * @retval @note This bit is set when the selected edge event arrives on the interrupt
1299:Drivers/STM32G4xx_HAL_Driver/Inc/stm32g4xx_ll_exti.h ****   */
1300:Drivers/STM32G4xx_HAL_Driver/Inc/stm32g4xx_ll_exti.h **** __STATIC_INLINE uint32_t LL_EXTI_ReadFlag_0_31(uint32_t ExtiLine)
1301:Drivers/STM32G4xx_HAL_Driver/Inc/stm32g4xx_ll_exti.h **** {
1302:Drivers/STM32G4xx_HAL_Driver/Inc/stm32g4xx_ll_exti.h ****   return (uint32_t)(READ_BIT(EXTI->PR1, ExtiLine));
1303:Drivers/STM32G4xx_HAL_Driver/Inc/stm32g4xx_ll_exti.h **** }
1304:Drivers/STM32G4xx_HAL_Driver/Inc/stm32g4xx_ll_exti.h **** 
1305:Drivers/STM32G4xx_HAL_Driver/Inc/stm32g4xx_ll_exti.h **** /**
1306:Drivers/STM32G4xx_HAL_Driver/Inc/stm32g4xx_ll_exti.h ****   * @brief  Read ExtLine Combination Flag for  Lines in range 32 to 63
1307:Drivers/STM32G4xx_HAL_Driver/Inc/stm32g4xx_ll_exti.h ****   * @note This bit is set when the selected edge event arrives on the interrupt
1308:Drivers/STM32G4xx_HAL_Driver/Inc/stm32g4xx_ll_exti.h ****   *       line. This bit is cleared by writing a 1 to the bit.
1309:Drivers/STM32G4xx_HAL_Driver/Inc/stm32g4xx_ll_exti.h ****   * @rmtoll PR2          PIFx           LL_EXTI_ReadFlag_32_63
1310:Drivers/STM32G4xx_HAL_Driver/Inc/stm32g4xx_ll_exti.h ****   * @param  ExtiLine This parameter can be a combination of the following values:
1311:Drivers/STM32G4xx_HAL_Driver/Inc/stm32g4xx_ll_exti.h ****   *         @arg @ref LL_EXTI_LINE_32 (*)
1312:Drivers/STM32G4xx_HAL_Driver/Inc/stm32g4xx_ll_exti.h ****   *         @arg @ref LL_EXTI_LINE_33 (*)
1313:Drivers/STM32G4xx_HAL_Driver/Inc/stm32g4xx_ll_exti.h ****   *         @arg @ref LL_EXTI_LINE_38
1314:Drivers/STM32G4xx_HAL_Driver/Inc/stm32g4xx_ll_exti.h ****   *         @arg @ref LL_EXTI_LINE_39
1315:Drivers/STM32G4xx_HAL_Driver/Inc/stm32g4xx_ll_exti.h ****   *         @arg @ref LL_EXTI_LINE_40
1316:Drivers/STM32G4xx_HAL_Driver/Inc/stm32g4xx_ll_exti.h ****   *         @arg @ref LL_EXTI_LINE_41
1317:Drivers/STM32G4xx_HAL_Driver/Inc/stm32g4xx_ll_exti.h ****   * @note   (*): Available in some devices
1318:Drivers/STM32G4xx_HAL_Driver/Inc/stm32g4xx_ll_exti.h ****   * @retval @note This bit is set when the selected edge event arrives on the interrupt
1319:Drivers/STM32G4xx_HAL_Driver/Inc/stm32g4xx_ll_exti.h ****   */
ARM GAS  /tmp/ccGmUGHU.s 			page 43


1320:Drivers/STM32G4xx_HAL_Driver/Inc/stm32g4xx_ll_exti.h **** __STATIC_INLINE uint32_t LL_EXTI_ReadFlag_32_63(uint32_t ExtiLine)
1321:Drivers/STM32G4xx_HAL_Driver/Inc/stm32g4xx_ll_exti.h **** {
1322:Drivers/STM32G4xx_HAL_Driver/Inc/stm32g4xx_ll_exti.h ****   return (uint32_t)(READ_BIT(EXTI->PR2, ExtiLine));
1323:Drivers/STM32G4xx_HAL_Driver/Inc/stm32g4xx_ll_exti.h **** }
1324:Drivers/STM32G4xx_HAL_Driver/Inc/stm32g4xx_ll_exti.h **** 
1325:Drivers/STM32G4xx_HAL_Driver/Inc/stm32g4xx_ll_exti.h **** /**
1326:Drivers/STM32G4xx_HAL_Driver/Inc/stm32g4xx_ll_exti.h ****   * @brief  Clear ExtLine Flags  for Lines in range 0 to 31
1327:Drivers/STM32G4xx_HAL_Driver/Inc/stm32g4xx_ll_exti.h ****   * @note This bit is set when the selected edge event arrives on the interrupt
1328:Drivers/STM32G4xx_HAL_Driver/Inc/stm32g4xx_ll_exti.h ****   *       line. This bit is cleared by writing a 1 to the bit.
1329:Drivers/STM32G4xx_HAL_Driver/Inc/stm32g4xx_ll_exti.h ****   * @rmtoll PR1          PIFx           LL_EXTI_ClearFlag_0_31
1330:Drivers/STM32G4xx_HAL_Driver/Inc/stm32g4xx_ll_exti.h ****   * @param  ExtiLine This parameter can be a combination of the following values:
1331:Drivers/STM32G4xx_HAL_Driver/Inc/stm32g4xx_ll_exti.h ****   *         @arg @ref LL_EXTI_LINE_0
1332:Drivers/STM32G4xx_HAL_Driver/Inc/stm32g4xx_ll_exti.h ****   *         @arg @ref LL_EXTI_LINE_1
1333:Drivers/STM32G4xx_HAL_Driver/Inc/stm32g4xx_ll_exti.h ****   *         @arg @ref LL_EXTI_LINE_2
1334:Drivers/STM32G4xx_HAL_Driver/Inc/stm32g4xx_ll_exti.h ****   *         @arg @ref LL_EXTI_LINE_3
1335:Drivers/STM32G4xx_HAL_Driver/Inc/stm32g4xx_ll_exti.h ****   *         @arg @ref LL_EXTI_LINE_4
1336:Drivers/STM32G4xx_HAL_Driver/Inc/stm32g4xx_ll_exti.h ****   *         @arg @ref LL_EXTI_LINE_5
1337:Drivers/STM32G4xx_HAL_Driver/Inc/stm32g4xx_ll_exti.h ****   *         @arg @ref LL_EXTI_LINE_6
1338:Drivers/STM32G4xx_HAL_Driver/Inc/stm32g4xx_ll_exti.h ****   *         @arg @ref LL_EXTI_LINE_7
1339:Drivers/STM32G4xx_HAL_Driver/Inc/stm32g4xx_ll_exti.h ****   *         @arg @ref LL_EXTI_LINE_8
1340:Drivers/STM32G4xx_HAL_Driver/Inc/stm32g4xx_ll_exti.h ****   *         @arg @ref LL_EXTI_LINE_9
1341:Drivers/STM32G4xx_HAL_Driver/Inc/stm32g4xx_ll_exti.h ****   *         @arg @ref LL_EXTI_LINE_10
1342:Drivers/STM32G4xx_HAL_Driver/Inc/stm32g4xx_ll_exti.h ****   *         @arg @ref LL_EXTI_LINE_11
1343:Drivers/STM32G4xx_HAL_Driver/Inc/stm32g4xx_ll_exti.h ****   *         @arg @ref LL_EXTI_LINE_12
1344:Drivers/STM32G4xx_HAL_Driver/Inc/stm32g4xx_ll_exti.h ****   *         @arg @ref LL_EXTI_LINE_13
1345:Drivers/STM32G4xx_HAL_Driver/Inc/stm32g4xx_ll_exti.h ****   *         @arg @ref LL_EXTI_LINE_14
1346:Drivers/STM32G4xx_HAL_Driver/Inc/stm32g4xx_ll_exti.h ****   *         @arg @ref LL_EXTI_LINE_15
1347:Drivers/STM32G4xx_HAL_Driver/Inc/stm32g4xx_ll_exti.h ****   *         @arg @ref LL_EXTI_LINE_16
1348:Drivers/STM32G4xx_HAL_Driver/Inc/stm32g4xx_ll_exti.h ****   *         @arg @ref LL_EXTI_LINE_18
1349:Drivers/STM32G4xx_HAL_Driver/Inc/stm32g4xx_ll_exti.h ****   *         @arg @ref LL_EXTI_LINE_19
1350:Drivers/STM32G4xx_HAL_Driver/Inc/stm32g4xx_ll_exti.h ****   *         @arg @ref LL_EXTI_LINE_20
1351:Drivers/STM32G4xx_HAL_Driver/Inc/stm32g4xx_ll_exti.h ****   *         @arg @ref LL_EXTI_LINE_21
1352:Drivers/STM32G4xx_HAL_Driver/Inc/stm32g4xx_ll_exti.h ****   *         @arg @ref LL_EXTI_LINE_22
1353:Drivers/STM32G4xx_HAL_Driver/Inc/stm32g4xx_ll_exti.h ****   *         @arg @ref LL_EXTI_LINE_29
1354:Drivers/STM32G4xx_HAL_Driver/Inc/stm32g4xx_ll_exti.h ****   *         @arg @ref LL_EXTI_LINE_30
1355:Drivers/STM32G4xx_HAL_Driver/Inc/stm32g4xx_ll_exti.h ****   *         @arg @ref LL_EXTI_LINE_31 (*)
1356:Drivers/STM32G4xx_HAL_Driver/Inc/stm32g4xx_ll_exti.h ****   * @note   (*): Available in some devices
1357:Drivers/STM32G4xx_HAL_Driver/Inc/stm32g4xx_ll_exti.h ****   * @note   Please check each device line mapping for EXTI Line availability
1358:Drivers/STM32G4xx_HAL_Driver/Inc/stm32g4xx_ll_exti.h ****   * @retval None
1359:Drivers/STM32G4xx_HAL_Driver/Inc/stm32g4xx_ll_exti.h ****   */
1360:Drivers/STM32G4xx_HAL_Driver/Inc/stm32g4xx_ll_exti.h **** __STATIC_INLINE void LL_EXTI_ClearFlag_0_31(uint32_t ExtiLine)
 397              		.loc 2 1360 22 view .LVU120
 398              	.LBB67:
1361:Drivers/STM32G4xx_HAL_Driver/Inc/stm32g4xx_ll_exti.h **** {
1362:Drivers/STM32G4xx_HAL_Driver/Inc/stm32g4xx_ll_exti.h ****   WRITE_REG(EXTI->PR1, ExtiLine);
 399              		.loc 2 1362 3 view .LVU121
 400 014a 514A     		ldr	r2, .L54+20
 401 014c 5361     		str	r3, [r2, #20]
1363:Drivers/STM32G4xx_HAL_Driver/Inc/stm32g4xx_ll_exti.h **** }
 402              		.loc 2 1363 1 is_stmt 0 view .LVU122
 403 014e 14E0     		b	.L24
 404              	.LVL23:
 405              	.L16:
 406              		.loc 2 1363 1 view .LVU123
 407              	.LBE67:
 408              	.LBE66:
 381:Drivers/STM32G4xx_HAL_Driver/Src/stm32g4xx_hal_comp.c ****         {
ARM GAS  /tmp/ccGmUGHU.s 			page 44


 409              		.loc 1 381 9 is_stmt 1 view .LVU124
 381:Drivers/STM32G4xx_HAL_Driver/Src/stm32g4xx_hal_comp.c ****         {
 410              		.loc 1 381 18 is_stmt 0 view .LVU125
 411 0150 2268     		ldr	r2, [r4]
 381:Drivers/STM32G4xx_HAL_Driver/Src/stm32g4xx_hal_comp.c ****         {
 412              		.loc 1 381 11 view .LVU126
 413 0152 4E49     		ldr	r1, .L54+16
 414 0154 8A42     		cmp	r2, r1
 415 0156 08D0     		beq	.L20
 381:Drivers/STM32G4xx_HAL_Driver/Src/stm32g4xx_hal_comp.c ****         {
 416              		.loc 1 381 39 discriminator 1 view .LVU127
 417 0158 0431     		adds	r1, r1, #4
 418 015a 8A42     		cmp	r2, r1
 419 015c 05D0     		beq	.L20
 387:Drivers/STM32G4xx_HAL_Driver/Src/stm32g4xx_hal_comp.c ****         }
 420              		.loc 1 387 11 is_stmt 1 view .LVU128
 421              	.LVL24:
 422              	.LBB68:
 423              	.LBI68:
1038:Drivers/STM32G4xx_HAL_Driver/Inc/stm32g4xx_ll_exti.h **** {
 424              		.loc 2 1038 22 view .LVU129
 425              	.LBB69:
1040:Drivers/STM32G4xx_HAL_Driver/Inc/stm32g4xx_ll_exti.h **** }
 426              		.loc 2 1040 3 view .LVU130
 427 015e 4C49     		ldr	r1, .L54+20
 428 0160 CA68     		ldr	r2, [r1, #12]
 429 0162 22EA0302 		bic	r2, r2, r3
 430 0166 CA60     		str	r2, [r1, #12]
1041:Drivers/STM32G4xx_HAL_Driver/Inc/stm32g4xx_ll_exti.h **** 
 431              		.loc 2 1041 1 is_stmt 0 view .LVU131
 432 0168 E8E7     		b	.L19
 433              	.LVL25:
 434              	.L20:
1041:Drivers/STM32G4xx_HAL_Driver/Inc/stm32g4xx_ll_exti.h **** 
 435              		.loc 2 1041 1 view .LVU132
 436              	.LBE69:
 437              	.LBE68:
 383:Drivers/STM32G4xx_HAL_Driver/Src/stm32g4xx_hal_comp.c ****         }
 438              		.loc 1 383 11 is_stmt 1 view .LVU133
 439              	.LBB70:
 440              	.LBI70:
1062:Drivers/STM32G4xx_HAL_Driver/Inc/stm32g4xx_ll_exti.h **** {
 441              		.loc 2 1062 22 view .LVU134
 442              	.LBB71:
1064:Drivers/STM32G4xx_HAL_Driver/Inc/stm32g4xx_ll_exti.h **** }
 443              		.loc 2 1064 3 view .LVU135
 444 016a 4949     		ldr	r1, .L54+20
 445 016c CA6A     		ldr	r2, [r1, #44]
 446 016e 22EA0302 		bic	r2, r2, r3
 447 0172 CA62     		str	r2, [r1, #44]
1065:Drivers/STM32G4xx_HAL_Driver/Inc/stm32g4xx_ll_exti.h **** 
 448              		.loc 2 1065 1 is_stmt 0 view .LVU136
 449 0174 E2E7     		b	.L19
 450              	.LVL26:
 451              	.L22:
1065:Drivers/STM32G4xx_HAL_Driver/Inc/stm32g4xx_ll_exti.h **** 
 452              		.loc 2 1065 1 view .LVU137
ARM GAS  /tmp/ccGmUGHU.s 			page 45


 453              	.LBE71:
 454              	.LBE70:
 398:Drivers/STM32G4xx_HAL_Driver/Src/stm32g4xx_hal_comp.c ****       }
 455              		.loc 1 398 9 is_stmt 1 view .LVU138
 456              	.LBB72:
 457              	.LBI72:
1364:Drivers/STM32G4xx_HAL_Driver/Inc/stm32g4xx_ll_exti.h **** 
1365:Drivers/STM32G4xx_HAL_Driver/Inc/stm32g4xx_ll_exti.h **** /**
1366:Drivers/STM32G4xx_HAL_Driver/Inc/stm32g4xx_ll_exti.h ****   * @brief  Clear ExtLine Flags for  Lines in range 32 to 63
1367:Drivers/STM32G4xx_HAL_Driver/Inc/stm32g4xx_ll_exti.h ****   * @note This bit is set when the selected edge event arrives on the interrupt
1368:Drivers/STM32G4xx_HAL_Driver/Inc/stm32g4xx_ll_exti.h ****   *       line. This bit is cleared by writing a 1 to the bit.
1369:Drivers/STM32G4xx_HAL_Driver/Inc/stm32g4xx_ll_exti.h ****   * @rmtoll PR2          PIFx           LL_EXTI_ClearFlag_32_63
1370:Drivers/STM32G4xx_HAL_Driver/Inc/stm32g4xx_ll_exti.h ****   * @param  ExtiLine This parameter can be a combination of the following values:
1371:Drivers/STM32G4xx_HAL_Driver/Inc/stm32g4xx_ll_exti.h ****   *         @arg @ref LL_EXTI_LINE_32 (*)
1372:Drivers/STM32G4xx_HAL_Driver/Inc/stm32g4xx_ll_exti.h ****   *         @arg @ref LL_EXTI_LINE_33 (*)
1373:Drivers/STM32G4xx_HAL_Driver/Inc/stm32g4xx_ll_exti.h ****   *         @arg @ref LL_EXTI_LINE_38
1374:Drivers/STM32G4xx_HAL_Driver/Inc/stm32g4xx_ll_exti.h ****   *         @arg @ref LL_EXTI_LINE_39
1375:Drivers/STM32G4xx_HAL_Driver/Inc/stm32g4xx_ll_exti.h ****   *         @arg @ref LL_EXTI_LINE_40
1376:Drivers/STM32G4xx_HAL_Driver/Inc/stm32g4xx_ll_exti.h ****   *         @arg @ref LL_EXTI_LINE_41
1377:Drivers/STM32G4xx_HAL_Driver/Inc/stm32g4xx_ll_exti.h ****   * @note   (*): Available in some devices
1378:Drivers/STM32G4xx_HAL_Driver/Inc/stm32g4xx_ll_exti.h ****   * @retval None
1379:Drivers/STM32G4xx_HAL_Driver/Inc/stm32g4xx_ll_exti.h ****   */
1380:Drivers/STM32G4xx_HAL_Driver/Inc/stm32g4xx_ll_exti.h **** __STATIC_INLINE void LL_EXTI_ClearFlag_32_63(uint32_t ExtiLine)
 458              		.loc 2 1380 22 view .LVU139
 459              	.LBB73:
1381:Drivers/STM32G4xx_HAL_Driver/Inc/stm32g4xx_ll_exti.h **** {
1382:Drivers/STM32G4xx_HAL_Driver/Inc/stm32g4xx_ll_exti.h ****   WRITE_REG(EXTI->PR2, ExtiLine);
 460              		.loc 2 1382 3 view .LVU140
 461 0176 464A     		ldr	r2, .L54+20
 462 0178 5363     		str	r3, [r2, #52]
 463              	.LVL27:
 464              	.L24:
 465              		.loc 2 1382 3 is_stmt 0 view .LVU141
 466              	.LBE73:
 467              	.LBE72:
 409:Drivers/STM32G4xx_HAL_Driver/Src/stm32g4xx_hal_comp.c ****       {
 468              		.loc 1 409 7 is_stmt 1 view .LVU142
 409:Drivers/STM32G4xx_HAL_Driver/Src/stm32g4xx_hal_comp.c ****       {
 469              		.loc 1 409 22 is_stmt 0 view .LVU143
 470 017a A269     		ldr	r2, [r4, #24]
 409:Drivers/STM32G4xx_HAL_Driver/Src/stm32g4xx_hal_comp.c ****       {
 471              		.loc 1 409 9 view .LVU144
 472 017c 12F0020F 		tst	r2, #2
 473 0180 1FD0     		beq	.L25
 412:Drivers/STM32G4xx_HAL_Driver/Src/stm32g4xx_hal_comp.c ****         {
 474              		.loc 1 412 9 is_stmt 1 view .LVU145
 412:Drivers/STM32G4xx_HAL_Driver/Src/stm32g4xx_hal_comp.c ****         {
 475              		.loc 1 412 18 is_stmt 0 view .LVU146
 476 0182 2268     		ldr	r2, [r4]
 412:Drivers/STM32G4xx_HAL_Driver/Src/stm32g4xx_hal_comp.c ****         {
 477              		.loc 1 412 11 view .LVU147
 478 0184 4149     		ldr	r1, .L54+16
 479 0186 8A42     		cmp	r2, r1
 480 0188 07D0     		beq	.L26
 412:Drivers/STM32G4xx_HAL_Driver/Src/stm32g4xx_hal_comp.c ****         {
 481              		.loc 1 412 39 discriminator 1 view .LVU148
 482 018a 0431     		adds	r1, r1, #4
ARM GAS  /tmp/ccGmUGHU.s 			page 46


 483 018c 8A42     		cmp	r2, r1
 484 018e 04D0     		beq	.L26
 418:Drivers/STM32G4xx_HAL_Driver/Src/stm32g4xx_hal_comp.c ****         }
 485              		.loc 1 418 11 is_stmt 1 view .LVU149
 486              	.LVL28:
 487              	.LBB74:
 488              	.LBI74:
 545:Drivers/STM32G4xx_HAL_Driver/Inc/stm32g4xx_ll_exti.h **** {
 489              		.loc 2 545 22 view .LVU150
 490              	.LBB75:
 547:Drivers/STM32G4xx_HAL_Driver/Inc/stm32g4xx_ll_exti.h **** 
 491              		.loc 2 547 3 view .LVU151
 492 0190 3F49     		ldr	r1, .L54+20
 493 0192 4A68     		ldr	r2, [r1, #4]
 494 0194 1A43     		orrs	r2, r2, r3
 495 0196 4A60     		str	r2, [r1, #4]
 549:Drivers/STM32G4xx_HAL_Driver/Inc/stm32g4xx_ll_exti.h **** 
 496              		.loc 2 549 1 is_stmt 0 view .LVU152
 497 0198 03E0     		b	.L28
 498              	.LVL29:
 499              	.L26:
 549:Drivers/STM32G4xx_HAL_Driver/Inc/stm32g4xx_ll_exti.h **** 
 500              		.loc 2 549 1 view .LVU153
 501              	.LBE75:
 502              	.LBE74:
 414:Drivers/STM32G4xx_HAL_Driver/Src/stm32g4xx_hal_comp.c ****         }
 503              		.loc 1 414 11 is_stmt 1 view .LVU154
 504              	.LBB76:
 505              	.LBI76:
 570:Drivers/STM32G4xx_HAL_Driver/Inc/stm32g4xx_ll_exti.h **** {
 506              		.loc 2 570 22 view .LVU155
 507              	.LBB77:
 572:Drivers/STM32G4xx_HAL_Driver/Inc/stm32g4xx_ll_exti.h **** }
 508              		.loc 2 572 3 view .LVU156
 509 019a 3D49     		ldr	r1, .L54+20
 510 019c 4A6A     		ldr	r2, [r1, #36]
 511 019e 1A43     		orrs	r2, r2, r3
 512 01a0 4A62     		str	r2, [r1, #36]
 513              	.LVL30:
 514              	.L28:
 572:Drivers/STM32G4xx_HAL_Driver/Inc/stm32g4xx_ll_exti.h **** }
 515              		.loc 2 572 3 is_stmt 0 view .LVU157
 516              	.LBE77:
 517              	.LBE76:
 441:Drivers/STM32G4xx_HAL_Driver/Src/stm32g4xx_hal_comp.c ****       {
 518              		.loc 1 441 7 is_stmt 1 view .LVU158
 441:Drivers/STM32G4xx_HAL_Driver/Src/stm32g4xx_hal_comp.c ****       {
 519              		.loc 1 441 22 is_stmt 0 view .LVU159
 520 01a2 A269     		ldr	r2, [r4, #24]
 441:Drivers/STM32G4xx_HAL_Driver/Src/stm32g4xx_hal_comp.c ****       {
 521              		.loc 1 441 9 view .LVU160
 522 01a4 12F0010F 		tst	r2, #1
 523 01a8 23D0     		beq	.L31
 444:Drivers/STM32G4xx_HAL_Driver/Src/stm32g4xx_hal_comp.c ****         {
 524              		.loc 1 444 9 is_stmt 1 view .LVU161
 444:Drivers/STM32G4xx_HAL_Driver/Src/stm32g4xx_hal_comp.c ****         {
 525              		.loc 1 444 18 is_stmt 0 view .LVU162
ARM GAS  /tmp/ccGmUGHU.s 			page 47


 526 01aa 2268     		ldr	r2, [r4]
 444:Drivers/STM32G4xx_HAL_Driver/Src/stm32g4xx_hal_comp.c ****         {
 527              		.loc 1 444 11 view .LVU163
 528 01ac 3749     		ldr	r1, .L54+16
 529 01ae 8A42     		cmp	r2, r1
 530 01b0 1AD0     		beq	.L32
 444:Drivers/STM32G4xx_HAL_Driver/Src/stm32g4xx_hal_comp.c ****         {
 531              		.loc 1 444 39 discriminator 1 view .LVU164
 532 01b2 0431     		adds	r1, r1, #4
 533 01b4 8A42     		cmp	r2, r1
 534 01b6 17D0     		beq	.L32
 450:Drivers/STM32G4xx_HAL_Driver/Src/stm32g4xx_hal_comp.c ****         }
 535              		.loc 1 450 11 is_stmt 1 view .LVU165
 536              	.LVL31:
 537              	.LBB78:
 538              	.LBI78:
 313:Drivers/STM32G4xx_HAL_Driver/Inc/stm32g4xx_ll_exti.h **** {
 539              		.loc 2 313 22 view .LVU166
 540              	.LBB79:
 315:Drivers/STM32G4xx_HAL_Driver/Inc/stm32g4xx_ll_exti.h **** }
 541              		.loc 2 315 3 view .LVU167
 542 01b8 3549     		ldr	r1, .L54+20
 543 01ba 0A68     		ldr	r2, [r1]
 544 01bc 1343     		orrs	r3, r3, r2
 545              	.LVL32:
 315:Drivers/STM32G4xx_HAL_Driver/Inc/stm32g4xx_ll_exti.h **** }
 546              		.loc 2 315 3 is_stmt 0 view .LVU168
 547 01be 0B60     		str	r3, [r1]
 316:Drivers/STM32G4xx_HAL_Driver/Inc/stm32g4xx_ll_exti.h **** /**
 548              		.loc 2 316 1 view .LVU169
 549 01c0 4DE0     		b	.L34
 550              	.LVL33:
 551              	.L25:
 316:Drivers/STM32G4xx_HAL_Driver/Inc/stm32g4xx_ll_exti.h **** /**
 552              		.loc 2 316 1 view .LVU170
 553              	.LBE79:
 554              	.LBE78:
 427:Drivers/STM32G4xx_HAL_Driver/Src/stm32g4xx_hal_comp.c ****         {
 555              		.loc 1 427 9 is_stmt 1 view .LVU171
 427:Drivers/STM32G4xx_HAL_Driver/Src/stm32g4xx_hal_comp.c ****         {
 556              		.loc 1 427 18 is_stmt 0 view .LVU172
 557 01c2 2268     		ldr	r2, [r4]
 427:Drivers/STM32G4xx_HAL_Driver/Src/stm32g4xx_hal_comp.c ****         {
 558              		.loc 1 427 11 view .LVU173
 559 01c4 3149     		ldr	r1, .L54+16
 560 01c6 8A42     		cmp	r2, r1
 561 01c8 08D0     		beq	.L29
 427:Drivers/STM32G4xx_HAL_Driver/Src/stm32g4xx_hal_comp.c ****         {
 562              		.loc 1 427 39 discriminator 1 view .LVU174
 563 01ca 0431     		adds	r1, r1, #4
 564 01cc 8A42     		cmp	r2, r1
 565 01ce 05D0     		beq	.L29
 433:Drivers/STM32G4xx_HAL_Driver/Src/stm32g4xx_hal_comp.c ****         }
 566              		.loc 1 433 11 is_stmt 1 view .LVU175
 567              	.LVL34:
 568              	.LBB80:
 569              	.LBI80:
ARM GAS  /tmp/ccGmUGHU.s 			page 48


 616:Drivers/STM32G4xx_HAL_Driver/Inc/stm32g4xx_ll_exti.h **** {
 570              		.loc 2 616 22 view .LVU176
 571              	.LBB81:
 618:Drivers/STM32G4xx_HAL_Driver/Inc/stm32g4xx_ll_exti.h **** }
 572              		.loc 2 618 3 view .LVU177
 573 01d0 2F49     		ldr	r1, .L54+20
 574 01d2 4A68     		ldr	r2, [r1, #4]
 575 01d4 22EA0302 		bic	r2, r2, r3
 576 01d8 4A60     		str	r2, [r1, #4]
 619:Drivers/STM32G4xx_HAL_Driver/Inc/stm32g4xx_ll_exti.h **** 
 577              		.loc 2 619 1 is_stmt 0 view .LVU178
 578 01da E2E7     		b	.L28
 579              	.LVL35:
 580              	.L29:
 619:Drivers/STM32G4xx_HAL_Driver/Inc/stm32g4xx_ll_exti.h **** 
 581              		.loc 2 619 1 view .LVU179
 582              	.LBE81:
 583              	.LBE80:
 429:Drivers/STM32G4xx_HAL_Driver/Src/stm32g4xx_hal_comp.c ****         }
 584              		.loc 1 429 11 is_stmt 1 view .LVU180
 585              	.LBB82:
 586              	.LBI82:
 640:Drivers/STM32G4xx_HAL_Driver/Inc/stm32g4xx_ll_exti.h **** {
 587              		.loc 2 640 22 view .LVU181
 588              	.LBB83:
 642:Drivers/STM32G4xx_HAL_Driver/Inc/stm32g4xx_ll_exti.h **** }
 589              		.loc 2 642 3 view .LVU182
 590 01dc 2C49     		ldr	r1, .L54+20
 591 01de 4A6A     		ldr	r2, [r1, #36]
 592 01e0 22EA0302 		bic	r2, r2, r3
 593 01e4 4A62     		str	r2, [r1, #36]
 643:Drivers/STM32G4xx_HAL_Driver/Inc/stm32g4xx_ll_exti.h **** 
 594              		.loc 2 643 1 is_stmt 0 view .LVU183
 595 01e6 DCE7     		b	.L28
 596              	.LVL36:
 597              	.L32:
 643:Drivers/STM32G4xx_HAL_Driver/Inc/stm32g4xx_ll_exti.h **** 
 598              		.loc 2 643 1 view .LVU184
 599              	.LBE83:
 600              	.LBE82:
 446:Drivers/STM32G4xx_HAL_Driver/Src/stm32g4xx_hal_comp.c ****         }
 601              		.loc 1 446 11 is_stmt 1 view .LVU185
 602              	.LBB84:
 603              	.LBI84:
 339:Drivers/STM32G4xx_HAL_Driver/Inc/stm32g4xx_ll_exti.h **** {
 604              		.loc 2 339 22 view .LVU186
 605              	.LBB85:
 341:Drivers/STM32G4xx_HAL_Driver/Inc/stm32g4xx_ll_exti.h **** }
 606              		.loc 2 341 3 view .LVU187
 607 01e8 2949     		ldr	r1, .L54+20
 608 01ea 0A6A     		ldr	r2, [r1, #32]
 609 01ec 1343     		orrs	r3, r3, r2
 610              	.LVL37:
 341:Drivers/STM32G4xx_HAL_Driver/Inc/stm32g4xx_ll_exti.h **** }
 611              		.loc 2 341 3 is_stmt 0 view .LVU188
 612 01ee 0B62     		str	r3, [r1, #32]
 342:Drivers/STM32G4xx_HAL_Driver/Inc/stm32g4xx_ll_exti.h **** 
ARM GAS  /tmp/ccGmUGHU.s 			page 49


 613              		.loc 2 342 1 view .LVU189
 614 01f0 35E0     		b	.L34
 615              	.LVL38:
 616              	.L31:
 342:Drivers/STM32G4xx_HAL_Driver/Inc/stm32g4xx_ll_exti.h **** 
 617              		.loc 2 342 1 view .LVU190
 618              	.LBE85:
 619              	.LBE84:
 459:Drivers/STM32G4xx_HAL_Driver/Src/stm32g4xx_hal_comp.c ****         {
 620              		.loc 1 459 9 is_stmt 1 view .LVU191
 459:Drivers/STM32G4xx_HAL_Driver/Src/stm32g4xx_hal_comp.c ****         {
 621              		.loc 1 459 18 is_stmt 0 view .LVU192
 622 01f2 2268     		ldr	r2, [r4]
 459:Drivers/STM32G4xx_HAL_Driver/Src/stm32g4xx_hal_comp.c ****         {
 623              		.loc 1 459 11 view .LVU193
 624 01f4 2549     		ldr	r1, .L54+16
 625 01f6 8A42     		cmp	r2, r1
 626 01f8 08D0     		beq	.L35
 459:Drivers/STM32G4xx_HAL_Driver/Src/stm32g4xx_hal_comp.c ****         {
 627              		.loc 1 459 39 discriminator 1 view .LVU194
 628 01fa 0431     		adds	r1, r1, #4
 629 01fc 8A42     		cmp	r2, r1
 630 01fe 05D0     		beq	.L35
 465:Drivers/STM32G4xx_HAL_Driver/Src/stm32g4xx_hal_comp.c ****         }
 631              		.loc 1 465 11 is_stmt 1 view .LVU195
 632              	.LVL39:
 633              	.LBB86:
 634              	.LBI86:
 388:Drivers/STM32G4xx_HAL_Driver/Inc/stm32g4xx_ll_exti.h **** {
 635              		.loc 2 388 22 view .LVU196
 636              	.LBB87:
 390:Drivers/STM32G4xx_HAL_Driver/Inc/stm32g4xx_ll_exti.h **** }
 637              		.loc 2 390 3 view .LVU197
 638 0200 2349     		ldr	r1, .L54+20
 639 0202 0A68     		ldr	r2, [r1]
 640 0204 22EA0303 		bic	r3, r2, r3
 641              	.LVL40:
 390:Drivers/STM32G4xx_HAL_Driver/Inc/stm32g4xx_ll_exti.h **** }
 642              		.loc 2 390 3 is_stmt 0 view .LVU198
 643 0208 0B60     		str	r3, [r1]
 391:Drivers/STM32G4xx_HAL_Driver/Inc/stm32g4xx_ll_exti.h **** 
 644              		.loc 2 391 1 view .LVU199
 645 020a 28E0     		b	.L34
 646              	.LVL41:
 647              	.L35:
 391:Drivers/STM32G4xx_HAL_Driver/Inc/stm32g4xx_ll_exti.h **** 
 648              		.loc 2 391 1 view .LVU200
 649              	.LBE87:
 650              	.LBE86:
 461:Drivers/STM32G4xx_HAL_Driver/Src/stm32g4xx_hal_comp.c ****         }
 651              		.loc 1 461 11 is_stmt 1 view .LVU201
 652              	.LBB88:
 653              	.LBI88:
 415:Drivers/STM32G4xx_HAL_Driver/Inc/stm32g4xx_ll_exti.h **** {
 654              		.loc 2 415 22 view .LVU202
 655              	.LBB89:
 417:Drivers/STM32G4xx_HAL_Driver/Inc/stm32g4xx_ll_exti.h **** }
ARM GAS  /tmp/ccGmUGHU.s 			page 50


 656              		.loc 2 417 3 view .LVU203
 657 020c 2049     		ldr	r1, .L54+20
 658 020e 0A6A     		ldr	r2, [r1, #32]
 659 0210 22EA0303 		bic	r3, r2, r3
 660              	.LVL42:
 417:Drivers/STM32G4xx_HAL_Driver/Inc/stm32g4xx_ll_exti.h **** }
 661              		.loc 2 417 3 is_stmt 0 view .LVU204
 662 0214 0B62     		str	r3, [r1, #32]
 418:Drivers/STM32G4xx_HAL_Driver/Inc/stm32g4xx_ll_exti.h **** 
 663              		.loc 2 418 1 view .LVU205
 664 0216 22E0     		b	.L34
 665              	.LVL43:
 666              	.L9:
 418:Drivers/STM32G4xx_HAL_Driver/Inc/stm32g4xx_ll_exti.h **** 
 667              		.loc 2 418 1 view .LVU206
 668              	.LBE89:
 669              	.LBE88:
 476:Drivers/STM32G4xx_HAL_Driver/Src/stm32g4xx_hal_comp.c ****       {
 670              		.loc 1 476 7 is_stmt 1 view .LVU207
 476:Drivers/STM32G4xx_HAL_Driver/Src/stm32g4xx_hal_comp.c ****       {
 671              		.loc 1 476 9 is_stmt 0 view .LVU208
 672 0218 1C49     		ldr	r1, .L54+16
 673 021a 8A42     		cmp	r2, r1
 674 021c 08D0     		beq	.L37
 476:Drivers/STM32G4xx_HAL_Driver/Src/stm32g4xx_hal_comp.c ****       {
 675              		.loc 1 476 37 discriminator 1 view .LVU209
 676 021e 0431     		adds	r1, r1, #4
 677 0220 8A42     		cmp	r2, r1
 678 0222 05D0     		beq	.L37
 482:Drivers/STM32G4xx_HAL_Driver/Src/stm32g4xx_hal_comp.c ****       }
 679              		.loc 1 482 9 is_stmt 1 view .LVU210
 680              	.LVL44:
 681              	.LBB90:
 682              	.LBI90:
 616:Drivers/STM32G4xx_HAL_Driver/Inc/stm32g4xx_ll_exti.h **** {
 683              		.loc 2 616 22 view .LVU211
 684              	.LBB91:
 618:Drivers/STM32G4xx_HAL_Driver/Inc/stm32g4xx_ll_exti.h **** }
 685              		.loc 2 618 3 view .LVU212
 686 0224 1A49     		ldr	r1, .L54+20
 687 0226 4A68     		ldr	r2, [r1, #4]
 688 0228 22EA0302 		bic	r2, r2, r3
 689 022c 4A60     		str	r2, [r1, #4]
 619:Drivers/STM32G4xx_HAL_Driver/Inc/stm32g4xx_ll_exti.h **** 
 690              		.loc 2 619 1 is_stmt 0 view .LVU213
 691 022e 04E0     		b	.L39
 692              	.LVL45:
 693              	.L37:
 619:Drivers/STM32G4xx_HAL_Driver/Inc/stm32g4xx_ll_exti.h **** 
 694              		.loc 2 619 1 view .LVU214
 695              	.LBE91:
 696              	.LBE90:
 478:Drivers/STM32G4xx_HAL_Driver/Src/stm32g4xx_hal_comp.c ****       }
 697              		.loc 1 478 9 is_stmt 1 view .LVU215
 698              	.LBB92:
 699              	.LBI92:
 640:Drivers/STM32G4xx_HAL_Driver/Inc/stm32g4xx_ll_exti.h **** {
ARM GAS  /tmp/ccGmUGHU.s 			page 51


 700              		.loc 2 640 22 view .LVU216
 701              	.LBB93:
 642:Drivers/STM32G4xx_HAL_Driver/Inc/stm32g4xx_ll_exti.h **** }
 702              		.loc 2 642 3 view .LVU217
 703 0230 1749     		ldr	r1, .L54+20
 704 0232 4A6A     		ldr	r2, [r1, #36]
 705 0234 22EA0302 		bic	r2, r2, r3
 706 0238 4A62     		str	r2, [r1, #36]
 707              	.LVL46:
 708              	.L39:
 642:Drivers/STM32G4xx_HAL_Driver/Inc/stm32g4xx_ll_exti.h **** }
 709              		.loc 2 642 3 is_stmt 0 view .LVU218
 710              	.LBE93:
 711              	.LBE92:
 490:Drivers/STM32G4xx_HAL_Driver/Src/stm32g4xx_hal_comp.c ****       {
 712              		.loc 1 490 7 is_stmt 1 view .LVU219
 490:Drivers/STM32G4xx_HAL_Driver/Src/stm32g4xx_hal_comp.c ****       {
 713              		.loc 1 490 16 is_stmt 0 view .LVU220
 714 023a 2268     		ldr	r2, [r4]
 490:Drivers/STM32G4xx_HAL_Driver/Src/stm32g4xx_hal_comp.c ****       {
 715              		.loc 1 490 9 view .LVU221
 716 023c 1349     		ldr	r1, .L54+16
 717 023e 8A42     		cmp	r2, r1
 718 0240 08D0     		beq	.L40
 490:Drivers/STM32G4xx_HAL_Driver/Src/stm32g4xx_hal_comp.c ****       {
 719              		.loc 1 490 37 discriminator 1 view .LVU222
 720 0242 0431     		adds	r1, r1, #4
 721 0244 8A42     		cmp	r2, r1
 722 0246 05D0     		beq	.L40
 496:Drivers/STM32G4xx_HAL_Driver/Src/stm32g4xx_hal_comp.c ****       }
 723              		.loc 1 496 9 is_stmt 1 view .LVU223
 724              	.LVL47:
 725              	.LBB94:
 726              	.LBI94:
 388:Drivers/STM32G4xx_HAL_Driver/Inc/stm32g4xx_ll_exti.h **** {
 727              		.loc 2 388 22 view .LVU224
 728              	.LBB95:
 390:Drivers/STM32G4xx_HAL_Driver/Inc/stm32g4xx_ll_exti.h **** }
 729              		.loc 2 390 3 view .LVU225
 730 0248 1149     		ldr	r1, .L54+20
 731 024a 0A68     		ldr	r2, [r1]
 732 024c 22EA0303 		bic	r3, r2, r3
 733              	.LVL48:
 390:Drivers/STM32G4xx_HAL_Driver/Inc/stm32g4xx_ll_exti.h **** }
 734              		.loc 2 390 3 is_stmt 0 view .LVU226
 735 0250 0B60     		str	r3, [r1]
 391:Drivers/STM32G4xx_HAL_Driver/Inc/stm32g4xx_ll_exti.h **** 
 736              		.loc 2 391 1 view .LVU227
 737 0252 04E0     		b	.L34
 738              	.LVL49:
 739              	.L40:
 391:Drivers/STM32G4xx_HAL_Driver/Inc/stm32g4xx_ll_exti.h **** 
 740              		.loc 2 391 1 view .LVU228
 741              	.LBE95:
 742              	.LBE94:
 492:Drivers/STM32G4xx_HAL_Driver/Src/stm32g4xx_hal_comp.c ****       }
 743              		.loc 1 492 9 is_stmt 1 view .LVU229
ARM GAS  /tmp/ccGmUGHU.s 			page 52


 744              	.LBB96:
 745              	.LBI96:
 415:Drivers/STM32G4xx_HAL_Driver/Inc/stm32g4xx_ll_exti.h **** {
 746              		.loc 2 415 22 view .LVU230
 747              	.LBB97:
 417:Drivers/STM32G4xx_HAL_Driver/Inc/stm32g4xx_ll_exti.h **** }
 748              		.loc 2 417 3 view .LVU231
 749 0254 0E49     		ldr	r1, .L54+20
 750 0256 0A6A     		ldr	r2, [r1, #32]
 751 0258 22EA0303 		bic	r3, r2, r3
 752              	.LVL50:
 417:Drivers/STM32G4xx_HAL_Driver/Inc/stm32g4xx_ll_exti.h **** }
 753              		.loc 2 417 3 is_stmt 0 view .LVU232
 754 025c 0B62     		str	r3, [r1, #32]
 755              	.L34:
 417:Drivers/STM32G4xx_HAL_Driver/Inc/stm32g4xx_ll_exti.h **** }
 756              		.loc 2 417 3 view .LVU233
 757              	.LBE97:
 758              	.LBE96:
 506:Drivers/STM32G4xx_HAL_Driver/Src/stm32g4xx_hal_comp.c ****     {
 759              		.loc 1 506 5 is_stmt 1 view .LVU234
 506:Drivers/STM32G4xx_HAL_Driver/Src/stm32g4xx_hal_comp.c ****     {
 760              		.loc 1 506 14 is_stmt 0 view .LVU235
 761 025e 637F     		ldrb	r3, [r4, #29]	@ zero_extendqisi2
 506:Drivers/STM32G4xx_HAL_Driver/Src/stm32g4xx_hal_comp.c ****     {
 762              		.loc 1 506 8 view .LVU236
 763 0260 03F0FF00 		and	r0, r3, #255
 764              	.LVL51:
 506:Drivers/STM32G4xx_HAL_Driver/Src/stm32g4xx_hal_comp.c ****     {
 765              		.loc 1 506 8 view .LVU237
 766 0264 3BB9     		cbnz	r3, .L50
 508:Drivers/STM32G4xx_HAL_Driver/Src/stm32g4xx_hal_comp.c ****     }
 767              		.loc 1 508 7 is_stmt 1 view .LVU238
 508:Drivers/STM32G4xx_HAL_Driver/Src/stm32g4xx_hal_comp.c ****     }
 768              		.loc 1 508 20 is_stmt 0 view .LVU239
 769 0266 0123     		movs	r3, #1
 770 0268 6377     		strb	r3, [r4, #29]
 771 026a 00E0     		b	.L3
 772              	.LVL52:
 773              	.L42:
 239:Drivers/STM32G4xx_HAL_Driver/Src/stm32g4xx_hal_comp.c ****   }
 774              		.loc 1 239 12 view .LVU240
 775 026c 0120     		movs	r0, #1
 776              	.LVL53:
 777              	.L3:
 512:Drivers/STM32G4xx_HAL_Driver/Src/stm32g4xx_hal_comp.c **** }
 778              		.loc 1 512 3 is_stmt 1 view .LVU241
 513:Drivers/STM32G4xx_HAL_Driver/Src/stm32g4xx_hal_comp.c **** 
 779              		.loc 1 513 1 is_stmt 0 view .LVU242
 780 026e 03B0     		add	sp, sp, #12
 781              	.LCFI2:
 782              		.cfi_remember_state
 783              		.cfi_def_cfa_offset 12
 784              		@ sp needed
 785 0270 30BD     		pop	{r4, r5, pc}
 786              	.LVL54:
 787              	.L43:
ARM GAS  /tmp/ccGmUGHU.s 			page 53


 788              	.LCFI3:
 789              		.cfi_restore_state
 243:Drivers/STM32G4xx_HAL_Driver/Src/stm32g4xx_hal_comp.c ****   }
 790              		.loc 1 243 12 view .LVU243
 791 0272 0120     		movs	r0, #1
 792              	.LVL55:
 243:Drivers/STM32G4xx_HAL_Driver/Src/stm32g4xx_hal_comp.c ****   }
 793              		.loc 1 243 12 view .LVU244
 794 0274 FBE7     		b	.L3
 795              	.L50:
 234:Drivers/STM32G4xx_HAL_Driver/Src/stm32g4xx_hal_comp.c **** 
 796              		.loc 1 234 21 view .LVU245
 797 0276 0020     		movs	r0, #0
 798 0278 F9E7     		b	.L3
 799              	.L55:
 800 027a 00BF     		.align	2
 801              	.L54:
 802 027c 0F7E00FF 		.word	-16744945
 803 0280 00000000 		.word	SystemCoreClock
 804 0284 632D3E05 		.word	87960931
 805 0288 00020140 		.word	1073807872
 806 028c 14020140 		.word	1073807892
 807 0290 00040140 		.word	1073808384
 808              		.cfi_endproc
 809              	.LFE162:
 811              		.section	.text.HAL_COMP_MspDeInit,"ax",%progbits
 812              		.align	1
 813              		.weak	HAL_COMP_MspDeInit
 814              		.syntax unified
 815              		.thumb
 816              		.thumb_func
 817              		.fpu fpv4-sp-d16
 819              	HAL_COMP_MspDeInit:
 820              	.LVL56:
 821              	.LFB165:
 580:Drivers/STM32G4xx_HAL_Driver/Src/stm32g4xx_hal_comp.c **** 
 581:Drivers/STM32G4xx_HAL_Driver/Src/stm32g4xx_hal_comp.c **** /**
 582:Drivers/STM32G4xx_HAL_Driver/Src/stm32g4xx_hal_comp.c ****   * @brief  DeInitialize the COMP MSP.
 583:Drivers/STM32G4xx_HAL_Driver/Src/stm32g4xx_hal_comp.c ****   * @param  hcomp  COMP handle
 584:Drivers/STM32G4xx_HAL_Driver/Src/stm32g4xx_hal_comp.c ****   * @retval None
 585:Drivers/STM32G4xx_HAL_Driver/Src/stm32g4xx_hal_comp.c ****   */
 586:Drivers/STM32G4xx_HAL_Driver/Src/stm32g4xx_hal_comp.c **** __weak void HAL_COMP_MspDeInit(COMP_HandleTypeDef *hcomp)
 587:Drivers/STM32G4xx_HAL_Driver/Src/stm32g4xx_hal_comp.c **** {
 822              		.loc 1 587 1 is_stmt 1 view -0
 823              		.cfi_startproc
 824              		@ args = 0, pretend = 0, frame = 0
 825              		@ frame_needed = 0, uses_anonymous_args = 0
 826              		@ link register save eliminated.
