ARM GAS  /tmp/ccOygTIW.s 			page 1


   1              		.cpu cortex-m4
   2              		.eabi_attribute 27, 1
   3              		.eabi_attribute 28, 1
   4              		.eabi_attribute 20, 1
   5              		.eabi_attribute 21, 1
   6              		.eabi_attribute 23, 3
   7              		.eabi_attribute 24, 1
   8              		.eabi_attribute 25, 1
   9              		.eabi_attribute 26, 1
  10              		.eabi_attribute 30, 1
  11              		.eabi_attribute 34, 1
  12              		.eabi_attribute 18, 4
  13              		.file	"stm32g4xx_hal_pwr.c"
  14              		.text
  15              	.Ltext0:
  16              		.cfi_sections	.debug_frame
  17              		.section	.text.HAL_PWR_DeInit,"ax",%progbits
  18              		.align	1
  19              		.global	HAL_PWR_DeInit
  20              		.arch armv7e-m
  21              		.syntax unified
  22              		.thumb
  23              		.thumb_func
  24              		.fpu fpv4-sp-d16
  26              	HAL_PWR_DeInit:
  27              	.LFB162:
  28              		.file 1 "Drivers/STM32G4xx_HAL_Driver/Src/stm32g4xx_hal_pwr.c"
   1:Drivers/STM32G4xx_HAL_Driver/Src/stm32g4xx_hal_pwr.c **** /**
   2:Drivers/STM32G4xx_HAL_Driver/Src/stm32g4xx_hal_pwr.c ****   ******************************************************************************
   3:Drivers/STM32G4xx_HAL_Driver/Src/stm32g4xx_hal_pwr.c ****   * @file    stm32g4xx_hal_pwr.c
   4:Drivers/STM32G4xx_HAL_Driver/Src/stm32g4xx_hal_pwr.c ****   * @author  MCD Application Team
   5:Drivers/STM32G4xx_HAL_Driver/Src/stm32g4xx_hal_pwr.c ****   * @brief   PWR HAL module driver.
   6:Drivers/STM32G4xx_HAL_Driver/Src/stm32g4xx_hal_pwr.c ****   *          This file provides firmware functions to manage the following
   7:Drivers/STM32G4xx_HAL_Driver/Src/stm32g4xx_hal_pwr.c ****   *          functionalities of the Power Controller (PWR) peripheral:
   8:Drivers/STM32G4xx_HAL_Driver/Src/stm32g4xx_hal_pwr.c ****   *           + Initialization/de-initialization functions
   9:Drivers/STM32G4xx_HAL_Driver/Src/stm32g4xx_hal_pwr.c ****   *           + Peripheral Control functions
  10:Drivers/STM32G4xx_HAL_Driver/Src/stm32g4xx_hal_pwr.c ****   *
  11:Drivers/STM32G4xx_HAL_Driver/Src/stm32g4xx_hal_pwr.c ****   ******************************************************************************
  12:Drivers/STM32G4xx_HAL_Driver/Src/stm32g4xx_hal_pwr.c ****   * @attention
  13:Drivers/STM32G4xx_HAL_Driver/Src/stm32g4xx_hal_pwr.c ****   *
  14:Drivers/STM32G4xx_HAL_Driver/Src/stm32g4xx_hal_pwr.c ****   * <h2><center>&copy; Copyright (c) 2019 STMicroelectronics.
  15:Drivers/STM32G4xx_HAL_Driver/Src/stm32g4xx_hal_pwr.c ****   * All rights reserved.</center></h2>
  16:Drivers/STM32G4xx_HAL_Driver/Src/stm32g4xx_hal_pwr.c ****   *
  17:Drivers/STM32G4xx_HAL_Driver/Src/stm32g4xx_hal_pwr.c ****   * This software component is licensed by ST under BSD 3-Clause license,
  18:Drivers/STM32G4xx_HAL_Driver/Src/stm32g4xx_hal_pwr.c ****   * the "License"; You may not use this file except in compliance with the
  19:Drivers/STM32G4xx_HAL_Driver/Src/stm32g4xx_hal_pwr.c ****   * License. You may obtain a copy of the License at:
  20:Drivers/STM32G4xx_HAL_Driver/Src/stm32g4xx_hal_pwr.c ****   *                        opensource.org/licenses/BSD-3-Clause
  21:Drivers/STM32G4xx_HAL_Driver/Src/stm32g4xx_hal_pwr.c ****   *
  22:Drivers/STM32G4xx_HAL_Driver/Src/stm32g4xx_hal_pwr.c ****   ******************************************************************************
  23:Drivers/STM32G4xx_HAL_Driver/Src/stm32g4xx_hal_pwr.c ****   */
  24:Drivers/STM32G4xx_HAL_Driver/Src/stm32g4xx_hal_pwr.c **** 
  25:Drivers/STM32G4xx_HAL_Driver/Src/stm32g4xx_hal_pwr.c **** /* Includes ------------------------------------------------------------------*/
  26:Drivers/STM32G4xx_HAL_Driver/Src/stm32g4xx_hal_pwr.c **** #include "stm32g4xx_hal.h"
  27:Drivers/STM32G4xx_HAL_Driver/Src/stm32g4xx_hal_pwr.c **** 
  28:Drivers/STM32G4xx_HAL_Driver/Src/stm32g4xx_hal_pwr.c **** /** @addtogroup STM32G4xx_HAL_Driver
  29:Drivers/STM32G4xx_HAL_Driver/Src/stm32g4xx_hal_pwr.c ****   * @{
  30:Drivers/STM32G4xx_HAL_Driver/Src/stm32g4xx_hal_pwr.c ****   */
ARM GAS  /tmp/ccOygTIW.s 			page 2


  31:Drivers/STM32G4xx_HAL_Driver/Src/stm32g4xx_hal_pwr.c **** 
  32:Drivers/STM32G4xx_HAL_Driver/Src/stm32g4xx_hal_pwr.c **** /** @defgroup PWR PWR
  33:Drivers/STM32G4xx_HAL_Driver/Src/stm32g4xx_hal_pwr.c ****   * @brief PWR HAL module driver
  34:Drivers/STM32G4xx_HAL_Driver/Src/stm32g4xx_hal_pwr.c ****   * @{
  35:Drivers/STM32G4xx_HAL_Driver/Src/stm32g4xx_hal_pwr.c ****   */
  36:Drivers/STM32G4xx_HAL_Driver/Src/stm32g4xx_hal_pwr.c **** 
  37:Drivers/STM32G4xx_HAL_Driver/Src/stm32g4xx_hal_pwr.c **** #ifdef HAL_PWR_MODULE_ENABLED
  38:Drivers/STM32G4xx_HAL_Driver/Src/stm32g4xx_hal_pwr.c **** 
  39:Drivers/STM32G4xx_HAL_Driver/Src/stm32g4xx_hal_pwr.c **** /* Private typedef -----------------------------------------------------------*/
  40:Drivers/STM32G4xx_HAL_Driver/Src/stm32g4xx_hal_pwr.c **** /* Private define ------------------------------------------------------------*/
  41:Drivers/STM32G4xx_HAL_Driver/Src/stm32g4xx_hal_pwr.c **** 
  42:Drivers/STM32G4xx_HAL_Driver/Src/stm32g4xx_hal_pwr.c **** /** @defgroup PWR_Private_Defines PWR Private Defines
  43:Drivers/STM32G4xx_HAL_Driver/Src/stm32g4xx_hal_pwr.c ****   * @{
  44:Drivers/STM32G4xx_HAL_Driver/Src/stm32g4xx_hal_pwr.c ****   */
  45:Drivers/STM32G4xx_HAL_Driver/Src/stm32g4xx_hal_pwr.c **** 
  46:Drivers/STM32G4xx_HAL_Driver/Src/stm32g4xx_hal_pwr.c **** /** @defgroup PWR_PVD_Mode_Mask PWR PVD Mode Mask
  47:Drivers/STM32G4xx_HAL_Driver/Src/stm32g4xx_hal_pwr.c ****   * @{
  48:Drivers/STM32G4xx_HAL_Driver/Src/stm32g4xx_hal_pwr.c ****   */
  49:Drivers/STM32G4xx_HAL_Driver/Src/stm32g4xx_hal_pwr.c **** #define PVD_MODE_IT               ((uint32_t)0x00010000)  /*!< Mask for interruption yielded by PVD
  50:Drivers/STM32G4xx_HAL_Driver/Src/stm32g4xx_hal_pwr.c **** #define PVD_MODE_EVT              ((uint32_t)0x00020000)  /*!< Mask for event yielded by PVD thresh
  51:Drivers/STM32G4xx_HAL_Driver/Src/stm32g4xx_hal_pwr.c **** #define PVD_RISING_EDGE           ((uint32_t)0x00000001)  /*!< Mask for rising edge set as PVD trig
  52:Drivers/STM32G4xx_HAL_Driver/Src/stm32g4xx_hal_pwr.c **** #define PVD_FALLING_EDGE          ((uint32_t)0x00000002)  /*!< Mask for falling edge set as PVD tri
  53:Drivers/STM32G4xx_HAL_Driver/Src/stm32g4xx_hal_pwr.c **** /**
  54:Drivers/STM32G4xx_HAL_Driver/Src/stm32g4xx_hal_pwr.c ****   * @}
  55:Drivers/STM32G4xx_HAL_Driver/Src/stm32g4xx_hal_pwr.c ****   */
  56:Drivers/STM32G4xx_HAL_Driver/Src/stm32g4xx_hal_pwr.c **** 
  57:Drivers/STM32G4xx_HAL_Driver/Src/stm32g4xx_hal_pwr.c **** /**
  58:Drivers/STM32G4xx_HAL_Driver/Src/stm32g4xx_hal_pwr.c ****   * @}
  59:Drivers/STM32G4xx_HAL_Driver/Src/stm32g4xx_hal_pwr.c ****   */
  60:Drivers/STM32G4xx_HAL_Driver/Src/stm32g4xx_hal_pwr.c **** 
  61:Drivers/STM32G4xx_HAL_Driver/Src/stm32g4xx_hal_pwr.c **** /* Private macro -------------------------------------------------------------*/
  62:Drivers/STM32G4xx_HAL_Driver/Src/stm32g4xx_hal_pwr.c **** /* Private variables ---------------------------------------------------------*/
  63:Drivers/STM32G4xx_HAL_Driver/Src/stm32g4xx_hal_pwr.c **** /* Private function prototypes -----------------------------------------------*/
  64:Drivers/STM32G4xx_HAL_Driver/Src/stm32g4xx_hal_pwr.c **** /* Exported functions --------------------------------------------------------*/
  65:Drivers/STM32G4xx_HAL_Driver/Src/stm32g4xx_hal_pwr.c **** 
  66:Drivers/STM32G4xx_HAL_Driver/Src/stm32g4xx_hal_pwr.c **** /** @defgroup PWR_Exported_Functions PWR Exported Functions
  67:Drivers/STM32G4xx_HAL_Driver/Src/stm32g4xx_hal_pwr.c ****   * @{
  68:Drivers/STM32G4xx_HAL_Driver/Src/stm32g4xx_hal_pwr.c ****   */
  69:Drivers/STM32G4xx_HAL_Driver/Src/stm32g4xx_hal_pwr.c **** 
  70:Drivers/STM32G4xx_HAL_Driver/Src/stm32g4xx_hal_pwr.c **** /** @defgroup PWR_Exported_Functions_Group1 Initialization and de-initialization functions
  71:Drivers/STM32G4xx_HAL_Driver/Src/stm32g4xx_hal_pwr.c ****   *  @brief    Initialization and de-initialization functions
  72:Drivers/STM32G4xx_HAL_Driver/Src/stm32g4xx_hal_pwr.c ****   *
  73:Drivers/STM32G4xx_HAL_Driver/Src/stm32g4xx_hal_pwr.c **** @verbatim
  74:Drivers/STM32G4xx_HAL_Driver/Src/stm32g4xx_hal_pwr.c ****  ===============================================================================
  75:Drivers/STM32G4xx_HAL_Driver/Src/stm32g4xx_hal_pwr.c ****               ##### Initialization and de-initialization functions #####
  76:Drivers/STM32G4xx_HAL_Driver/Src/stm32g4xx_hal_pwr.c ****  ===============================================================================
  77:Drivers/STM32G4xx_HAL_Driver/Src/stm32g4xx_hal_pwr.c ****     [..]
  78:Drivers/STM32G4xx_HAL_Driver/Src/stm32g4xx_hal_pwr.c **** 
  79:Drivers/STM32G4xx_HAL_Driver/Src/stm32g4xx_hal_pwr.c **** @endverbatim
  80:Drivers/STM32G4xx_HAL_Driver/Src/stm32g4xx_hal_pwr.c ****   * @{
  81:Drivers/STM32G4xx_HAL_Driver/Src/stm32g4xx_hal_pwr.c ****   */
  82:Drivers/STM32G4xx_HAL_Driver/Src/stm32g4xx_hal_pwr.c **** 
  83:Drivers/STM32G4xx_HAL_Driver/Src/stm32g4xx_hal_pwr.c **** /**
  84:Drivers/STM32G4xx_HAL_Driver/Src/stm32g4xx_hal_pwr.c ****   * @brief Deinitialize the HAL PWR peripheral registers to their default reset values.
  85:Drivers/STM32G4xx_HAL_Driver/Src/stm32g4xx_hal_pwr.c ****   * @retval None
  86:Drivers/STM32G4xx_HAL_Driver/Src/stm32g4xx_hal_pwr.c ****   */
  87:Drivers/STM32G4xx_HAL_Driver/Src/stm32g4xx_hal_pwr.c **** void HAL_PWR_DeInit(void)
ARM GAS  /tmp/ccOygTIW.s 			page 3


  88:Drivers/STM32G4xx_HAL_Driver/Src/stm32g4xx_hal_pwr.c **** {
  29              		.loc 1 88 1 view -0
  30              		.cfi_startproc
  31              		@ args = 0, pretend = 0, frame = 0
  32              		@ frame_needed = 0, uses_anonymous_args = 0
  33              		@ link register save eliminated.
  89:Drivers/STM32G4xx_HAL_Driver/Src/stm32g4xx_hal_pwr.c ****   __HAL_RCC_PWR_FORCE_RESET();
  34              		.loc 1 89 3 view .LVU1
  35 0000 044B     		ldr	r3, .L2
  36 0002 9A6B     		ldr	r2, [r3, #56]
  37 0004 42F08052 		orr	r2, r2, #268435456
  38 0008 9A63     		str	r2, [r3, #56]
  90:Drivers/STM32G4xx_HAL_Driver/Src/stm32g4xx_hal_pwr.c ****   __HAL_RCC_PWR_RELEASE_RESET();
  39              		.loc 1 90 3 view .LVU2
  40 000a 9A6B     		ldr	r2, [r3, #56]
  41 000c 22F08052 		bic	r2, r2, #268435456
  42 0010 9A63     		str	r2, [r3, #56]
  91:Drivers/STM32G4xx_HAL_Driver/Src/stm32g4xx_hal_pwr.c **** }
  43              		.loc 1 91 1 is_stmt 0 view .LVU3
  44 0012 7047     		bx	lr
  45              	.L3:
  46              		.align	2
  47              	.L2:
  48 0014 00100240 		.word	1073876992
  49              		.cfi_endproc
  50              	.LFE162:
  52              		.section	.text.HAL_PWR_EnableBkUpAccess,"ax",%progbits
  53              		.align	1
  54              		.global	HAL_PWR_EnableBkUpAccess
  55              		.syntax unified
  56              		.thumb
  57              		.thumb_func
  58              		.fpu fpv4-sp-d16
  60              	HAL_PWR_EnableBkUpAccess:
  61              	.LFB163:
  92:Drivers/STM32G4xx_HAL_Driver/Src/stm32g4xx_hal_pwr.c **** 
  93:Drivers/STM32G4xx_HAL_Driver/Src/stm32g4xx_hal_pwr.c **** /**
  94:Drivers/STM32G4xx_HAL_Driver/Src/stm32g4xx_hal_pwr.c ****   * @brief Enable access to the backup domain
  95:Drivers/STM32G4xx_HAL_Driver/Src/stm32g4xx_hal_pwr.c ****   *        (RTC registers, RTC backup data registers).
  96:Drivers/STM32G4xx_HAL_Driver/Src/stm32g4xx_hal_pwr.c ****   * @note  After reset, the backup domain is protected against
  97:Drivers/STM32G4xx_HAL_Driver/Src/stm32g4xx_hal_pwr.c ****   *        possible unwanted write accesses.
  98:Drivers/STM32G4xx_HAL_Driver/Src/stm32g4xx_hal_pwr.c ****   * @note  RTCSEL that sets the RTC clock source selection is in the RTC back-up domain.
  99:Drivers/STM32G4xx_HAL_Driver/Src/stm32g4xx_hal_pwr.c ****   *        In order to set or modify the RTC clock, the backup domain access must be
 100:Drivers/STM32G4xx_HAL_Driver/Src/stm32g4xx_hal_pwr.c ****   *        disabled.
 101:Drivers/STM32G4xx_HAL_Driver/Src/stm32g4xx_hal_pwr.c ****   * @note  LSEON bit that switches on and off the LSE crystal belongs as well to the
 102:Drivers/STM32G4xx_HAL_Driver/Src/stm32g4xx_hal_pwr.c ****   *        back-up domain.
 103:Drivers/STM32G4xx_HAL_Driver/Src/stm32g4xx_hal_pwr.c ****   * @retval None
 104:Drivers/STM32G4xx_HAL_Driver/Src/stm32g4xx_hal_pwr.c ****   */
 105:Drivers/STM32G4xx_HAL_Driver/Src/stm32g4xx_hal_pwr.c **** void HAL_PWR_EnableBkUpAccess(void)
 106:Drivers/STM32G4xx_HAL_Driver/Src/stm32g4xx_hal_pwr.c **** {
  62              		.loc 1 106 1 is_stmt 1 view -0
  63              		.cfi_startproc
  64              		@ args = 0, pretend = 0, frame = 0
  65              		@ frame_needed = 0, uses_anonymous_args = 0
  66              		@ link register save eliminated.
 107:Drivers/STM32G4xx_HAL_Driver/Src/stm32g4xx_hal_pwr.c ****   SET_BIT(PWR->CR1, PWR_CR1_DBP);
  67              		.loc 1 107 3 view .LVU5
ARM GAS  /tmp/ccOygTIW.s 			page 4


  68 0000 024A     		ldr	r2, .L5
  69 0002 1368     		ldr	r3, [r2]
  70 0004 43F48073 		orr	r3, r3, #256
  71 0008 1360     		str	r3, [r2]
 108:Drivers/STM32G4xx_HAL_Driver/Src/stm32g4xx_hal_pwr.c **** }
  72              		.loc 1 108 1 is_stmt 0 view .LVU6
  73 000a 7047     		bx	lr
  74              	.L6:
  75              		.align	2
  76              	.L5:
  77 000c 00700040 		.word	1073770496
  78              		.cfi_endproc
  79              	.LFE163:
  81              		.section	.text.HAL_PWR_DisableBkUpAccess,"ax",%progbits
  82              		.align	1
  83              		.global	HAL_PWR_DisableBkUpAccess
  84              		.syntax unified
  85              		.thumb
  86              		.thumb_func
  87              		.fpu fpv4-sp-d16
  89              	HAL_PWR_DisableBkUpAccess:
  90              	.LFB164:
 109:Drivers/STM32G4xx_HAL_Driver/Src/stm32g4xx_hal_pwr.c **** 
 110:Drivers/STM32G4xx_HAL_Driver/Src/stm32g4xx_hal_pwr.c **** /**
 111:Drivers/STM32G4xx_HAL_Driver/Src/stm32g4xx_hal_pwr.c ****   * @brief Disable access to the backup domain
 112:Drivers/STM32G4xx_HAL_Driver/Src/stm32g4xx_hal_pwr.c ****   *        (RTC registers, RTC backup data registers).
 113:Drivers/STM32G4xx_HAL_Driver/Src/stm32g4xx_hal_pwr.c ****   * @retval None
 114:Drivers/STM32G4xx_HAL_Driver/Src/stm32g4xx_hal_pwr.c ****   */
 115:Drivers/STM32G4xx_HAL_Driver/Src/stm32g4xx_hal_pwr.c **** void HAL_PWR_DisableBkUpAccess(void)
 116:Drivers/STM32G4xx_HAL_Driver/Src/stm32g4xx_hal_pwr.c **** {
  91              		.loc 1 116 1 is_stmt 1 view -0
  92              		.cfi_startproc
  93              		@ args = 0, pretend = 0, frame = 0
  94              		@ frame_needed = 0, uses_anonymous_args = 0
  95              		@ link register save eliminated.
 117:Drivers/STM32G4xx_HAL_Driver/Src/stm32g4xx_hal_pwr.c ****   CLEAR_BIT(PWR->CR1, PWR_CR1_DBP);
  96              		.loc 1 117 3 view .LVU8
  97 0000 024A     		ldr	r2, .L8
  98 0002 1368     		ldr	r3, [r2]
  99 0004 23F48073 		bic	r3, r3, #256
 100 0008 1360     		str	r3, [r2]
 118:Drivers/STM32G4xx_HAL_Driver/Src/stm32g4xx_hal_pwr.c **** }
 101              		.loc 1 118 1 is_stmt 0 view .LVU9
 102 000a 7047     		bx	lr
 103              	.L9:
 104              		.align	2
 105              	.L8:
 106 000c 00700040 		.word	1073770496
 107              		.cfi_endproc
 108              	.LFE164:
 110              		.section	.text.HAL_PWR_ConfigPVD,"ax",%progbits
 111              		.align	1
 112              		.global	HAL_PWR_ConfigPVD
 113              		.syntax unified
 114              		.thumb
 115              		.thumb_func
 116              		.fpu fpv4-sp-d16
ARM GAS  /tmp/ccOygTIW.s 			page 5


 118              	HAL_PWR_ConfigPVD:
 119              	.LVL0:
 120              	.LFB165:
 119:Drivers/STM32G4xx_HAL_Driver/Src/stm32g4xx_hal_pwr.c **** 
 120:Drivers/STM32G4xx_HAL_Driver/Src/stm32g4xx_hal_pwr.c **** 
 121:Drivers/STM32G4xx_HAL_Driver/Src/stm32g4xx_hal_pwr.c **** 
 122:Drivers/STM32G4xx_HAL_Driver/Src/stm32g4xx_hal_pwr.c **** 
 123:Drivers/STM32G4xx_HAL_Driver/Src/stm32g4xx_hal_pwr.c **** /**
 124:Drivers/STM32G4xx_HAL_Driver/Src/stm32g4xx_hal_pwr.c ****   * @}
 125:Drivers/STM32G4xx_HAL_Driver/Src/stm32g4xx_hal_pwr.c ****   */
 126:Drivers/STM32G4xx_HAL_Driver/Src/stm32g4xx_hal_pwr.c **** 
 127:Drivers/STM32G4xx_HAL_Driver/Src/stm32g4xx_hal_pwr.c **** 
 128:Drivers/STM32G4xx_HAL_Driver/Src/stm32g4xx_hal_pwr.c **** 
 129:Drivers/STM32G4xx_HAL_Driver/Src/stm32g4xx_hal_pwr.c **** /** @defgroup PWR_Exported_Functions_Group2 Peripheral Control functions
 130:Drivers/STM32G4xx_HAL_Driver/Src/stm32g4xx_hal_pwr.c ****   *  @brief Low Power modes configuration functions
 131:Drivers/STM32G4xx_HAL_Driver/Src/stm32g4xx_hal_pwr.c ****   *
 132:Drivers/STM32G4xx_HAL_Driver/Src/stm32g4xx_hal_pwr.c **** @verbatim
 133:Drivers/STM32G4xx_HAL_Driver/Src/stm32g4xx_hal_pwr.c **** 
 134:Drivers/STM32G4xx_HAL_Driver/Src/stm32g4xx_hal_pwr.c ****  ===============================================================================
 135:Drivers/STM32G4xx_HAL_Driver/Src/stm32g4xx_hal_pwr.c ****                  ##### Peripheral Control functions #####
 136:Drivers/STM32G4xx_HAL_Driver/Src/stm32g4xx_hal_pwr.c ****  ===============================================================================
 137:Drivers/STM32G4xx_HAL_Driver/Src/stm32g4xx_hal_pwr.c **** 
 138:Drivers/STM32G4xx_HAL_Driver/Src/stm32g4xx_hal_pwr.c ****      [..]
 139:Drivers/STM32G4xx_HAL_Driver/Src/stm32g4xx_hal_pwr.c ****      *** PVD configuration ***
 140:Drivers/STM32G4xx_HAL_Driver/Src/stm32g4xx_hal_pwr.c ****     =========================
 141:Drivers/STM32G4xx_HAL_Driver/Src/stm32g4xx_hal_pwr.c ****     [..]
 142:Drivers/STM32G4xx_HAL_Driver/Src/stm32g4xx_hal_pwr.c ****       (+) The PVD is used to monitor the VDD power supply by comparing it to a
 143:Drivers/STM32G4xx_HAL_Driver/Src/stm32g4xx_hal_pwr.c ****           threshold selected by the PVD Level (PLS[2:0] bits in PWR_CR2 register).
 144:Drivers/STM32G4xx_HAL_Driver/Src/stm32g4xx_hal_pwr.c **** 
 145:Drivers/STM32G4xx_HAL_Driver/Src/stm32g4xx_hal_pwr.c ****       (+) PVDO flag is available to indicate if VDD/VDDA is higher or lower
 146:Drivers/STM32G4xx_HAL_Driver/Src/stm32g4xx_hal_pwr.c ****           than the PVD threshold. This event is internally connected to the EXTI
 147:Drivers/STM32G4xx_HAL_Driver/Src/stm32g4xx_hal_pwr.c ****           line16 and can generate an interrupt if enabled. This is done through
 148:Drivers/STM32G4xx_HAL_Driver/Src/stm32g4xx_hal_pwr.c ****           __HAL_PVD_EXTI_ENABLE_IT() macro.
 149:Drivers/STM32G4xx_HAL_Driver/Src/stm32g4xx_hal_pwr.c ****       (+) The PVD is stopped in Standby mode.
 150:Drivers/STM32G4xx_HAL_Driver/Src/stm32g4xx_hal_pwr.c **** 
 151:Drivers/STM32G4xx_HAL_Driver/Src/stm32g4xx_hal_pwr.c **** 
 152:Drivers/STM32G4xx_HAL_Driver/Src/stm32g4xx_hal_pwr.c ****     *** WakeUp pin configuration ***
 153:Drivers/STM32G4xx_HAL_Driver/Src/stm32g4xx_hal_pwr.c ****     ================================
 154:Drivers/STM32G4xx_HAL_Driver/Src/stm32g4xx_hal_pwr.c ****     [..]
 155:Drivers/STM32G4xx_HAL_Driver/Src/stm32g4xx_hal_pwr.c ****       (+) WakeUp pins are used to wakeup the system from Standby mode or Shutdown mode.
 156:Drivers/STM32G4xx_HAL_Driver/Src/stm32g4xx_hal_pwr.c ****           The polarity of these pins can be set to configure event detection on high
 157:Drivers/STM32G4xx_HAL_Driver/Src/stm32g4xx_hal_pwr.c ****           level (rising edge) or low level (falling edge).
 158:Drivers/STM32G4xx_HAL_Driver/Src/stm32g4xx_hal_pwr.c **** 
 159:Drivers/STM32G4xx_HAL_Driver/Src/stm32g4xx_hal_pwr.c **** 
 160:Drivers/STM32G4xx_HAL_Driver/Src/stm32g4xx_hal_pwr.c **** 
 161:Drivers/STM32G4xx_HAL_Driver/Src/stm32g4xx_hal_pwr.c ****     *** Low Power modes configuration ***
 162:Drivers/STM32G4xx_HAL_Driver/Src/stm32g4xx_hal_pwr.c ****     =====================================
 163:Drivers/STM32G4xx_HAL_Driver/Src/stm32g4xx_hal_pwr.c ****     [..]
 164:Drivers/STM32G4xx_HAL_Driver/Src/stm32g4xx_hal_pwr.c ****       The devices feature 8 low-power modes:
 165:Drivers/STM32G4xx_HAL_Driver/Src/stm32g4xx_hal_pwr.c ****       (+) Low-power Run mode: core and peripherals are running, main regulator off, low power regul
 166:Drivers/STM32G4xx_HAL_Driver/Src/stm32g4xx_hal_pwr.c ****       (+) Sleep mode: Cortex-M4 core stopped, peripherals kept running, main and low power regulato
 167:Drivers/STM32G4xx_HAL_Driver/Src/stm32g4xx_hal_pwr.c ****       (+) Low-power Sleep mode: Cortex-M4 core stopped, peripherals kept running, main regulator of
 168:Drivers/STM32G4xx_HAL_Driver/Src/stm32g4xx_hal_pwr.c ****       (+) Stop 0 mode: all clocks are stopped except LSI and LSE, main and low power regulators on.
 169:Drivers/STM32G4xx_HAL_Driver/Src/stm32g4xx_hal_pwr.c ****       (+) Stop 1 mode: all clocks are stopped except LSI and LSE, main regulator off, low power reg
 170:Drivers/STM32G4xx_HAL_Driver/Src/stm32g4xx_hal_pwr.c ****       (+) Standby mode with SRAM2: all clocks are stopped except LSI and LSE, SRAM2 content preserv
 171:Drivers/STM32G4xx_HAL_Driver/Src/stm32g4xx_hal_pwr.c ****       (+) Standby mode without SRAM2: all clocks are stopped except LSI and LSE, main and low power
 172:Drivers/STM32G4xx_HAL_Driver/Src/stm32g4xx_hal_pwr.c ****       (+) Shutdown mode: all clocks are stopped except LSE, main and low power regulators off.
ARM GAS  /tmp/ccOygTIW.s 			page 6


 173:Drivers/STM32G4xx_HAL_Driver/Src/stm32g4xx_hal_pwr.c **** 
 174:Drivers/STM32G4xx_HAL_Driver/Src/stm32g4xx_hal_pwr.c **** 
 175:Drivers/STM32G4xx_HAL_Driver/Src/stm32g4xx_hal_pwr.c ****    *** Low-power run mode ***
 176:Drivers/STM32G4xx_HAL_Driver/Src/stm32g4xx_hal_pwr.c ****    ==========================
 177:Drivers/STM32G4xx_HAL_Driver/Src/stm32g4xx_hal_pwr.c ****     [..]
 178:Drivers/STM32G4xx_HAL_Driver/Src/stm32g4xx_hal_pwr.c ****       (+) Entry: (from main run mode)
 179:Drivers/STM32G4xx_HAL_Driver/Src/stm32g4xx_hal_pwr.c ****         (++) set LPR bit with HAL_PWREx_EnableLowPowerRunMode() API after having decreased the syst
 180:Drivers/STM32G4xx_HAL_Driver/Src/stm32g4xx_hal_pwr.c **** 
 181:Drivers/STM32G4xx_HAL_Driver/Src/stm32g4xx_hal_pwr.c ****       (+) Exit:
 182:Drivers/STM32G4xx_HAL_Driver/Src/stm32g4xx_hal_pwr.c ****         (++) clear LPR bit then wait for REGLP bit to be reset with HAL_PWREx_DisableLowPowerRunMod
 183:Drivers/STM32G4xx_HAL_Driver/Src/stm32g4xx_hal_pwr.c ****              then can the system clock frequency be increased above 2 MHz.
 184:Drivers/STM32G4xx_HAL_Driver/Src/stm32g4xx_hal_pwr.c **** 
 185:Drivers/STM32G4xx_HAL_Driver/Src/stm32g4xx_hal_pwr.c **** 
 186:Drivers/STM32G4xx_HAL_Driver/Src/stm32g4xx_hal_pwr.c ****    *** Sleep mode / Low-power sleep mode ***
 187:Drivers/STM32G4xx_HAL_Driver/Src/stm32g4xx_hal_pwr.c ****    =========================================
 188:Drivers/STM32G4xx_HAL_Driver/Src/stm32g4xx_hal_pwr.c ****     [..]
 189:Drivers/STM32G4xx_HAL_Driver/Src/stm32g4xx_hal_pwr.c ****       (+) Entry:
 190:Drivers/STM32G4xx_HAL_Driver/Src/stm32g4xx_hal_pwr.c ****           The Sleep mode / Low-power Sleep mode is entered thru HAL_PWR_EnterSLEEPMode() API
 191:Drivers/STM32G4xx_HAL_Driver/Src/stm32g4xx_hal_pwr.c ****           in specifying whether or not the regulator is forced to low-power mode and if exit is int
 192:Drivers/STM32G4xx_HAL_Driver/Src/stm32g4xx_hal_pwr.c ****           (++) PWR_MAINREGULATOR_ON: Sleep mode (regulator in main mode).
 193:Drivers/STM32G4xx_HAL_Driver/Src/stm32g4xx_hal_pwr.c ****           (++) PWR_LOWPOWERREGULATOR_ON: Low-power sleep (regulator in low power mode).
 194:Drivers/STM32G4xx_HAL_Driver/Src/stm32g4xx_hal_pwr.c ****           In the latter case, the system clock frequency must have been decreased below 2 MHz befor
 195:Drivers/STM32G4xx_HAL_Driver/Src/stm32g4xx_hal_pwr.c ****           (++) PWR_SLEEPENTRY_WFI: enter SLEEP mode with WFI instruction
 196:Drivers/STM32G4xx_HAL_Driver/Src/stm32g4xx_hal_pwr.c ****           (++) PWR_SLEEPENTRY_WFE: enter SLEEP mode with WFE instruction
 197:Drivers/STM32G4xx_HAL_Driver/Src/stm32g4xx_hal_pwr.c **** 
 198:Drivers/STM32G4xx_HAL_Driver/Src/stm32g4xx_hal_pwr.c ****       (+) WFI Exit:
 199:Drivers/STM32G4xx_HAL_Driver/Src/stm32g4xx_hal_pwr.c ****         (++) Any peripheral interrupt acknowledged by the nested vectored interrupt
 200:Drivers/STM32G4xx_HAL_Driver/Src/stm32g4xx_hal_pwr.c ****              controller (NVIC) or any wake-up event.
 201:Drivers/STM32G4xx_HAL_Driver/Src/stm32g4xx_hal_pwr.c **** 
 202:Drivers/STM32G4xx_HAL_Driver/Src/stm32g4xx_hal_pwr.c ****       (+) WFE Exit:
 203:Drivers/STM32G4xx_HAL_Driver/Src/stm32g4xx_hal_pwr.c ****         (++) Any wake-up event such as an EXTI line configured in event mode.
 204:Drivers/STM32G4xx_HAL_Driver/Src/stm32g4xx_hal_pwr.c **** 
 205:Drivers/STM32G4xx_HAL_Driver/Src/stm32g4xx_hal_pwr.c ****          [..] When exiting the Low-power sleep mode by issuing an interrupt or a wakeup event,
 206:Drivers/STM32G4xx_HAL_Driver/Src/stm32g4xx_hal_pwr.c ****              the MCU is in Low-power Run mode.
 207:Drivers/STM32G4xx_HAL_Driver/Src/stm32g4xx_hal_pwr.c **** 
 208:Drivers/STM32G4xx_HAL_Driver/Src/stm32g4xx_hal_pwr.c ****    *** Stop 0, Stop 1 modes ***
 209:Drivers/STM32G4xx_HAL_Driver/Src/stm32g4xx_hal_pwr.c ****    ===============================
 210:Drivers/STM32G4xx_HAL_Driver/Src/stm32g4xx_hal_pwr.c ****     [..]
 211:Drivers/STM32G4xx_HAL_Driver/Src/stm32g4xx_hal_pwr.c ****       (+) Entry:
 212:Drivers/STM32G4xx_HAL_Driver/Src/stm32g4xx_hal_pwr.c ****           The Stop 0, Stop 1 modes are entered thru the following API's:
 213:Drivers/STM32G4xx_HAL_Driver/Src/stm32g4xx_hal_pwr.c ****           (++) HAL_PWREx_EnterSTOP0Mode() for mode 0 or HAL_PWREx_EnterSTOP1Mode() for mode 1 or fo
 214:Drivers/STM32G4xx_HAL_Driver/Src/stm32g4xx_hal_pwr.c ****       (+) Regulator setting (applicable to HAL_PWR_EnterSTOPMode() only):
 215:Drivers/STM32G4xx_HAL_Driver/Src/stm32g4xx_hal_pwr.c ****           (++) PWR_MAINREGULATOR_ON
 216:Drivers/STM32G4xx_HAL_Driver/Src/stm32g4xx_hal_pwr.c ****           (++) PWR_LOWPOWERREGULATOR_ON
 217:Drivers/STM32G4xx_HAL_Driver/Src/stm32g4xx_hal_pwr.c ****       (+) Exit (interrupt or event-triggered, specified when entering STOP mode):
 218:Drivers/STM32G4xx_HAL_Driver/Src/stm32g4xx_hal_pwr.c ****           (++) PWR_STOPENTRY_WFI: enter Stop mode with WFI instruction
 219:Drivers/STM32G4xx_HAL_Driver/Src/stm32g4xx_hal_pwr.c ****           (++) PWR_STOPENTRY_WFE: enter Stop mode with WFE instruction
 220:Drivers/STM32G4xx_HAL_Driver/Src/stm32g4xx_hal_pwr.c **** 
 221:Drivers/STM32G4xx_HAL_Driver/Src/stm32g4xx_hal_pwr.c ****       (+) WFI Exit:
 222:Drivers/STM32G4xx_HAL_Driver/Src/stm32g4xx_hal_pwr.c ****           (++) Any EXTI Line (Internal or External) configured in Interrupt mode.
 223:Drivers/STM32G4xx_HAL_Driver/Src/stm32g4xx_hal_pwr.c ****           (++) Some specific communication peripherals (USART, LPUART, I2C) interrupts
 224:Drivers/STM32G4xx_HAL_Driver/Src/stm32g4xx_hal_pwr.c ****                when programmed in wakeup mode.
 225:Drivers/STM32G4xx_HAL_Driver/Src/stm32g4xx_hal_pwr.c ****       (+) WFE Exit:
 226:Drivers/STM32G4xx_HAL_Driver/Src/stm32g4xx_hal_pwr.c ****           (++) Any EXTI Line (Internal or External) configured in Event mode.
 227:Drivers/STM32G4xx_HAL_Driver/Src/stm32g4xx_hal_pwr.c **** 
 228:Drivers/STM32G4xx_HAL_Driver/Src/stm32g4xx_hal_pwr.c ****        [..]
 229:Drivers/STM32G4xx_HAL_Driver/Src/stm32g4xx_hal_pwr.c ****           When exiting Stop 0 and Stop 1 modes, the MCU is either in Run mode or in Low-power Run m
ARM GAS  /tmp/ccOygTIW.s 			page 7


 230:Drivers/STM32G4xx_HAL_Driver/Src/stm32g4xx_hal_pwr.c ****           depending on the LPR bit setting.
 231:Drivers/STM32G4xx_HAL_Driver/Src/stm32g4xx_hal_pwr.c **** 
 232:Drivers/STM32G4xx_HAL_Driver/Src/stm32g4xx_hal_pwr.c ****    *** Standby mode ***
 233:Drivers/STM32G4xx_HAL_Driver/Src/stm32g4xx_hal_pwr.c ****    ====================
 234:Drivers/STM32G4xx_HAL_Driver/Src/stm32g4xx_hal_pwr.c ****      [..]
 235:Drivers/STM32G4xx_HAL_Driver/Src/stm32g4xx_hal_pwr.c ****       The Standby mode offers two options:
 236:Drivers/STM32G4xx_HAL_Driver/Src/stm32g4xx_hal_pwr.c ****       (+) option a) all clocks off except LSI and LSE, RRS bit set (keeps voltage regulator in low 
 237:Drivers/STM32G4xx_HAL_Driver/Src/stm32g4xx_hal_pwr.c ****         SRAM and registers contents are lost except for the SRAM2 content, the RTC registers, RTC b
 238:Drivers/STM32G4xx_HAL_Driver/Src/stm32g4xx_hal_pwr.c ****         and Standby circuitry.
 239:Drivers/STM32G4xx_HAL_Driver/Src/stm32g4xx_hal_pwr.c ****       (+) option b) all clocks off except LSI and LSE, RRS bit cleared (voltage regulator then disa
 240:Drivers/STM32G4xx_HAL_Driver/Src/stm32g4xx_hal_pwr.c ****         SRAM and register contents are lost except for the RTC registers, RTC backup registers
 241:Drivers/STM32G4xx_HAL_Driver/Src/stm32g4xx_hal_pwr.c ****         and Standby circuitry.
 242:Drivers/STM32G4xx_HAL_Driver/Src/stm32g4xx_hal_pwr.c **** 
 243:Drivers/STM32G4xx_HAL_Driver/Src/stm32g4xx_hal_pwr.c ****       (++) Entry:
 244:Drivers/STM32G4xx_HAL_Driver/Src/stm32g4xx_hal_pwr.c ****           (+++) The Standby mode is entered thru HAL_PWR_EnterSTANDBYMode() API.
 245:Drivers/STM32G4xx_HAL_Driver/Src/stm32g4xx_hal_pwr.c ****                 SRAM1 and register contents are lost except for registers in the Backup domain and
 246:Drivers/STM32G4xx_HAL_Driver/Src/stm32g4xx_hal_pwr.c ****                 Standby circuitry. SRAM2 content can be preserved if the bit RRS is set in PWR_CR3 
 247:Drivers/STM32G4xx_HAL_Driver/Src/stm32g4xx_hal_pwr.c ****                 To enable this feature, the user can resort to HAL_PWREx_EnableSRAM2ContentRetentio
 248:Drivers/STM32G4xx_HAL_Driver/Src/stm32g4xx_hal_pwr.c ****                 to set RRS bit.
 249:Drivers/STM32G4xx_HAL_Driver/Src/stm32g4xx_hal_pwr.c **** 
 250:Drivers/STM32G4xx_HAL_Driver/Src/stm32g4xx_hal_pwr.c ****       (++) Exit:
 251:Drivers/STM32G4xx_HAL_Driver/Src/stm32g4xx_hal_pwr.c ****           (+++) WKUP pin rising edge, RTC alarm or wakeup, tamper event, time-stamp event,
 252:Drivers/STM32G4xx_HAL_Driver/Src/stm32g4xx_hal_pwr.c ****                 external reset in NRST pin, IWDG reset.
 253:Drivers/STM32G4xx_HAL_Driver/Src/stm32g4xx_hal_pwr.c **** 
 254:Drivers/STM32G4xx_HAL_Driver/Src/stm32g4xx_hal_pwr.c ****       [..]    After waking up from Standby mode, program execution restarts in the same way as afte
 255:Drivers/STM32G4xx_HAL_Driver/Src/stm32g4xx_hal_pwr.c **** 
 256:Drivers/STM32G4xx_HAL_Driver/Src/stm32g4xx_hal_pwr.c **** 
 257:Drivers/STM32G4xx_HAL_Driver/Src/stm32g4xx_hal_pwr.c ****     *** Shutdown mode ***
 258:Drivers/STM32G4xx_HAL_Driver/Src/stm32g4xx_hal_pwr.c ****    ======================
 259:Drivers/STM32G4xx_HAL_Driver/Src/stm32g4xx_hal_pwr.c ****      [..]
 260:Drivers/STM32G4xx_HAL_Driver/Src/stm32g4xx_hal_pwr.c ****       In Shutdown mode,
 261:Drivers/STM32G4xx_HAL_Driver/Src/stm32g4xx_hal_pwr.c ****         voltage regulator is disabled, all clocks are off except LSE, RRS bit is cleared.
 262:Drivers/STM32G4xx_HAL_Driver/Src/stm32g4xx_hal_pwr.c ****         SRAM and registers contents are lost except for backup domain registers.
 263:Drivers/STM32G4xx_HAL_Driver/Src/stm32g4xx_hal_pwr.c **** 
 264:Drivers/STM32G4xx_HAL_Driver/Src/stm32g4xx_hal_pwr.c ****       (+) Entry:
 265:Drivers/STM32G4xx_HAL_Driver/Src/stm32g4xx_hal_pwr.c ****           The Shutdown mode is entered thru HAL_PWREx_EnterSHUTDOWNMode() API.
 266:Drivers/STM32G4xx_HAL_Driver/Src/stm32g4xx_hal_pwr.c **** 
 267:Drivers/STM32G4xx_HAL_Driver/Src/stm32g4xx_hal_pwr.c ****       (+) Exit:
 268:Drivers/STM32G4xx_HAL_Driver/Src/stm32g4xx_hal_pwr.c ****           (++) WKUP pin rising edge, RTC alarm or wakeup, tamper event, time-stamp event,
 269:Drivers/STM32G4xx_HAL_Driver/Src/stm32g4xx_hal_pwr.c ****                external reset in NRST pin.
 270:Drivers/STM32G4xx_HAL_Driver/Src/stm32g4xx_hal_pwr.c **** 
 271:Drivers/STM32G4xx_HAL_Driver/Src/stm32g4xx_hal_pwr.c ****          [..] After waking up from Shutdown mode, program execution restarts in the same way as aft
 272:Drivers/STM32G4xx_HAL_Driver/Src/stm32g4xx_hal_pwr.c **** 
 273:Drivers/STM32G4xx_HAL_Driver/Src/stm32g4xx_hal_pwr.c **** 
 274:Drivers/STM32G4xx_HAL_Driver/Src/stm32g4xx_hal_pwr.c ****    *** Auto-wakeup (AWU) from low-power mode ***
 275:Drivers/STM32G4xx_HAL_Driver/Src/stm32g4xx_hal_pwr.c ****    =============================================
 276:Drivers/STM32G4xx_HAL_Driver/Src/stm32g4xx_hal_pwr.c ****     [..]
 277:Drivers/STM32G4xx_HAL_Driver/Src/stm32g4xx_hal_pwr.c ****       The MCU can be woken up from low-power mode by an RTC Alarm event, an RTC
 278:Drivers/STM32G4xx_HAL_Driver/Src/stm32g4xx_hal_pwr.c ****       Wakeup event, a tamper event or a time-stamp event, without depending on
 279:Drivers/STM32G4xx_HAL_Driver/Src/stm32g4xx_hal_pwr.c ****       an external interrupt (Auto-wakeup mode).
 280:Drivers/STM32G4xx_HAL_Driver/Src/stm32g4xx_hal_pwr.c **** 
 281:Drivers/STM32G4xx_HAL_Driver/Src/stm32g4xx_hal_pwr.c ****       (+) RTC auto-wakeup (AWU) from the Stop, Standby and Shutdown modes
 282:Drivers/STM32G4xx_HAL_Driver/Src/stm32g4xx_hal_pwr.c **** 
 283:Drivers/STM32G4xx_HAL_Driver/Src/stm32g4xx_hal_pwr.c **** 
 284:Drivers/STM32G4xx_HAL_Driver/Src/stm32g4xx_hal_pwr.c ****         (++) To wake up from the Stop mode with an RTC alarm event, it is necessary to
 285:Drivers/STM32G4xx_HAL_Driver/Src/stm32g4xx_hal_pwr.c ****              configure the RTC to generate the RTC alarm using the HAL_RTC_SetAlarm_IT() function.
 286:Drivers/STM32G4xx_HAL_Driver/Src/stm32g4xx_hal_pwr.c **** 
ARM GAS  /tmp/ccOygTIW.s 			page 8


 287:Drivers/STM32G4xx_HAL_Driver/Src/stm32g4xx_hal_pwr.c ****         (++) To wake up from the Stop mode with an RTC Tamper or time stamp event, it
 288:Drivers/STM32G4xx_HAL_Driver/Src/stm32g4xx_hal_pwr.c ****              is necessary to configure the RTC to detect the tamper or time stamp event using the
 289:Drivers/STM32G4xx_HAL_Driver/Src/stm32g4xx_hal_pwr.c ****              HAL_RTCEx_SetTimeStamp_IT() or HAL_RTCEx_SetTamper_IT() functions.
 290:Drivers/STM32G4xx_HAL_Driver/Src/stm32g4xx_hal_pwr.c **** 
 291:Drivers/STM32G4xx_HAL_Driver/Src/stm32g4xx_hal_pwr.c ****         (++) To wake up from the Stop mode with an RTC WakeUp event, it is necessary to
 292:Drivers/STM32G4xx_HAL_Driver/Src/stm32g4xx_hal_pwr.c ****               configure the RTC to generate the RTC WakeUp event using the HAL_RTCEx_SetWakeUpTimer
 293:Drivers/STM32G4xx_HAL_Driver/Src/stm32g4xx_hal_pwr.c **** 
 294:Drivers/STM32G4xx_HAL_Driver/Src/stm32g4xx_hal_pwr.c **** @endverbatim
 295:Drivers/STM32G4xx_HAL_Driver/Src/stm32g4xx_hal_pwr.c ****   * @{
 296:Drivers/STM32G4xx_HAL_Driver/Src/stm32g4xx_hal_pwr.c ****   */
 297:Drivers/STM32G4xx_HAL_Driver/Src/stm32g4xx_hal_pwr.c **** 
 298:Drivers/STM32G4xx_HAL_Driver/Src/stm32g4xx_hal_pwr.c **** 
 299:Drivers/STM32G4xx_HAL_Driver/Src/stm32g4xx_hal_pwr.c **** 
 300:Drivers/STM32G4xx_HAL_Driver/Src/stm32g4xx_hal_pwr.c **** /**
 301:Drivers/STM32G4xx_HAL_Driver/Src/stm32g4xx_hal_pwr.c ****   * @brief Configure the voltage threshold detected by the Power Voltage Detector (PVD).
 302:Drivers/STM32G4xx_HAL_Driver/Src/stm32g4xx_hal_pwr.c ****   * @param sConfigPVD: pointer to a PWR_PVDTypeDef structure that contains the PVD
 303:Drivers/STM32G4xx_HAL_Driver/Src/stm32g4xx_hal_pwr.c ****   *        configuration information.
 304:Drivers/STM32G4xx_HAL_Driver/Src/stm32g4xx_hal_pwr.c ****   * @note Refer to the electrical characteristics of your device datasheet for
 305:Drivers/STM32G4xx_HAL_Driver/Src/stm32g4xx_hal_pwr.c ****   *         more details about the voltage thresholds corresponding to each
 306:Drivers/STM32G4xx_HAL_Driver/Src/stm32g4xx_hal_pwr.c ****   *         detection level.
 307:Drivers/STM32G4xx_HAL_Driver/Src/stm32g4xx_hal_pwr.c ****   * @retval None
 308:Drivers/STM32G4xx_HAL_Driver/Src/stm32g4xx_hal_pwr.c ****   */
 309:Drivers/STM32G4xx_HAL_Driver/Src/stm32g4xx_hal_pwr.c **** HAL_StatusTypeDef HAL_PWR_ConfigPVD(PWR_PVDTypeDef *sConfigPVD)
 310:Drivers/STM32G4xx_HAL_Driver/Src/stm32g4xx_hal_pwr.c **** {
 121              		.loc 1 310 1 is_stmt 1 view -0
 122              		.cfi_startproc
 123              		@ args = 0, pretend = 0, frame = 0
 124              		@ frame_needed = 0, uses_anonymous_args = 0
 125              		@ link register save eliminated.
 311:Drivers/STM32G4xx_HAL_Driver/Src/stm32g4xx_hal_pwr.c ****   /* Check the parameters */
 312:Drivers/STM32G4xx_HAL_Driver/Src/stm32g4xx_hal_pwr.c ****   assert_param(IS_PWR_PVD_LEVEL(sConfigPVD->PVDLevel));
 126              		.loc 1 312 3 view .LVU11
 313:Drivers/STM32G4xx_HAL_Driver/Src/stm32g4xx_hal_pwr.c ****   assert_param(IS_PWR_PVD_MODE(sConfigPVD->Mode));
 127              		.loc 1 313 3 view .LVU12
 314:Drivers/STM32G4xx_HAL_Driver/Src/stm32g4xx_hal_pwr.c **** 
 315:Drivers/STM32G4xx_HAL_Driver/Src/stm32g4xx_hal_pwr.c ****   /* Set PLS bits according to PVDLevel value */
 316:Drivers/STM32G4xx_HAL_Driver/Src/stm32g4xx_hal_pwr.c ****   MODIFY_REG(PWR->CR2, PWR_CR2_PLS, sConfigPVD->PVDLevel);
 128              		.loc 1 316 3 view .LVU13
 129 0000 1E4A     		ldr	r2, .L15
 130 0002 5368     		ldr	r3, [r2, #4]
 131 0004 23F00E03 		bic	r3, r3, #14
 132 0008 0168     		ldr	r1, [r0]
 133 000a 0B43     		orrs	r3, r3, r1
 134 000c 5360     		str	r3, [r2, #4]
 317:Drivers/STM32G4xx_HAL_Driver/Src/stm32g4xx_hal_pwr.c **** 
 318:Drivers/STM32G4xx_HAL_Driver/Src/stm32g4xx_hal_pwr.c ****   /* Clear any previous config. Keep it clear if no event or IT mode is selected */
 319:Drivers/STM32G4xx_HAL_Driver/Src/stm32g4xx_hal_pwr.c ****   __HAL_PWR_PVD_EXTI_DISABLE_EVENT();
 135              		.loc 1 319 3 view .LVU14
 136 000e 1C4B     		ldr	r3, .L15+4
 137 0010 5A68     		ldr	r2, [r3, #4]
 138 0012 22F48032 		bic	r2, r2, #65536
 139 0016 5A60     		str	r2, [r3, #4]
 320:Drivers/STM32G4xx_HAL_Driver/Src/stm32g4xx_hal_pwr.c ****   __HAL_PWR_PVD_EXTI_DISABLE_IT();
 140              		.loc 1 320 3 view .LVU15
 141 0018 1A68     		ldr	r2, [r3]
 142 001a 22F48032 		bic	r2, r2, #65536
 143 001e 1A60     		str	r2, [r3]
ARM GAS  /tmp/ccOygTIW.s 			page 9


 321:Drivers/STM32G4xx_HAL_Driver/Src/stm32g4xx_hal_pwr.c ****   __HAL_PWR_PVD_EXTI_DISABLE_FALLING_EDGE();
 144              		.loc 1 321 3 view .LVU16
 145 0020 DA68     		ldr	r2, [r3, #12]
 146 0022 22F48032 		bic	r2, r2, #65536
 147 0026 DA60     		str	r2, [r3, #12]
 322:Drivers/STM32G4xx_HAL_Driver/Src/stm32g4xx_hal_pwr.c ****   __HAL_PWR_PVD_EXTI_DISABLE_RISING_EDGE();
 148              		.loc 1 322 3 view .LVU17
 149 0028 9A68     		ldr	r2, [r3, #8]
 150 002a 22F48032 		bic	r2, r2, #65536
 151 002e 9A60     		str	r2, [r3, #8]
 323:Drivers/STM32G4xx_HAL_Driver/Src/stm32g4xx_hal_pwr.c **** 
 324:Drivers/STM32G4xx_HAL_Driver/Src/stm32g4xx_hal_pwr.c ****   /* Configure interrupt mode */
 325:Drivers/STM32G4xx_HAL_Driver/Src/stm32g4xx_hal_pwr.c ****   if((sConfigPVD->Mode & PVD_MODE_IT) == PVD_MODE_IT)
 152              		.loc 1 325 3 view .LVU18
 153              		.loc 1 325 17 is_stmt 0 view .LVU19
 154 0030 4368     		ldr	r3, [r0, #4]
 155              		.loc 1 325 5 view .LVU20
 156 0032 13F4803F 		tst	r3, #65536
 157 0036 04D0     		beq	.L11
 326:Drivers/STM32G4xx_HAL_Driver/Src/stm32g4xx_hal_pwr.c ****   {
 327:Drivers/STM32G4xx_HAL_Driver/Src/stm32g4xx_hal_pwr.c ****     __HAL_PWR_PVD_EXTI_ENABLE_IT();
 158              		.loc 1 327 5 is_stmt 1 view .LVU21
 159 0038 114A     		ldr	r2, .L15+4
 160 003a 1368     		ldr	r3, [r2]
 161 003c 43F48033 		orr	r3, r3, #65536
 162 0040 1360     		str	r3, [r2]
 163              	.L11:
 328:Drivers/STM32G4xx_HAL_Driver/Src/stm32g4xx_hal_pwr.c ****   }
 329:Drivers/STM32G4xx_HAL_Driver/Src/stm32g4xx_hal_pwr.c **** 
 330:Drivers/STM32G4xx_HAL_Driver/Src/stm32g4xx_hal_pwr.c ****   /* Configure event mode */
 331:Drivers/STM32G4xx_HAL_Driver/Src/stm32g4xx_hal_pwr.c ****   if((sConfigPVD->Mode & PVD_MODE_EVT) == PVD_MODE_EVT)
 164              		.loc 1 331 3 view .LVU22
 165              		.loc 1 331 17 is_stmt 0 view .LVU23
 166 0042 4368     		ldr	r3, [r0, #4]
 167              		.loc 1 331 5 view .LVU24
 168 0044 13F4003F 		tst	r3, #131072
 169 0048 04D0     		beq	.L12
 332:Drivers/STM32G4xx_HAL_Driver/Src/stm32g4xx_hal_pwr.c ****   {
 333:Drivers/STM32G4xx_HAL_Driver/Src/stm32g4xx_hal_pwr.c ****     __HAL_PWR_PVD_EXTI_ENABLE_EVENT();
 170              		.loc 1 333 5 is_stmt 1 view .LVU25
 171 004a 0D4A     		ldr	r2, .L15+4
 172 004c 5368     		ldr	r3, [r2, #4]
 173 004e 43F48033 		orr	r3, r3, #65536
 174 0052 5360     		str	r3, [r2, #4]
 175              	.L12:
 334:Drivers/STM32G4xx_HAL_Driver/Src/stm32g4xx_hal_pwr.c ****   }
 335:Drivers/STM32G4xx_HAL_Driver/Src/stm32g4xx_hal_pwr.c **** 
 336:Drivers/STM32G4xx_HAL_Driver/Src/stm32g4xx_hal_pwr.c ****   /* Configure the edge */
 337:Drivers/STM32G4xx_HAL_Driver/Src/stm32g4xx_hal_pwr.c ****   if((sConfigPVD->Mode & PVD_RISING_EDGE) == PVD_RISING_EDGE)
 176              		.loc 1 337 3 view .LVU26
 177              		.loc 1 337 17 is_stmt 0 view .LVU27
 178 0054 4368     		ldr	r3, [r0, #4]
 179              		.loc 1 337 5 view .LVU28
 180 0056 13F0010F 		tst	r3, #1
 181 005a 04D0     		beq	.L13
 338:Drivers/STM32G4xx_HAL_Driver/Src/stm32g4xx_hal_pwr.c ****   {
 339:Drivers/STM32G4xx_HAL_Driver/Src/stm32g4xx_hal_pwr.c ****     __HAL_PWR_PVD_EXTI_ENABLE_RISING_EDGE();
ARM GAS  /tmp/ccOygTIW.s 			page 10


 182              		.loc 1 339 5 is_stmt 1 view .LVU29
 183 005c 084A     		ldr	r2, .L15+4
 184 005e 9368     		ldr	r3, [r2, #8]
 185 0060 43F48033 		orr	r3, r3, #65536
 186 0064 9360     		str	r3, [r2, #8]
 187              	.L13:
 340:Drivers/STM32G4xx_HAL_Driver/Src/stm32g4xx_hal_pwr.c ****   }
 341:Drivers/STM32G4xx_HAL_Driver/Src/stm32g4xx_hal_pwr.c **** 
 342:Drivers/STM32G4xx_HAL_Driver/Src/stm32g4xx_hal_pwr.c ****   if((sConfigPVD->Mode & PVD_FALLING_EDGE) == PVD_FALLING_EDGE)
 188              		.loc 1 342 3 view .LVU30
 189              		.loc 1 342 17 is_stmt 0 view .LVU31
 190 0066 4368     		ldr	r3, [r0, #4]
 191              		.loc 1 342 5 view .LVU32
 192 0068 13F0020F 		tst	r3, #2
 193 006c 04D0     		beq	.L14
 343:Drivers/STM32G4xx_HAL_Driver/Src/stm32g4xx_hal_pwr.c ****   {
 344:Drivers/STM32G4xx_HAL_Driver/Src/stm32g4xx_hal_pwr.c ****     __HAL_PWR_PVD_EXTI_ENABLE_FALLING_EDGE();
 194              		.loc 1 344 5 is_stmt 1 view .LVU33
 195 006e 044A     		ldr	r2, .L15+4
 196 0070 D368     		ldr	r3, [r2, #12]
 197 0072 43F48033 		orr	r3, r3, #65536
 198 0076 D360     		str	r3, [r2, #12]
 199              	.L14:
 345:Drivers/STM32G4xx_HAL_Driver/Src/stm32g4xx_hal_pwr.c ****   }
 346:Drivers/STM32G4xx_HAL_Driver/Src/stm32g4xx_hal_pwr.c **** 
 347:Drivers/STM32G4xx_HAL_Driver/Src/stm32g4xx_hal_pwr.c ****   return HAL_OK;
 200              		.loc 1 347 3 view .LVU34
 348:Drivers/STM32G4xx_HAL_Driver/Src/stm32g4xx_hal_pwr.c **** }
 201              		.loc 1 348 1 is_stmt 0 view .LVU35
 202 0078 0020     		movs	r0, #0
 203              	.LVL1:
 204              		.loc 1 348 1 view .LVU36
 205 007a 7047     		bx	lr
 206              	.L16:
 207              		.align	2
 208              	.L15:
 209 007c 00700040 		.word	1073770496
 210 0080 00040140 		.word	1073808384
 211              		.cfi_endproc
 212              	.LFE165:
 214              		.section	.text.HAL_PWR_EnablePVD,"ax",%progbits
 215              		.align	1
 216              		.global	HAL_PWR_EnablePVD
 217              		.syntax unified
 218              		.thumb
 219              		.thumb_func
 220              		.fpu fpv4-sp-d16
 222              	HAL_PWR_EnablePVD:
 223              	.LFB166:
 349:Drivers/STM32G4xx_HAL_Driver/Src/stm32g4xx_hal_pwr.c **** 
 350:Drivers/STM32G4xx_HAL_Driver/Src/stm32g4xx_hal_pwr.c **** 
 351:Drivers/STM32G4xx_HAL_Driver/Src/stm32g4xx_hal_pwr.c **** /**
 352:Drivers/STM32G4xx_HAL_Driver/Src/stm32g4xx_hal_pwr.c ****   * @brief Enable the Power Voltage Detector (PVD).
 353:Drivers/STM32G4xx_HAL_Driver/Src/stm32g4xx_hal_pwr.c ****   * @retval None
 354:Drivers/STM32G4xx_HAL_Driver/Src/stm32g4xx_hal_pwr.c ****   */
 355:Drivers/STM32G4xx_HAL_Driver/Src/stm32g4xx_hal_pwr.c **** void HAL_PWR_EnablePVD(void)
 356:Drivers/STM32G4xx_HAL_Driver/Src/stm32g4xx_hal_pwr.c **** {
ARM GAS  /tmp/ccOygTIW.s 			page 11


 224              		.loc 1 356 1 is_stmt 1 view -0
 225              		.cfi_startproc
 226              		@ args = 0, pretend = 0, frame = 0
 227              		@ frame_needed = 0, uses_anonymous_args = 0
 228              		@ link register save eliminated.
 357:Drivers/STM32G4xx_HAL_Driver/Src/stm32g4xx_hal_pwr.c ****   SET_BIT(PWR->CR2, PWR_CR2_PVDE);
 229              		.loc 1 357 3 view .LVU38
 230 0000 024A     		ldr	r2, .L18
 231 0002 5368     		ldr	r3, [r2, #4]
 232 0004 43F00103 		orr	r3, r3, #1
 233 0008 5360     		str	r3, [r2, #4]
 358:Drivers/STM32G4xx_HAL_Driver/Src/stm32g4xx_hal_pwr.c **** }
 234              		.loc 1 358 1 is_stmt 0 view .LVU39
 235 000a 7047     		bx	lr
 236              	.L19:
 237              		.align	2
 238              	.L18:
 239 000c 00700040 		.word	1073770496
 240              		.cfi_endproc
 241              	.LFE166:
 243              		.section	.text.HAL_PWR_DisablePVD,"ax",%progbits
 244              		.align	1
 245              		.global	HAL_PWR_DisablePVD
 246              		.syntax unified
 247              		.thumb
 248              		.thumb_func
 249              		.fpu fpv4-sp-d16
 251              	HAL_PWR_DisablePVD:
 252              	.LFB167:
 359:Drivers/STM32G4xx_HAL_Driver/Src/stm32g4xx_hal_pwr.c **** 
 360:Drivers/STM32G4xx_HAL_Driver/Src/stm32g4xx_hal_pwr.c **** /**
 361:Drivers/STM32G4xx_HAL_Driver/Src/stm32g4xx_hal_pwr.c ****   * @brief Disable the Power Voltage Detector (PVD).
 362:Drivers/STM32G4xx_HAL_Driver/Src/stm32g4xx_hal_pwr.c ****   * @retval None
 363:Drivers/STM32G4xx_HAL_Driver/Src/stm32g4xx_hal_pwr.c ****   */
 364:Drivers/STM32G4xx_HAL_Driver/Src/stm32g4xx_hal_pwr.c **** void HAL_PWR_DisablePVD(void)
 365:Drivers/STM32G4xx_HAL_Driver/Src/stm32g4xx_hal_pwr.c **** {
 253              		.loc 1 365 1 is_stmt 1 view -0
 254              		.cfi_startproc
 255              		@ args = 0, pretend = 0, frame = 0
 256              		@ frame_needed = 0, uses_anonymous_args = 0
 257              		@ link register save eliminated.
 366:Drivers/STM32G4xx_HAL_Driver/Src/stm32g4xx_hal_pwr.c ****   CLEAR_BIT(PWR->CR2, PWR_CR2_PVDE);
 258              		.loc 1 366 3 view .LVU41
 259 0000 024A     		ldr	r2, .L21
 260 0002 5368     		ldr	r3, [r2, #4]
 261 0004 23F00103 		bic	r3, r3, #1
 262 0008 5360     		str	r3, [r2, #4]
 367:Drivers/STM32G4xx_HAL_Driver/Src/stm32g4xx_hal_pwr.c **** }
 263              		.loc 1 367 1 is_stmt 0 view .LVU42
 264 000a 7047     		bx	lr
 265              	.L22:
 266              		.align	2
 267              	.L21:
 268 000c 00700040 		.word	1073770496
 269              		.cfi_endproc
 270              	.LFE167:
 272              		.section	.text.HAL_PWR_EnableWakeUpPin,"ax",%progbits
ARM GAS  /tmp/ccOygTIW.s 			page 12


 273              		.align	1
 274              		.global	HAL_PWR_EnableWakeUpPin
 275              		.syntax unified
 276              		.thumb
 277              		.thumb_func
 278              		.fpu fpv4-sp-d16
 280              	HAL_PWR_EnableWakeUpPin:
 281              	.LVL2:
 282              	.LFB168:
 368:Drivers/STM32G4xx_HAL_Driver/Src/stm32g4xx_hal_pwr.c **** 
 369:Drivers/STM32G4xx_HAL_Driver/Src/stm32g4xx_hal_pwr.c **** 
 370:Drivers/STM32G4xx_HAL_Driver/Src/stm32g4xx_hal_pwr.c **** 
 371:Drivers/STM32G4xx_HAL_Driver/Src/stm32g4xx_hal_pwr.c **** 
 372:Drivers/STM32G4xx_HAL_Driver/Src/stm32g4xx_hal_pwr.c **** /**
 373:Drivers/STM32G4xx_HAL_Driver/Src/stm32g4xx_hal_pwr.c ****   * @brief Enable the WakeUp PINx functionality.
 374:Drivers/STM32G4xx_HAL_Driver/Src/stm32g4xx_hal_pwr.c ****   * @param WakeUpPinPolarity: Specifies which Wake-Up pin to enable.
 375:Drivers/STM32G4xx_HAL_Driver/Src/stm32g4xx_hal_pwr.c ****   *         This parameter can be one of the following legacy values which set the default polarity
 376:Drivers/STM32G4xx_HAL_Driver/Src/stm32g4xx_hal_pwr.c ****   *         i.e. detection on high level (rising edge):
 377:Drivers/STM32G4xx_HAL_Driver/Src/stm32g4xx_hal_pwr.c ****   *           @arg @ref PWR_WAKEUP_PIN1, PWR_WAKEUP_PIN2, PWR_WAKEUP_PIN3, PWR_WAKEUP_PIN4, PWR_WAK
 378:Drivers/STM32G4xx_HAL_Driver/Src/stm32g4xx_hal_pwr.c ****   *
 379:Drivers/STM32G4xx_HAL_Driver/Src/stm32g4xx_hal_pwr.c ****   *         or one of the following value where the user can explicitly specify the enabled pin and
 380:Drivers/STM32G4xx_HAL_Driver/Src/stm32g4xx_hal_pwr.c ****   *         the chosen polarity:
 381:Drivers/STM32G4xx_HAL_Driver/Src/stm32g4xx_hal_pwr.c ****   *           @arg @ref PWR_WAKEUP_PIN1_HIGH or PWR_WAKEUP_PIN1_LOW
 382:Drivers/STM32G4xx_HAL_Driver/Src/stm32g4xx_hal_pwr.c ****   *           @arg @ref PWR_WAKEUP_PIN2_HIGH or PWR_WAKEUP_PIN2_LOW
 383:Drivers/STM32G4xx_HAL_Driver/Src/stm32g4xx_hal_pwr.c ****   *           @arg @ref PWR_WAKEUP_PIN3_HIGH or PWR_WAKEUP_PIN3_LOW
 384:Drivers/STM32G4xx_HAL_Driver/Src/stm32g4xx_hal_pwr.c ****   *           @arg @ref PWR_WAKEUP_PIN4_HIGH or PWR_WAKEUP_PIN4_LOW
 385:Drivers/STM32G4xx_HAL_Driver/Src/stm32g4xx_hal_pwr.c ****   *           @arg @ref PWR_WAKEUP_PIN5_HIGH or PWR_WAKEUP_PIN5_LOW
 386:Drivers/STM32G4xx_HAL_Driver/Src/stm32g4xx_hal_pwr.c ****   * @note  PWR_WAKEUP_PINx and PWR_WAKEUP_PINx_HIGH are equivalent.
 387:Drivers/STM32G4xx_HAL_Driver/Src/stm32g4xx_hal_pwr.c ****   * @retval None
 388:Drivers/STM32G4xx_HAL_Driver/Src/stm32g4xx_hal_pwr.c ****   */
 389:Drivers/STM32G4xx_HAL_Driver/Src/stm32g4xx_hal_pwr.c **** void HAL_PWR_EnableWakeUpPin(uint32_t WakeUpPinPolarity)
 390:Drivers/STM32G4xx_HAL_Driver/Src/stm32g4xx_hal_pwr.c **** {
 283              		.loc 1 390 1 is_stmt 1 view -0
 284              		.cfi_startproc
 285              		@ args = 0, pretend = 0, frame = 0
 286              		@ frame_needed = 0, uses_anonymous_args = 0
 287              		@ link register save eliminated.
 391:Drivers/STM32G4xx_HAL_Driver/Src/stm32g4xx_hal_pwr.c ****   assert_param(IS_PWR_WAKEUP_PIN(WakeUpPinPolarity));
 288              		.loc 1 391 3 view .LVU44
 392:Drivers/STM32G4xx_HAL_Driver/Src/stm32g4xx_hal_pwr.c **** 
 393:Drivers/STM32G4xx_HAL_Driver/Src/stm32g4xx_hal_pwr.c ****   /* Specifies the Wake-Up pin polarity for the event detection
 394:Drivers/STM32G4xx_HAL_Driver/Src/stm32g4xx_hal_pwr.c ****     (rising or falling edge) */
 395:Drivers/STM32G4xx_HAL_Driver/Src/stm32g4xx_hal_pwr.c ****   MODIFY_REG(PWR->CR4, (PWR_CR3_EWUP & WakeUpPinPolarity), (WakeUpPinPolarity >> PWR_WUP_POLARITY_S
 289              		.loc 1 395 3 view .LVU45
 290 0000 064A     		ldr	r2, .L24
 291 0002 D368     		ldr	r3, [r2, #12]
 292 0004 00F01F01 		and	r1, r0, #31
 293 0008 23EA0103 		bic	r3, r3, r1
 294 000c 43EA5010 		orr	r0, r3, r0, lsr #5
 295              	.LVL3:
 296              		.loc 1 395 3 is_stmt 0 view .LVU46
 297 0010 D060     		str	r0, [r2, #12]
 396:Drivers/STM32G4xx_HAL_Driver/Src/stm32g4xx_hal_pwr.c **** 
 397:Drivers/STM32G4xx_HAL_Driver/Src/stm32g4xx_hal_pwr.c ****   /* Enable wake-up pin */
 398:Drivers/STM32G4xx_HAL_Driver/Src/stm32g4xx_hal_pwr.c ****   SET_BIT(PWR->CR3, (PWR_CR3_EWUP & WakeUpPinPolarity));
 298              		.loc 1 398 3 is_stmt 1 view .LVU47
 299 0012 9368     		ldr	r3, [r2, #8]
ARM GAS  /tmp/ccOygTIW.s 			page 13


 300 0014 1943     		orrs	r1, r1, r3
 301 0016 9160     		str	r1, [r2, #8]
 399:Drivers/STM32G4xx_HAL_Driver/Src/stm32g4xx_hal_pwr.c **** 
 400:Drivers/STM32G4xx_HAL_Driver/Src/stm32g4xx_hal_pwr.c **** 
 401:Drivers/STM32G4xx_HAL_Driver/Src/stm32g4xx_hal_pwr.c **** }
 302              		.loc 1 401 1 is_stmt 0 view .LVU48
 303 0018 7047     		bx	lr
 304              	.L25:
 305 001a 00BF     		.align	2
 306              	.L24:
 307 001c 00700040 		.word	1073770496
 308              		.cfi_endproc
 309              	.LFE168:
 311              		.section	.text.HAL_PWR_DisableWakeUpPin,"ax",%progbits
 312              		.align	1
 313              		.global	HAL_PWR_DisableWakeUpPin
 314              		.syntax unified
 315              		.thumb
 316              		.thumb_func
 317              		.fpu fpv4-sp-d16
 319              	HAL_PWR_DisableWakeUpPin:
 320              	.LVL4:
 321              	.LFB169:
 402:Drivers/STM32G4xx_HAL_Driver/Src/stm32g4xx_hal_pwr.c **** 
 403:Drivers/STM32G4xx_HAL_Driver/Src/stm32g4xx_hal_pwr.c **** /**
 404:Drivers/STM32G4xx_HAL_Driver/Src/stm32g4xx_hal_pwr.c ****   * @brief Disable the WakeUp PINx functionality.
 405:Drivers/STM32G4xx_HAL_Driver/Src/stm32g4xx_hal_pwr.c ****   * @param WakeUpPinx: Specifies the Power Wake-Up pin to disable.
 406:Drivers/STM32G4xx_HAL_Driver/Src/stm32g4xx_hal_pwr.c ****   *         This parameter can be one of the following values:
 407:Drivers/STM32G4xx_HAL_Driver/Src/stm32g4xx_hal_pwr.c ****   *           @arg @ref PWR_WAKEUP_PIN1, PWR_WAKEUP_PIN2, PWR_WAKEUP_PIN3, PWR_WAKEUP_PIN4, PWR_WAK
 408:Drivers/STM32G4xx_HAL_Driver/Src/stm32g4xx_hal_pwr.c ****   * @retval None
 409:Drivers/STM32G4xx_HAL_Driver/Src/stm32g4xx_hal_pwr.c ****   */
 410:Drivers/STM32G4xx_HAL_Driver/Src/stm32g4xx_hal_pwr.c **** void HAL_PWR_DisableWakeUpPin(uint32_t WakeUpPinx)
 411:Drivers/STM32G4xx_HAL_Driver/Src/stm32g4xx_hal_pwr.c **** {
 322              		.loc 1 411 1 is_stmt 1 view -0
 323              		.cfi_startproc
 324              		@ args = 0, pretend = 0, frame = 0
 325              		@ frame_needed = 0, uses_anonymous_args = 0
 326              		@ link register save eliminated.
 412:Drivers/STM32G4xx_HAL_Driver/Src/stm32g4xx_hal_pwr.c ****   assert_param(IS_PWR_WAKEUP_PIN(WakeUpPinx));
 327              		.loc 1 412 3 view .LVU50
 413:Drivers/STM32G4xx_HAL_Driver/Src/stm32g4xx_hal_pwr.c **** 
 414:Drivers/STM32G4xx_HAL_Driver/Src/stm32g4xx_hal_pwr.c ****   CLEAR_BIT(PWR->CR3, (PWR_CR3_EWUP & WakeUpPinx));
 328              		.loc 1 414 3 view .LVU51
 329 0000 034A     		ldr	r2, .L27
 330 0002 9368     		ldr	r3, [r2, #8]
 331 0004 00F01F00 		and	r0, r0, #31
 332              	.LVL5:
 333              		.loc 1 414 3 is_stmt 0 view .LVU52
 334 0008 23EA0003 		bic	r3, r3, r0
 335 000c 9360     		str	r3, [r2, #8]
 415:Drivers/STM32G4xx_HAL_Driver/Src/stm32g4xx_hal_pwr.c **** }
 336              		.loc 1 415 1 view .LVU53
 337 000e 7047     		bx	lr
 338              	.L28:
 339              		.align	2
 340              	.L27:
 341 0010 00700040 		.word	1073770496
ARM GAS  /tmp/ccOygTIW.s 			page 14


 342              		.cfi_endproc
 343              	.LFE169:
 345              		.section	.text.HAL_PWR_EnterSLEEPMode,"ax",%progbits
 346              		.align	1
 347              		.global	HAL_PWR_EnterSLEEPMode
 348              		.syntax unified
 349              		.thumb
 350              		.thumb_func
 351              		.fpu fpv4-sp-d16
 353              	HAL_PWR_EnterSLEEPMode:
 354              	.LVL6:
 355              	.LFB170:
 416:Drivers/STM32G4xx_HAL_Driver/Src/stm32g4xx_hal_pwr.c **** 
 417:Drivers/STM32G4xx_HAL_Driver/Src/stm32g4xx_hal_pwr.c **** 
 418:Drivers/STM32G4xx_HAL_Driver/Src/stm32g4xx_hal_pwr.c **** /**
 419:Drivers/STM32G4xx_HAL_Driver/Src/stm32g4xx_hal_pwr.c ****   * @brief Enter Sleep or Low-power Sleep mode.
 420:Drivers/STM32G4xx_HAL_Driver/Src/stm32g4xx_hal_pwr.c ****   * @note  In Sleep/Low-power Sleep mode, all I/O pins keep the same state as in Run mode.
 421:Drivers/STM32G4xx_HAL_Driver/Src/stm32g4xx_hal_pwr.c ****   * @param Regulator: Specifies the regulator state in Sleep/Low-power Sleep mode.
 422:Drivers/STM32G4xx_HAL_Driver/Src/stm32g4xx_hal_pwr.c ****   *          This parameter can be one of the following values:
 423:Drivers/STM32G4xx_HAL_Driver/Src/stm32g4xx_hal_pwr.c ****   *            @arg @ref PWR_MAINREGULATOR_ON Sleep mode (regulator in main mode)
 424:Drivers/STM32G4xx_HAL_Driver/Src/stm32g4xx_hal_pwr.c ****   *            @arg @ref PWR_LOWPOWERREGULATOR_ON Low-power Sleep mode (regulator in low-power mode
 425:Drivers/STM32G4xx_HAL_Driver/Src/stm32g4xx_hal_pwr.c ****   * @note  Low-power Sleep mode is entered from Low-power Run mode. Therefore, if not yet
 426:Drivers/STM32G4xx_HAL_Driver/Src/stm32g4xx_hal_pwr.c ****   *        in Low-power Run mode before calling HAL_PWR_EnterSLEEPMode() with Regulator set
 427:Drivers/STM32G4xx_HAL_Driver/Src/stm32g4xx_hal_pwr.c ****   *        to PWR_LOWPOWERREGULATOR_ON, the user can optionally configure the
 428:Drivers/STM32G4xx_HAL_Driver/Src/stm32g4xx_hal_pwr.c ****   *        Flash in power-down monde in setting the SLEEP_PD bit in FLASH_ACR register.
 429:Drivers/STM32G4xx_HAL_Driver/Src/stm32g4xx_hal_pwr.c ****   *        Additionally, the clock frequency must be reduced below 2 MHz.
 430:Drivers/STM32G4xx_HAL_Driver/Src/stm32g4xx_hal_pwr.c ****   *        Setting SLEEP_PD in FLASH_ACR then appropriately reducing the clock frequency must
 431:Drivers/STM32G4xx_HAL_Driver/Src/stm32g4xx_hal_pwr.c ****   *        be done before calling HAL_PWR_EnterSLEEPMode() API.
 432:Drivers/STM32G4xx_HAL_Driver/Src/stm32g4xx_hal_pwr.c ****   * @note  When exiting Low-power Sleep mode, the MCU is in Low-power Run mode. To move in
 433:Drivers/STM32G4xx_HAL_Driver/Src/stm32g4xx_hal_pwr.c ****   *        Run mode, the user must resort to HAL_PWREx_DisableLowPowerRunMode() API.
 434:Drivers/STM32G4xx_HAL_Driver/Src/stm32g4xx_hal_pwr.c ****   * @param SLEEPEntry: Specifies if Sleep mode is entered with WFI or WFE instruction.
 435:Drivers/STM32G4xx_HAL_Driver/Src/stm32g4xx_hal_pwr.c ****   *           This parameter can be one of the following values:
 436:Drivers/STM32G4xx_HAL_Driver/Src/stm32g4xx_hal_pwr.c ****   *            @arg @ref PWR_SLEEPENTRY_WFI enter Sleep or Low-power Sleep mode with WFI instructio
 437:Drivers/STM32G4xx_HAL_Driver/Src/stm32g4xx_hal_pwr.c ****   *            @arg @ref PWR_SLEEPENTRY_WFE enter Sleep or Low-power Sleep mode with WFE instructio
 438:Drivers/STM32G4xx_HAL_Driver/Src/stm32g4xx_hal_pwr.c ****   * @note  When WFI entry is used, tick interrupt have to be disabled if not desired as
 439:Drivers/STM32G4xx_HAL_Driver/Src/stm32g4xx_hal_pwr.c ****   *        the interrupt wake up source.
 440:Drivers/STM32G4xx_HAL_Driver/Src/stm32g4xx_hal_pwr.c ****   * @retval None
 441:Drivers/STM32G4xx_HAL_Driver/Src/stm32g4xx_hal_pwr.c ****   */
 442:Drivers/STM32G4xx_HAL_Driver/Src/stm32g4xx_hal_pwr.c **** void HAL_PWR_EnterSLEEPMode(uint32_t Regulator, uint8_t SLEEPEntry)
 443:Drivers/STM32G4xx_HAL_Driver/Src/stm32g4xx_hal_pwr.c **** {
 356              		.loc 1 443 1 is_stmt 1 view -0
 357              		.cfi_startproc
 358              		@ args = 0, pretend = 0, frame = 0
 359              		@ frame_needed = 0, uses_anonymous_args = 0
 360              		.loc 1 443 1 is_stmt 0 view .LVU55
 361 0000 10B5     		push	{r4, lr}
 362              	.LCFI0:
 363              		.cfi_def_cfa_offset 8
 364              		.cfi_offset 4, -8
 365              		.cfi_offset 14, -4
 366 0002 0C46     		mov	r4, r1
 444:Drivers/STM32G4xx_HAL_Driver/Src/stm32g4xx_hal_pwr.c ****   /* Check the parameters */
 445:Drivers/STM32G4xx_HAL_Driver/Src/stm32g4xx_hal_pwr.c ****   assert_param(IS_PWR_REGULATOR(Regulator));
 367              		.loc 1 445 3 is_stmt 1 view .LVU56
 446:Drivers/STM32G4xx_HAL_Driver/Src/stm32g4xx_hal_pwr.c ****   assert_param(IS_PWR_SLEEP_ENTRY(SLEEPEntry));
 368              		.loc 1 446 3 view .LVU57
 447:Drivers/STM32G4xx_HAL_Driver/Src/stm32g4xx_hal_pwr.c **** 
ARM GAS  /tmp/ccOygTIW.s 			page 15


 448:Drivers/STM32G4xx_HAL_Driver/Src/stm32g4xx_hal_pwr.c ****   /* Set Regulator parameter */
 449:Drivers/STM32G4xx_HAL_Driver/Src/stm32g4xx_hal_pwr.c ****   if (Regulator == PWR_MAINREGULATOR_ON)
 369              		.loc 1 449 3 view .LVU58
 370              		.loc 1 449 6 is_stmt 0 view .LVU59
 371 0004 90B9     		cbnz	r0, .L30
 450:Drivers/STM32G4xx_HAL_Driver/Src/stm32g4xx_hal_pwr.c ****   {
 451:Drivers/STM32G4xx_HAL_Driver/Src/stm32g4xx_hal_pwr.c ****     /* If in low-power run mode at this point, exit it */
 452:Drivers/STM32G4xx_HAL_Driver/Src/stm32g4xx_hal_pwr.c ****     if (HAL_IS_BIT_SET(PWR->SR2, PWR_SR2_REGLPF))
 372              		.loc 1 452 5 is_stmt 1 view .LVU60
 373              		.loc 1 452 9 is_stmt 0 view .LVU61
 374 0006 0E4B     		ldr	r3, .L37
 375 0008 5B69     		ldr	r3, [r3, #20]
 376              		.loc 1 452 8 view .LVU62
 377 000a 13F4007F 		tst	r3, #512
 378 000e 0AD1     		bne	.L35
 379              	.LVL7:
 380              	.L31:
 453:Drivers/STM32G4xx_HAL_Driver/Src/stm32g4xx_hal_pwr.c ****     {
 454:Drivers/STM32G4xx_HAL_Driver/Src/stm32g4xx_hal_pwr.c ****       (void)HAL_PWREx_DisableLowPowerRunMode();
 455:Drivers/STM32G4xx_HAL_Driver/Src/stm32g4xx_hal_pwr.c ****     }
 456:Drivers/STM32G4xx_HAL_Driver/Src/stm32g4xx_hal_pwr.c ****     /* Regulator now in main mode. */
 457:Drivers/STM32G4xx_HAL_Driver/Src/stm32g4xx_hal_pwr.c ****   }
 458:Drivers/STM32G4xx_HAL_Driver/Src/stm32g4xx_hal_pwr.c ****   else
 459:Drivers/STM32G4xx_HAL_Driver/Src/stm32g4xx_hal_pwr.c ****   {
 460:Drivers/STM32G4xx_HAL_Driver/Src/stm32g4xx_hal_pwr.c ****     /* If in run mode, first move to low-power run mode.
 461:Drivers/STM32G4xx_HAL_Driver/Src/stm32g4xx_hal_pwr.c ****        The system clock frequency must be below 2 MHz at this point. */
 462:Drivers/STM32G4xx_HAL_Driver/Src/stm32g4xx_hal_pwr.c ****     if (HAL_IS_BIT_SET(PWR->SR2, PWR_SR2_REGLPF) == 0U)
 463:Drivers/STM32G4xx_HAL_Driver/Src/stm32g4xx_hal_pwr.c ****     {
 464:Drivers/STM32G4xx_HAL_Driver/Src/stm32g4xx_hal_pwr.c ****       HAL_PWREx_EnableLowPowerRunMode();
 465:Drivers/STM32G4xx_HAL_Driver/Src/stm32g4xx_hal_pwr.c ****     }
 466:Drivers/STM32G4xx_HAL_Driver/Src/stm32g4xx_hal_pwr.c ****   }
 467:Drivers/STM32G4xx_HAL_Driver/Src/stm32g4xx_hal_pwr.c **** 
 468:Drivers/STM32G4xx_HAL_Driver/Src/stm32g4xx_hal_pwr.c ****   /* Clear SLEEPDEEP bit of Cortex System Control Register */
 469:Drivers/STM32G4xx_HAL_Driver/Src/stm32g4xx_hal_pwr.c ****   CLEAR_BIT(SCB->SCR, ((uint32_t)SCB_SCR_SLEEPDEEP_Msk));
 381              		.loc 1 469 3 is_stmt 1 view .LVU63
 382 0010 0C4A     		ldr	r2, .L37+4
 383 0012 1369     		ldr	r3, [r2, #16]
 384 0014 23F00403 		bic	r3, r3, #4
 385 0018 1361     		str	r3, [r2, #16]
 470:Drivers/STM32G4xx_HAL_Driver/Src/stm32g4xx_hal_pwr.c **** 
 471:Drivers/STM32G4xx_HAL_Driver/Src/stm32g4xx_hal_pwr.c ****   /* Select SLEEP mode entry -------------------------------------------------*/
 472:Drivers/STM32G4xx_HAL_Driver/Src/stm32g4xx_hal_pwr.c ****   if(SLEEPEntry == PWR_SLEEPENTRY_WFI)
 386              		.loc 1 472 3 view .LVU64
 387              		.loc 1 472 5 is_stmt 0 view .LVU65
 388 001a 012C     		cmp	r4, #1
 389 001c 0ED0     		beq	.L36
 473:Drivers/STM32G4xx_HAL_Driver/Src/stm32g4xx_hal_pwr.c ****   {
 474:Drivers/STM32G4xx_HAL_Driver/Src/stm32g4xx_hal_pwr.c ****     /* Request Wait For Interrupt */
 475:Drivers/STM32G4xx_HAL_Driver/Src/stm32g4xx_hal_pwr.c ****     __WFI();
 476:Drivers/STM32G4xx_HAL_Driver/Src/stm32g4xx_hal_pwr.c ****   }
 477:Drivers/STM32G4xx_HAL_Driver/Src/stm32g4xx_hal_pwr.c ****   else
 478:Drivers/STM32G4xx_HAL_Driver/Src/stm32g4xx_hal_pwr.c ****   {
 479:Drivers/STM32G4xx_HAL_Driver/Src/stm32g4xx_hal_pwr.c ****     /* Request Wait For Event */
 480:Drivers/STM32G4xx_HAL_Driver/Src/stm32g4xx_hal_pwr.c ****     __SEV();
 390              		.loc 1 480 5 is_stmt 1 view .LVU66
 391              		.syntax unified
 392              	@ 480 "Drivers/STM32G4xx_HAL_Driver/Src/stm32g4xx_hal_pwr.c" 1
ARM GAS  /tmp/ccOygTIW.s 			page 16


 393 001e 40BF     		sev
 394              	@ 0 "" 2
 481:Drivers/STM32G4xx_HAL_Driver/Src/stm32g4xx_hal_pwr.c ****     __WFE();
 395              		.loc 1 481 5 view .LVU67
 396              	@ 481 "Drivers/STM32G4xx_HAL_Driver/Src/stm32g4xx_hal_pwr.c" 1
 397 0020 20BF     		wfe
 398              	@ 0 "" 2
 482:Drivers/STM32G4xx_HAL_Driver/Src/stm32g4xx_hal_pwr.c ****     __WFE();
 399              		.loc 1 482 5 view .LVU68
 400              	@ 482 "Drivers/STM32G4xx_HAL_Driver/Src/stm32g4xx_hal_pwr.c" 1
 401 0022 20BF     		wfe
 402              	@ 0 "" 2
 403              		.thumb
 404              		.syntax unified
 405              	.L29:
 483:Drivers/STM32G4xx_HAL_Driver/Src/stm32g4xx_hal_pwr.c ****   }
 484:Drivers/STM32G4xx_HAL_Driver/Src/stm32g4xx_hal_pwr.c **** 
 485:Drivers/STM32G4xx_HAL_Driver/Src/stm32g4xx_hal_pwr.c **** }
 406              		.loc 1 485 1 is_stmt 0 view .LVU69
 407 0024 10BD     		pop	{r4, pc}
 408              	.LVL8:
 409              	.L35:
 454:Drivers/STM32G4xx_HAL_Driver/Src/stm32g4xx_hal_pwr.c ****     }
 410              		.loc 1 454 7 is_stmt 1 view .LVU70
 454:Drivers/STM32G4xx_HAL_Driver/Src/stm32g4xx_hal_pwr.c ****     }
 411              		.loc 1 454 13 is_stmt 0 view .LVU71
 412 0026 FFF7FEFF 		bl	HAL_PWREx_DisableLowPowerRunMode
 413              	.LVL9:
 454:Drivers/STM32G4xx_HAL_Driver/Src/stm32g4xx_hal_pwr.c ****     }
 414              		.loc 1 454 13 view .LVU72
 415 002a F1E7     		b	.L31
 416              	.LVL10:
 417              	.L30:
 462:Drivers/STM32G4xx_HAL_Driver/Src/stm32g4xx_hal_pwr.c ****     {
 418              		.loc 1 462 5 is_stmt 1 view .LVU73
 462:Drivers/STM32G4xx_HAL_Driver/Src/stm32g4xx_hal_pwr.c ****     {
 419              		.loc 1 462 9 is_stmt 0 view .LVU74
 420 002c 044B     		ldr	r3, .L37
 421 002e 5B69     		ldr	r3, [r3, #20]
 462:Drivers/STM32G4xx_HAL_Driver/Src/stm32g4xx_hal_pwr.c ****     {
 422              		.loc 1 462 8 view .LVU75
 423 0030 13F4007F 		tst	r3, #512
 424 0034 ECD1     		bne	.L31
 464:Drivers/STM32G4xx_HAL_Driver/Src/stm32g4xx_hal_pwr.c ****     }
 425              		.loc 1 464 7 is_stmt 1 view .LVU76
 426 0036 FFF7FEFF 		bl	HAL_PWREx_EnableLowPowerRunMode
 427              	.LVL11:
 464:Drivers/STM32G4xx_HAL_Driver/Src/stm32g4xx_hal_pwr.c ****     }
 428              		.loc 1 464 7 is_stmt 0 view .LVU77
 429 003a E9E7     		b	.L31
 430              	.L36:
 475:Drivers/STM32G4xx_HAL_Driver/Src/stm32g4xx_hal_pwr.c ****   }
 431              		.loc 1 475 5 is_stmt 1 view .LVU78
 432              		.syntax unified
 433              	@ 475 "Drivers/STM32G4xx_HAL_Driver/Src/stm32g4xx_hal_pwr.c" 1
 434 003c 30BF     		wfi
 435              	@ 0 "" 2
ARM GAS  /tmp/ccOygTIW.s 			page 17


 436              		.thumb
 437              		.syntax unified
 438 003e F1E7     		b	.L29
 439              	.L38:
 440              		.align	2
 441              	.L37:
 442 0040 00700040 		.word	1073770496
 443 0044 00ED00E0 		.word	-536810240
 444              		.cfi_endproc
 445              	.LFE170:
 447              		.section	.text.HAL_PWR_EnterSTOPMode,"ax",%progbits
 448              		.align	1
 449              		.global	HAL_PWR_EnterSTOPMode
 450              		.syntax unified
 451              		.thumb
 452              		.thumb_func
 453              		.fpu fpv4-sp-d16
 455              	HAL_PWR_EnterSTOPMode:
 456              	.LVL12:
 457              	.LFB171:
 486:Drivers/STM32G4xx_HAL_Driver/Src/stm32g4xx_hal_pwr.c **** 
 487:Drivers/STM32G4xx_HAL_Driver/Src/stm32g4xx_hal_pwr.c **** 
 488:Drivers/STM32G4xx_HAL_Driver/Src/stm32g4xx_hal_pwr.c **** /**
 489:Drivers/STM32G4xx_HAL_Driver/Src/stm32g4xx_hal_pwr.c ****   * @brief Enter Stop mode
 490:Drivers/STM32G4xx_HAL_Driver/Src/stm32g4xx_hal_pwr.c ****   * @note  This API is named HAL_PWR_EnterSTOPMode to ensure compatibility with legacy code running
 491:Drivers/STM32G4xx_HAL_Driver/Src/stm32g4xx_hal_pwr.c ****   *        on devices where only "Stop mode" is mentioned with main or low power regulator ON.
 492:Drivers/STM32G4xx_HAL_Driver/Src/stm32g4xx_hal_pwr.c ****   * @note  In Stop mode, all I/O pins keep the same state as in Run mode.
 493:Drivers/STM32G4xx_HAL_Driver/Src/stm32g4xx_hal_pwr.c ****   * @note  All clocks in the VCORE domain are stopped; the PLL,
 494:Drivers/STM32G4xx_HAL_Driver/Src/stm32g4xx_hal_pwr.c ****   *        the HSI and the HSE oscillators are disabled. Some peripherals with the wakeup capabilit
 495:Drivers/STM32G4xx_HAL_Driver/Src/stm32g4xx_hal_pwr.c ****   *        (I2Cx, USARTx and LPUART) can switch on the HSI to receive a frame, and switch off the H
 496:Drivers/STM32G4xx_HAL_Driver/Src/stm32g4xx_hal_pwr.c ****   *        after receiving the frame if it is not a wakeup frame. In this case, the HSI clock is pr
 497:Drivers/STM32G4xx_HAL_Driver/Src/stm32g4xx_hal_pwr.c ****   *        only to the peripheral requesting it.
 498:Drivers/STM32G4xx_HAL_Driver/Src/stm32g4xx_hal_pwr.c ****   *        SRAM1, SRAM2 and register contents are preserved.
 499:Drivers/STM32G4xx_HAL_Driver/Src/stm32g4xx_hal_pwr.c ****   *        The BOR is available.
 500:Drivers/STM32G4xx_HAL_Driver/Src/stm32g4xx_hal_pwr.c ****   *        The voltage regulator can be configured either in normal (Stop 0) or low-power mode (Sto
 501:Drivers/STM32G4xx_HAL_Driver/Src/stm32g4xx_hal_pwr.c ****   * @note  When exiting Stop 0 or Stop 1 mode by issuing an interrupt or a wakeup event,
 502:Drivers/STM32G4xx_HAL_Driver/Src/stm32g4xx_hal_pwr.c ****   *         the HSI RC oscillator is selected as system clock.
 503:Drivers/STM32G4xx_HAL_Driver/Src/stm32g4xx_hal_pwr.c ****   * @note  When the voltage regulator operates in low power mode (Stop 1), an additional
 504:Drivers/STM32G4xx_HAL_Driver/Src/stm32g4xx_hal_pwr.c ****   *         startup delay is incurred when waking up.
 505:Drivers/STM32G4xx_HAL_Driver/Src/stm32g4xx_hal_pwr.c ****   *         By keeping the internal regulator ON during Stop mode (Stop 0), the consumption
 506:Drivers/STM32G4xx_HAL_Driver/Src/stm32g4xx_hal_pwr.c ****   *         is higher although the startup time is reduced.
 507:Drivers/STM32G4xx_HAL_Driver/Src/stm32g4xx_hal_pwr.c ****   * @param Regulator: Specifies the regulator state in Stop mode.
 508:Drivers/STM32G4xx_HAL_Driver/Src/stm32g4xx_hal_pwr.c ****   *          This parameter can be one of the following values:
 509:Drivers/STM32G4xx_HAL_Driver/Src/stm32g4xx_hal_pwr.c ****   *            @arg @ref PWR_MAINREGULATOR_ON  Stop 0 mode (main regulator ON)
 510:Drivers/STM32G4xx_HAL_Driver/Src/stm32g4xx_hal_pwr.c ****   *            @arg @ref PWR_LOWPOWERREGULATOR_ON  Stop 1 mode (low power regulator ON)
 511:Drivers/STM32G4xx_HAL_Driver/Src/stm32g4xx_hal_pwr.c ****   * @param STOPEntry: Specifies Stop 0 or Stop 1 mode is entered with WFI or WFE instruction.
 512:Drivers/STM32G4xx_HAL_Driver/Src/stm32g4xx_hal_pwr.c ****   *          This parameter can be one of the following values:
 513:Drivers/STM32G4xx_HAL_Driver/Src/stm32g4xx_hal_pwr.c ****   *            @arg @ref PWR_STOPENTRY_WFI  Enter Stop 0 or Stop 1 mode with WFI instruction.
 514:Drivers/STM32G4xx_HAL_Driver/Src/stm32g4xx_hal_pwr.c ****   *            @arg @ref PWR_STOPENTRY_WFE  Enter Stop 0 or Stop 1 mode with WFE instruction.
 515:Drivers/STM32G4xx_HAL_Driver/Src/stm32g4xx_hal_pwr.c ****   * @retval None
 516:Drivers/STM32G4xx_HAL_Driver/Src/stm32g4xx_hal_pwr.c ****   */
 517:Drivers/STM32G4xx_HAL_Driver/Src/stm32g4xx_hal_pwr.c **** void HAL_PWR_EnterSTOPMode(uint32_t Regulator, uint8_t STOPEntry)
 518:Drivers/STM32G4xx_HAL_Driver/Src/stm32g4xx_hal_pwr.c **** {
 458              		.loc 1 518 1 view -0
 459              		.cfi_startproc
 460              		@ args = 0, pretend = 0, frame = 0
 461              		@ frame_needed = 0, uses_anonymous_args = 0
ARM GAS  /tmp/ccOygTIW.s 			page 18


 462              		.loc 1 518 1 is_stmt 0 view .LVU80
 463 0000 08B5     		push	{r3, lr}
 464              	.LCFI1:
 465              		.cfi_def_cfa_offset 8
 466              		.cfi_offset 3, -8
 467              		.cfi_offset 14, -4
 519:Drivers/STM32G4xx_HAL_Driver/Src/stm32g4xx_hal_pwr.c ****   /* Check the parameters */
 520:Drivers/STM32G4xx_HAL_Driver/Src/stm32g4xx_hal_pwr.c ****   assert_param(IS_PWR_REGULATOR(Regulator));
 468              		.loc 1 520 3 is_stmt 1 view .LVU81
 521:Drivers/STM32G4xx_HAL_Driver/Src/stm32g4xx_hal_pwr.c **** 
 522:Drivers/STM32G4xx_HAL_Driver/Src/stm32g4xx_hal_pwr.c ****   if(Regulator == PWR_LOWPOWERREGULATOR_ON)
 469              		.loc 1 522 3 view .LVU82
 470              		.loc 1 522 5 is_stmt 0 view .LVU83
 471 0002 B0F5804F 		cmp	r0, #16384
 472 0006 03D0     		beq	.L43
 523:Drivers/STM32G4xx_HAL_Driver/Src/stm32g4xx_hal_pwr.c ****   {
 524:Drivers/STM32G4xx_HAL_Driver/Src/stm32g4xx_hal_pwr.c ****     HAL_PWREx_EnterSTOP1Mode(STOPEntry);
 525:Drivers/STM32G4xx_HAL_Driver/Src/stm32g4xx_hal_pwr.c ****   }
 526:Drivers/STM32G4xx_HAL_Driver/Src/stm32g4xx_hal_pwr.c ****   else
 527:Drivers/STM32G4xx_HAL_Driver/Src/stm32g4xx_hal_pwr.c ****   {
 528:Drivers/STM32G4xx_HAL_Driver/Src/stm32g4xx_hal_pwr.c ****     HAL_PWREx_EnterSTOP0Mode(STOPEntry);
 473              		.loc 1 528 5 is_stmt 1 view .LVU84
 474 0008 0846     		mov	r0, r1
 475              	.LVL13:
 476              		.loc 1 528 5 is_stmt 0 view .LVU85
 477 000a FFF7FEFF 		bl	HAL_PWREx_EnterSTOP0Mode
 478              	.LVL14:
 479              	.L39:
 529:Drivers/STM32G4xx_HAL_Driver/Src/stm32g4xx_hal_pwr.c ****   }
 530:Drivers/STM32G4xx_HAL_Driver/Src/stm32g4xx_hal_pwr.c **** }
 480              		.loc 1 530 1 view .LVU86
 481 000e 08BD     		pop	{r3, pc}
 482              	.LVL15:
 483              	.L43:
 524:Drivers/STM32G4xx_HAL_Driver/Src/stm32g4xx_hal_pwr.c ****   }
 484              		.loc 1 524 5 is_stmt 1 view .LVU87
 485 0010 0846     		mov	r0, r1
 486              	.LVL16:
 524:Drivers/STM32G4xx_HAL_Driver/Src/stm32g4xx_hal_pwr.c ****   }
 487              		.loc 1 524 5 is_stmt 0 view .LVU88
 488 0012 FFF7FEFF 		bl	HAL_PWREx_EnterSTOP1Mode
 489              	.LVL17:
 524:Drivers/STM32G4xx_HAL_Driver/Src/stm32g4xx_hal_pwr.c ****   }
 490              		.loc 1 524 5 view .LVU89
 491 0016 FAE7     		b	.L39
 492              		.cfi_endproc
 493              	.LFE171:
 495              		.section	.text.HAL_PWR_EnterSTANDBYMode,"ax",%progbits
 496              		.align	1
 497              		.global	HAL_PWR_EnterSTANDBYMode
 498              		.syntax unified
 499              		.thumb
 500              		.thumb_func
 501              		.fpu fpv4-sp-d16
 503              	HAL_PWR_EnterSTANDBYMode:
 504              	.LFB172:
 531:Drivers/STM32G4xx_HAL_Driver/Src/stm32g4xx_hal_pwr.c **** 
ARM GAS  /tmp/ccOygTIW.s 			page 19


 532:Drivers/STM32G4xx_HAL_Driver/Src/stm32g4xx_hal_pwr.c **** /**
 533:Drivers/STM32G4xx_HAL_Driver/Src/stm32g4xx_hal_pwr.c ****   * @brief Enter Standby mode.
 534:Drivers/STM32G4xx_HAL_Driver/Src/stm32g4xx_hal_pwr.c ****   * @note  In Standby mode, the PLL, the HSI and the HSE oscillators are switched
 535:Drivers/STM32G4xx_HAL_Driver/Src/stm32g4xx_hal_pwr.c ****   *        off. The voltage regulator is disabled, except when SRAM2 content is preserved
 536:Drivers/STM32G4xx_HAL_Driver/Src/stm32g4xx_hal_pwr.c ****   *        in which case the regulator is in low-power mode.
 537:Drivers/STM32G4xx_HAL_Driver/Src/stm32g4xx_hal_pwr.c ****   *        SRAM1 and register contents are lost except for registers in the Backup domain and
 538:Drivers/STM32G4xx_HAL_Driver/Src/stm32g4xx_hal_pwr.c ****   *        Standby circuitry. SRAM2 content can be preserved if the bit RRS is set in PWR_CR3 regis
 539:Drivers/STM32G4xx_HAL_Driver/Src/stm32g4xx_hal_pwr.c ****   *        To enable this feature, the user can resort to HAL_PWREx_EnableSRAM2ContentRetention() A
 540:Drivers/STM32G4xx_HAL_Driver/Src/stm32g4xx_hal_pwr.c ****   *        to set RRS bit.
 541:Drivers/STM32G4xx_HAL_Driver/Src/stm32g4xx_hal_pwr.c ****   *        The BOR is available.
 542:Drivers/STM32G4xx_HAL_Driver/Src/stm32g4xx_hal_pwr.c ****   * @note  The I/Os can be configured either with a pull-up or pull-down or can be kept in analog s
 543:Drivers/STM32G4xx_HAL_Driver/Src/stm32g4xx_hal_pwr.c ****   *        HAL_PWREx_EnableGPIOPullUp() and HAL_PWREx_EnableGPIOPullDown() respectively enable Pull
 544:Drivers/STM32G4xx_HAL_Driver/Src/stm32g4xx_hal_pwr.c ****   *        Pull Down state, HAL_PWREx_DisableGPIOPullUp() and HAL_PWREx_DisableGPIOPullDown() disab
 545:Drivers/STM32G4xx_HAL_Driver/Src/stm32g4xx_hal_pwr.c ****   *        same.
 546:Drivers/STM32G4xx_HAL_Driver/Src/stm32g4xx_hal_pwr.c ****   *        These states are effective in Standby mode only if APC bit is set through
 547:Drivers/STM32G4xx_HAL_Driver/Src/stm32g4xx_hal_pwr.c ****   *        HAL_PWREx_EnablePullUpPullDownConfig() API.
 548:Drivers/STM32G4xx_HAL_Driver/Src/stm32g4xx_hal_pwr.c ****   * @retval None
 549:Drivers/STM32G4xx_HAL_Driver/Src/stm32g4xx_hal_pwr.c ****   */
 550:Drivers/STM32G4xx_HAL_Driver/Src/stm32g4xx_hal_pwr.c **** void HAL_PWR_EnterSTANDBYMode(void)
 551:Drivers/STM32G4xx_HAL_Driver/Src/stm32g4xx_hal_pwr.c **** {
 505              		.loc 1 551 1 is_stmt 1 view -0
 506              		.cfi_startproc
 507              		@ args = 0, pretend = 0, frame = 0
 508              		@ frame_needed = 0, uses_anonymous_args = 0
 509              		@ link register save eliminated.
 552:Drivers/STM32G4xx_HAL_Driver/Src/stm32g4xx_hal_pwr.c ****   /* Set Stand-by mode */
 553:Drivers/STM32G4xx_HAL_Driver/Src/stm32g4xx_hal_pwr.c ****   MODIFY_REG(PWR->CR1, PWR_CR1_LPMS, PWR_CR1_LPMS_STANDBY);
 510              		.loc 1 553 3 view .LVU91
 511 0000 064A     		ldr	r2, .L45
 512 0002 1368     		ldr	r3, [r2]
 513 0004 23F00703 		bic	r3, r3, #7
 514 0008 43F00303 		orr	r3, r3, #3
 515 000c 1360     		str	r3, [r2]
 554:Drivers/STM32G4xx_HAL_Driver/Src/stm32g4xx_hal_pwr.c **** 
 555:Drivers/STM32G4xx_HAL_Driver/Src/stm32g4xx_hal_pwr.c ****   /* Set SLEEPDEEP bit of Cortex System Control Register */
 556:Drivers/STM32G4xx_HAL_Driver/Src/stm32g4xx_hal_pwr.c ****   SET_BIT(SCB->SCR, ((uint32_t)SCB_SCR_SLEEPDEEP_Msk));
 516              		.loc 1 556 3 view .LVU92
 517 000e 044A     		ldr	r2, .L45+4
 518 0010 1369     		ldr	r3, [r2, #16]
 519 0012 43F00403 		orr	r3, r3, #4
 520 0016 1361     		str	r3, [r2, #16]
 557:Drivers/STM32G4xx_HAL_Driver/Src/stm32g4xx_hal_pwr.c **** 
 558:Drivers/STM32G4xx_HAL_Driver/Src/stm32g4xx_hal_pwr.c **** /* This option is used to ensure that store operations are completed */
 559:Drivers/STM32G4xx_HAL_Driver/Src/stm32g4xx_hal_pwr.c **** #if defined ( __CC_ARM)
 560:Drivers/STM32G4xx_HAL_Driver/Src/stm32g4xx_hal_pwr.c ****   __force_stores();
 561:Drivers/STM32G4xx_HAL_Driver/Src/stm32g4xx_hal_pwr.c **** #endif
 562:Drivers/STM32G4xx_HAL_Driver/Src/stm32g4xx_hal_pwr.c ****   /* Request Wait For Interrupt */
 563:Drivers/STM32G4xx_HAL_Driver/Src/stm32g4xx_hal_pwr.c ****   __WFI();
 521              		.loc 1 563 3 view .LVU93
 522              		.syntax unified
 523              	@ 563 "Drivers/STM32G4xx_HAL_Driver/Src/stm32g4xx_hal_pwr.c" 1
 524 0018 30BF     		wfi
 525              	@ 0 "" 2
 564:Drivers/STM32G4xx_HAL_Driver/Src/stm32g4xx_hal_pwr.c **** }
 526              		.loc 1 564 1 is_stmt 0 view .LVU94
 527              		.thumb
 528              		.syntax unified
ARM GAS  /tmp/ccOygTIW.s 			page 20


 529 001a 7047     		bx	lr
 530              	.L46:
 531              		.align	2
 532              	.L45:
 533 001c 00700040 		.word	1073770496
 534 0020 00ED00E0 		.word	-536810240
 535              		.cfi_endproc
 536              	.LFE172:
 538              		.section	.text.HAL_PWR_EnableSleepOnExit,"ax",%progbits
 539              		.align	1
 540              		.global	HAL_PWR_EnableSleepOnExit
 541              		.syntax unified
 542              		.thumb
 543              		.thumb_func
 544              		.fpu fpv4-sp-d16
 546              	HAL_PWR_EnableSleepOnExit:
 547              	.LFB173:
 565:Drivers/STM32G4xx_HAL_Driver/Src/stm32g4xx_hal_pwr.c **** 
 566:Drivers/STM32G4xx_HAL_Driver/Src/stm32g4xx_hal_pwr.c **** 
 567:Drivers/STM32G4xx_HAL_Driver/Src/stm32g4xx_hal_pwr.c **** 
 568:Drivers/STM32G4xx_HAL_Driver/Src/stm32g4xx_hal_pwr.c **** /**
 569:Drivers/STM32G4xx_HAL_Driver/Src/stm32g4xx_hal_pwr.c ****   * @brief Indicate Sleep-On-Exit when returning from Handler mode to Thread mode.
 570:Drivers/STM32G4xx_HAL_Driver/Src/stm32g4xx_hal_pwr.c ****   * @note Set SLEEPONEXIT bit of SCR register. When this bit is set, the processor
 571:Drivers/STM32G4xx_HAL_Driver/Src/stm32g4xx_hal_pwr.c ****   *       re-enters SLEEP mode when an interruption handling is over.
 572:Drivers/STM32G4xx_HAL_Driver/Src/stm32g4xx_hal_pwr.c ****   *       Setting this bit is useful when the processor is expected to run only on
 573:Drivers/STM32G4xx_HAL_Driver/Src/stm32g4xx_hal_pwr.c ****   *       interruptions handling.
 574:Drivers/STM32G4xx_HAL_Driver/Src/stm32g4xx_hal_pwr.c ****   * @retval None
 575:Drivers/STM32G4xx_HAL_Driver/Src/stm32g4xx_hal_pwr.c ****   */
 576:Drivers/STM32G4xx_HAL_Driver/Src/stm32g4xx_hal_pwr.c **** void HAL_PWR_EnableSleepOnExit(void)
 577:Drivers/STM32G4xx_HAL_Driver/Src/stm32g4xx_hal_pwr.c **** {
 548              		.loc 1 577 1 is_stmt 1 view -0
 549              		.cfi_startproc
 550              		@ args = 0, pretend = 0, frame = 0
 551              		@ frame_needed = 0, uses_anonymous_args = 0
 552              		@ link register save eliminated.
 578:Drivers/STM32G4xx_HAL_Driver/Src/stm32g4xx_hal_pwr.c ****   /* Set SLEEPONEXIT bit of Cortex System Control Register */
 579:Drivers/STM32G4xx_HAL_Driver/Src/stm32g4xx_hal_pwr.c ****   SET_BIT(SCB->SCR, ((uint32_t)SCB_SCR_SLEEPONEXIT_Msk));
 553              		.loc 1 579 3 view .LVU96
 554 0000 024A     		ldr	r2, .L48
 555 0002 1369     		ldr	r3, [r2, #16]
 556 0004 43F00203 		orr	r3, r3, #2
 557 0008 1361     		str	r3, [r2, #16]
 580:Drivers/STM32G4xx_HAL_Driver/Src/stm32g4xx_hal_pwr.c **** }
 558              		.loc 1 580 1 is_stmt 0 view .LVU97
 559 000a 7047     		bx	lr
 560              	.L49:
 561              		.align	2
 562              	.L48:
 563 000c 00ED00E0 		.word	-536810240
 564              		.cfi_endproc
 565              	.LFE173:
 567              		.section	.text.HAL_PWR_DisableSleepOnExit,"ax",%progbits
 568              		.align	1
 569              		.global	HAL_PWR_DisableSleepOnExit
 570              		.syntax unified
 571              		.thumb
 572              		.thumb_func
ARM GAS  /tmp/ccOygTIW.s 			page 21


 573              		.fpu fpv4-sp-d16
 575              	HAL_PWR_DisableSleepOnExit:
 576              	.LFB174:
 581:Drivers/STM32G4xx_HAL_Driver/Src/stm32g4xx_hal_pwr.c **** 
 582:Drivers/STM32G4xx_HAL_Driver/Src/stm32g4xx_hal_pwr.c **** 
 583:Drivers/STM32G4xx_HAL_Driver/Src/stm32g4xx_hal_pwr.c **** /**
 584:Drivers/STM32G4xx_HAL_Driver/Src/stm32g4xx_hal_pwr.c ****   * @brief Disable Sleep-On-Exit feature when returning from Handler mode to Thread mode.
 585:Drivers/STM32G4xx_HAL_Driver/Src/stm32g4xx_hal_pwr.c ****   * @note Clear SLEEPONEXIT bit of SCR register. When this bit is set, the processor
 586:Drivers/STM32G4xx_HAL_Driver/Src/stm32g4xx_hal_pwr.c ****   *       re-enters SLEEP mode when an interruption handling is over.
 587:Drivers/STM32G4xx_HAL_Driver/Src/stm32g4xx_hal_pwr.c ****   * @retval None
 588:Drivers/STM32G4xx_HAL_Driver/Src/stm32g4xx_hal_pwr.c ****   */
 589:Drivers/STM32G4xx_HAL_Driver/Src/stm32g4xx_hal_pwr.c **** void HAL_PWR_DisableSleepOnExit(void)
 590:Drivers/STM32G4xx_HAL_Driver/Src/stm32g4xx_hal_pwr.c **** {
 577              		.loc 1 590 1 is_stmt 1 view -0
 578              		.cfi_startproc
 579              		@ args = 0, pretend = 0, frame = 0
 580              		@ frame_needed = 0, uses_anonymous_args = 0
 581              		@ link register save eliminated.
 591:Drivers/STM32G4xx_HAL_Driver/Src/stm32g4xx_hal_pwr.c ****   /* Clear SLEEPONEXIT bit of Cortex System Control Register */
 592:Drivers/STM32G4xx_HAL_Driver/Src/stm32g4xx_hal_pwr.c ****   CLEAR_BIT(SCB->SCR, ((uint32_t)SCB_SCR_SLEEPONEXIT_Msk));
 582              		.loc 1 592 3 view .LVU99
 583 0000 024A     		ldr	r2, .L51
 584 0002 1369     		ldr	r3, [r2, #16]
 585 0004 23F00203 		bic	r3, r3, #2
 586 0008 1361     		str	r3, [r2, #16]
 593:Drivers/STM32G4xx_HAL_Driver/Src/stm32g4xx_hal_pwr.c **** }
 587              		.loc 1 593 1 is_stmt 0 view .LVU100
 588 000a 7047     		bx	lr
 589              	.L52:
 590              		.align	2
 591              	.L51:
 592 000c 00ED00E0 		.word	-536810240
 593              		.cfi_endproc
 594              	.LFE174:
 596              		.section	.text.HAL_PWR_EnableSEVOnPend,"ax",%progbits
 597              		.align	1
 598              		.global	HAL_PWR_EnableSEVOnPend
 599              		.syntax unified
 600              		.thumb
 601              		.thumb_func
 602              		.fpu fpv4-sp-d16
 604              	HAL_PWR_EnableSEVOnPend:
 605              	.LFB175:
 594:Drivers/STM32G4xx_HAL_Driver/Src/stm32g4xx_hal_pwr.c **** 
 595:Drivers/STM32G4xx_HAL_Driver/Src/stm32g4xx_hal_pwr.c **** 
 596:Drivers/STM32G4xx_HAL_Driver/Src/stm32g4xx_hal_pwr.c **** 
 597:Drivers/STM32G4xx_HAL_Driver/Src/stm32g4xx_hal_pwr.c **** /**
 598:Drivers/STM32G4xx_HAL_Driver/Src/stm32g4xx_hal_pwr.c ****   * @brief Enable CORTEX M4 SEVONPEND bit.
 599:Drivers/STM32G4xx_HAL_Driver/Src/stm32g4xx_hal_pwr.c ****   * @note Set SEVONPEND bit of SCR register. When this bit is set, this causes
 600:Drivers/STM32G4xx_HAL_Driver/Src/stm32g4xx_hal_pwr.c ****   *       WFE to wake up when an interrupt moves from inactive to pended.
 601:Drivers/STM32G4xx_HAL_Driver/Src/stm32g4xx_hal_pwr.c ****   * @retval None
 602:Drivers/STM32G4xx_HAL_Driver/Src/stm32g4xx_hal_pwr.c ****   */
 603:Drivers/STM32G4xx_HAL_Driver/Src/stm32g4xx_hal_pwr.c **** void HAL_PWR_EnableSEVOnPend(void)
 604:Drivers/STM32G4xx_HAL_Driver/Src/stm32g4xx_hal_pwr.c **** {
 606              		.loc 1 604 1 is_stmt 1 view -0
 607              		.cfi_startproc
 608              		@ args = 0, pretend = 0, frame = 0
ARM GAS  /tmp/ccOygTIW.s 			page 22


 609              		@ frame_needed = 0, uses_anonymous_args = 0
 610              		@ link register save eliminated.
 605:Drivers/STM32G4xx_HAL_Driver/Src/stm32g4xx_hal_pwr.c ****   /* Set SEVONPEND bit of Cortex System Control Register */
 606:Drivers/STM32G4xx_HAL_Driver/Src/stm32g4xx_hal_pwr.c ****   SET_BIT(SCB->SCR, ((uint32_t)SCB_SCR_SEVONPEND_Msk));
 611              		.loc 1 606 3 view .LVU102
 612 0000 024A     		ldr	r2, .L54
 613 0002 1369     		ldr	r3, [r2, #16]
 614 0004 43F01003 		orr	r3, r3, #16
 615 0008 1361     		str	r3, [r2, #16]
 607:Drivers/STM32G4xx_HAL_Driver/Src/stm32g4xx_hal_pwr.c **** }
 616              		.loc 1 607 1 is_stmt 0 view .LVU103
 617 000a 7047     		bx	lr
 618              	.L55:
 619              		.align	2
 620              	.L54:
 621 000c 00ED00E0 		.word	-536810240
 622              		.cfi_endproc
 623              	.LFE175:
 625              		.section	.text.HAL_PWR_DisableSEVOnPend,"ax",%progbits
 626              		.align	1
 627              		.global	HAL_PWR_DisableSEVOnPend
 628              		.syntax unified
 629              		.thumb
 630              		.thumb_func
 631              		.fpu fpv4-sp-d16
 633              	HAL_PWR_DisableSEVOnPend:
 634              	.LFB176:
 608:Drivers/STM32G4xx_HAL_Driver/Src/stm32g4xx_hal_pwr.c **** 
 609:Drivers/STM32G4xx_HAL_Driver/Src/stm32g4xx_hal_pwr.c **** 
 610:Drivers/STM32G4xx_HAL_Driver/Src/stm32g4xx_hal_pwr.c **** /**
 611:Drivers/STM32G4xx_HAL_Driver/Src/stm32g4xx_hal_pwr.c ****   * @brief Disable CORTEX M4 SEVONPEND bit.
 612:Drivers/STM32G4xx_HAL_Driver/Src/stm32g4xx_hal_pwr.c ****   * @note Clear SEVONPEND bit of SCR register. When this bit is set, this causes
 613:Drivers/STM32G4xx_HAL_Driver/Src/stm32g4xx_hal_pwr.c ****   *       WFE to wake up when an interrupt moves from inactive to pended.
 614:Drivers/STM32G4xx_HAL_Driver/Src/stm32g4xx_hal_pwr.c ****   * @retval None
 615:Drivers/STM32G4xx_HAL_Driver/Src/stm32g4xx_hal_pwr.c ****   */
 616:Drivers/STM32G4xx_HAL_Driver/Src/stm32g4xx_hal_pwr.c **** void HAL_PWR_DisableSEVOnPend(void)
 617:Drivers/STM32G4xx_HAL_Driver/Src/stm32g4xx_hal_pwr.c **** {
 635              		.loc 1 617 1 is_stmt 1 view -0
 636              		.cfi_startproc
 637              		@ args = 0, pretend = 0, frame = 0
 638              		@ frame_needed = 0, uses_anonymous_args = 0
 639              		@ link register save eliminated.
 618:Drivers/STM32G4xx_HAL_Driver/Src/stm32g4xx_hal_pwr.c ****   /* Clear SEVONPEND bit of Cortex System Control Register */
 619:Drivers/STM32G4xx_HAL_Driver/Src/stm32g4xx_hal_pwr.c ****   CLEAR_BIT(SCB->SCR, ((uint32_t)SCB_SCR_SEVONPEND_Msk));
 640              		.loc 1 619 3 view .LVU105
 641 0000 024A     		ldr	r2, .L57
 642 0002 1369     		ldr	r3, [r2, #16]
 643 0004 23F01003 		bic	r3, r3, #16
 644 0008 1361     		str	r3, [r2, #16]
 620:Drivers/STM32G4xx_HAL_Driver/Src/stm32g4xx_hal_pwr.c **** }
 645              		.loc 1 620 1 is_stmt 0 view .LVU106
 646 000a 7047     		bx	lr
 647              	.L58:
 648              		.align	2
 649              	.L57:
 650 000c 00ED00E0 		.word	-536810240
 651              		.cfi_endproc
ARM GAS  /tmp/ccOygTIW.s 			page 23


 652              	.LFE176:
 654              		.section	.text.HAL_PWR_PVDCallback,"ax",%progbits
 655              		.align	1
 656              		.weak	HAL_PWR_PVDCallback
 657              		.syntax unified
 658              		.thumb
 659              		.thumb_func
 660              		.fpu fpv4-sp-d16
 662              	HAL_PWR_PVDCallback:
 663              	.LFB177:
 621:Drivers/STM32G4xx_HAL_Driver/Src/stm32g4xx_hal_pwr.c **** 
 622:Drivers/STM32G4xx_HAL_Driver/Src/stm32g4xx_hal_pwr.c **** 
 623:Drivers/STM32G4xx_HAL_Driver/Src/stm32g4xx_hal_pwr.c **** 
 624:Drivers/STM32G4xx_HAL_Driver/Src/stm32g4xx_hal_pwr.c **** 
 625:Drivers/STM32G4xx_HAL_Driver/Src/stm32g4xx_hal_pwr.c **** 
 626:Drivers/STM32G4xx_HAL_Driver/Src/stm32g4xx_hal_pwr.c **** /**
 627:Drivers/STM32G4xx_HAL_Driver/Src/stm32g4xx_hal_pwr.c ****   * @brief PWR PVD interrupt callback
 628:Drivers/STM32G4xx_HAL_Driver/Src/stm32g4xx_hal_pwr.c ****   * @retval None
 629:Drivers/STM32G4xx_HAL_Driver/Src/stm32g4xx_hal_pwr.c ****   */
 630:Drivers/STM32G4xx_HAL_Driver/Src/stm32g4xx_hal_pwr.c **** __weak void HAL_PWR_PVDCallback(void)
 631:Drivers/STM32G4xx_HAL_Driver/Src/stm32g4xx_hal_pwr.c **** {
 664              		.loc 1 631 1 is_stmt 1 view -0
 665              		.cfi_startproc
 666              		@ args = 0, pretend = 0, frame = 0
 667              		@ frame_needed = 0, uses_anonymous_args = 0
 668              		@ link register save eliminated.
 632:Drivers/STM32G4xx_HAL_Driver/Src/stm32g4xx_hal_pwr.c ****   /* NOTE : This function should not be modified; when the callback is needed,
 633:Drivers/STM32G4xx_HAL_Driver/Src/stm32g4xx_hal_pwr.c ****             the HAL_PWR_PVDCallback can be implemented in the user file
 634:Drivers/STM32G4xx_HAL_Driver/Src/stm32g4xx_hal_pwr.c ****    */
 635:Drivers/STM32G4xx_HAL_Driver/Src/stm32g4xx_hal_pwr.c **** }
 669              		.loc 1 635 1 view .LVU108
 670 0000 7047     		bx	lr
 671              		.cfi_endproc
 672              	.LFE177:
 674              		.text
 675              	.Letext0:
 676              		.file 2 "/usr/lib/gcc/arm-none-eabi/9.2.1/include/stdint.h"
 677              		.file 3 "Drivers/CMSIS/Include/core_cm4.h"
 678              		.file 4 "Drivers/CMSIS/Device/ST/STM32G4xx/Include/system_stm32g4xx.h"
 679              		.file 5 "Drivers/CMSIS/Device/ST/STM32G4xx/Include/stm32g474xx.h"
 680              		.file 6 "Drivers/STM32G4xx_HAL_Driver/Inc/stm32g4xx_hal_def.h"
 681              		.file 7 "Drivers/STM32G4xx_HAL_Driver/Inc/stm32g4xx_hal_flash.h"
 682              		.file 8 "Drivers/STM32G4xx_HAL_Driver/Inc/stm32g4xx_hal_pwr.h"
 683              		.file 9 "Drivers/STM32G4xx_HAL_Driver/Inc/stm32g4xx_hal.h"
 684              		.file 10 "Drivers/STM32G4xx_HAL_Driver/Inc/stm32g4xx_hal_pwr_ex.h"
ARM GAS  /tmp/ccOygTIW.s 			page 24

