ARM GAS  /tmp/ccXi6E5C.s 			page 1


   1              		.cpu cortex-m4
   2              		.eabi_attribute 27, 1
   3              		.eabi_attribute 28, 1
   4              		.eabi_attribute 20, 1
   5              		.eabi_attribute 21, 1
   6              		.eabi_attribute 23, 3
   7              		.eabi_attribute 24, 1
   8              		.eabi_attribute 25, 1
   9              		.eabi_attribute 26, 1
  10              		.eabi_attribute 30, 1
  11              		.eabi_attribute 34, 1
  12              		.eabi_attribute 18, 4
  13              		.file	"stm32g4xx_hal_pcd.c"
  14              		.text
  15              	.Ltext0:
  16              		.cfi_sections	.debug_frame
  17              		.section	.text.HAL_PCD_MspInit,"ax",%progbits
  18              		.align	1
  19              		.weak	HAL_PCD_MspInit
  20              		.arch armv7e-m
  21              		.syntax unified
  22              		.thumb
  23              		.thumb_func
  24              		.fpu fpv4-sp-d16
  26              	HAL_PCD_MspInit:
  27              	.LVL0:
  28              	.LFB164:
  29              		.file 1 "Drivers/STM32G4xx_HAL_Driver/Src/stm32g4xx_hal_pcd.c"
   1:Drivers/STM32G4xx_HAL_Driver/Src/stm32g4xx_hal_pcd.c **** /**
   2:Drivers/STM32G4xx_HAL_Driver/Src/stm32g4xx_hal_pcd.c ****   ******************************************************************************
   3:Drivers/STM32G4xx_HAL_Driver/Src/stm32g4xx_hal_pcd.c ****   * @file    stm32g4xx_hal_pcd.c
   4:Drivers/STM32G4xx_HAL_Driver/Src/stm32g4xx_hal_pcd.c ****   * @author  MCD Application Team
   5:Drivers/STM32G4xx_HAL_Driver/Src/stm32g4xx_hal_pcd.c ****   * @brief   PCD HAL module driver.
   6:Drivers/STM32G4xx_HAL_Driver/Src/stm32g4xx_hal_pcd.c ****   *          This file provides firmware functions to manage the following
   7:Drivers/STM32G4xx_HAL_Driver/Src/stm32g4xx_hal_pcd.c ****   *          functionalities of the USB Peripheral Controller:
   8:Drivers/STM32G4xx_HAL_Driver/Src/stm32g4xx_hal_pcd.c ****   *           + Initialization and de-initialization functions
   9:Drivers/STM32G4xx_HAL_Driver/Src/stm32g4xx_hal_pcd.c ****   *           + IO operation functions
  10:Drivers/STM32G4xx_HAL_Driver/Src/stm32g4xx_hal_pcd.c ****   *           + Peripheral Control functions
  11:Drivers/STM32G4xx_HAL_Driver/Src/stm32g4xx_hal_pcd.c ****   *           + Peripheral State functions
  12:Drivers/STM32G4xx_HAL_Driver/Src/stm32g4xx_hal_pcd.c ****   *
  13:Drivers/STM32G4xx_HAL_Driver/Src/stm32g4xx_hal_pcd.c ****   @verbatim
  14:Drivers/STM32G4xx_HAL_Driver/Src/stm32g4xx_hal_pcd.c ****   ==============================================================================
  15:Drivers/STM32G4xx_HAL_Driver/Src/stm32g4xx_hal_pcd.c ****                     ##### How to use this driver #####
  16:Drivers/STM32G4xx_HAL_Driver/Src/stm32g4xx_hal_pcd.c ****   ==============================================================================
  17:Drivers/STM32G4xx_HAL_Driver/Src/stm32g4xx_hal_pcd.c ****     [..]
  18:Drivers/STM32G4xx_HAL_Driver/Src/stm32g4xx_hal_pcd.c ****       The PCD HAL driver can be used as follows:
  19:Drivers/STM32G4xx_HAL_Driver/Src/stm32g4xx_hal_pcd.c **** 
  20:Drivers/STM32G4xx_HAL_Driver/Src/stm32g4xx_hal_pcd.c ****      (#) Declare a PCD_HandleTypeDef handle structure, for example:
  21:Drivers/STM32G4xx_HAL_Driver/Src/stm32g4xx_hal_pcd.c ****          PCD_HandleTypeDef  hpcd;
  22:Drivers/STM32G4xx_HAL_Driver/Src/stm32g4xx_hal_pcd.c **** 
  23:Drivers/STM32G4xx_HAL_Driver/Src/stm32g4xx_hal_pcd.c ****      (#) Fill parameters of Init structure in HCD handle
  24:Drivers/STM32G4xx_HAL_Driver/Src/stm32g4xx_hal_pcd.c **** 
  25:Drivers/STM32G4xx_HAL_Driver/Src/stm32g4xx_hal_pcd.c ****      (#) Call HAL_PCD_Init() API to initialize the PCD peripheral (Core, Device core, ...)
  26:Drivers/STM32G4xx_HAL_Driver/Src/stm32g4xx_hal_pcd.c **** 
  27:Drivers/STM32G4xx_HAL_Driver/Src/stm32g4xx_hal_pcd.c ****      (#) Initialize the PCD low level resources through the HAL_PCD_MspInit() API:
  28:Drivers/STM32G4xx_HAL_Driver/Src/stm32g4xx_hal_pcd.c ****          (##) Enable the PCD/USB Low Level interface clock using
  29:Drivers/STM32G4xx_HAL_Driver/Src/stm32g4xx_hal_pcd.c ****               (+++) __HAL_RCC_USB_CLK_ENABLE(); For USB Device only FS peripheral
ARM GAS  /tmp/ccXi6E5C.s 			page 2


  30:Drivers/STM32G4xx_HAL_Driver/Src/stm32g4xx_hal_pcd.c **** 
  31:Drivers/STM32G4xx_HAL_Driver/Src/stm32g4xx_hal_pcd.c ****          (##) Initialize the related GPIO clocks
  32:Drivers/STM32G4xx_HAL_Driver/Src/stm32g4xx_hal_pcd.c ****          (##) Configure PCD pin-out
  33:Drivers/STM32G4xx_HAL_Driver/Src/stm32g4xx_hal_pcd.c ****          (##) Configure PCD NVIC interrupt
  34:Drivers/STM32G4xx_HAL_Driver/Src/stm32g4xx_hal_pcd.c **** 
  35:Drivers/STM32G4xx_HAL_Driver/Src/stm32g4xx_hal_pcd.c ****      (#)Associate the Upper USB device stack to the HAL PCD Driver:
  36:Drivers/STM32G4xx_HAL_Driver/Src/stm32g4xx_hal_pcd.c ****          (##) hpcd.pData = pdev;
  37:Drivers/STM32G4xx_HAL_Driver/Src/stm32g4xx_hal_pcd.c **** 
  38:Drivers/STM32G4xx_HAL_Driver/Src/stm32g4xx_hal_pcd.c ****      (#)Enable PCD transmission and reception:
  39:Drivers/STM32G4xx_HAL_Driver/Src/stm32g4xx_hal_pcd.c ****          (##) HAL_PCD_Start();
  40:Drivers/STM32G4xx_HAL_Driver/Src/stm32g4xx_hal_pcd.c **** 
  41:Drivers/STM32G4xx_HAL_Driver/Src/stm32g4xx_hal_pcd.c ****   @endverbatim
  42:Drivers/STM32G4xx_HAL_Driver/Src/stm32g4xx_hal_pcd.c ****   ******************************************************************************
  43:Drivers/STM32G4xx_HAL_Driver/Src/stm32g4xx_hal_pcd.c ****   * @attention
  44:Drivers/STM32G4xx_HAL_Driver/Src/stm32g4xx_hal_pcd.c ****   *
  45:Drivers/STM32G4xx_HAL_Driver/Src/stm32g4xx_hal_pcd.c ****   * <h2><center>&copy; Copyright (c) 2019 STMicroelectronics.
  46:Drivers/STM32G4xx_HAL_Driver/Src/stm32g4xx_hal_pcd.c ****   * All rights reserved.</center></h2>
  47:Drivers/STM32G4xx_HAL_Driver/Src/stm32g4xx_hal_pcd.c ****   *
  48:Drivers/STM32G4xx_HAL_Driver/Src/stm32g4xx_hal_pcd.c ****   * This software component is licensed by ST under BSD 3-Clause license,
  49:Drivers/STM32G4xx_HAL_Driver/Src/stm32g4xx_hal_pcd.c ****   * the "License"; You may not use this file except in compliance with the
  50:Drivers/STM32G4xx_HAL_Driver/Src/stm32g4xx_hal_pcd.c ****   * License. You may obtain a copy of the License at:
  51:Drivers/STM32G4xx_HAL_Driver/Src/stm32g4xx_hal_pcd.c ****   *                        opensource.org/licenses/BSD-3-Clause
  52:Drivers/STM32G4xx_HAL_Driver/Src/stm32g4xx_hal_pcd.c ****   *
  53:Drivers/STM32G4xx_HAL_Driver/Src/stm32g4xx_hal_pcd.c ****   ******************************************************************************
  54:Drivers/STM32G4xx_HAL_Driver/Src/stm32g4xx_hal_pcd.c ****   */
  55:Drivers/STM32G4xx_HAL_Driver/Src/stm32g4xx_hal_pcd.c **** 
  56:Drivers/STM32G4xx_HAL_Driver/Src/stm32g4xx_hal_pcd.c **** /* Includes ------------------------------------------------------------------*/
  57:Drivers/STM32G4xx_HAL_Driver/Src/stm32g4xx_hal_pcd.c **** #include "stm32g4xx_hal.h"
  58:Drivers/STM32G4xx_HAL_Driver/Src/stm32g4xx_hal_pcd.c **** 
  59:Drivers/STM32G4xx_HAL_Driver/Src/stm32g4xx_hal_pcd.c **** /** @addtogroup STM32G4xx_HAL_Driver
  60:Drivers/STM32G4xx_HAL_Driver/Src/stm32g4xx_hal_pcd.c ****   * @{
  61:Drivers/STM32G4xx_HAL_Driver/Src/stm32g4xx_hal_pcd.c ****   */
  62:Drivers/STM32G4xx_HAL_Driver/Src/stm32g4xx_hal_pcd.c **** 
  63:Drivers/STM32G4xx_HAL_Driver/Src/stm32g4xx_hal_pcd.c **** /** @defgroup PCD PCD
  64:Drivers/STM32G4xx_HAL_Driver/Src/stm32g4xx_hal_pcd.c ****   * @brief PCD HAL module driver
  65:Drivers/STM32G4xx_HAL_Driver/Src/stm32g4xx_hal_pcd.c ****   * @{
  66:Drivers/STM32G4xx_HAL_Driver/Src/stm32g4xx_hal_pcd.c ****   */
  67:Drivers/STM32G4xx_HAL_Driver/Src/stm32g4xx_hal_pcd.c **** 
  68:Drivers/STM32G4xx_HAL_Driver/Src/stm32g4xx_hal_pcd.c **** #ifdef HAL_PCD_MODULE_ENABLED
  69:Drivers/STM32G4xx_HAL_Driver/Src/stm32g4xx_hal_pcd.c **** 
  70:Drivers/STM32G4xx_HAL_Driver/Src/stm32g4xx_hal_pcd.c **** #if defined (USB)
  71:Drivers/STM32G4xx_HAL_Driver/Src/stm32g4xx_hal_pcd.c **** 
  72:Drivers/STM32G4xx_HAL_Driver/Src/stm32g4xx_hal_pcd.c **** /* Private types -------------------------------------------------------------*/
  73:Drivers/STM32G4xx_HAL_Driver/Src/stm32g4xx_hal_pcd.c **** /* Private variables ---------------------------------------------------------*/
  74:Drivers/STM32G4xx_HAL_Driver/Src/stm32g4xx_hal_pcd.c **** /* Private constants ---------------------------------------------------------*/
  75:Drivers/STM32G4xx_HAL_Driver/Src/stm32g4xx_hal_pcd.c **** /* Private macros ------------------------------------------------------------*/
  76:Drivers/STM32G4xx_HAL_Driver/Src/stm32g4xx_hal_pcd.c **** /** @defgroup PCD_Private_Macros PCD Private Macros
  77:Drivers/STM32G4xx_HAL_Driver/Src/stm32g4xx_hal_pcd.c ****   * @{
  78:Drivers/STM32G4xx_HAL_Driver/Src/stm32g4xx_hal_pcd.c ****   */
  79:Drivers/STM32G4xx_HAL_Driver/Src/stm32g4xx_hal_pcd.c **** #define PCD_MIN(a, b)  (((a) < (b)) ? (a) : (b))
  80:Drivers/STM32G4xx_HAL_Driver/Src/stm32g4xx_hal_pcd.c **** #define PCD_MAX(a, b)  (((a) > (b)) ? (a) : (b))
  81:Drivers/STM32G4xx_HAL_Driver/Src/stm32g4xx_hal_pcd.c **** /**
  82:Drivers/STM32G4xx_HAL_Driver/Src/stm32g4xx_hal_pcd.c ****   * @}
  83:Drivers/STM32G4xx_HAL_Driver/Src/stm32g4xx_hal_pcd.c ****   */
  84:Drivers/STM32G4xx_HAL_Driver/Src/stm32g4xx_hal_pcd.c **** 
  85:Drivers/STM32G4xx_HAL_Driver/Src/stm32g4xx_hal_pcd.c **** /* Private functions prototypes ----------------------------------------------*/
  86:Drivers/STM32G4xx_HAL_Driver/Src/stm32g4xx_hal_pcd.c **** /** @defgroup PCD_Private_Functions PCD Private Functions
ARM GAS  /tmp/ccXi6E5C.s 			page 3


  87:Drivers/STM32G4xx_HAL_Driver/Src/stm32g4xx_hal_pcd.c ****   * @{
  88:Drivers/STM32G4xx_HAL_Driver/Src/stm32g4xx_hal_pcd.c ****   */
  89:Drivers/STM32G4xx_HAL_Driver/Src/stm32g4xx_hal_pcd.c **** 
  90:Drivers/STM32G4xx_HAL_Driver/Src/stm32g4xx_hal_pcd.c **** static HAL_StatusTypeDef PCD_EP_ISR_Handler(PCD_HandleTypeDef *hpcd);
  91:Drivers/STM32G4xx_HAL_Driver/Src/stm32g4xx_hal_pcd.c **** 
  92:Drivers/STM32G4xx_HAL_Driver/Src/stm32g4xx_hal_pcd.c **** /**
  93:Drivers/STM32G4xx_HAL_Driver/Src/stm32g4xx_hal_pcd.c ****   * @}
  94:Drivers/STM32G4xx_HAL_Driver/Src/stm32g4xx_hal_pcd.c ****   */
  95:Drivers/STM32G4xx_HAL_Driver/Src/stm32g4xx_hal_pcd.c **** 
  96:Drivers/STM32G4xx_HAL_Driver/Src/stm32g4xx_hal_pcd.c **** /* Exported functions --------------------------------------------------------*/
  97:Drivers/STM32G4xx_HAL_Driver/Src/stm32g4xx_hal_pcd.c **** /** @defgroup PCD_Exported_Functions PCD Exported Functions
  98:Drivers/STM32G4xx_HAL_Driver/Src/stm32g4xx_hal_pcd.c ****   * @{
  99:Drivers/STM32G4xx_HAL_Driver/Src/stm32g4xx_hal_pcd.c ****   */
 100:Drivers/STM32G4xx_HAL_Driver/Src/stm32g4xx_hal_pcd.c **** 
 101:Drivers/STM32G4xx_HAL_Driver/Src/stm32g4xx_hal_pcd.c **** /** @defgroup PCD_Exported_Functions_Group1 Initialization and de-initialization functions
 102:Drivers/STM32G4xx_HAL_Driver/Src/stm32g4xx_hal_pcd.c ****  *  @brief    Initialization and Configuration functions
 103:Drivers/STM32G4xx_HAL_Driver/Src/stm32g4xx_hal_pcd.c ****  *
 104:Drivers/STM32G4xx_HAL_Driver/Src/stm32g4xx_hal_pcd.c **** @verbatim
 105:Drivers/STM32G4xx_HAL_Driver/Src/stm32g4xx_hal_pcd.c ****  ===============================================================================
 106:Drivers/STM32G4xx_HAL_Driver/Src/stm32g4xx_hal_pcd.c ****             ##### Initialization and de-initialization functions #####
 107:Drivers/STM32G4xx_HAL_Driver/Src/stm32g4xx_hal_pcd.c ****  ===============================================================================
 108:Drivers/STM32G4xx_HAL_Driver/Src/stm32g4xx_hal_pcd.c ****     [..]  This section provides functions allowing to:
 109:Drivers/STM32G4xx_HAL_Driver/Src/stm32g4xx_hal_pcd.c **** 
 110:Drivers/STM32G4xx_HAL_Driver/Src/stm32g4xx_hal_pcd.c **** @endverbatim
 111:Drivers/STM32G4xx_HAL_Driver/Src/stm32g4xx_hal_pcd.c ****   * @{
 112:Drivers/STM32G4xx_HAL_Driver/Src/stm32g4xx_hal_pcd.c ****   */
 113:Drivers/STM32G4xx_HAL_Driver/Src/stm32g4xx_hal_pcd.c **** 
 114:Drivers/STM32G4xx_HAL_Driver/Src/stm32g4xx_hal_pcd.c **** /**
 115:Drivers/STM32G4xx_HAL_Driver/Src/stm32g4xx_hal_pcd.c ****   * @brief  Initializes the PCD according to the specified
 116:Drivers/STM32G4xx_HAL_Driver/Src/stm32g4xx_hal_pcd.c ****   *         parameters in the PCD_InitTypeDef and initialize the associated handle.
 117:Drivers/STM32G4xx_HAL_Driver/Src/stm32g4xx_hal_pcd.c ****   * @param  hpcd PCD handle
 118:Drivers/STM32G4xx_HAL_Driver/Src/stm32g4xx_hal_pcd.c ****   * @retval HAL status
 119:Drivers/STM32G4xx_HAL_Driver/Src/stm32g4xx_hal_pcd.c ****   */
 120:Drivers/STM32G4xx_HAL_Driver/Src/stm32g4xx_hal_pcd.c **** HAL_StatusTypeDef HAL_PCD_Init(PCD_HandleTypeDef *hpcd)
 121:Drivers/STM32G4xx_HAL_Driver/Src/stm32g4xx_hal_pcd.c **** {
 122:Drivers/STM32G4xx_HAL_Driver/Src/stm32g4xx_hal_pcd.c ****   uint8_t i;
 123:Drivers/STM32G4xx_HAL_Driver/Src/stm32g4xx_hal_pcd.c **** 
 124:Drivers/STM32G4xx_HAL_Driver/Src/stm32g4xx_hal_pcd.c ****   /* Check the PCD handle allocation */
 125:Drivers/STM32G4xx_HAL_Driver/Src/stm32g4xx_hal_pcd.c ****   if (hpcd == NULL)
 126:Drivers/STM32G4xx_HAL_Driver/Src/stm32g4xx_hal_pcd.c ****   {
 127:Drivers/STM32G4xx_HAL_Driver/Src/stm32g4xx_hal_pcd.c ****     return HAL_ERROR;
 128:Drivers/STM32G4xx_HAL_Driver/Src/stm32g4xx_hal_pcd.c ****   }
 129:Drivers/STM32G4xx_HAL_Driver/Src/stm32g4xx_hal_pcd.c **** 
 130:Drivers/STM32G4xx_HAL_Driver/Src/stm32g4xx_hal_pcd.c ****   /* Check the parameters */
 131:Drivers/STM32G4xx_HAL_Driver/Src/stm32g4xx_hal_pcd.c ****   assert_param(IS_PCD_ALL_INSTANCE(hpcd->Instance));
 132:Drivers/STM32G4xx_HAL_Driver/Src/stm32g4xx_hal_pcd.c **** 
 133:Drivers/STM32G4xx_HAL_Driver/Src/stm32g4xx_hal_pcd.c ****   if (hpcd->State == HAL_PCD_STATE_RESET)
 134:Drivers/STM32G4xx_HAL_Driver/Src/stm32g4xx_hal_pcd.c ****   {
 135:Drivers/STM32G4xx_HAL_Driver/Src/stm32g4xx_hal_pcd.c ****     /* Allocate lock resource and initialize it */
 136:Drivers/STM32G4xx_HAL_Driver/Src/stm32g4xx_hal_pcd.c ****     hpcd->Lock = HAL_UNLOCKED;
 137:Drivers/STM32G4xx_HAL_Driver/Src/stm32g4xx_hal_pcd.c **** 
 138:Drivers/STM32G4xx_HAL_Driver/Src/stm32g4xx_hal_pcd.c **** #if (USE_HAL_PCD_REGISTER_CALLBACKS == 1U)
 139:Drivers/STM32G4xx_HAL_Driver/Src/stm32g4xx_hal_pcd.c ****     hpcd->SOFCallback = HAL_PCD_SOFCallback;
 140:Drivers/STM32G4xx_HAL_Driver/Src/stm32g4xx_hal_pcd.c ****     hpcd->SetupStageCallback = HAL_PCD_SetupStageCallback;
 141:Drivers/STM32G4xx_HAL_Driver/Src/stm32g4xx_hal_pcd.c ****     hpcd->ResetCallback = HAL_PCD_ResetCallback;
 142:Drivers/STM32G4xx_HAL_Driver/Src/stm32g4xx_hal_pcd.c ****     hpcd->SuspendCallback = HAL_PCD_SuspendCallback;
 143:Drivers/STM32G4xx_HAL_Driver/Src/stm32g4xx_hal_pcd.c ****     hpcd->ResumeCallback = HAL_PCD_ResumeCallback;
ARM GAS  /tmp/ccXi6E5C.s 			page 4


 144:Drivers/STM32G4xx_HAL_Driver/Src/stm32g4xx_hal_pcd.c ****     hpcd->ConnectCallback = HAL_PCD_ConnectCallback;
 145:Drivers/STM32G4xx_HAL_Driver/Src/stm32g4xx_hal_pcd.c ****     hpcd->DisconnectCallback = HAL_PCD_DisconnectCallback;
 146:Drivers/STM32G4xx_HAL_Driver/Src/stm32g4xx_hal_pcd.c ****     hpcd->DataOutStageCallback = HAL_PCD_DataOutStageCallback;
 147:Drivers/STM32G4xx_HAL_Driver/Src/stm32g4xx_hal_pcd.c ****     hpcd->DataInStageCallback = HAL_PCD_DataInStageCallback;
 148:Drivers/STM32G4xx_HAL_Driver/Src/stm32g4xx_hal_pcd.c ****     hpcd->ISOOUTIncompleteCallback = HAL_PCD_ISOOUTIncompleteCallback;
 149:Drivers/STM32G4xx_HAL_Driver/Src/stm32g4xx_hal_pcd.c ****     hpcd->ISOINIncompleteCallback = HAL_PCD_ISOINIncompleteCallback;
 150:Drivers/STM32G4xx_HAL_Driver/Src/stm32g4xx_hal_pcd.c ****     hpcd->LPMCallback = HAL_PCDEx_LPM_Callback;
 151:Drivers/STM32G4xx_HAL_Driver/Src/stm32g4xx_hal_pcd.c ****     hpcd->BCDCallback = HAL_PCDEx_BCD_Callback;
 152:Drivers/STM32G4xx_HAL_Driver/Src/stm32g4xx_hal_pcd.c **** 
 153:Drivers/STM32G4xx_HAL_Driver/Src/stm32g4xx_hal_pcd.c ****     if (hpcd->MspInitCallback == NULL)
 154:Drivers/STM32G4xx_HAL_Driver/Src/stm32g4xx_hal_pcd.c ****     {
 155:Drivers/STM32G4xx_HAL_Driver/Src/stm32g4xx_hal_pcd.c ****       hpcd->MspInitCallback = HAL_PCD_MspInit;
 156:Drivers/STM32G4xx_HAL_Driver/Src/stm32g4xx_hal_pcd.c ****     }
 157:Drivers/STM32G4xx_HAL_Driver/Src/stm32g4xx_hal_pcd.c **** 
 158:Drivers/STM32G4xx_HAL_Driver/Src/stm32g4xx_hal_pcd.c ****     /* Init the low level hardware */
 159:Drivers/STM32G4xx_HAL_Driver/Src/stm32g4xx_hal_pcd.c ****     hpcd->MspInitCallback(hpcd);
 160:Drivers/STM32G4xx_HAL_Driver/Src/stm32g4xx_hal_pcd.c **** #else
 161:Drivers/STM32G4xx_HAL_Driver/Src/stm32g4xx_hal_pcd.c ****     /* Init the low level hardware : GPIO, CLOCK, NVIC... */
 162:Drivers/STM32G4xx_HAL_Driver/Src/stm32g4xx_hal_pcd.c ****     HAL_PCD_MspInit(hpcd);
 163:Drivers/STM32G4xx_HAL_Driver/Src/stm32g4xx_hal_pcd.c **** #endif /* (USE_HAL_PCD_REGISTER_CALLBACKS) */
 164:Drivers/STM32G4xx_HAL_Driver/Src/stm32g4xx_hal_pcd.c ****   }
 165:Drivers/STM32G4xx_HAL_Driver/Src/stm32g4xx_hal_pcd.c **** 
 166:Drivers/STM32G4xx_HAL_Driver/Src/stm32g4xx_hal_pcd.c ****   hpcd->State = HAL_PCD_STATE_BUSY;
 167:Drivers/STM32G4xx_HAL_Driver/Src/stm32g4xx_hal_pcd.c **** 
 168:Drivers/STM32G4xx_HAL_Driver/Src/stm32g4xx_hal_pcd.c ****   /* Disable the Interrupts */
 169:Drivers/STM32G4xx_HAL_Driver/Src/stm32g4xx_hal_pcd.c ****   __HAL_PCD_DISABLE(hpcd);
 170:Drivers/STM32G4xx_HAL_Driver/Src/stm32g4xx_hal_pcd.c **** 
 171:Drivers/STM32G4xx_HAL_Driver/Src/stm32g4xx_hal_pcd.c ****   /* Init endpoints structures */
 172:Drivers/STM32G4xx_HAL_Driver/Src/stm32g4xx_hal_pcd.c ****   for (i = 0U; i < hpcd->Init.dev_endpoints; i++)
 173:Drivers/STM32G4xx_HAL_Driver/Src/stm32g4xx_hal_pcd.c ****   {
 174:Drivers/STM32G4xx_HAL_Driver/Src/stm32g4xx_hal_pcd.c ****     /* Init ep structure */
 175:Drivers/STM32G4xx_HAL_Driver/Src/stm32g4xx_hal_pcd.c ****     hpcd->IN_ep[i].is_in = 1U;
 176:Drivers/STM32G4xx_HAL_Driver/Src/stm32g4xx_hal_pcd.c ****     hpcd->IN_ep[i].num = i;
 177:Drivers/STM32G4xx_HAL_Driver/Src/stm32g4xx_hal_pcd.c ****     hpcd->IN_ep[i].tx_fifo_num = i;
 178:Drivers/STM32G4xx_HAL_Driver/Src/stm32g4xx_hal_pcd.c ****     /* Control until ep is activated */
 179:Drivers/STM32G4xx_HAL_Driver/Src/stm32g4xx_hal_pcd.c ****     hpcd->IN_ep[i].type = EP_TYPE_CTRL;
 180:Drivers/STM32G4xx_HAL_Driver/Src/stm32g4xx_hal_pcd.c ****     hpcd->IN_ep[i].maxpacket = 0U;
 181:Drivers/STM32G4xx_HAL_Driver/Src/stm32g4xx_hal_pcd.c ****     hpcd->IN_ep[i].xfer_buff = 0U;
 182:Drivers/STM32G4xx_HAL_Driver/Src/stm32g4xx_hal_pcd.c ****     hpcd->IN_ep[i].xfer_len = 0U;
 183:Drivers/STM32G4xx_HAL_Driver/Src/stm32g4xx_hal_pcd.c ****   }
 184:Drivers/STM32G4xx_HAL_Driver/Src/stm32g4xx_hal_pcd.c **** 
 185:Drivers/STM32G4xx_HAL_Driver/Src/stm32g4xx_hal_pcd.c ****   for (i = 0U; i < hpcd->Init.dev_endpoints; i++)
 186:Drivers/STM32G4xx_HAL_Driver/Src/stm32g4xx_hal_pcd.c ****   {
 187:Drivers/STM32G4xx_HAL_Driver/Src/stm32g4xx_hal_pcd.c ****     hpcd->OUT_ep[i].is_in = 0U;
 188:Drivers/STM32G4xx_HAL_Driver/Src/stm32g4xx_hal_pcd.c ****     hpcd->OUT_ep[i].num = i;
 189:Drivers/STM32G4xx_HAL_Driver/Src/stm32g4xx_hal_pcd.c ****     /* Control until ep is activated */
 190:Drivers/STM32G4xx_HAL_Driver/Src/stm32g4xx_hal_pcd.c ****     hpcd->OUT_ep[i].type = EP_TYPE_CTRL;
 191:Drivers/STM32G4xx_HAL_Driver/Src/stm32g4xx_hal_pcd.c ****     hpcd->OUT_ep[i].maxpacket = 0U;
 192:Drivers/STM32G4xx_HAL_Driver/Src/stm32g4xx_hal_pcd.c ****     hpcd->OUT_ep[i].xfer_buff = 0U;
 193:Drivers/STM32G4xx_HAL_Driver/Src/stm32g4xx_hal_pcd.c ****     hpcd->OUT_ep[i].xfer_len = 0U;
 194:Drivers/STM32G4xx_HAL_Driver/Src/stm32g4xx_hal_pcd.c ****   }
 195:Drivers/STM32G4xx_HAL_Driver/Src/stm32g4xx_hal_pcd.c **** 
 196:Drivers/STM32G4xx_HAL_Driver/Src/stm32g4xx_hal_pcd.c ****   /* Init Device */
 197:Drivers/STM32G4xx_HAL_Driver/Src/stm32g4xx_hal_pcd.c ****   (void)USB_DevInit(hpcd->Instance, hpcd->Init);
 198:Drivers/STM32G4xx_HAL_Driver/Src/stm32g4xx_hal_pcd.c **** 
 199:Drivers/STM32G4xx_HAL_Driver/Src/stm32g4xx_hal_pcd.c ****   hpcd->USB_Address = 0U;
 200:Drivers/STM32G4xx_HAL_Driver/Src/stm32g4xx_hal_pcd.c ****   hpcd->State = HAL_PCD_STATE_READY;
ARM GAS  /tmp/ccXi6E5C.s 			page 5


 201:Drivers/STM32G4xx_HAL_Driver/Src/stm32g4xx_hal_pcd.c ****   
 202:Drivers/STM32G4xx_HAL_Driver/Src/stm32g4xx_hal_pcd.c ****   /* Activate LPM */
 203:Drivers/STM32G4xx_HAL_Driver/Src/stm32g4xx_hal_pcd.c ****   if (hpcd->Init.lpm_enable == 1U)
 204:Drivers/STM32G4xx_HAL_Driver/Src/stm32g4xx_hal_pcd.c ****   {
 205:Drivers/STM32G4xx_HAL_Driver/Src/stm32g4xx_hal_pcd.c ****     (void)HAL_PCDEx_ActivateLPM(hpcd);
 206:Drivers/STM32G4xx_HAL_Driver/Src/stm32g4xx_hal_pcd.c ****   }
 207:Drivers/STM32G4xx_HAL_Driver/Src/stm32g4xx_hal_pcd.c ****   
 208:Drivers/STM32G4xx_HAL_Driver/Src/stm32g4xx_hal_pcd.c ****   return HAL_OK;
 209:Drivers/STM32G4xx_HAL_Driver/Src/stm32g4xx_hal_pcd.c **** }
 210:Drivers/STM32G4xx_HAL_Driver/Src/stm32g4xx_hal_pcd.c **** 
 211:Drivers/STM32G4xx_HAL_Driver/Src/stm32g4xx_hal_pcd.c **** /**
 212:Drivers/STM32G4xx_HAL_Driver/Src/stm32g4xx_hal_pcd.c ****   * @brief  DeInitializes the PCD peripheral.
 213:Drivers/STM32G4xx_HAL_Driver/Src/stm32g4xx_hal_pcd.c ****   * @param  hpcd PCD handle
 214:Drivers/STM32G4xx_HAL_Driver/Src/stm32g4xx_hal_pcd.c ****   * @retval HAL status
 215:Drivers/STM32G4xx_HAL_Driver/Src/stm32g4xx_hal_pcd.c ****   */
 216:Drivers/STM32G4xx_HAL_Driver/Src/stm32g4xx_hal_pcd.c **** HAL_StatusTypeDef HAL_PCD_DeInit(PCD_HandleTypeDef *hpcd)
 217:Drivers/STM32G4xx_HAL_Driver/Src/stm32g4xx_hal_pcd.c **** {
 218:Drivers/STM32G4xx_HAL_Driver/Src/stm32g4xx_hal_pcd.c ****   /* Check the PCD handle allocation */
 219:Drivers/STM32G4xx_HAL_Driver/Src/stm32g4xx_hal_pcd.c ****   if (hpcd == NULL)
 220:Drivers/STM32G4xx_HAL_Driver/Src/stm32g4xx_hal_pcd.c ****   {
 221:Drivers/STM32G4xx_HAL_Driver/Src/stm32g4xx_hal_pcd.c ****     return HAL_ERROR;
 222:Drivers/STM32G4xx_HAL_Driver/Src/stm32g4xx_hal_pcd.c ****   }
 223:Drivers/STM32G4xx_HAL_Driver/Src/stm32g4xx_hal_pcd.c **** 
 224:Drivers/STM32G4xx_HAL_Driver/Src/stm32g4xx_hal_pcd.c ****   hpcd->State = HAL_PCD_STATE_BUSY;
 225:Drivers/STM32G4xx_HAL_Driver/Src/stm32g4xx_hal_pcd.c **** 
 226:Drivers/STM32G4xx_HAL_Driver/Src/stm32g4xx_hal_pcd.c ****   /* Stop Device */
 227:Drivers/STM32G4xx_HAL_Driver/Src/stm32g4xx_hal_pcd.c ****   (void)HAL_PCD_Stop(hpcd);
 228:Drivers/STM32G4xx_HAL_Driver/Src/stm32g4xx_hal_pcd.c **** 
 229:Drivers/STM32G4xx_HAL_Driver/Src/stm32g4xx_hal_pcd.c **** #if (USE_HAL_PCD_REGISTER_CALLBACKS == 1U)
 230:Drivers/STM32G4xx_HAL_Driver/Src/stm32g4xx_hal_pcd.c ****   if (hpcd->MspDeInitCallback == NULL)
 231:Drivers/STM32G4xx_HAL_Driver/Src/stm32g4xx_hal_pcd.c ****   {
 232:Drivers/STM32G4xx_HAL_Driver/Src/stm32g4xx_hal_pcd.c ****     hpcd->MspDeInitCallback = HAL_PCD_MspDeInit; /* Legacy weak MspDeInit  */
 233:Drivers/STM32G4xx_HAL_Driver/Src/stm32g4xx_hal_pcd.c ****   }
 234:Drivers/STM32G4xx_HAL_Driver/Src/stm32g4xx_hal_pcd.c **** 
 235:Drivers/STM32G4xx_HAL_Driver/Src/stm32g4xx_hal_pcd.c ****   /* DeInit the low level hardware */
 236:Drivers/STM32G4xx_HAL_Driver/Src/stm32g4xx_hal_pcd.c ****   hpcd->MspDeInitCallback(hpcd);
 237:Drivers/STM32G4xx_HAL_Driver/Src/stm32g4xx_hal_pcd.c **** #else
 238:Drivers/STM32G4xx_HAL_Driver/Src/stm32g4xx_hal_pcd.c ****   /* DeInit the low level hardware: CLOCK, NVIC.*/
 239:Drivers/STM32G4xx_HAL_Driver/Src/stm32g4xx_hal_pcd.c ****   HAL_PCD_MspDeInit(hpcd);
 240:Drivers/STM32G4xx_HAL_Driver/Src/stm32g4xx_hal_pcd.c **** #endif /* USE_HAL_PCD_REGISTER_CALLBACKS */
 241:Drivers/STM32G4xx_HAL_Driver/Src/stm32g4xx_hal_pcd.c **** 
 242:Drivers/STM32G4xx_HAL_Driver/Src/stm32g4xx_hal_pcd.c ****   hpcd->State = HAL_PCD_STATE_RESET;
 243:Drivers/STM32G4xx_HAL_Driver/Src/stm32g4xx_hal_pcd.c **** 
 244:Drivers/STM32G4xx_HAL_Driver/Src/stm32g4xx_hal_pcd.c ****   return HAL_OK;
 245:Drivers/STM32G4xx_HAL_Driver/Src/stm32g4xx_hal_pcd.c **** }
 246:Drivers/STM32G4xx_HAL_Driver/Src/stm32g4xx_hal_pcd.c **** 
 247:Drivers/STM32G4xx_HAL_Driver/Src/stm32g4xx_hal_pcd.c **** /**
 248:Drivers/STM32G4xx_HAL_Driver/Src/stm32g4xx_hal_pcd.c ****   * @brief  Initializes the PCD MSP.
 249:Drivers/STM32G4xx_HAL_Driver/Src/stm32g4xx_hal_pcd.c ****   * @param  hpcd PCD handle
 250:Drivers/STM32G4xx_HAL_Driver/Src/stm32g4xx_hal_pcd.c ****   * @retval None
 251:Drivers/STM32G4xx_HAL_Driver/Src/stm32g4xx_hal_pcd.c ****   */
 252:Drivers/STM32G4xx_HAL_Driver/Src/stm32g4xx_hal_pcd.c **** __weak void HAL_PCD_MspInit(PCD_HandleTypeDef *hpcd)
 253:Drivers/STM32G4xx_HAL_Driver/Src/stm32g4xx_hal_pcd.c **** {
  30              		.loc 1 253 1 view -0
  31              		.cfi_startproc
  32              		@ args = 0, pretend = 0, frame = 0
  33              		@ frame_needed = 0, uses_anonymous_args = 0
ARM GAS  /tmp/ccXi6E5C.s 			page 6


  34              		@ link register save eliminated.
 254:Drivers/STM32G4xx_HAL_Driver/Src/stm32g4xx_hal_pcd.c ****   /* Prevent unused argument(s) compilation warning */
 255:Drivers/STM32G4xx_HAL_Driver/Src/stm32g4xx_hal_pcd.c ****   UNUSED(hpcd);
  35              		.loc 1 255 3 view .LVU1
 256:Drivers/STM32G4xx_HAL_Driver/Src/stm32g4xx_hal_pcd.c **** 
 257:Drivers/STM32G4xx_HAL_Driver/Src/stm32g4xx_hal_pcd.c ****   /* NOTE : This function should not be modified, when the callback is needed,
 258:Drivers/STM32G4xx_HAL_Driver/Src/stm32g4xx_hal_pcd.c ****             the HAL_PCD_MspInit could be implemented in the user file
 259:Drivers/STM32G4xx_HAL_Driver/Src/stm32g4xx_hal_pcd.c ****    */
 260:Drivers/STM32G4xx_HAL_Driver/Src/stm32g4xx_hal_pcd.c **** }
  36              		.loc 1 260 1 is_stmt 0 view .LVU2
  37 0000 7047     		bx	lr
  38              		.cfi_endproc
  39              	.LFE164:
  41              		.section	.text.HAL_PCD_Init,"ax",%progbits
  42              		.align	1
  43              		.global	HAL_PCD_Init
  44              		.syntax unified
  45              		.thumb
  46              		.thumb_func
  47              		.fpu fpv4-sp-d16
  49              	HAL_PCD_Init:
  50              	.LVL1:
  51              	.LFB162:
 121:Drivers/STM32G4xx_HAL_Driver/Src/stm32g4xx_hal_pcd.c ****   uint8_t i;
  52              		.loc 1 121 1 is_stmt 1 view -0
  53              		.cfi_startproc
  54              		@ args = 0, pretend = 0, frame = 0
  55              		@ frame_needed = 0, uses_anonymous_args = 0
 122:Drivers/STM32G4xx_HAL_Driver/Src/stm32g4xx_hal_pcd.c **** 
  56              		.loc 1 122 3 view .LVU4
 125:Drivers/STM32G4xx_HAL_Driver/Src/stm32g4xx_hal_pcd.c ****   {
  57              		.loc 1 125 3 view .LVU5
 125:Drivers/STM32G4xx_HAL_Driver/Src/stm32g4xx_hal_pcd.c ****   {
  58              		.loc 1 125 6 is_stmt 0 view .LVU6
  59 0000 0028     		cmp	r0, #0
  60 0002 5CD0     		beq	.L9
 121:Drivers/STM32G4xx_HAL_Driver/Src/stm32g4xx_hal_pcd.c ****   uint8_t i;
  61              		.loc 1 121 1 view .LVU7
  62 0004 F0B5     		push	{r4, r5, r6, r7, lr}
  63              	.LCFI0:
  64              		.cfi_def_cfa_offset 20
  65              		.cfi_offset 4, -20
  66              		.cfi_offset 5, -16
  67              		.cfi_offset 6, -12
  68              		.cfi_offset 7, -8
  69              		.cfi_offset 14, -4
  70 0006 87B0     		sub	sp, sp, #28
  71              	.LCFI1:
  72              		.cfi_def_cfa_offset 48
  73 0008 0446     		mov	r4, r0
 131:Drivers/STM32G4xx_HAL_Driver/Src/stm32g4xx_hal_pcd.c **** 
  74              		.loc 1 131 3 is_stmt 1 view .LVU8
 133:Drivers/STM32G4xx_HAL_Driver/Src/stm32g4xx_hal_pcd.c ****   {
  75              		.loc 1 133 3 view .LVU9
 133:Drivers/STM32G4xx_HAL_Driver/Src/stm32g4xx_hal_pcd.c ****   {
  76              		.loc 1 133 11 is_stmt 0 view .LVU10
  77 000a 90F82932 		ldrb	r3, [r0, #553]	@ zero_extendqisi2
ARM GAS  /tmp/ccXi6E5C.s 			page 7


 133:Drivers/STM32G4xx_HAL_Driver/Src/stm32g4xx_hal_pcd.c ****   {
  78              		.loc 1 133 6 view .LVU11
  79 000e E3B1     		cbz	r3, .L15
  80              	.LVL2:
  81              	.L4:
 166:Drivers/STM32G4xx_HAL_Driver/Src/stm32g4xx_hal_pcd.c **** 
  82              		.loc 1 166 3 is_stmt 1 view .LVU12
 166:Drivers/STM32G4xx_HAL_Driver/Src/stm32g4xx_hal_pcd.c **** 
  83              		.loc 1 166 15 is_stmt 0 view .LVU13
  84 0010 0323     		movs	r3, #3
  85 0012 84F82932 		strb	r3, [r4, #553]
 169:Drivers/STM32G4xx_HAL_Driver/Src/stm32g4xx_hal_pcd.c **** 
  86              		.loc 1 169 3 is_stmt 1 view .LVU14
  87 0016 2068     		ldr	r0, [r4]
  88 0018 FFF7FEFF 		bl	USB_DisableGlobalInt
  89              	.LVL3:
 172:Drivers/STM32G4xx_HAL_Driver/Src/stm32g4xx_hal_pcd.c ****   {
  90              		.loc 1 172 3 view .LVU15
 172:Drivers/STM32G4xx_HAL_Driver/Src/stm32g4xx_hal_pcd.c ****   {
  91              		.loc 1 172 10 is_stmt 0 view .LVU16
  92 001c 0023     		movs	r3, #0
  93              	.LVL4:
  94              	.L5:
 172:Drivers/STM32G4xx_HAL_Driver/Src/stm32g4xx_hal_pcd.c ****   {
  95              		.loc 1 172 16 is_stmt 1 discriminator 1 view .LVU17
 172:Drivers/STM32G4xx_HAL_Driver/Src/stm32g4xx_hal_pcd.c ****   {
  96              		.loc 1 172 30 is_stmt 0 discriminator 1 view .LVU18
  97 001e 6068     		ldr	r0, [r4, #4]
 172:Drivers/STM32G4xx_HAL_Driver/Src/stm32g4xx_hal_pcd.c ****   {
  98              		.loc 1 172 3 discriminator 1 view .LVU19
  99 0020 8342     		cmp	r3, r0
 100 0022 17D2     		bcs	.L16
 175:Drivers/STM32G4xx_HAL_Driver/Src/stm32g4xx_hal_pcd.c ****     hpcd->IN_ep[i].num = i;
 101              		.loc 1 175 5 is_stmt 1 discriminator 3 view .LVU20
 175:Drivers/STM32G4xx_HAL_Driver/Src/stm32g4xx_hal_pcd.c ****     hpcd->IN_ep[i].num = i;
 102              		.loc 1 175 26 is_stmt 0 discriminator 3 view .LVU21
 103 0024 04EB4312 		add	r2, r4, r3, lsl #5
 104 0028 0121     		movs	r1, #1
 105 002a 82F82910 		strb	r1, [r2, #41]
 176:Drivers/STM32G4xx_HAL_Driver/Src/stm32g4xx_hal_pcd.c ****     hpcd->IN_ep[i].tx_fifo_num = i;
 106              		.loc 1 176 5 is_stmt 1 discriminator 3 view .LVU22
 176:Drivers/STM32G4xx_HAL_Driver/Src/stm32g4xx_hal_pcd.c ****     hpcd->IN_ep[i].tx_fifo_num = i;
 107              		.loc 1 176 24 is_stmt 0 discriminator 3 view .LVU23
 108 002e 82F82830 		strb	r3, [r2, #40]
 177:Drivers/STM32G4xx_HAL_Driver/Src/stm32g4xx_hal_pcd.c ****     /* Control until ep is activated */
 109              		.loc 1 177 5 is_stmt 1 discriminator 3 view .LVU24
 177:Drivers/STM32G4xx_HAL_Driver/Src/stm32g4xx_hal_pcd.c ****     /* Control until ep is activated */
 110              		.loc 1 177 32 is_stmt 0 discriminator 3 view .LVU25
 111 0032 D386     		strh	r3, [r2, #54]	@ movhi
 179:Drivers/STM32G4xx_HAL_Driver/Src/stm32g4xx_hal_pcd.c ****     hpcd->IN_ep[i].maxpacket = 0U;
 112              		.loc 1 179 5 is_stmt 1 discriminator 3 view .LVU26
 179:Drivers/STM32G4xx_HAL_Driver/Src/stm32g4xx_hal_pcd.c ****     hpcd->IN_ep[i].maxpacket = 0U;
 113              		.loc 1 179 25 is_stmt 0 discriminator 3 view .LVU27
 114 0034 0021     		movs	r1, #0
 115 0036 82F82B10 		strb	r1, [r2, #43]
 180:Drivers/STM32G4xx_HAL_Driver/Src/stm32g4xx_hal_pcd.c ****     hpcd->IN_ep[i].xfer_buff = 0U;
 116              		.loc 1 180 5 is_stmt 1 discriminator 3 view .LVU28
ARM GAS  /tmp/ccXi6E5C.s 			page 8


 180:Drivers/STM32G4xx_HAL_Driver/Src/stm32g4xx_hal_pcd.c ****     hpcd->IN_ep[i].xfer_buff = 0U;
 117              		.loc 1 180 30 is_stmt 0 discriminator 3 view .LVU29
 118 003a 9163     		str	r1, [r2, #56]
 181:Drivers/STM32G4xx_HAL_Driver/Src/stm32g4xx_hal_pcd.c ****     hpcd->IN_ep[i].xfer_len = 0U;
 119              		.loc 1 181 5 is_stmt 1 discriminator 3 view .LVU30
 181:Drivers/STM32G4xx_HAL_Driver/Src/stm32g4xx_hal_pcd.c ****     hpcd->IN_ep[i].xfer_len = 0U;
 120              		.loc 1 181 30 is_stmt 0 discriminator 3 view .LVU31
 121 003c D163     		str	r1, [r2, #60]
 182:Drivers/STM32G4xx_HAL_Driver/Src/stm32g4xx_hal_pcd.c ****   }
 122              		.loc 1 182 5 is_stmt 1 discriminator 3 view .LVU32
 182:Drivers/STM32G4xx_HAL_Driver/Src/stm32g4xx_hal_pcd.c ****   }
 123              		.loc 1 182 29 is_stmt 0 discriminator 3 view .LVU33
 124 003e 9A1C     		adds	r2, r3, #2
 125 0040 5201     		lsls	r2, r2, #5
 126 0042 A150     		str	r1, [r4, r2]
 172:Drivers/STM32G4xx_HAL_Driver/Src/stm32g4xx_hal_pcd.c ****   {
 127              		.loc 1 172 46 is_stmt 1 discriminator 3 view .LVU34
 172:Drivers/STM32G4xx_HAL_Driver/Src/stm32g4xx_hal_pcd.c ****   {
 128              		.loc 1 172 47 is_stmt 0 discriminator 3 view .LVU35
 129 0044 0133     		adds	r3, r3, #1
 130              	.LVL5:
 172:Drivers/STM32G4xx_HAL_Driver/Src/stm32g4xx_hal_pcd.c ****   {
 131              		.loc 1 172 47 discriminator 3 view .LVU36
 132 0046 DBB2     		uxtb	r3, r3
 133              	.LVL6:
 172:Drivers/STM32G4xx_HAL_Driver/Src/stm32g4xx_hal_pcd.c ****   {
 134              		.loc 1 172 47 discriminator 3 view .LVU37
 135 0048 E9E7     		b	.L5
 136              	.LVL7:
 137              	.L15:
 136:Drivers/STM32G4xx_HAL_Driver/Src/stm32g4xx_hal_pcd.c **** 
 138              		.loc 1 136 5 is_stmt 1 view .LVU38
 136:Drivers/STM32G4xx_HAL_Driver/Src/stm32g4xx_hal_pcd.c **** 
 139              		.loc 1 136 16 is_stmt 0 view .LVU39
 140 004a 80F82832 		strb	r3, [r0, #552]
 162:Drivers/STM32G4xx_HAL_Driver/Src/stm32g4xx_hal_pcd.c **** #endif /* (USE_HAL_PCD_REGISTER_CALLBACKS) */
 141              		.loc 1 162 5 is_stmt 1 view .LVU40
 142 004e FFF7FEFF 		bl	HAL_PCD_MspInit
 143              	.LVL8:
 162:Drivers/STM32G4xx_HAL_Driver/Src/stm32g4xx_hal_pcd.c **** #endif /* (USE_HAL_PCD_REGISTER_CALLBACKS) */
 144              		.loc 1 162 5 is_stmt 0 view .LVU41
 145 0052 DDE7     		b	.L4
 146              	.LVL9:
 147              	.L16:
 185:Drivers/STM32G4xx_HAL_Driver/Src/stm32g4xx_hal_pcd.c ****   {
 148              		.loc 1 185 10 view .LVU42
 149 0054 0023     		movs	r3, #0
 150              	.LVL10:
 185:Drivers/STM32G4xx_HAL_Driver/Src/stm32g4xx_hal_pcd.c ****   {
 151              		.loc 1 185 10 view .LVU43
 152 0056 12E0     		b	.L7
 153              	.LVL11:
 154              	.L8:
 187:Drivers/STM32G4xx_HAL_Driver/Src/stm32g4xx_hal_pcd.c ****     hpcd->OUT_ep[i].num = i;
 155              		.loc 1 187 5 is_stmt 1 discriminator 3 view .LVU44
 187:Drivers/STM32G4xx_HAL_Driver/Src/stm32g4xx_hal_pcd.c ****     hpcd->OUT_ep[i].num = i;
 156              		.loc 1 187 27 is_stmt 0 discriminator 3 view .LVU45
ARM GAS  /tmp/ccXi6E5C.s 			page 9


 157 0058 04EB4311 		add	r1, r4, r3, lsl #5
 158 005c 0022     		movs	r2, #0
 159 005e 81F82921 		strb	r2, [r1, #297]
 188:Drivers/STM32G4xx_HAL_Driver/Src/stm32g4xx_hal_pcd.c ****     /* Control until ep is activated */
 160              		.loc 1 188 5 is_stmt 1 discriminator 3 view .LVU46
 188:Drivers/STM32G4xx_HAL_Driver/Src/stm32g4xx_hal_pcd.c ****     /* Control until ep is activated */
 161              		.loc 1 188 25 is_stmt 0 discriminator 3 view .LVU47
 162 0062 81F82831 		strb	r3, [r1, #296]
 190:Drivers/STM32G4xx_HAL_Driver/Src/stm32g4xx_hal_pcd.c ****     hpcd->OUT_ep[i].maxpacket = 0U;
 163              		.loc 1 190 5 is_stmt 1 discriminator 3 view .LVU48
 190:Drivers/STM32G4xx_HAL_Driver/Src/stm32g4xx_hal_pcd.c ****     hpcd->OUT_ep[i].maxpacket = 0U;
 164              		.loc 1 190 26 is_stmt 0 discriminator 3 view .LVU49
 165 0066 81F82B21 		strb	r2, [r1, #299]
 191:Drivers/STM32G4xx_HAL_Driver/Src/stm32g4xx_hal_pcd.c ****     hpcd->OUT_ep[i].xfer_buff = 0U;
 166              		.loc 1 191 5 is_stmt 1 discriminator 3 view .LVU50
 191:Drivers/STM32G4xx_HAL_Driver/Src/stm32g4xx_hal_pcd.c ****     hpcd->OUT_ep[i].xfer_buff = 0U;
 167              		.loc 1 191 31 is_stmt 0 discriminator 3 view .LVU51
 168 006a C1F83821 		str	r2, [r1, #312]
 192:Drivers/STM32G4xx_HAL_Driver/Src/stm32g4xx_hal_pcd.c ****     hpcd->OUT_ep[i].xfer_len = 0U;
 169              		.loc 1 192 5 is_stmt 1 discriminator 3 view .LVU52
 192:Drivers/STM32G4xx_HAL_Driver/Src/stm32g4xx_hal_pcd.c ****     hpcd->OUT_ep[i].xfer_len = 0U;
 170              		.loc 1 192 31 is_stmt 0 discriminator 3 view .LVU53
 171 006e C1F83C21 		str	r2, [r1, #316]
 193:Drivers/STM32G4xx_HAL_Driver/Src/stm32g4xx_hal_pcd.c ****   }
 172              		.loc 1 193 5 is_stmt 1 discriminator 3 view .LVU54
 193:Drivers/STM32G4xx_HAL_Driver/Src/stm32g4xx_hal_pcd.c ****   }
 173              		.loc 1 193 30 is_stmt 0 discriminator 3 view .LVU55
 174 0072 03F10A01 		add	r1, r3, #10
 175 0076 4901     		lsls	r1, r1, #5
 176 0078 6250     		str	r2, [r4, r1]
 185:Drivers/STM32G4xx_HAL_Driver/Src/stm32g4xx_hal_pcd.c ****   {
 177              		.loc 1 185 46 is_stmt 1 discriminator 3 view .LVU56
 185:Drivers/STM32G4xx_HAL_Driver/Src/stm32g4xx_hal_pcd.c ****   {
 178              		.loc 1 185 47 is_stmt 0 discriminator 3 view .LVU57
 179 007a 0133     		adds	r3, r3, #1
 180              	.LVL12:
 185:Drivers/STM32G4xx_HAL_Driver/Src/stm32g4xx_hal_pcd.c ****   {
 181              		.loc 1 185 47 discriminator 3 view .LVU58
 182 007c DBB2     		uxtb	r3, r3
 183              	.LVL13:
 184              	.L7:
 185:Drivers/STM32G4xx_HAL_Driver/Src/stm32g4xx_hal_pcd.c ****   {
 185              		.loc 1 185 16 is_stmt 1 discriminator 1 view .LVU59
 185:Drivers/STM32G4xx_HAL_Driver/Src/stm32g4xx_hal_pcd.c ****   {
 186              		.loc 1 185 3 is_stmt 0 discriminator 1 view .LVU60
 187 007e 9842     		cmp	r0, r3
 188 0080 EAD8     		bhi	.L8
 197:Drivers/STM32G4xx_HAL_Driver/Src/stm32g4xx_hal_pcd.c **** 
 189              		.loc 1 197 3 is_stmt 1 view .LVU61
 197:Drivers/STM32G4xx_HAL_Driver/Src/stm32g4xx_hal_pcd.c **** 
 190              		.loc 1 197 25 is_stmt 0 view .LVU62
 191 0082 2546     		mov	r5, r4
 192 0084 55F8107B 		ldr	r7, [r5], #16
 197:Drivers/STM32G4xx_HAL_Driver/Src/stm32g4xx_hal_pcd.c **** 
 193              		.loc 1 197 9 view .LVU63
 194 0088 6E46     		mov	r6, sp
 195 008a 0FCD     		ldmia	r5!, {r0, r1, r2, r3}
ARM GAS  /tmp/ccXi6E5C.s 			page 10


 196              	.LVL14:
 197:Drivers/STM32G4xx_HAL_Driver/Src/stm32g4xx_hal_pcd.c **** 
 197              		.loc 1 197 9 view .LVU64
 198 008c 0FC6     		stmia	r6!, {r0, r1, r2, r3}
 199 008e 2B68     		ldr	r3, [r5]
 200 0090 3360     		str	r3, [r6]
 201 0092 231D     		adds	r3, r4, #4
 202 0094 0ECB     		ldm	r3, {r1, r2, r3}
 203 0096 3846     		mov	r0, r7
 204 0098 FFF7FEFF 		bl	USB_DevInit
 205              	.LVL15:
 199:Drivers/STM32G4xx_HAL_Driver/Src/stm32g4xx_hal_pcd.c ****   hpcd->State = HAL_PCD_STATE_READY;
 206              		.loc 1 199 3 is_stmt 1 view .LVU65
 199:Drivers/STM32G4xx_HAL_Driver/Src/stm32g4xx_hal_pcd.c ****   hpcd->State = HAL_PCD_STATE_READY;
 207              		.loc 1 199 21 is_stmt 0 view .LVU66
 208 009c 0023     		movs	r3, #0
 209 009e 84F82430 		strb	r3, [r4, #36]
 200:Drivers/STM32G4xx_HAL_Driver/Src/stm32g4xx_hal_pcd.c ****   
 210              		.loc 1 200 3 is_stmt 1 view .LVU67
 200:Drivers/STM32G4xx_HAL_Driver/Src/stm32g4xx_hal_pcd.c ****   
 211              		.loc 1 200 15 is_stmt 0 view .LVU68
 212 00a2 0123     		movs	r3, #1
 213 00a4 84F82932 		strb	r3, [r4, #553]
 203:Drivers/STM32G4xx_HAL_Driver/Src/stm32g4xx_hal_pcd.c ****   {
 214              		.loc 1 203 3 is_stmt 1 view .LVU69
 203:Drivers/STM32G4xx_HAL_Driver/Src/stm32g4xx_hal_pcd.c ****   {
 215              		.loc 1 203 17 is_stmt 0 view .LVU70
 216 00a8 E369     		ldr	r3, [r4, #28]
 203:Drivers/STM32G4xx_HAL_Driver/Src/stm32g4xx_hal_pcd.c ****   {
 217              		.loc 1 203 6 view .LVU71
 218 00aa 012B     		cmp	r3, #1
 219 00ac 02D0     		beq	.L17
 208:Drivers/STM32G4xx_HAL_Driver/Src/stm32g4xx_hal_pcd.c **** }
 220              		.loc 1 208 10 view .LVU72
 221 00ae 0020     		movs	r0, #0
 222              	.L3:
 209:Drivers/STM32G4xx_HAL_Driver/Src/stm32g4xx_hal_pcd.c **** 
 223              		.loc 1 209 1 view .LVU73
 224 00b0 07B0     		add	sp, sp, #28
 225              	.LCFI2:
 226              		.cfi_remember_state
 227              		.cfi_def_cfa_offset 20
 228              		@ sp needed
 229 00b2 F0BD     		pop	{r4, r5, r6, r7, pc}
 230              	.LVL16:
 231              	.L17:
 232              	.LCFI3:
 233              		.cfi_restore_state
 205:Drivers/STM32G4xx_HAL_Driver/Src/stm32g4xx_hal_pcd.c ****   }
 234              		.loc 1 205 5 is_stmt 1 view .LVU74
 205:Drivers/STM32G4xx_HAL_Driver/Src/stm32g4xx_hal_pcd.c ****   }
 235              		.loc 1 205 11 is_stmt 0 view .LVU75
 236 00b4 2046     		mov	r0, r4
 237 00b6 FFF7FEFF 		bl	HAL_PCDEx_ActivateLPM
 238              	.LVL17:
 208:Drivers/STM32G4xx_HAL_Driver/Src/stm32g4xx_hal_pcd.c **** }
 239              		.loc 1 208 10 view .LVU76
ARM GAS  /tmp/ccXi6E5C.s 			page 11


 240 00ba 0020     		movs	r0, #0
 241 00bc F8E7     		b	.L3
 242              	.LVL18:
 243              	.L9:
 244              	.LCFI4:
 245              		.cfi_def_cfa_offset 0
 246              		.cfi_restore 4
 247              		.cfi_restore 5
 248              		.cfi_restore 6
 249              		.cfi_restore 7
 250              		.cfi_restore 14
 127:Drivers/STM32G4xx_HAL_Driver/Src/stm32g4xx_hal_pcd.c ****   }
 251              		.loc 1 127 12 view .LVU77
 252 00be 0120     		movs	r0, #1
 253              	.LVL19:
 209:Drivers/STM32G4xx_HAL_Driver/Src/stm32g4xx_hal_pcd.c **** 
 254              		.loc 1 209 1 view .LVU78
 255 00c0 7047     		bx	lr
 256              		.cfi_endproc
 257              	.LFE162:
 259              		.section	.text.HAL_PCD_MspDeInit,"ax",%progbits
 260              		.align	1
 261              		.weak	HAL_PCD_MspDeInit
 262              		.syntax unified
 263              		.thumb
 264              		.thumb_func
 265              		.fpu fpv4-sp-d16
 267              	HAL_PCD_MspDeInit:
 268              	.LVL20:
 269              	.LFB165:
 261:Drivers/STM32G4xx_HAL_Driver/Src/stm32g4xx_hal_pcd.c **** 
 262:Drivers/STM32G4xx_HAL_Driver/Src/stm32g4xx_hal_pcd.c **** /**
 263:Drivers/STM32G4xx_HAL_Driver/Src/stm32g4xx_hal_pcd.c ****   * @brief  DeInitializes PCD MSP.
 264:Drivers/STM32G4xx_HAL_Driver/Src/stm32g4xx_hal_pcd.c ****   * @param  hpcd PCD handle
 265:Drivers/STM32G4xx_HAL_Driver/Src/stm32g4xx_hal_pcd.c ****   * @retval None
 266:Drivers/STM32G4xx_HAL_Driver/Src/stm32g4xx_hal_pcd.c ****   */
 267:Drivers/STM32G4xx_HAL_Driver/Src/stm32g4xx_hal_pcd.c **** __weak void HAL_PCD_MspDeInit(PCD_HandleTypeDef *hpcd)
 268:Drivers/STM32G4xx_HAL_Driver/Src/stm32g4xx_hal_pcd.c **** {
 270              		.loc 1 268 1 is_stmt 1 view -0
 271              		.cfi_startproc
 272              		@ args = 0, pretend = 0, frame = 0
 273              		@ frame_needed = 0, uses_anonymous_args = 0
 274              		@ link register save eliminated.
 269:Drivers/STM32G4xx_HAL_Driver/Src/stm32g4xx_hal_pcd.c ****   /* Prevent unused argument(s) compilation warning */
 270:Drivers/STM32G4xx_HAL_Driver/Src/stm32g4xx_hal_pcd.c ****   UNUSED(hpcd);
 275              		.loc 1 270 3 view .LVU80
 271:Drivers/STM32G4xx_HAL_Driver/Src/stm32g4xx_hal_pcd.c **** 
 272:Drivers/STM32G4xx_HAL_Driver/Src/stm32g4xx_hal_pcd.c ****   /* NOTE : This function should not be modified, when the callback is needed,
 273:Drivers/STM32G4xx_HAL_Driver/Src/stm32g4xx_hal_pcd.c ****             the HAL_PCD_MspDeInit could be implemented in the user file
 274:Drivers/STM32G4xx_HAL_Driver/Src/stm32g4xx_hal_pcd.c ****    */
 275:Drivers/STM32G4xx_HAL_Driver/Src/stm32g4xx_hal_pcd.c **** }
 276              		.loc 1 275 1 is_stmt 0 view .LVU81
 277 0000 7047     		bx	lr
 278              		.cfi_endproc
 279              	.LFE165:
 281              		.section	.text.HAL_PCD_Start,"ax",%progbits
 282              		.align	1
ARM GAS  /tmp/ccXi6E5C.s 			page 12


 283              		.global	HAL_PCD_Start
 284              		.syntax unified
 285              		.thumb
 286              		.thumb_func
 287              		.fpu fpv4-sp-d16
 289              	HAL_PCD_Start:
 290              	.LVL21:
 291              	.LFB166:
 276:Drivers/STM32G4xx_HAL_Driver/Src/stm32g4xx_hal_pcd.c **** 
 277:Drivers/STM32G4xx_HAL_Driver/Src/stm32g4xx_hal_pcd.c **** #if (USE_HAL_PCD_REGISTER_CALLBACKS == 1U)
 278:Drivers/STM32G4xx_HAL_Driver/Src/stm32g4xx_hal_pcd.c **** /**
 279:Drivers/STM32G4xx_HAL_Driver/Src/stm32g4xx_hal_pcd.c ****   * @brief  Register a User USB PCD Callback
 280:Drivers/STM32G4xx_HAL_Driver/Src/stm32g4xx_hal_pcd.c ****   *         To be used instead of the weak predefined callback
 281:Drivers/STM32G4xx_HAL_Driver/Src/stm32g4xx_hal_pcd.c ****   * @param  hpcd USB PCD handle
 282:Drivers/STM32G4xx_HAL_Driver/Src/stm32g4xx_hal_pcd.c ****   * @param  CallbackID ID of the callback to be registered
 283:Drivers/STM32G4xx_HAL_Driver/Src/stm32g4xx_hal_pcd.c ****   *         This parameter can be one of the following values:
 284:Drivers/STM32G4xx_HAL_Driver/Src/stm32g4xx_hal_pcd.c ****   *          @arg @ref HAL_PCD_SOF_CB_ID USB PCD SOF callback ID
 285:Drivers/STM32G4xx_HAL_Driver/Src/stm32g4xx_hal_pcd.c ****   *          @arg @ref HAL_PCD_SETUPSTAGE_CB_ID USB PCD Setup callback ID
 286:Drivers/STM32G4xx_HAL_Driver/Src/stm32g4xx_hal_pcd.c ****   *          @arg @ref HAL_PCD_RESET_CB_ID USB PCD Reset callback ID
 287:Drivers/STM32G4xx_HAL_Driver/Src/stm32g4xx_hal_pcd.c ****   *          @arg @ref HAL_PCD_SUSPEND_CB_ID USB PCD Suspend callback ID
 288:Drivers/STM32G4xx_HAL_Driver/Src/stm32g4xx_hal_pcd.c ****   *          @arg @ref HAL_PCD_RESUME_CB_ID USB PCD Resume callback ID
 289:Drivers/STM32G4xx_HAL_Driver/Src/stm32g4xx_hal_pcd.c ****   *          @arg @ref HAL_PCD_CONNECT_CB_ID USB PCD Connect callback ID
 290:Drivers/STM32G4xx_HAL_Driver/Src/stm32g4xx_hal_pcd.c ****   *          @arg @ref HAL_PCD_DISCONNECT_CB_ID OTG PCD Disconnect callback ID
 291:Drivers/STM32G4xx_HAL_Driver/Src/stm32g4xx_hal_pcd.c ****   *          @arg @ref HAL_PCD_MSPINIT_CB_ID MspDeInit callback ID
 292:Drivers/STM32G4xx_HAL_Driver/Src/stm32g4xx_hal_pcd.c ****   *          @arg @ref HAL_PCD_MSPDEINIT_CB_ID MspDeInit callback ID
 293:Drivers/STM32G4xx_HAL_Driver/Src/stm32g4xx_hal_pcd.c ****   * @param  pCallback pointer to the Callback function
 294:Drivers/STM32G4xx_HAL_Driver/Src/stm32g4xx_hal_pcd.c ****   * @retval HAL status
 295:Drivers/STM32G4xx_HAL_Driver/Src/stm32g4xx_hal_pcd.c ****   */
 296:Drivers/STM32G4xx_HAL_Driver/Src/stm32g4xx_hal_pcd.c **** HAL_StatusTypeDef HAL_PCD_RegisterCallback(PCD_HandleTypeDef *hpcd, HAL_PCD_CallbackIDTypeDef Callb
 297:Drivers/STM32G4xx_HAL_Driver/Src/stm32g4xx_hal_pcd.c **** {
 298:Drivers/STM32G4xx_HAL_Driver/Src/stm32g4xx_hal_pcd.c ****   HAL_StatusTypeDef status = HAL_OK;
 299:Drivers/STM32G4xx_HAL_Driver/Src/stm32g4xx_hal_pcd.c **** 
 300:Drivers/STM32G4xx_HAL_Driver/Src/stm32g4xx_hal_pcd.c ****   if (pCallback == NULL)
 301:Drivers/STM32G4xx_HAL_Driver/Src/stm32g4xx_hal_pcd.c ****   {
 302:Drivers/STM32G4xx_HAL_Driver/Src/stm32g4xx_hal_pcd.c ****     /* Update the error code */
 303:Drivers/STM32G4xx_HAL_Driver/Src/stm32g4xx_hal_pcd.c ****     hpcd->ErrorCode |= HAL_PCD_ERROR_INVALID_CALLBACK;
 304:Drivers/STM32G4xx_HAL_Driver/Src/stm32g4xx_hal_pcd.c ****     return HAL_ERROR;
 305:Drivers/STM32G4xx_HAL_Driver/Src/stm32g4xx_hal_pcd.c ****   }
 306:Drivers/STM32G4xx_HAL_Driver/Src/stm32g4xx_hal_pcd.c ****   /* Process locked */
 307:Drivers/STM32G4xx_HAL_Driver/Src/stm32g4xx_hal_pcd.c ****   __HAL_LOCK(hpcd);
 308:Drivers/STM32G4xx_HAL_Driver/Src/stm32g4xx_hal_pcd.c **** 
 309:Drivers/STM32G4xx_HAL_Driver/Src/stm32g4xx_hal_pcd.c ****   if (hpcd->State == HAL_PCD_STATE_READY)
 310:Drivers/STM32G4xx_HAL_Driver/Src/stm32g4xx_hal_pcd.c ****   {
 311:Drivers/STM32G4xx_HAL_Driver/Src/stm32g4xx_hal_pcd.c ****     switch (CallbackID)
 312:Drivers/STM32G4xx_HAL_Driver/Src/stm32g4xx_hal_pcd.c ****     {
 313:Drivers/STM32G4xx_HAL_Driver/Src/stm32g4xx_hal_pcd.c ****       case HAL_PCD_SOF_CB_ID :
 314:Drivers/STM32G4xx_HAL_Driver/Src/stm32g4xx_hal_pcd.c ****         hpcd->SOFCallback = pCallback;
 315:Drivers/STM32G4xx_HAL_Driver/Src/stm32g4xx_hal_pcd.c ****         break;
 316:Drivers/STM32G4xx_HAL_Driver/Src/stm32g4xx_hal_pcd.c **** 
 317:Drivers/STM32G4xx_HAL_Driver/Src/stm32g4xx_hal_pcd.c ****       case HAL_PCD_SETUPSTAGE_CB_ID :
 318:Drivers/STM32G4xx_HAL_Driver/Src/stm32g4xx_hal_pcd.c ****         hpcd->SetupStageCallback = pCallback;
 319:Drivers/STM32G4xx_HAL_Driver/Src/stm32g4xx_hal_pcd.c ****         break;
 320:Drivers/STM32G4xx_HAL_Driver/Src/stm32g4xx_hal_pcd.c **** 
 321:Drivers/STM32G4xx_HAL_Driver/Src/stm32g4xx_hal_pcd.c ****       case HAL_PCD_RESET_CB_ID :
 322:Drivers/STM32G4xx_HAL_Driver/Src/stm32g4xx_hal_pcd.c ****         hpcd->ResetCallback = pCallback;
 323:Drivers/STM32G4xx_HAL_Driver/Src/stm32g4xx_hal_pcd.c ****         break;
 324:Drivers/STM32G4xx_HAL_Driver/Src/stm32g4xx_hal_pcd.c **** 
ARM GAS  /tmp/ccXi6E5C.s 			page 13


 325:Drivers/STM32G4xx_HAL_Driver/Src/stm32g4xx_hal_pcd.c ****       case HAL_PCD_SUSPEND_CB_ID :
 326:Drivers/STM32G4xx_HAL_Driver/Src/stm32g4xx_hal_pcd.c ****         hpcd->SuspendCallback = pCallback;
 327:Drivers/STM32G4xx_HAL_Driver/Src/stm32g4xx_hal_pcd.c ****         break;
 328:Drivers/STM32G4xx_HAL_Driver/Src/stm32g4xx_hal_pcd.c **** 
 329:Drivers/STM32G4xx_HAL_Driver/Src/stm32g4xx_hal_pcd.c ****       case HAL_PCD_RESUME_CB_ID :
 330:Drivers/STM32G4xx_HAL_Driver/Src/stm32g4xx_hal_pcd.c ****         hpcd->ResumeCallback = pCallback;
 331:Drivers/STM32G4xx_HAL_Driver/Src/stm32g4xx_hal_pcd.c ****         break;
 332:Drivers/STM32G4xx_HAL_Driver/Src/stm32g4xx_hal_pcd.c **** 
 333:Drivers/STM32G4xx_HAL_Driver/Src/stm32g4xx_hal_pcd.c ****       case HAL_PCD_CONNECT_CB_ID :
 334:Drivers/STM32G4xx_HAL_Driver/Src/stm32g4xx_hal_pcd.c ****         hpcd->ConnectCallback = pCallback;
 335:Drivers/STM32G4xx_HAL_Driver/Src/stm32g4xx_hal_pcd.c ****         break;
 336:Drivers/STM32G4xx_HAL_Driver/Src/stm32g4xx_hal_pcd.c **** 
 337:Drivers/STM32G4xx_HAL_Driver/Src/stm32g4xx_hal_pcd.c ****       case HAL_PCD_DISCONNECT_CB_ID :
 338:Drivers/STM32G4xx_HAL_Driver/Src/stm32g4xx_hal_pcd.c ****         hpcd->DisconnectCallback = pCallback;
 339:Drivers/STM32G4xx_HAL_Driver/Src/stm32g4xx_hal_pcd.c ****         break;
 340:Drivers/STM32G4xx_HAL_Driver/Src/stm32g4xx_hal_pcd.c **** 
 341:Drivers/STM32G4xx_HAL_Driver/Src/stm32g4xx_hal_pcd.c ****       case HAL_PCD_MSPINIT_CB_ID :
 342:Drivers/STM32G4xx_HAL_Driver/Src/stm32g4xx_hal_pcd.c ****         hpcd->MspInitCallback = pCallback;
 343:Drivers/STM32G4xx_HAL_Driver/Src/stm32g4xx_hal_pcd.c ****         break;
 344:Drivers/STM32G4xx_HAL_Driver/Src/stm32g4xx_hal_pcd.c **** 
 345:Drivers/STM32G4xx_HAL_Driver/Src/stm32g4xx_hal_pcd.c ****       case HAL_PCD_MSPDEINIT_CB_ID :
 346:Drivers/STM32G4xx_HAL_Driver/Src/stm32g4xx_hal_pcd.c ****         hpcd->MspDeInitCallback = pCallback;
 347:Drivers/STM32G4xx_HAL_Driver/Src/stm32g4xx_hal_pcd.c ****         break;
 348:Drivers/STM32G4xx_HAL_Driver/Src/stm32g4xx_hal_pcd.c **** 
 349:Drivers/STM32G4xx_HAL_Driver/Src/stm32g4xx_hal_pcd.c ****       default :
 350:Drivers/STM32G4xx_HAL_Driver/Src/stm32g4xx_hal_pcd.c ****         /* Update the error code */
 351:Drivers/STM32G4xx_HAL_Driver/Src/stm32g4xx_hal_pcd.c ****         hpcd->ErrorCode |= HAL_PCD_ERROR_INVALID_CALLBACK;
 352:Drivers/STM32G4xx_HAL_Driver/Src/stm32g4xx_hal_pcd.c ****         /* Return error status */
 353:Drivers/STM32G4xx_HAL_Driver/Src/stm32g4xx_hal_pcd.c ****         status =  HAL_ERROR;
 354:Drivers/STM32G4xx_HAL_Driver/Src/stm32g4xx_hal_pcd.c ****         break;
 355:Drivers/STM32G4xx_HAL_Driver/Src/stm32g4xx_hal_pcd.c ****     }
 356:Drivers/STM32G4xx_HAL_Driver/Src/stm32g4xx_hal_pcd.c ****   }
 357:Drivers/STM32G4xx_HAL_Driver/Src/stm32g4xx_hal_pcd.c ****   else if (hpcd->State == HAL_PCD_STATE_RESET)
 358:Drivers/STM32G4xx_HAL_Driver/Src/stm32g4xx_hal_pcd.c ****   {
 359:Drivers/STM32G4xx_HAL_Driver/Src/stm32g4xx_hal_pcd.c ****     switch (CallbackID)
 360:Drivers/STM32G4xx_HAL_Driver/Src/stm32g4xx_hal_pcd.c ****     {
 361:Drivers/STM32G4xx_HAL_Driver/Src/stm32g4xx_hal_pcd.c ****       case HAL_PCD_MSPINIT_CB_ID :
 362:Drivers/STM32G4xx_HAL_Driver/Src/stm32g4xx_hal_pcd.c ****         hpcd->MspInitCallback = pCallback;
 363:Drivers/STM32G4xx_HAL_Driver/Src/stm32g4xx_hal_pcd.c ****         break;
 364:Drivers/STM32G4xx_HAL_Driver/Src/stm32g4xx_hal_pcd.c **** 
 365:Drivers/STM32G4xx_HAL_Driver/Src/stm32g4xx_hal_pcd.c ****       case HAL_PCD_MSPDEINIT_CB_ID :
 366:Drivers/STM32G4xx_HAL_Driver/Src/stm32g4xx_hal_pcd.c ****         hpcd->MspDeInitCallback = pCallback;
 367:Drivers/STM32G4xx_HAL_Driver/Src/stm32g4xx_hal_pcd.c ****         break;
 368:Drivers/STM32G4xx_HAL_Driver/Src/stm32g4xx_hal_pcd.c **** 
 369:Drivers/STM32G4xx_HAL_Driver/Src/stm32g4xx_hal_pcd.c ****       default :
 370:Drivers/STM32G4xx_HAL_Driver/Src/stm32g4xx_hal_pcd.c ****         /* Update the error code */
 371:Drivers/STM32G4xx_HAL_Driver/Src/stm32g4xx_hal_pcd.c ****         hpcd->ErrorCode |= HAL_PCD_ERROR_INVALID_CALLBACK;
 372:Drivers/STM32G4xx_HAL_Driver/Src/stm32g4xx_hal_pcd.c ****         /* Return error status */
 373:Drivers/STM32G4xx_HAL_Driver/Src/stm32g4xx_hal_pcd.c ****         status =  HAL_ERROR;
 374:Drivers/STM32G4xx_HAL_Driver/Src/stm32g4xx_hal_pcd.c ****         break;
 375:Drivers/STM32G4xx_HAL_Driver/Src/stm32g4xx_hal_pcd.c ****     }
 376:Drivers/STM32G4xx_HAL_Driver/Src/stm32g4xx_hal_pcd.c ****   }
 377:Drivers/STM32G4xx_HAL_Driver/Src/stm32g4xx_hal_pcd.c ****   else
 378:Drivers/STM32G4xx_HAL_Driver/Src/stm32g4xx_hal_pcd.c ****   {
 379:Drivers/STM32G4xx_HAL_Driver/Src/stm32g4xx_hal_pcd.c ****     /* Update the error code */
 380:Drivers/STM32G4xx_HAL_Driver/Src/stm32g4xx_hal_pcd.c ****     hpcd->ErrorCode |= HAL_PCD_ERROR_INVALID_CALLBACK;
 381:Drivers/STM32G4xx_HAL_Driver/Src/stm32g4xx_hal_pcd.c ****     /* Return error status */
ARM GAS  /tmp/ccXi6E5C.s 			page 14


 382:Drivers/STM32G4xx_HAL_Driver/Src/stm32g4xx_hal_pcd.c ****     status =  HAL_ERROR;
 383:Drivers/STM32G4xx_HAL_Driver/Src/stm32g4xx_hal_pcd.c ****   }
 384:Drivers/STM32G4xx_HAL_Driver/Src/stm32g4xx_hal_pcd.c **** 
 385:Drivers/STM32G4xx_HAL_Driver/Src/stm32g4xx_hal_pcd.c ****   /* Release Lock */
 386:Drivers/STM32G4xx_HAL_Driver/Src/stm32g4xx_hal_pcd.c ****   __HAL_UNLOCK(hpcd);
 387:Drivers/STM32G4xx_HAL_Driver/Src/stm32g4xx_hal_pcd.c ****   return status;
 388:Drivers/STM32G4xx_HAL_Driver/Src/stm32g4xx_hal_pcd.c **** }
 389:Drivers/STM32G4xx_HAL_Driver/Src/stm32g4xx_hal_pcd.c **** 
 390:Drivers/STM32G4xx_HAL_Driver/Src/stm32g4xx_hal_pcd.c **** /**
 391:Drivers/STM32G4xx_HAL_Driver/Src/stm32g4xx_hal_pcd.c ****   * @brief  Unregister an USB PCD Callback
 392:Drivers/STM32G4xx_HAL_Driver/Src/stm32g4xx_hal_pcd.c ****   *         USB PCD callabck is redirected to the weak predefined callback
 393:Drivers/STM32G4xx_HAL_Driver/Src/stm32g4xx_hal_pcd.c ****   * @param  hpcd USB PCD handle
 394:Drivers/STM32G4xx_HAL_Driver/Src/stm32g4xx_hal_pcd.c ****   * @param  CallbackID ID of the callback to be unregistered
 395:Drivers/STM32G4xx_HAL_Driver/Src/stm32g4xx_hal_pcd.c ****   *         This parameter can be one of the following values:
 396:Drivers/STM32G4xx_HAL_Driver/Src/stm32g4xx_hal_pcd.c ****   *          @arg @ref HAL_PCD_SOF_CB_ID USB PCD SOF callback ID
 397:Drivers/STM32G4xx_HAL_Driver/Src/stm32g4xx_hal_pcd.c ****   *          @arg @ref HAL_PCD_SETUPSTAGE_CB_ID USB PCD Setup callback ID
 398:Drivers/STM32G4xx_HAL_Driver/Src/stm32g4xx_hal_pcd.c ****   *          @arg @ref HAL_PCD_RESET_CB_ID USB PCD Reset callback ID
 399:Drivers/STM32G4xx_HAL_Driver/Src/stm32g4xx_hal_pcd.c ****   *          @arg @ref HAL_PCD_SUSPEND_CB_ID USB PCD Suspend callback ID
 400:Drivers/STM32G4xx_HAL_Driver/Src/stm32g4xx_hal_pcd.c ****   *          @arg @ref HAL_PCD_RESUME_CB_ID USB PCD Resume callback ID
 401:Drivers/STM32G4xx_HAL_Driver/Src/stm32g4xx_hal_pcd.c ****   *          @arg @ref HAL_PCD_CONNECT_CB_ID USB PCD Connect callback ID
 402:Drivers/STM32G4xx_HAL_Driver/Src/stm32g4xx_hal_pcd.c ****   *          @arg @ref HAL_PCD_DISCONNECT_CB_ID OTG PCD Disconnect callback ID
 403:Drivers/STM32G4xx_HAL_Driver/Src/stm32g4xx_hal_pcd.c ****   *          @arg @ref HAL_PCD_MSPINIT_CB_ID MspDeInit callback ID
 404:Drivers/STM32G4xx_HAL_Driver/Src/stm32g4xx_hal_pcd.c ****   *          @arg @ref HAL_PCD_MSPDEINIT_CB_ID MspDeInit callback ID
 405:Drivers/STM32G4xx_HAL_Driver/Src/stm32g4xx_hal_pcd.c ****   * @retval HAL status
 406:Drivers/STM32G4xx_HAL_Driver/Src/stm32g4xx_hal_pcd.c ****   */
 407:Drivers/STM32G4xx_HAL_Driver/Src/stm32g4xx_hal_pcd.c **** HAL_StatusTypeDef HAL_PCD_UnRegisterCallback(PCD_HandleTypeDef *hpcd, HAL_PCD_CallbackIDTypeDef Cal
 408:Drivers/STM32G4xx_HAL_Driver/Src/stm32g4xx_hal_pcd.c **** {
 409:Drivers/STM32G4xx_HAL_Driver/Src/stm32g4xx_hal_pcd.c ****   HAL_StatusTypeDef status = HAL_OK;
 410:Drivers/STM32G4xx_HAL_Driver/Src/stm32g4xx_hal_pcd.c **** 
 411:Drivers/STM32G4xx_HAL_Driver/Src/stm32g4xx_hal_pcd.c ****   /* Process locked */
 412:Drivers/STM32G4xx_HAL_Driver/Src/stm32g4xx_hal_pcd.c ****   __HAL_LOCK(hpcd);
 413:Drivers/STM32G4xx_HAL_Driver/Src/stm32g4xx_hal_pcd.c **** 
 414:Drivers/STM32G4xx_HAL_Driver/Src/stm32g4xx_hal_pcd.c ****   /* Setup Legacy weak Callbacks  */
 415:Drivers/STM32G4xx_HAL_Driver/Src/stm32g4xx_hal_pcd.c ****   if (hpcd->State == HAL_PCD_STATE_READY)
 416:Drivers/STM32G4xx_HAL_Driver/Src/stm32g4xx_hal_pcd.c ****   {
 417:Drivers/STM32G4xx_HAL_Driver/Src/stm32g4xx_hal_pcd.c ****     switch (CallbackID)
 418:Drivers/STM32G4xx_HAL_Driver/Src/stm32g4xx_hal_pcd.c ****     {
 419:Drivers/STM32G4xx_HAL_Driver/Src/stm32g4xx_hal_pcd.c ****       case HAL_PCD_SOF_CB_ID :
 420:Drivers/STM32G4xx_HAL_Driver/Src/stm32g4xx_hal_pcd.c ****         hpcd->SOFCallback = HAL_PCD_SOFCallback;
 421:Drivers/STM32G4xx_HAL_Driver/Src/stm32g4xx_hal_pcd.c ****         break;
 422:Drivers/STM32G4xx_HAL_Driver/Src/stm32g4xx_hal_pcd.c **** 
 423:Drivers/STM32G4xx_HAL_Driver/Src/stm32g4xx_hal_pcd.c ****       case HAL_PCD_SETUPSTAGE_CB_ID :
 424:Drivers/STM32G4xx_HAL_Driver/Src/stm32g4xx_hal_pcd.c ****         hpcd->SetupStageCallback = HAL_PCD_SetupStageCallback;
 425:Drivers/STM32G4xx_HAL_Driver/Src/stm32g4xx_hal_pcd.c ****         break;
 426:Drivers/STM32G4xx_HAL_Driver/Src/stm32g4xx_hal_pcd.c **** 
 427:Drivers/STM32G4xx_HAL_Driver/Src/stm32g4xx_hal_pcd.c ****       case HAL_PCD_RESET_CB_ID :
 428:Drivers/STM32G4xx_HAL_Driver/Src/stm32g4xx_hal_pcd.c ****         hpcd->ResetCallback = HAL_PCD_ResetCallback;
 429:Drivers/STM32G4xx_HAL_Driver/Src/stm32g4xx_hal_pcd.c ****         break;
 430:Drivers/STM32G4xx_HAL_Driver/Src/stm32g4xx_hal_pcd.c **** 
 431:Drivers/STM32G4xx_HAL_Driver/Src/stm32g4xx_hal_pcd.c ****       case HAL_PCD_SUSPEND_CB_ID :
 432:Drivers/STM32G4xx_HAL_Driver/Src/stm32g4xx_hal_pcd.c ****         hpcd->SuspendCallback = HAL_PCD_SuspendCallback;
 433:Drivers/STM32G4xx_HAL_Driver/Src/stm32g4xx_hal_pcd.c ****         break;
 434:Drivers/STM32G4xx_HAL_Driver/Src/stm32g4xx_hal_pcd.c **** 
 435:Drivers/STM32G4xx_HAL_Driver/Src/stm32g4xx_hal_pcd.c ****       case HAL_PCD_RESUME_CB_ID :
 436:Drivers/STM32G4xx_HAL_Driver/Src/stm32g4xx_hal_pcd.c ****         hpcd->ResumeCallback = HAL_PCD_ResumeCallback;
 437:Drivers/STM32G4xx_HAL_Driver/Src/stm32g4xx_hal_pcd.c ****         break;
 438:Drivers/STM32G4xx_HAL_Driver/Src/stm32g4xx_hal_pcd.c **** 
ARM GAS  /tmp/ccXi6E5C.s 			page 15


 439:Drivers/STM32G4xx_HAL_Driver/Src/stm32g4xx_hal_pcd.c ****       case HAL_PCD_CONNECT_CB_ID :
 440:Drivers/STM32G4xx_HAL_Driver/Src/stm32g4xx_hal_pcd.c ****         hpcd->ConnectCallback = HAL_PCD_ConnectCallback;
 441:Drivers/STM32G4xx_HAL_Driver/Src/stm32g4xx_hal_pcd.c ****         break;
 442:Drivers/STM32G4xx_HAL_Driver/Src/stm32g4xx_hal_pcd.c **** 
 443:Drivers/STM32G4xx_HAL_Driver/Src/stm32g4xx_hal_pcd.c ****       case HAL_PCD_DISCONNECT_CB_ID :
 444:Drivers/STM32G4xx_HAL_Driver/Src/stm32g4xx_hal_pcd.c ****         hpcd->DisconnectCallback = HAL_PCD_DisconnectCallback;
 445:Drivers/STM32G4xx_HAL_Driver/Src/stm32g4xx_hal_pcd.c ****         break;
 446:Drivers/STM32G4xx_HAL_Driver/Src/stm32g4xx_hal_pcd.c **** 
 447:Drivers/STM32G4xx_HAL_Driver/Src/stm32g4xx_hal_pcd.c ****       case HAL_PCD_MSPINIT_CB_ID :
 448:Drivers/STM32G4xx_HAL_Driver/Src/stm32g4xx_hal_pcd.c ****         hpcd->MspInitCallback = HAL_PCD_MspInit;
 449:Drivers/STM32G4xx_HAL_Driver/Src/stm32g4xx_hal_pcd.c ****         break;
 450:Drivers/STM32G4xx_HAL_Driver/Src/stm32g4xx_hal_pcd.c **** 
 451:Drivers/STM32G4xx_HAL_Driver/Src/stm32g4xx_hal_pcd.c ****       case HAL_PCD_MSPDEINIT_CB_ID :
 452:Drivers/STM32G4xx_HAL_Driver/Src/stm32g4xx_hal_pcd.c ****         hpcd->MspDeInitCallback = HAL_PCD_MspDeInit;
 453:Drivers/STM32G4xx_HAL_Driver/Src/stm32g4xx_hal_pcd.c ****         break;
 454:Drivers/STM32G4xx_HAL_Driver/Src/stm32g4xx_hal_pcd.c **** 
 455:Drivers/STM32G4xx_HAL_Driver/Src/stm32g4xx_hal_pcd.c ****       default :
 456:Drivers/STM32G4xx_HAL_Driver/Src/stm32g4xx_hal_pcd.c ****         /* Update the error code */
 457:Drivers/STM32G4xx_HAL_Driver/Src/stm32g4xx_hal_pcd.c ****         hpcd->ErrorCode |= HAL_PCD_ERROR_INVALID_CALLBACK;
 458:Drivers/STM32G4xx_HAL_Driver/Src/stm32g4xx_hal_pcd.c **** 
 459:Drivers/STM32G4xx_HAL_Driver/Src/stm32g4xx_hal_pcd.c ****         /* Return error status */
 460:Drivers/STM32G4xx_HAL_Driver/Src/stm32g4xx_hal_pcd.c ****         status =  HAL_ERROR;
 461:Drivers/STM32G4xx_HAL_Driver/Src/stm32g4xx_hal_pcd.c ****         break;
 462:Drivers/STM32G4xx_HAL_Driver/Src/stm32g4xx_hal_pcd.c ****     }
 463:Drivers/STM32G4xx_HAL_Driver/Src/stm32g4xx_hal_pcd.c ****   }
 464:Drivers/STM32G4xx_HAL_Driver/Src/stm32g4xx_hal_pcd.c ****   else if (hpcd->State == HAL_PCD_STATE_RESET)
 465:Drivers/STM32G4xx_HAL_Driver/Src/stm32g4xx_hal_pcd.c ****   {
 466:Drivers/STM32G4xx_HAL_Driver/Src/stm32g4xx_hal_pcd.c ****     switch (CallbackID)
 467:Drivers/STM32G4xx_HAL_Driver/Src/stm32g4xx_hal_pcd.c ****     {
 468:Drivers/STM32G4xx_HAL_Driver/Src/stm32g4xx_hal_pcd.c ****       case HAL_PCD_MSPINIT_CB_ID :
 469:Drivers/STM32G4xx_HAL_Driver/Src/stm32g4xx_hal_pcd.c ****         hpcd->MspInitCallback = HAL_PCD_MspInit;
 470:Drivers/STM32G4xx_HAL_Driver/Src/stm32g4xx_hal_pcd.c ****         break;
 471:Drivers/STM32G4xx_HAL_Driver/Src/stm32g4xx_hal_pcd.c **** 
 472:Drivers/STM32G4xx_HAL_Driver/Src/stm32g4xx_hal_pcd.c ****       case HAL_PCD_MSPDEINIT_CB_ID :
 473:Drivers/STM32G4xx_HAL_Driver/Src/stm32g4xx_hal_pcd.c ****         hpcd->MspDeInitCallback = HAL_PCD_MspDeInit;
 474:Drivers/STM32G4xx_HAL_Driver/Src/stm32g4xx_hal_pcd.c ****         break;
 475:Drivers/STM32G4xx_HAL_Driver/Src/stm32g4xx_hal_pcd.c **** 
 476:Drivers/STM32G4xx_HAL_Driver/Src/stm32g4xx_hal_pcd.c ****       default :
 477:Drivers/STM32G4xx_HAL_Driver/Src/stm32g4xx_hal_pcd.c ****         /* Update the error code */
 478:Drivers/STM32G4xx_HAL_Driver/Src/stm32g4xx_hal_pcd.c ****         hpcd->ErrorCode |= HAL_PCD_ERROR_INVALID_CALLBACK;
 479:Drivers/STM32G4xx_HAL_Driver/Src/stm32g4xx_hal_pcd.c **** 
 480:Drivers/STM32G4xx_HAL_Driver/Src/stm32g4xx_hal_pcd.c ****         /* Return error status */
 481:Drivers/STM32G4xx_HAL_Driver/Src/stm32g4xx_hal_pcd.c ****         status =  HAL_ERROR;
 482:Drivers/STM32G4xx_HAL_Driver/Src/stm32g4xx_hal_pcd.c ****         break;
 483:Drivers/STM32G4xx_HAL_Driver/Src/stm32g4xx_hal_pcd.c ****     }
 484:Drivers/STM32G4xx_HAL_Driver/Src/stm32g4xx_hal_pcd.c ****   }
 485:Drivers/STM32G4xx_HAL_Driver/Src/stm32g4xx_hal_pcd.c ****   else
 486:Drivers/STM32G4xx_HAL_Driver/Src/stm32g4xx_hal_pcd.c ****   {
 487:Drivers/STM32G4xx_HAL_Driver/Src/stm32g4xx_hal_pcd.c ****     /* Update the error code */
 488:Drivers/STM32G4xx_HAL_Driver/Src/stm32g4xx_hal_pcd.c ****     hpcd->ErrorCode |= HAL_PCD_ERROR_INVALID_CALLBACK;
 489:Drivers/STM32G4xx_HAL_Driver/Src/stm32g4xx_hal_pcd.c **** 
 490:Drivers/STM32G4xx_HAL_Driver/Src/stm32g4xx_hal_pcd.c ****     /* Return error status */
 491:Drivers/STM32G4xx_HAL_Driver/Src/stm32g4xx_hal_pcd.c ****     status =  HAL_ERROR;
 492:Drivers/STM32G4xx_HAL_Driver/Src/stm32g4xx_hal_pcd.c ****   }
 493:Drivers/STM32G4xx_HAL_Driver/Src/stm32g4xx_hal_pcd.c **** 
 494:Drivers/STM32G4xx_HAL_Driver/Src/stm32g4xx_hal_pcd.c ****   /* Release Lock */
 495:Drivers/STM32G4xx_HAL_Driver/Src/stm32g4xx_hal_pcd.c ****   __HAL_UNLOCK(hpcd);
ARM GAS  /tmp/ccXi6E5C.s 			page 16


 496:Drivers/STM32G4xx_HAL_Driver/Src/stm32g4xx_hal_pcd.c ****   return status;
 497:Drivers/STM32G4xx_HAL_Driver/Src/stm32g4xx_hal_pcd.c **** }
 498:Drivers/STM32G4xx_HAL_Driver/Src/stm32g4xx_hal_pcd.c **** 
 499:Drivers/STM32G4xx_HAL_Driver/Src/stm32g4xx_hal_pcd.c **** /**
 500:Drivers/STM32G4xx_HAL_Driver/Src/stm32g4xx_hal_pcd.c ****   * @brief  Register USB PCD Data OUT Stage Callback
 501:Drivers/STM32G4xx_HAL_Driver/Src/stm32g4xx_hal_pcd.c ****   *         To be used instead of the weak HAL_PCD_DataOutStageCallback() predefined callback
 502:Drivers/STM32G4xx_HAL_Driver/Src/stm32g4xx_hal_pcd.c ****   * @param  hpcd PCD handle
 503:Drivers/STM32G4xx_HAL_Driver/Src/stm32g4xx_hal_pcd.c ****   * @param  pCallback pointer to the USB PCD Data OUT Stage Callback function
 504:Drivers/STM32G4xx_HAL_Driver/Src/stm32g4xx_hal_pcd.c ****   * @retval HAL status
 505:Drivers/STM32G4xx_HAL_Driver/Src/stm32g4xx_hal_pcd.c ****   */
 506:Drivers/STM32G4xx_HAL_Driver/Src/stm32g4xx_hal_pcd.c **** HAL_StatusTypeDef HAL_PCD_RegisterDataOutStageCallback(PCD_HandleTypeDef *hpcd, pPCD_DataOutStageCa
 507:Drivers/STM32G4xx_HAL_Driver/Src/stm32g4xx_hal_pcd.c **** {
 508:Drivers/STM32G4xx_HAL_Driver/Src/stm32g4xx_hal_pcd.c ****   HAL_StatusTypeDef status = HAL_OK;
 509:Drivers/STM32G4xx_HAL_Driver/Src/stm32g4xx_hal_pcd.c **** 
 510:Drivers/STM32G4xx_HAL_Driver/Src/stm32g4xx_hal_pcd.c ****   if (pCallback == NULL)
 511:Drivers/STM32G4xx_HAL_Driver/Src/stm32g4xx_hal_pcd.c ****   {
 512:Drivers/STM32G4xx_HAL_Driver/Src/stm32g4xx_hal_pcd.c ****     /* Update the error code */
 513:Drivers/STM32G4xx_HAL_Driver/Src/stm32g4xx_hal_pcd.c ****     hpcd->ErrorCode |= HAL_PCD_ERROR_INVALID_CALLBACK;
 514:Drivers/STM32G4xx_HAL_Driver/Src/stm32g4xx_hal_pcd.c **** 
 515:Drivers/STM32G4xx_HAL_Driver/Src/stm32g4xx_hal_pcd.c ****     return HAL_ERROR;
 516:Drivers/STM32G4xx_HAL_Driver/Src/stm32g4xx_hal_pcd.c ****   }
 517:Drivers/STM32G4xx_HAL_Driver/Src/stm32g4xx_hal_pcd.c **** 
 518:Drivers/STM32G4xx_HAL_Driver/Src/stm32g4xx_hal_pcd.c ****   /* Process locked */
 519:Drivers/STM32G4xx_HAL_Driver/Src/stm32g4xx_hal_pcd.c ****   __HAL_LOCK(hpcd);
 520:Drivers/STM32G4xx_HAL_Driver/Src/stm32g4xx_hal_pcd.c **** 
 521:Drivers/STM32G4xx_HAL_Driver/Src/stm32g4xx_hal_pcd.c ****   if (hpcd->State == HAL_PCD_STATE_READY)
 522:Drivers/STM32G4xx_HAL_Driver/Src/stm32g4xx_hal_pcd.c ****   {
 523:Drivers/STM32G4xx_HAL_Driver/Src/stm32g4xx_hal_pcd.c ****     hpcd->DataOutStageCallback = pCallback;
 524:Drivers/STM32G4xx_HAL_Driver/Src/stm32g4xx_hal_pcd.c ****   }
 525:Drivers/STM32G4xx_HAL_Driver/Src/stm32g4xx_hal_pcd.c ****   else
 526:Drivers/STM32G4xx_HAL_Driver/Src/stm32g4xx_hal_pcd.c ****   {
 527:Drivers/STM32G4xx_HAL_Driver/Src/stm32g4xx_hal_pcd.c ****     /* Update the error code */
 528:Drivers/STM32G4xx_HAL_Driver/Src/stm32g4xx_hal_pcd.c ****     hpcd->ErrorCode |= HAL_PCD_ERROR_INVALID_CALLBACK;
 529:Drivers/STM32G4xx_HAL_Driver/Src/stm32g4xx_hal_pcd.c **** 
 530:Drivers/STM32G4xx_HAL_Driver/Src/stm32g4xx_hal_pcd.c ****     /* Return error status */
 531:Drivers/STM32G4xx_HAL_Driver/Src/stm32g4xx_hal_pcd.c ****     status =  HAL_ERROR;
 532:Drivers/STM32G4xx_HAL_Driver/Src/stm32g4xx_hal_pcd.c ****   }
 533:Drivers/STM32G4xx_HAL_Driver/Src/stm32g4xx_hal_pcd.c **** 
 534:Drivers/STM32G4xx_HAL_Driver/Src/stm32g4xx_hal_pcd.c ****   /* Release Lock */
 535:Drivers/STM32G4xx_HAL_Driver/Src/stm32g4xx_hal_pcd.c ****   __HAL_UNLOCK(hpcd);
 536:Drivers/STM32G4xx_HAL_Driver/Src/stm32g4xx_hal_pcd.c **** 
 537:Drivers/STM32G4xx_HAL_Driver/Src/stm32g4xx_hal_pcd.c ****   return status;
 538:Drivers/STM32G4xx_HAL_Driver/Src/stm32g4xx_hal_pcd.c **** }
 539:Drivers/STM32G4xx_HAL_Driver/Src/stm32g4xx_hal_pcd.c **** 
 540:Drivers/STM32G4xx_HAL_Driver/Src/stm32g4xx_hal_pcd.c **** /**
 541:Drivers/STM32G4xx_HAL_Driver/Src/stm32g4xx_hal_pcd.c ****   * @brief  UnRegister the USB PCD Data OUT Stage Callback
 542:Drivers/STM32G4xx_HAL_Driver/Src/stm32g4xx_hal_pcd.c ****   *         USB PCD Data OUT Stage Callback is redirected to the weak HAL_PCD_DataOutStageCallback(
 543:Drivers/STM32G4xx_HAL_Driver/Src/stm32g4xx_hal_pcd.c ****   * @param  hpcd PCD handle
 544:Drivers/STM32G4xx_HAL_Driver/Src/stm32g4xx_hal_pcd.c ****   * @retval HAL status
 545:Drivers/STM32G4xx_HAL_Driver/Src/stm32g4xx_hal_pcd.c ****   */
 546:Drivers/STM32G4xx_HAL_Driver/Src/stm32g4xx_hal_pcd.c **** HAL_StatusTypeDef HAL_PCD_UnRegisterDataOutStageCallback(PCD_HandleTypeDef *hpcd)
 547:Drivers/STM32G4xx_HAL_Driver/Src/stm32g4xx_hal_pcd.c **** {
 548:Drivers/STM32G4xx_HAL_Driver/Src/stm32g4xx_hal_pcd.c ****   HAL_StatusTypeDef status = HAL_OK;
 549:Drivers/STM32G4xx_HAL_Driver/Src/stm32g4xx_hal_pcd.c **** 
 550:Drivers/STM32G4xx_HAL_Driver/Src/stm32g4xx_hal_pcd.c ****   /* Process locked */
 551:Drivers/STM32G4xx_HAL_Driver/Src/stm32g4xx_hal_pcd.c ****   __HAL_LOCK(hpcd);
 552:Drivers/STM32G4xx_HAL_Driver/Src/stm32g4xx_hal_pcd.c **** 
ARM GAS  /tmp/ccXi6E5C.s 			page 17


 553:Drivers/STM32G4xx_HAL_Driver/Src/stm32g4xx_hal_pcd.c ****   if (hpcd->State == HAL_PCD_STATE_READY)
 554:Drivers/STM32G4xx_HAL_Driver/Src/stm32g4xx_hal_pcd.c ****   {
 555:Drivers/STM32G4xx_HAL_Driver/Src/stm32g4xx_hal_pcd.c ****     hpcd->DataOutStageCallback = HAL_PCD_DataOutStageCallback; /* Legacy weak DataOutStageCallback 
 556:Drivers/STM32G4xx_HAL_Driver/Src/stm32g4xx_hal_pcd.c ****   }
 557:Drivers/STM32G4xx_HAL_Driver/Src/stm32g4xx_hal_pcd.c ****   else
 558:Drivers/STM32G4xx_HAL_Driver/Src/stm32g4xx_hal_pcd.c ****   {
 559:Drivers/STM32G4xx_HAL_Driver/Src/stm32g4xx_hal_pcd.c ****     /* Update the error code */
 560:Drivers/STM32G4xx_HAL_Driver/Src/stm32g4xx_hal_pcd.c ****     hpcd->ErrorCode |= HAL_PCD_ERROR_INVALID_CALLBACK;
 561:Drivers/STM32G4xx_HAL_Driver/Src/stm32g4xx_hal_pcd.c **** 
 562:Drivers/STM32G4xx_HAL_Driver/Src/stm32g4xx_hal_pcd.c ****     /* Return error status */
 563:Drivers/STM32G4xx_HAL_Driver/Src/stm32g4xx_hal_pcd.c ****     status =  HAL_ERROR;
 564:Drivers/STM32G4xx_HAL_Driver/Src/stm32g4xx_hal_pcd.c ****   }
 565:Drivers/STM32G4xx_HAL_Driver/Src/stm32g4xx_hal_pcd.c **** 
 566:Drivers/STM32G4xx_HAL_Driver/Src/stm32g4xx_hal_pcd.c ****   /* Release Lock */
 567:Drivers/STM32G4xx_HAL_Driver/Src/stm32g4xx_hal_pcd.c ****   __HAL_UNLOCK(hpcd);
 568:Drivers/STM32G4xx_HAL_Driver/Src/stm32g4xx_hal_pcd.c **** 
 569:Drivers/STM32G4xx_HAL_Driver/Src/stm32g4xx_hal_pcd.c ****   return status;
 570:Drivers/STM32G4xx_HAL_Driver/Src/stm32g4xx_hal_pcd.c **** }
 571:Drivers/STM32G4xx_HAL_Driver/Src/stm32g4xx_hal_pcd.c **** 
 572:Drivers/STM32G4xx_HAL_Driver/Src/stm32g4xx_hal_pcd.c **** /**
 573:Drivers/STM32G4xx_HAL_Driver/Src/stm32g4xx_hal_pcd.c ****   * @brief  Register USB PCD Data IN Stage Callback
 574:Drivers/STM32G4xx_HAL_Driver/Src/stm32g4xx_hal_pcd.c ****   *         To be used instead of the weak HAL_PCD_DataInStageCallback() predefined callback
 575:Drivers/STM32G4xx_HAL_Driver/Src/stm32g4xx_hal_pcd.c ****   * @param  hpcd PCD handle
 576:Drivers/STM32G4xx_HAL_Driver/Src/stm32g4xx_hal_pcd.c ****   * @param  pCallback pointer to the USB PCD Data IN Stage Callback function
 577:Drivers/STM32G4xx_HAL_Driver/Src/stm32g4xx_hal_pcd.c ****   * @retval HAL status
 578:Drivers/STM32G4xx_HAL_Driver/Src/stm32g4xx_hal_pcd.c ****   */
 579:Drivers/STM32G4xx_HAL_Driver/Src/stm32g4xx_hal_pcd.c **** HAL_StatusTypeDef HAL_PCD_RegisterDataInStageCallback(PCD_HandleTypeDef *hpcd, pPCD_DataInStageCall
 580:Drivers/STM32G4xx_HAL_Driver/Src/stm32g4xx_hal_pcd.c **** {
 581:Drivers/STM32G4xx_HAL_Driver/Src/stm32g4xx_hal_pcd.c ****   HAL_StatusTypeDef status = HAL_OK;
 582:Drivers/STM32G4xx_HAL_Driver/Src/stm32g4xx_hal_pcd.c **** 
 583:Drivers/STM32G4xx_HAL_Driver/Src/stm32g4xx_hal_pcd.c ****   if (pCallback == NULL)
 584:Drivers/STM32G4xx_HAL_Driver/Src/stm32g4xx_hal_pcd.c ****   {
 585:Drivers/STM32G4xx_HAL_Driver/Src/stm32g4xx_hal_pcd.c ****     /* Update the error code */
 586:Drivers/STM32G4xx_HAL_Driver/Src/stm32g4xx_hal_pcd.c ****     hpcd->ErrorCode |= HAL_PCD_ERROR_INVALID_CALLBACK;
 587:Drivers/STM32G4xx_HAL_Driver/Src/stm32g4xx_hal_pcd.c **** 
 588:Drivers/STM32G4xx_HAL_Driver/Src/stm32g4xx_hal_pcd.c ****     return HAL_ERROR;
 589:Drivers/STM32G4xx_HAL_Driver/Src/stm32g4xx_hal_pcd.c ****   }
 590:Drivers/STM32G4xx_HAL_Driver/Src/stm32g4xx_hal_pcd.c **** 
 591:Drivers/STM32G4xx_HAL_Driver/Src/stm32g4xx_hal_pcd.c ****   /* Process locked */
 592:Drivers/STM32G4xx_HAL_Driver/Src/stm32g4xx_hal_pcd.c ****   __HAL_LOCK(hpcd);
 593:Drivers/STM32G4xx_HAL_Driver/Src/stm32g4xx_hal_pcd.c **** 
 594:Drivers/STM32G4xx_HAL_Driver/Src/stm32g4xx_hal_pcd.c ****   if (hpcd->State == HAL_PCD_STATE_READY)
 595:Drivers/STM32G4xx_HAL_Driver/Src/stm32g4xx_hal_pcd.c ****   {
 596:Drivers/STM32G4xx_HAL_Driver/Src/stm32g4xx_hal_pcd.c ****     hpcd->DataInStageCallback = pCallback;
 597:Drivers/STM32G4xx_HAL_Driver/Src/stm32g4xx_hal_pcd.c ****   }
 598:Drivers/STM32G4xx_HAL_Driver/Src/stm32g4xx_hal_pcd.c ****   else
 599:Drivers/STM32G4xx_HAL_Driver/Src/stm32g4xx_hal_pcd.c ****   {
 600:Drivers/STM32G4xx_HAL_Driver/Src/stm32g4xx_hal_pcd.c ****     /* Update the error code */
 601:Drivers/STM32G4xx_HAL_Driver/Src/stm32g4xx_hal_pcd.c ****     hpcd->ErrorCode |= HAL_PCD_ERROR_INVALID_CALLBACK;
 602:Drivers/STM32G4xx_HAL_Driver/Src/stm32g4xx_hal_pcd.c **** 
 603:Drivers/STM32G4xx_HAL_Driver/Src/stm32g4xx_hal_pcd.c ****     /* Return error status */
 604:Drivers/STM32G4xx_HAL_Driver/Src/stm32g4xx_hal_pcd.c ****     status =  HAL_ERROR;
 605:Drivers/STM32G4xx_HAL_Driver/Src/stm32g4xx_hal_pcd.c ****   }
 606:Drivers/STM32G4xx_HAL_Driver/Src/stm32g4xx_hal_pcd.c **** 
 607:Drivers/STM32G4xx_HAL_Driver/Src/stm32g4xx_hal_pcd.c ****   /* Release Lock */
 608:Drivers/STM32G4xx_HAL_Driver/Src/stm32g4xx_hal_pcd.c ****   __HAL_UNLOCK(hpcd);
 609:Drivers/STM32G4xx_HAL_Driver/Src/stm32g4xx_hal_pcd.c **** 
ARM GAS  /tmp/ccXi6E5C.s 			page 18


 610:Drivers/STM32G4xx_HAL_Driver/Src/stm32g4xx_hal_pcd.c ****   return status;
 611:Drivers/STM32G4xx_HAL_Driver/Src/stm32g4xx_hal_pcd.c **** }
 612:Drivers/STM32G4xx_HAL_Driver/Src/stm32g4xx_hal_pcd.c **** 
 613:Drivers/STM32G4xx_HAL_Driver/Src/stm32g4xx_hal_pcd.c **** /**
 614:Drivers/STM32G4xx_HAL_Driver/Src/stm32g4xx_hal_pcd.c ****   * @brief  UnRegister the USB PCD Data IN Stage Callback
 615:Drivers/STM32G4xx_HAL_Driver/Src/stm32g4xx_hal_pcd.c ****   *         USB PCD Data OUT Stage Callback is redirected to the weak HAL_PCD_DataInStageCallback()
 616:Drivers/STM32G4xx_HAL_Driver/Src/stm32g4xx_hal_pcd.c ****   * @param  hpcd PCD handle
 617:Drivers/STM32G4xx_HAL_Driver/Src/stm32g4xx_hal_pcd.c ****   * @retval HAL status
 618:Drivers/STM32G4xx_HAL_Driver/Src/stm32g4xx_hal_pcd.c ****   */
 619:Drivers/STM32G4xx_HAL_Driver/Src/stm32g4xx_hal_pcd.c **** HAL_StatusTypeDef HAL_PCD_UnRegisterDataInStageCallback(PCD_HandleTypeDef *hpcd)
 620:Drivers/STM32G4xx_HAL_Driver/Src/stm32g4xx_hal_pcd.c **** {
 621:Drivers/STM32G4xx_HAL_Driver/Src/stm32g4xx_hal_pcd.c ****   HAL_StatusTypeDef status = HAL_OK;
 622:Drivers/STM32G4xx_HAL_Driver/Src/stm32g4xx_hal_pcd.c **** 
 623:Drivers/STM32G4xx_HAL_Driver/Src/stm32g4xx_hal_pcd.c ****   /* Process locked */
 624:Drivers/STM32G4xx_HAL_Driver/Src/stm32g4xx_hal_pcd.c ****   __HAL_LOCK(hpcd);
 625:Drivers/STM32G4xx_HAL_Driver/Src/stm32g4xx_hal_pcd.c **** 
 626:Drivers/STM32G4xx_HAL_Driver/Src/stm32g4xx_hal_pcd.c ****   if (hpcd->State == HAL_PCD_STATE_READY)
 627:Drivers/STM32G4xx_HAL_Driver/Src/stm32g4xx_hal_pcd.c ****   {
 628:Drivers/STM32G4xx_HAL_Driver/Src/stm32g4xx_hal_pcd.c ****     hpcd->DataInStageCallback = HAL_PCD_DataInStageCallback; /* Legacy weak DataInStageCallback  */
 629:Drivers/STM32G4xx_HAL_Driver/Src/stm32g4xx_hal_pcd.c ****   }
 630:Drivers/STM32G4xx_HAL_Driver/Src/stm32g4xx_hal_pcd.c ****   else
 631:Drivers/STM32G4xx_HAL_Driver/Src/stm32g4xx_hal_pcd.c ****   {
 632:Drivers/STM32G4xx_HAL_Driver/Src/stm32g4xx_hal_pcd.c ****     /* Update the error code */
 633:Drivers/STM32G4xx_HAL_Driver/Src/stm32g4xx_hal_pcd.c ****     hpcd->ErrorCode |= HAL_PCD_ERROR_INVALID_CALLBACK;
 634:Drivers/STM32G4xx_HAL_Driver/Src/stm32g4xx_hal_pcd.c **** 
 635:Drivers/STM32G4xx_HAL_Driver/Src/stm32g4xx_hal_pcd.c ****     /* Return error status */
 636:Drivers/STM32G4xx_HAL_Driver/Src/stm32g4xx_hal_pcd.c ****     status =  HAL_ERROR;
 637:Drivers/STM32G4xx_HAL_Driver/Src/stm32g4xx_hal_pcd.c ****   }
 638:Drivers/STM32G4xx_HAL_Driver/Src/stm32g4xx_hal_pcd.c **** 
 639:Drivers/STM32G4xx_HAL_Driver/Src/stm32g4xx_hal_pcd.c ****   /* Release Lock */
 640:Drivers/STM32G4xx_HAL_Driver/Src/stm32g4xx_hal_pcd.c ****   __HAL_UNLOCK(hpcd);
 641:Drivers/STM32G4xx_HAL_Driver/Src/stm32g4xx_hal_pcd.c **** 
 642:Drivers/STM32G4xx_HAL_Driver/Src/stm32g4xx_hal_pcd.c ****   return status;
 643:Drivers/STM32G4xx_HAL_Driver/Src/stm32g4xx_hal_pcd.c **** }
 644:Drivers/STM32G4xx_HAL_Driver/Src/stm32g4xx_hal_pcd.c **** 
 645:Drivers/STM32G4xx_HAL_Driver/Src/stm32g4xx_hal_pcd.c **** /**
 646:Drivers/STM32G4xx_HAL_Driver/Src/stm32g4xx_hal_pcd.c ****   * @brief  Register USB PCD Iso OUT incomplete Callback
 647:Drivers/STM32G4xx_HAL_Driver/Src/stm32g4xx_hal_pcd.c ****   *         To be used instead of the weak HAL_PCD_ISOOUTIncompleteCallback() predefined callback
 648:Drivers/STM32G4xx_HAL_Driver/Src/stm32g4xx_hal_pcd.c ****   * @param  hpcd PCD handle
 649:Drivers/STM32G4xx_HAL_Driver/Src/stm32g4xx_hal_pcd.c ****   * @param  pCallback pointer to the USB PCD Iso OUT incomplete Callback function
 650:Drivers/STM32G4xx_HAL_Driver/Src/stm32g4xx_hal_pcd.c ****   * @retval HAL status
 651:Drivers/STM32G4xx_HAL_Driver/Src/stm32g4xx_hal_pcd.c ****   */
 652:Drivers/STM32G4xx_HAL_Driver/Src/stm32g4xx_hal_pcd.c **** HAL_StatusTypeDef HAL_PCD_RegisterIsoOutIncpltCallback(PCD_HandleTypeDef *hpcd, pPCD_IsoOutIncpltCa
 653:Drivers/STM32G4xx_HAL_Driver/Src/stm32g4xx_hal_pcd.c **** {
 654:Drivers/STM32G4xx_HAL_Driver/Src/stm32g4xx_hal_pcd.c ****   HAL_StatusTypeDef status = HAL_OK;
 655:Drivers/STM32G4xx_HAL_Driver/Src/stm32g4xx_hal_pcd.c **** 
 656:Drivers/STM32G4xx_HAL_Driver/Src/stm32g4xx_hal_pcd.c ****   if (pCallback == NULL)
 657:Drivers/STM32G4xx_HAL_Driver/Src/stm32g4xx_hal_pcd.c ****   {
 658:Drivers/STM32G4xx_HAL_Driver/Src/stm32g4xx_hal_pcd.c ****     /* Update the error code */
 659:Drivers/STM32G4xx_HAL_Driver/Src/stm32g4xx_hal_pcd.c ****     hpcd->ErrorCode |= HAL_PCD_ERROR_INVALID_CALLBACK;
 660:Drivers/STM32G4xx_HAL_Driver/Src/stm32g4xx_hal_pcd.c **** 
 661:Drivers/STM32G4xx_HAL_Driver/Src/stm32g4xx_hal_pcd.c ****     return HAL_ERROR;
 662:Drivers/STM32G4xx_HAL_Driver/Src/stm32g4xx_hal_pcd.c ****   }
 663:Drivers/STM32G4xx_HAL_Driver/Src/stm32g4xx_hal_pcd.c **** 
 664:Drivers/STM32G4xx_HAL_Driver/Src/stm32g4xx_hal_pcd.c ****   /* Process locked */
 665:Drivers/STM32G4xx_HAL_Driver/Src/stm32g4xx_hal_pcd.c ****   __HAL_LOCK(hpcd);
 666:Drivers/STM32G4xx_HAL_Driver/Src/stm32g4xx_hal_pcd.c **** 
ARM GAS  /tmp/ccXi6E5C.s 			page 19


 667:Drivers/STM32G4xx_HAL_Driver/Src/stm32g4xx_hal_pcd.c ****   if (hpcd->State == HAL_PCD_STATE_READY)
 668:Drivers/STM32G4xx_HAL_Driver/Src/stm32g4xx_hal_pcd.c ****   {
 669:Drivers/STM32G4xx_HAL_Driver/Src/stm32g4xx_hal_pcd.c ****     hpcd->ISOOUTIncompleteCallback = pCallback;
 670:Drivers/STM32G4xx_HAL_Driver/Src/stm32g4xx_hal_pcd.c ****   }
 671:Drivers/STM32G4xx_HAL_Driver/Src/stm32g4xx_hal_pcd.c ****   else
 672:Drivers/STM32G4xx_HAL_Driver/Src/stm32g4xx_hal_pcd.c ****   {
 673:Drivers/STM32G4xx_HAL_Driver/Src/stm32g4xx_hal_pcd.c ****     /* Update the error code */
 674:Drivers/STM32G4xx_HAL_Driver/Src/stm32g4xx_hal_pcd.c ****     hpcd->ErrorCode |= HAL_PCD_ERROR_INVALID_CALLBACK;
 675:Drivers/STM32G4xx_HAL_Driver/Src/stm32g4xx_hal_pcd.c **** 
 676:Drivers/STM32G4xx_HAL_Driver/Src/stm32g4xx_hal_pcd.c ****     /* Return error status */
 677:Drivers/STM32G4xx_HAL_Driver/Src/stm32g4xx_hal_pcd.c ****     status =  HAL_ERROR;
 678:Drivers/STM32G4xx_HAL_Driver/Src/stm32g4xx_hal_pcd.c ****   }
 679:Drivers/STM32G4xx_HAL_Driver/Src/stm32g4xx_hal_pcd.c **** 
 680:Drivers/STM32G4xx_HAL_Driver/Src/stm32g4xx_hal_pcd.c ****   /* Release Lock */
 681:Drivers/STM32G4xx_HAL_Driver/Src/stm32g4xx_hal_pcd.c ****   __HAL_UNLOCK(hpcd);
 682:Drivers/STM32G4xx_HAL_Driver/Src/stm32g4xx_hal_pcd.c **** 
 683:Drivers/STM32G4xx_HAL_Driver/Src/stm32g4xx_hal_pcd.c ****   return status;
 684:Drivers/STM32G4xx_HAL_Driver/Src/stm32g4xx_hal_pcd.c **** }
 685:Drivers/STM32G4xx_HAL_Driver/Src/stm32g4xx_hal_pcd.c **** 
 686:Drivers/STM32G4xx_HAL_Driver/Src/stm32g4xx_hal_pcd.c **** /**
 687:Drivers/STM32G4xx_HAL_Driver/Src/stm32g4xx_hal_pcd.c ****   * @brief  UnRegister the USB PCD Iso OUT incomplete Callback
 688:Drivers/STM32G4xx_HAL_Driver/Src/stm32g4xx_hal_pcd.c ****   *         USB PCD Iso OUT incomplete Callback is redirected to the weak HAL_PCD_ISOOUTIncompleteC
 689:Drivers/STM32G4xx_HAL_Driver/Src/stm32g4xx_hal_pcd.c ****   * @param  hpcd PCD handle
 690:Drivers/STM32G4xx_HAL_Driver/Src/stm32g4xx_hal_pcd.c ****   * @retval HAL status
 691:Drivers/STM32G4xx_HAL_Driver/Src/stm32g4xx_hal_pcd.c ****   */
 692:Drivers/STM32G4xx_HAL_Driver/Src/stm32g4xx_hal_pcd.c **** HAL_StatusTypeDef HAL_PCD_UnRegisterIsoOutIncpltCallback(PCD_HandleTypeDef *hpcd)
 693:Drivers/STM32G4xx_HAL_Driver/Src/stm32g4xx_hal_pcd.c **** {
 694:Drivers/STM32G4xx_HAL_Driver/Src/stm32g4xx_hal_pcd.c ****   HAL_StatusTypeDef status = HAL_OK;
 695:Drivers/STM32G4xx_HAL_Driver/Src/stm32g4xx_hal_pcd.c **** 
 696:Drivers/STM32G4xx_HAL_Driver/Src/stm32g4xx_hal_pcd.c ****   /* Process locked */
 697:Drivers/STM32G4xx_HAL_Driver/Src/stm32g4xx_hal_pcd.c ****   __HAL_LOCK(hpcd);
 698:Drivers/STM32G4xx_HAL_Driver/Src/stm32g4xx_hal_pcd.c **** 
 699:Drivers/STM32G4xx_HAL_Driver/Src/stm32g4xx_hal_pcd.c ****   if (hpcd->State == HAL_PCD_STATE_READY)
 700:Drivers/STM32G4xx_HAL_Driver/Src/stm32g4xx_hal_pcd.c ****   {
 701:Drivers/STM32G4xx_HAL_Driver/Src/stm32g4xx_hal_pcd.c ****     hpcd->ISOOUTIncompleteCallback = HAL_PCD_ISOOUTIncompleteCallback; /* Legacy weak ISOOUTIncompl
 702:Drivers/STM32G4xx_HAL_Driver/Src/stm32g4xx_hal_pcd.c ****   }
 703:Drivers/STM32G4xx_HAL_Driver/Src/stm32g4xx_hal_pcd.c ****   else
 704:Drivers/STM32G4xx_HAL_Driver/Src/stm32g4xx_hal_pcd.c ****   {
 705:Drivers/STM32G4xx_HAL_Driver/Src/stm32g4xx_hal_pcd.c ****     /* Update the error code */
 706:Drivers/STM32G4xx_HAL_Driver/Src/stm32g4xx_hal_pcd.c ****     hpcd->ErrorCode |= HAL_PCD_ERROR_INVALID_CALLBACK;
 707:Drivers/STM32G4xx_HAL_Driver/Src/stm32g4xx_hal_pcd.c **** 
 708:Drivers/STM32G4xx_HAL_Driver/Src/stm32g4xx_hal_pcd.c ****     /* Return error status */
 709:Drivers/STM32G4xx_HAL_Driver/Src/stm32g4xx_hal_pcd.c ****     status =  HAL_ERROR;
 710:Drivers/STM32G4xx_HAL_Driver/Src/stm32g4xx_hal_pcd.c ****   }
 711:Drivers/STM32G4xx_HAL_Driver/Src/stm32g4xx_hal_pcd.c **** 
 712:Drivers/STM32G4xx_HAL_Driver/Src/stm32g4xx_hal_pcd.c ****   /* Release Lock */
 713:Drivers/STM32G4xx_HAL_Driver/Src/stm32g4xx_hal_pcd.c ****   __HAL_UNLOCK(hpcd);
 714:Drivers/STM32G4xx_HAL_Driver/Src/stm32g4xx_hal_pcd.c **** 
 715:Drivers/STM32G4xx_HAL_Driver/Src/stm32g4xx_hal_pcd.c ****   return status;
 716:Drivers/STM32G4xx_HAL_Driver/Src/stm32g4xx_hal_pcd.c **** }
 717:Drivers/STM32G4xx_HAL_Driver/Src/stm32g4xx_hal_pcd.c **** 
 718:Drivers/STM32G4xx_HAL_Driver/Src/stm32g4xx_hal_pcd.c **** /**
 719:Drivers/STM32G4xx_HAL_Driver/Src/stm32g4xx_hal_pcd.c ****   * @brief  Register USB PCD Iso IN incomplete Callback
 720:Drivers/STM32G4xx_HAL_Driver/Src/stm32g4xx_hal_pcd.c ****   *         To be used instead of the weak HAL_PCD_ISOINIncompleteCallback() predefined callback
 721:Drivers/STM32G4xx_HAL_Driver/Src/stm32g4xx_hal_pcd.c ****   * @param  hpcd PCD handle
 722:Drivers/STM32G4xx_HAL_Driver/Src/stm32g4xx_hal_pcd.c ****   * @param  pCallback pointer to the USB PCD Iso IN incomplete Callback function
 723:Drivers/STM32G4xx_HAL_Driver/Src/stm32g4xx_hal_pcd.c ****   * @retval HAL status
ARM GAS  /tmp/ccXi6E5C.s 			page 20


 724:Drivers/STM32G4xx_HAL_Driver/Src/stm32g4xx_hal_pcd.c ****   */
 725:Drivers/STM32G4xx_HAL_Driver/Src/stm32g4xx_hal_pcd.c **** HAL_StatusTypeDef HAL_PCD_RegisterIsoInIncpltCallback(PCD_HandleTypeDef *hpcd, pPCD_IsoInIncpltCall
 726:Drivers/STM32G4xx_HAL_Driver/Src/stm32g4xx_hal_pcd.c **** {
 727:Drivers/STM32G4xx_HAL_Driver/Src/stm32g4xx_hal_pcd.c ****   HAL_StatusTypeDef status = HAL_OK;
 728:Drivers/STM32G4xx_HAL_Driver/Src/stm32g4xx_hal_pcd.c **** 
 729:Drivers/STM32G4xx_HAL_Driver/Src/stm32g4xx_hal_pcd.c ****   if (pCallback == NULL)
 730:Drivers/STM32G4xx_HAL_Driver/Src/stm32g4xx_hal_pcd.c ****   {
 731:Drivers/STM32G4xx_HAL_Driver/Src/stm32g4xx_hal_pcd.c ****     /* Update the error code */
 732:Drivers/STM32G4xx_HAL_Driver/Src/stm32g4xx_hal_pcd.c ****     hpcd->ErrorCode |= HAL_PCD_ERROR_INVALID_CALLBACK;
 733:Drivers/STM32G4xx_HAL_Driver/Src/stm32g4xx_hal_pcd.c **** 
 734:Drivers/STM32G4xx_HAL_Driver/Src/stm32g4xx_hal_pcd.c ****     return HAL_ERROR;
 735:Drivers/STM32G4xx_HAL_Driver/Src/stm32g4xx_hal_pcd.c ****   }
 736:Drivers/STM32G4xx_HAL_Driver/Src/stm32g4xx_hal_pcd.c **** 
 737:Drivers/STM32G4xx_HAL_Driver/Src/stm32g4xx_hal_pcd.c ****   /* Process locked */
 738:Drivers/STM32G4xx_HAL_Driver/Src/stm32g4xx_hal_pcd.c ****   __HAL_LOCK(hpcd);
 739:Drivers/STM32G4xx_HAL_Driver/Src/stm32g4xx_hal_pcd.c **** 
 740:Drivers/STM32G4xx_HAL_Driver/Src/stm32g4xx_hal_pcd.c ****   if (hpcd->State == HAL_PCD_STATE_READY)
 741:Drivers/STM32G4xx_HAL_Driver/Src/stm32g4xx_hal_pcd.c ****   {
 742:Drivers/STM32G4xx_HAL_Driver/Src/stm32g4xx_hal_pcd.c ****     hpcd->ISOINIncompleteCallback = pCallback;
 743:Drivers/STM32G4xx_HAL_Driver/Src/stm32g4xx_hal_pcd.c ****   }
 744:Drivers/STM32G4xx_HAL_Driver/Src/stm32g4xx_hal_pcd.c ****   else
 745:Drivers/STM32G4xx_HAL_Driver/Src/stm32g4xx_hal_pcd.c ****   {
 746:Drivers/STM32G4xx_HAL_Driver/Src/stm32g4xx_hal_pcd.c ****     /* Update the error code */
 747:Drivers/STM32G4xx_HAL_Driver/Src/stm32g4xx_hal_pcd.c ****     hpcd->ErrorCode |= HAL_PCD_ERROR_INVALID_CALLBACK;
 748:Drivers/STM32G4xx_HAL_Driver/Src/stm32g4xx_hal_pcd.c **** 
 749:Drivers/STM32G4xx_HAL_Driver/Src/stm32g4xx_hal_pcd.c ****     /* Return error status */
 750:Drivers/STM32G4xx_HAL_Driver/Src/stm32g4xx_hal_pcd.c ****     status =  HAL_ERROR;
 751:Drivers/STM32G4xx_HAL_Driver/Src/stm32g4xx_hal_pcd.c ****   }
 752:Drivers/STM32G4xx_HAL_Driver/Src/stm32g4xx_hal_pcd.c **** 
 753:Drivers/STM32G4xx_HAL_Driver/Src/stm32g4xx_hal_pcd.c ****   /* Release Lock */
 754:Drivers/STM32G4xx_HAL_Driver/Src/stm32g4xx_hal_pcd.c ****   __HAL_UNLOCK(hpcd);
 755:Drivers/STM32G4xx_HAL_Driver/Src/stm32g4xx_hal_pcd.c **** 
 756:Drivers/STM32G4xx_HAL_Driver/Src/stm32g4xx_hal_pcd.c ****   return status;
 757:Drivers/STM32G4xx_HAL_Driver/Src/stm32g4xx_hal_pcd.c **** }
 758:Drivers/STM32G4xx_HAL_Driver/Src/stm32g4xx_hal_pcd.c **** 
 759:Drivers/STM32G4xx_HAL_Driver/Src/stm32g4xx_hal_pcd.c **** /**
 760:Drivers/STM32G4xx_HAL_Driver/Src/stm32g4xx_hal_pcd.c ****   * @brief  UnRegister the USB PCD Iso IN incomplete Callback
 761:Drivers/STM32G4xx_HAL_Driver/Src/stm32g4xx_hal_pcd.c ****   *         USB PCD Iso IN incomplete Callback is redirected to the weak HAL_PCD_ISOINIncompleteCal
 762:Drivers/STM32G4xx_HAL_Driver/Src/stm32g4xx_hal_pcd.c ****   * @param  hpcd PCD handle
 763:Drivers/STM32G4xx_HAL_Driver/Src/stm32g4xx_hal_pcd.c ****   * @retval HAL status
 764:Drivers/STM32G4xx_HAL_Driver/Src/stm32g4xx_hal_pcd.c ****   */
 765:Drivers/STM32G4xx_HAL_Driver/Src/stm32g4xx_hal_pcd.c **** HAL_StatusTypeDef HAL_PCD_UnRegisterIsoInIncpltCallback(PCD_HandleTypeDef *hpcd)
 766:Drivers/STM32G4xx_HAL_Driver/Src/stm32g4xx_hal_pcd.c **** {
 767:Drivers/STM32G4xx_HAL_Driver/Src/stm32g4xx_hal_pcd.c ****   HAL_StatusTypeDef status = HAL_OK;
 768:Drivers/STM32G4xx_HAL_Driver/Src/stm32g4xx_hal_pcd.c **** 
 769:Drivers/STM32G4xx_HAL_Driver/Src/stm32g4xx_hal_pcd.c ****   /* Process locked */
 770:Drivers/STM32G4xx_HAL_Driver/Src/stm32g4xx_hal_pcd.c ****   __HAL_LOCK(hpcd);
 771:Drivers/STM32G4xx_HAL_Driver/Src/stm32g4xx_hal_pcd.c **** 
 772:Drivers/STM32G4xx_HAL_Driver/Src/stm32g4xx_hal_pcd.c ****   if (hpcd->State == HAL_PCD_STATE_READY)
 773:Drivers/STM32G4xx_HAL_Driver/Src/stm32g4xx_hal_pcd.c ****   {
 774:Drivers/STM32G4xx_HAL_Driver/Src/stm32g4xx_hal_pcd.c ****     hpcd->ISOINIncompleteCallback = HAL_PCD_ISOINIncompleteCallback; /* Legacy weak ISOINIncomplete
 775:Drivers/STM32G4xx_HAL_Driver/Src/stm32g4xx_hal_pcd.c ****   }
 776:Drivers/STM32G4xx_HAL_Driver/Src/stm32g4xx_hal_pcd.c ****   else
 777:Drivers/STM32G4xx_HAL_Driver/Src/stm32g4xx_hal_pcd.c ****   {
 778:Drivers/STM32G4xx_HAL_Driver/Src/stm32g4xx_hal_pcd.c ****     /* Update the error code */
 779:Drivers/STM32G4xx_HAL_Driver/Src/stm32g4xx_hal_pcd.c ****     hpcd->ErrorCode |= HAL_PCD_ERROR_INVALID_CALLBACK;
 780:Drivers/STM32G4xx_HAL_Driver/Src/stm32g4xx_hal_pcd.c **** 
ARM GAS  /tmp/ccXi6E5C.s 			page 21


 781:Drivers/STM32G4xx_HAL_Driver/Src/stm32g4xx_hal_pcd.c ****     /* Return error status */
 782:Drivers/STM32G4xx_HAL_Driver/Src/stm32g4xx_hal_pcd.c ****     status =  HAL_ERROR;
 783:Drivers/STM32G4xx_HAL_Driver/Src/stm32g4xx_hal_pcd.c ****   }
 784:Drivers/STM32G4xx_HAL_Driver/Src/stm32g4xx_hal_pcd.c **** 
 785:Drivers/STM32G4xx_HAL_Driver/Src/stm32g4xx_hal_pcd.c ****   /* Release Lock */
 786:Drivers/STM32G4xx_HAL_Driver/Src/stm32g4xx_hal_pcd.c ****   __HAL_UNLOCK(hpcd);
 787:Drivers/STM32G4xx_HAL_Driver/Src/stm32g4xx_hal_pcd.c **** 
 788:Drivers/STM32G4xx_HAL_Driver/Src/stm32g4xx_hal_pcd.c ****   return status;
 789:Drivers/STM32G4xx_HAL_Driver/Src/stm32g4xx_hal_pcd.c **** }
 790:Drivers/STM32G4xx_HAL_Driver/Src/stm32g4xx_hal_pcd.c **** 
 791:Drivers/STM32G4xx_HAL_Driver/Src/stm32g4xx_hal_pcd.c **** /**
 792:Drivers/STM32G4xx_HAL_Driver/Src/stm32g4xx_hal_pcd.c ****   * @brief  Register USB PCD BCD Callback
 793:Drivers/STM32G4xx_HAL_Driver/Src/stm32g4xx_hal_pcd.c ****   *         To be used instead of the weak HAL_PCDEx_BCD_Callback() predefined callback
 794:Drivers/STM32G4xx_HAL_Driver/Src/stm32g4xx_hal_pcd.c ****   * @param  hpcd PCD handle
 795:Drivers/STM32G4xx_HAL_Driver/Src/stm32g4xx_hal_pcd.c ****   * @param  pCallback pointer to the USB PCD BCD Callback function
 796:Drivers/STM32G4xx_HAL_Driver/Src/stm32g4xx_hal_pcd.c ****   * @retval HAL status
 797:Drivers/STM32G4xx_HAL_Driver/Src/stm32g4xx_hal_pcd.c ****   */
 798:Drivers/STM32G4xx_HAL_Driver/Src/stm32g4xx_hal_pcd.c **** HAL_StatusTypeDef HAL_PCD_RegisterBcdCallback(PCD_HandleTypeDef *hpcd, pPCD_BcdCallbackTypeDef pCal
 799:Drivers/STM32G4xx_HAL_Driver/Src/stm32g4xx_hal_pcd.c **** {
 800:Drivers/STM32G4xx_HAL_Driver/Src/stm32g4xx_hal_pcd.c ****   HAL_StatusTypeDef status = HAL_OK;
 801:Drivers/STM32G4xx_HAL_Driver/Src/stm32g4xx_hal_pcd.c **** 
 802:Drivers/STM32G4xx_HAL_Driver/Src/stm32g4xx_hal_pcd.c ****   if (pCallback == NULL)
 803:Drivers/STM32G4xx_HAL_Driver/Src/stm32g4xx_hal_pcd.c ****   {
 804:Drivers/STM32G4xx_HAL_Driver/Src/stm32g4xx_hal_pcd.c ****     /* Update the error code */
 805:Drivers/STM32G4xx_HAL_Driver/Src/stm32g4xx_hal_pcd.c ****     hpcd->ErrorCode |= HAL_PCD_ERROR_INVALID_CALLBACK;
 806:Drivers/STM32G4xx_HAL_Driver/Src/stm32g4xx_hal_pcd.c **** 
 807:Drivers/STM32G4xx_HAL_Driver/Src/stm32g4xx_hal_pcd.c ****     return HAL_ERROR;
 808:Drivers/STM32G4xx_HAL_Driver/Src/stm32g4xx_hal_pcd.c ****   }
 809:Drivers/STM32G4xx_HAL_Driver/Src/stm32g4xx_hal_pcd.c **** 
 810:Drivers/STM32G4xx_HAL_Driver/Src/stm32g4xx_hal_pcd.c ****   /* Process locked */
 811:Drivers/STM32G4xx_HAL_Driver/Src/stm32g4xx_hal_pcd.c ****   __HAL_LOCK(hpcd);
 812:Drivers/STM32G4xx_HAL_Driver/Src/stm32g4xx_hal_pcd.c **** 
 813:Drivers/STM32G4xx_HAL_Driver/Src/stm32g4xx_hal_pcd.c ****   if (hpcd->State == HAL_PCD_STATE_READY)
 814:Drivers/STM32G4xx_HAL_Driver/Src/stm32g4xx_hal_pcd.c ****   {
 815:Drivers/STM32G4xx_HAL_Driver/Src/stm32g4xx_hal_pcd.c ****     hpcd->BCDCallback = pCallback;
 816:Drivers/STM32G4xx_HAL_Driver/Src/stm32g4xx_hal_pcd.c ****   }
 817:Drivers/STM32G4xx_HAL_Driver/Src/stm32g4xx_hal_pcd.c ****   else
 818:Drivers/STM32G4xx_HAL_Driver/Src/stm32g4xx_hal_pcd.c ****   {
 819:Drivers/STM32G4xx_HAL_Driver/Src/stm32g4xx_hal_pcd.c ****     /* Update the error code */
 820:Drivers/STM32G4xx_HAL_Driver/Src/stm32g4xx_hal_pcd.c ****     hpcd->ErrorCode |= HAL_PCD_ERROR_INVALID_CALLBACK;
 821:Drivers/STM32G4xx_HAL_Driver/Src/stm32g4xx_hal_pcd.c **** 
 822:Drivers/STM32G4xx_HAL_Driver/Src/stm32g4xx_hal_pcd.c ****     /* Return error status */
 823:Drivers/STM32G4xx_HAL_Driver/Src/stm32g4xx_hal_pcd.c ****     status =  HAL_ERROR;
 824:Drivers/STM32G4xx_HAL_Driver/Src/stm32g4xx_hal_pcd.c ****   }
 825:Drivers/STM32G4xx_HAL_Driver/Src/stm32g4xx_hal_pcd.c **** 
 826:Drivers/STM32G4xx_HAL_Driver/Src/stm32g4xx_hal_pcd.c ****   /* Release Lock */
 827:Drivers/STM32G4xx_HAL_Driver/Src/stm32g4xx_hal_pcd.c ****   __HAL_UNLOCK(hpcd);
 828:Drivers/STM32G4xx_HAL_Driver/Src/stm32g4xx_hal_pcd.c **** 
 829:Drivers/STM32G4xx_HAL_Driver/Src/stm32g4xx_hal_pcd.c ****   return status;
 830:Drivers/STM32G4xx_HAL_Driver/Src/stm32g4xx_hal_pcd.c **** }
 831:Drivers/STM32G4xx_HAL_Driver/Src/stm32g4xx_hal_pcd.c **** 
 832:Drivers/STM32G4xx_HAL_Driver/Src/stm32g4xx_hal_pcd.c **** /**
 833:Drivers/STM32G4xx_HAL_Driver/Src/stm32g4xx_hal_pcd.c ****   * @brief  UnRegister the USB PCD BCD Callback
 834:Drivers/STM32G4xx_HAL_Driver/Src/stm32g4xx_hal_pcd.c ****   *         USB BCD Callback is redirected to the weak HAL_PCDEx_BCD_Callback() predefined callback
 835:Drivers/STM32G4xx_HAL_Driver/Src/stm32g4xx_hal_pcd.c ****   * @param  hpcd PCD handle
 836:Drivers/STM32G4xx_HAL_Driver/Src/stm32g4xx_hal_pcd.c ****   * @retval HAL status
 837:Drivers/STM32G4xx_HAL_Driver/Src/stm32g4xx_hal_pcd.c ****   */
ARM GAS  /tmp/ccXi6E5C.s 			page 22


 838:Drivers/STM32G4xx_HAL_Driver/Src/stm32g4xx_hal_pcd.c **** HAL_StatusTypeDef HAL_PCD_UnRegisterBcdCallback(PCD_HandleTypeDef *hpcd)
 839:Drivers/STM32G4xx_HAL_Driver/Src/stm32g4xx_hal_pcd.c **** {
 840:Drivers/STM32G4xx_HAL_Driver/Src/stm32g4xx_hal_pcd.c ****   HAL_StatusTypeDef status = HAL_OK;
 841:Drivers/STM32G4xx_HAL_Driver/Src/stm32g4xx_hal_pcd.c **** 
 842:Drivers/STM32G4xx_HAL_Driver/Src/stm32g4xx_hal_pcd.c ****   /* Process locked */
 843:Drivers/STM32G4xx_HAL_Driver/Src/stm32g4xx_hal_pcd.c ****   __HAL_LOCK(hpcd);
 844:Drivers/STM32G4xx_HAL_Driver/Src/stm32g4xx_hal_pcd.c **** 
 845:Drivers/STM32G4xx_HAL_Driver/Src/stm32g4xx_hal_pcd.c ****   if (hpcd->State == HAL_PCD_STATE_READY)
 846:Drivers/STM32G4xx_HAL_Driver/Src/stm32g4xx_hal_pcd.c ****   {
 847:Drivers/STM32G4xx_HAL_Driver/Src/stm32g4xx_hal_pcd.c ****     hpcd->BCDCallback = HAL_PCDEx_BCD_Callback; /* Legacy weak HAL_PCDEx_BCD_Callback  */
 848:Drivers/STM32G4xx_HAL_Driver/Src/stm32g4xx_hal_pcd.c ****   }
 849:Drivers/STM32G4xx_HAL_Driver/Src/stm32g4xx_hal_pcd.c ****   else
 850:Drivers/STM32G4xx_HAL_Driver/Src/stm32g4xx_hal_pcd.c ****   {
 851:Drivers/STM32G4xx_HAL_Driver/Src/stm32g4xx_hal_pcd.c ****     /* Update the error code */
 852:Drivers/STM32G4xx_HAL_Driver/Src/stm32g4xx_hal_pcd.c ****     hpcd->ErrorCode |= HAL_PCD_ERROR_INVALID_CALLBACK;
 853:Drivers/STM32G4xx_HAL_Driver/Src/stm32g4xx_hal_pcd.c **** 
 854:Drivers/STM32G4xx_HAL_Driver/Src/stm32g4xx_hal_pcd.c ****     /* Return error status */
 855:Drivers/STM32G4xx_HAL_Driver/Src/stm32g4xx_hal_pcd.c ****     status =  HAL_ERROR;
 856:Drivers/STM32G4xx_HAL_Driver/Src/stm32g4xx_hal_pcd.c ****   }
 857:Drivers/STM32G4xx_HAL_Driver/Src/stm32g4xx_hal_pcd.c **** 
 858:Drivers/STM32G4xx_HAL_Driver/Src/stm32g4xx_hal_pcd.c ****   /* Release Lock */
 859:Drivers/STM32G4xx_HAL_Driver/Src/stm32g4xx_hal_pcd.c ****   __HAL_UNLOCK(hpcd);
 860:Drivers/STM32G4xx_HAL_Driver/Src/stm32g4xx_hal_pcd.c **** 
 861:Drivers/STM32G4xx_HAL_Driver/Src/stm32g4xx_hal_pcd.c ****   return status;
 862:Drivers/STM32G4xx_HAL_Driver/Src/stm32g4xx_hal_pcd.c **** }
 863:Drivers/STM32G4xx_HAL_Driver/Src/stm32g4xx_hal_pcd.c **** 
 864:Drivers/STM32G4xx_HAL_Driver/Src/stm32g4xx_hal_pcd.c **** /**
 865:Drivers/STM32G4xx_HAL_Driver/Src/stm32g4xx_hal_pcd.c ****   * @brief  Register USB PCD LPM Callback
 866:Drivers/STM32G4xx_HAL_Driver/Src/stm32g4xx_hal_pcd.c ****   *         To be used instead of the weak HAL_PCDEx_LPM_Callback() predefined callback
 867:Drivers/STM32G4xx_HAL_Driver/Src/stm32g4xx_hal_pcd.c ****   * @param  hpcd PCD handle
 868:Drivers/STM32G4xx_HAL_Driver/Src/stm32g4xx_hal_pcd.c ****   * @param  pCallback pointer to the USB PCD LPM Callback function
 869:Drivers/STM32G4xx_HAL_Driver/Src/stm32g4xx_hal_pcd.c ****   * @retval HAL status
 870:Drivers/STM32G4xx_HAL_Driver/Src/stm32g4xx_hal_pcd.c ****   */
 871:Drivers/STM32G4xx_HAL_Driver/Src/stm32g4xx_hal_pcd.c **** HAL_StatusTypeDef HAL_PCD_RegisterLpmCallback(PCD_HandleTypeDef *hpcd, pPCD_LpmCallbackTypeDef pCal
 872:Drivers/STM32G4xx_HAL_Driver/Src/stm32g4xx_hal_pcd.c **** {
 873:Drivers/STM32G4xx_HAL_Driver/Src/stm32g4xx_hal_pcd.c ****   HAL_StatusTypeDef status = HAL_OK;
 874:Drivers/STM32G4xx_HAL_Driver/Src/stm32g4xx_hal_pcd.c **** 
 875:Drivers/STM32G4xx_HAL_Driver/Src/stm32g4xx_hal_pcd.c ****   if (pCallback == NULL)
 876:Drivers/STM32G4xx_HAL_Driver/Src/stm32g4xx_hal_pcd.c ****   {
 877:Drivers/STM32G4xx_HAL_Driver/Src/stm32g4xx_hal_pcd.c ****     /* Update the error code */
 878:Drivers/STM32G4xx_HAL_Driver/Src/stm32g4xx_hal_pcd.c ****     hpcd->ErrorCode |= HAL_PCD_ERROR_INVALID_CALLBACK;
 879:Drivers/STM32G4xx_HAL_Driver/Src/stm32g4xx_hal_pcd.c **** 
 880:Drivers/STM32G4xx_HAL_Driver/Src/stm32g4xx_hal_pcd.c ****     return HAL_ERROR;
 881:Drivers/STM32G4xx_HAL_Driver/Src/stm32g4xx_hal_pcd.c ****   }
 882:Drivers/STM32G4xx_HAL_Driver/Src/stm32g4xx_hal_pcd.c **** 
 883:Drivers/STM32G4xx_HAL_Driver/Src/stm32g4xx_hal_pcd.c ****   /* Process locked */
 884:Drivers/STM32G4xx_HAL_Driver/Src/stm32g4xx_hal_pcd.c ****   __HAL_LOCK(hpcd);
 885:Drivers/STM32G4xx_HAL_Driver/Src/stm32g4xx_hal_pcd.c **** 
 886:Drivers/STM32G4xx_HAL_Driver/Src/stm32g4xx_hal_pcd.c ****   if (hpcd->State == HAL_PCD_STATE_READY)
 887:Drivers/STM32G4xx_HAL_Driver/Src/stm32g4xx_hal_pcd.c ****   {
 888:Drivers/STM32G4xx_HAL_Driver/Src/stm32g4xx_hal_pcd.c ****     hpcd->LPMCallback = pCallback;
 889:Drivers/STM32G4xx_HAL_Driver/Src/stm32g4xx_hal_pcd.c ****   }
 890:Drivers/STM32G4xx_HAL_Driver/Src/stm32g4xx_hal_pcd.c ****   else
 891:Drivers/STM32G4xx_HAL_Driver/Src/stm32g4xx_hal_pcd.c ****   {
 892:Drivers/STM32G4xx_HAL_Driver/Src/stm32g4xx_hal_pcd.c ****     /* Update the error code */
 893:Drivers/STM32G4xx_HAL_Driver/Src/stm32g4xx_hal_pcd.c ****     hpcd->ErrorCode |= HAL_PCD_ERROR_INVALID_CALLBACK;
 894:Drivers/STM32G4xx_HAL_Driver/Src/stm32g4xx_hal_pcd.c **** 
ARM GAS  /tmp/ccXi6E5C.s 			page 23


 895:Drivers/STM32G4xx_HAL_Driver/Src/stm32g4xx_hal_pcd.c ****     /* Return error status */
 896:Drivers/STM32G4xx_HAL_Driver/Src/stm32g4xx_hal_pcd.c ****     status =  HAL_ERROR;
 897:Drivers/STM32G4xx_HAL_Driver/Src/stm32g4xx_hal_pcd.c ****   }
 898:Drivers/STM32G4xx_HAL_Driver/Src/stm32g4xx_hal_pcd.c **** 
 899:Drivers/STM32G4xx_HAL_Driver/Src/stm32g4xx_hal_pcd.c ****   /* Release Lock */
 900:Drivers/STM32G4xx_HAL_Driver/Src/stm32g4xx_hal_pcd.c ****   __HAL_UNLOCK(hpcd);
 901:Drivers/STM32G4xx_HAL_Driver/Src/stm32g4xx_hal_pcd.c **** 
 902:Drivers/STM32G4xx_HAL_Driver/Src/stm32g4xx_hal_pcd.c ****   return status;
 903:Drivers/STM32G4xx_HAL_Driver/Src/stm32g4xx_hal_pcd.c **** }
 904:Drivers/STM32G4xx_HAL_Driver/Src/stm32g4xx_hal_pcd.c **** 
 905:Drivers/STM32G4xx_HAL_Driver/Src/stm32g4xx_hal_pcd.c **** /**
 906:Drivers/STM32G4xx_HAL_Driver/Src/stm32g4xx_hal_pcd.c ****   * @brief  UnRegister the USB PCD LPM Callback
 907:Drivers/STM32G4xx_HAL_Driver/Src/stm32g4xx_hal_pcd.c ****   *         USB LPM Callback is redirected to the weak HAL_PCDEx_LPM_Callback() predefined callback
 908:Drivers/STM32G4xx_HAL_Driver/Src/stm32g4xx_hal_pcd.c ****   * @param  hpcd PCD handle
 909:Drivers/STM32G4xx_HAL_Driver/Src/stm32g4xx_hal_pcd.c ****   * @retval HAL status
 910:Drivers/STM32G4xx_HAL_Driver/Src/stm32g4xx_hal_pcd.c ****   */
 911:Drivers/STM32G4xx_HAL_Driver/Src/stm32g4xx_hal_pcd.c **** HAL_StatusTypeDef HAL_PCD_UnRegisterLpmCallback(PCD_HandleTypeDef *hpcd)
 912:Drivers/STM32G4xx_HAL_Driver/Src/stm32g4xx_hal_pcd.c **** {
 913:Drivers/STM32G4xx_HAL_Driver/Src/stm32g4xx_hal_pcd.c ****   HAL_StatusTypeDef status = HAL_OK;
 914:Drivers/STM32G4xx_HAL_Driver/Src/stm32g4xx_hal_pcd.c **** 
 915:Drivers/STM32G4xx_HAL_Driver/Src/stm32g4xx_hal_pcd.c ****   /* Process locked */
 916:Drivers/STM32G4xx_HAL_Driver/Src/stm32g4xx_hal_pcd.c ****   __HAL_LOCK(hpcd);
 917:Drivers/STM32G4xx_HAL_Driver/Src/stm32g4xx_hal_pcd.c **** 
 918:Drivers/STM32G4xx_HAL_Driver/Src/stm32g4xx_hal_pcd.c ****   if (hpcd->State == HAL_PCD_STATE_READY)
 919:Drivers/STM32G4xx_HAL_Driver/Src/stm32g4xx_hal_pcd.c ****   {
 920:Drivers/STM32G4xx_HAL_Driver/Src/stm32g4xx_hal_pcd.c ****     hpcd->LPMCallback = HAL_PCDEx_LPM_Callback; /* Legacy weak HAL_PCDEx_LPM_Callback  */
 921:Drivers/STM32G4xx_HAL_Driver/Src/stm32g4xx_hal_pcd.c ****   }
 922:Drivers/STM32G4xx_HAL_Driver/Src/stm32g4xx_hal_pcd.c ****   else
 923:Drivers/STM32G4xx_HAL_Driver/Src/stm32g4xx_hal_pcd.c ****   {
 924:Drivers/STM32G4xx_HAL_Driver/Src/stm32g4xx_hal_pcd.c ****     /* Update the error code */
 925:Drivers/STM32G4xx_HAL_Driver/Src/stm32g4xx_hal_pcd.c ****     hpcd->ErrorCode |= HAL_PCD_ERROR_INVALID_CALLBACK;
 926:Drivers/STM32G4xx_HAL_Driver/Src/stm32g4xx_hal_pcd.c **** 
 927:Drivers/STM32G4xx_HAL_Driver/Src/stm32g4xx_hal_pcd.c ****     /* Return error status */
 928:Drivers/STM32G4xx_HAL_Driver/Src/stm32g4xx_hal_pcd.c ****     status =  HAL_ERROR;
 929:Drivers/STM32G4xx_HAL_Driver/Src/stm32g4xx_hal_pcd.c ****   }
 930:Drivers/STM32G4xx_HAL_Driver/Src/stm32g4xx_hal_pcd.c **** 
 931:Drivers/STM32G4xx_HAL_Driver/Src/stm32g4xx_hal_pcd.c ****   /* Release Lock */
 932:Drivers/STM32G4xx_HAL_Driver/Src/stm32g4xx_hal_pcd.c ****   __HAL_UNLOCK(hpcd);
 933:Drivers/STM32G4xx_HAL_Driver/Src/stm32g4xx_hal_pcd.c **** 
 934:Drivers/STM32G4xx_HAL_Driver/Src/stm32g4xx_hal_pcd.c ****   return status;
 935:Drivers/STM32G4xx_HAL_Driver/Src/stm32g4xx_hal_pcd.c **** }
 936:Drivers/STM32G4xx_HAL_Driver/Src/stm32g4xx_hal_pcd.c **** #endif /* USE_HAL_PCD_REGISTER_CALLBACKS */
 937:Drivers/STM32G4xx_HAL_Driver/Src/stm32g4xx_hal_pcd.c **** 
 938:Drivers/STM32G4xx_HAL_Driver/Src/stm32g4xx_hal_pcd.c **** /**
 939:Drivers/STM32G4xx_HAL_Driver/Src/stm32g4xx_hal_pcd.c ****   * @}
 940:Drivers/STM32G4xx_HAL_Driver/Src/stm32g4xx_hal_pcd.c ****   */
 941:Drivers/STM32G4xx_HAL_Driver/Src/stm32g4xx_hal_pcd.c **** 
 942:Drivers/STM32G4xx_HAL_Driver/Src/stm32g4xx_hal_pcd.c **** /** @defgroup PCD_Exported_Functions_Group2 Input and Output operation functions
 943:Drivers/STM32G4xx_HAL_Driver/Src/stm32g4xx_hal_pcd.c ****  *  @brief   Data transfers functions
 944:Drivers/STM32G4xx_HAL_Driver/Src/stm32g4xx_hal_pcd.c ****  *
 945:Drivers/STM32G4xx_HAL_Driver/Src/stm32g4xx_hal_pcd.c **** @verbatim
 946:Drivers/STM32G4xx_HAL_Driver/Src/stm32g4xx_hal_pcd.c ****  ===============================================================================
 947:Drivers/STM32G4xx_HAL_Driver/Src/stm32g4xx_hal_pcd.c ****                       ##### IO operation functions #####
 948:Drivers/STM32G4xx_HAL_Driver/Src/stm32g4xx_hal_pcd.c ****  ===============================================================================
 949:Drivers/STM32G4xx_HAL_Driver/Src/stm32g4xx_hal_pcd.c ****     [..]
 950:Drivers/STM32G4xx_HAL_Driver/Src/stm32g4xx_hal_pcd.c ****     This subsection provides a set of functions allowing to manage the PCD data
 951:Drivers/STM32G4xx_HAL_Driver/Src/stm32g4xx_hal_pcd.c ****     transfers.
ARM GAS  /tmp/ccXi6E5C.s 			page 24


 952:Drivers/STM32G4xx_HAL_Driver/Src/stm32g4xx_hal_pcd.c **** 
 953:Drivers/STM32G4xx_HAL_Driver/Src/stm32g4xx_hal_pcd.c **** @endverbatim
 954:Drivers/STM32G4xx_HAL_Driver/Src/stm32g4xx_hal_pcd.c ****   * @{
 955:Drivers/STM32G4xx_HAL_Driver/Src/stm32g4xx_hal_pcd.c ****   */
 956:Drivers/STM32G4xx_HAL_Driver/Src/stm32g4xx_hal_pcd.c **** 
 957:Drivers/STM32G4xx_HAL_Driver/Src/stm32g4xx_hal_pcd.c **** /**
 958:Drivers/STM32G4xx_HAL_Driver/Src/stm32g4xx_hal_pcd.c ****   * @brief  Start the USB device
 959:Drivers/STM32G4xx_HAL_Driver/Src/stm32g4xx_hal_pcd.c ****   * @param  hpcd PCD handle
 960:Drivers/STM32G4xx_HAL_Driver/Src/stm32g4xx_hal_pcd.c ****   * @retval HAL status
 961:Drivers/STM32G4xx_HAL_Driver/Src/stm32g4xx_hal_pcd.c ****   */
 962:Drivers/STM32G4xx_HAL_Driver/Src/stm32g4xx_hal_pcd.c **** HAL_StatusTypeDef HAL_PCD_Start(PCD_HandleTypeDef *hpcd)
 963:Drivers/STM32G4xx_HAL_Driver/Src/stm32g4xx_hal_pcd.c **** {
 292              		.loc 1 963 1 is_stmt 1 view -0
 293              		.cfi_startproc
 294              		@ args = 0, pretend = 0, frame = 0
 295              		@ frame_needed = 0, uses_anonymous_args = 0
 964:Drivers/STM32G4xx_HAL_Driver/Src/stm32g4xx_hal_pcd.c ****   __HAL_LOCK(hpcd);
 296              		.loc 1 964 3 view .LVU83
 297              		.loc 1 964 3 view .LVU84
 298 0000 90F82832 		ldrb	r3, [r0, #552]	@ zero_extendqisi2
 299 0004 012B     		cmp	r3, #1
 300 0006 0ED0     		beq	.L21
 963:Drivers/STM32G4xx_HAL_Driver/Src/stm32g4xx_hal_pcd.c ****   __HAL_LOCK(hpcd);
 301              		.loc 1 963 1 is_stmt 0 discriminator 2 view .LVU85
 302 0008 10B5     		push	{r4, lr}
 303              	.LCFI5:
 304              		.cfi_def_cfa_offset 8
 305              		.cfi_offset 4, -8
 306              		.cfi_offset 14, -4
 307 000a 0446     		mov	r4, r0
 308              		.loc 1 964 3 is_stmt 1 discriminator 2 view .LVU86
 309 000c 0123     		movs	r3, #1
 310 000e 80F82832 		strb	r3, [r0, #552]
 311              		.loc 1 964 3 discriminator 2 view .LVU87
 965:Drivers/STM32G4xx_HAL_Driver/Src/stm32g4xx_hal_pcd.c ****   (void)USB_DevConnect(hpcd->Instance);
 312              		.loc 1 965 3 discriminator 2 view .LVU88
 313              		.loc 1 965 9 is_stmt 0 discriminator 2 view .LVU89
 314 0012 0068     		ldr	r0, [r0]
 315              	.LVL22:
 316              		.loc 1 965 9 discriminator 2 view .LVU90
 317 0014 FFF7FEFF 		bl	USB_DevConnect
 318              	.LVL23:
 966:Drivers/STM32G4xx_HAL_Driver/Src/stm32g4xx_hal_pcd.c ****   __HAL_PCD_ENABLE(hpcd);
 319              		.loc 1 966 3 is_stmt 1 discriminator 2 view .LVU91
 320 0018 2068     		ldr	r0, [r4]
 321 001a FFF7FEFF 		bl	USB_EnableGlobalInt
 322              	.LVL24:
 967:Drivers/STM32G4xx_HAL_Driver/Src/stm32g4xx_hal_pcd.c ****   __HAL_UNLOCK(hpcd);
 323              		.loc 1 967 3 discriminator 2 view .LVU92
 324              		.loc 1 967 3 discriminator 2 view .LVU93
 325 001e 0020     		movs	r0, #0
 326 0020 84F82802 		strb	r0, [r4, #552]
 327              		.loc 1 967 3 discriminator 2 view .LVU94
 968:Drivers/STM32G4xx_HAL_Driver/Src/stm32g4xx_hal_pcd.c ****   return HAL_OK;
 328              		.loc 1 968 3 discriminator 2 view .LVU95
 969:Drivers/STM32G4xx_HAL_Driver/Src/stm32g4xx_hal_pcd.c **** }
 329              		.loc 1 969 1 is_stmt 0 discriminator 2 view .LVU96
ARM GAS  /tmp/ccXi6E5C.s 			page 25


 330 0024 10BD     		pop	{r4, pc}
 331              	.LVL25:
 332              	.L21:
 333              	.LCFI6:
 334              		.cfi_def_cfa_offset 0
 335              		.cfi_restore 4
 336              		.cfi_restore 14
 964:Drivers/STM32G4xx_HAL_Driver/Src/stm32g4xx_hal_pcd.c ****   (void)USB_DevConnect(hpcd->Instance);
 337              		.loc 1 964 3 view .LVU97
 338 0026 0220     		movs	r0, #2
 339              	.LVL26:
 340              		.loc 1 969 1 view .LVU98
 341 0028 7047     		bx	lr
 342              		.cfi_endproc
 343              	.LFE166:
 345              		.section	.text.HAL_PCD_Stop,"ax",%progbits
 346              		.align	1
 347              		.global	HAL_PCD_Stop
 348              		.syntax unified
 349              		.thumb
 350              		.thumb_func
 351              		.fpu fpv4-sp-d16
 353              	HAL_PCD_Stop:
 354              	.LVL27:
 355              	.LFB167:
 970:Drivers/STM32G4xx_HAL_Driver/Src/stm32g4xx_hal_pcd.c **** 
 971:Drivers/STM32G4xx_HAL_Driver/Src/stm32g4xx_hal_pcd.c **** /**
 972:Drivers/STM32G4xx_HAL_Driver/Src/stm32g4xx_hal_pcd.c ****   * @brief  Stop the USB device.
 973:Drivers/STM32G4xx_HAL_Driver/Src/stm32g4xx_hal_pcd.c ****   * @param  hpcd PCD handle
 974:Drivers/STM32G4xx_HAL_Driver/Src/stm32g4xx_hal_pcd.c ****   * @retval HAL status
 975:Drivers/STM32G4xx_HAL_Driver/Src/stm32g4xx_hal_pcd.c ****   */
 976:Drivers/STM32G4xx_HAL_Driver/Src/stm32g4xx_hal_pcd.c **** HAL_StatusTypeDef HAL_PCD_Stop(PCD_HandleTypeDef *hpcd)
 977:Drivers/STM32G4xx_HAL_Driver/Src/stm32g4xx_hal_pcd.c **** {
 356              		.loc 1 977 1 is_stmt 1 view -0
 357              		.cfi_startproc
 358              		@ args = 0, pretend = 0, frame = 0
 359              		@ frame_needed = 0, uses_anonymous_args = 0
 978:Drivers/STM32G4xx_HAL_Driver/Src/stm32g4xx_hal_pcd.c ****   __HAL_LOCK(hpcd);
 360              		.loc 1 978 3 view .LVU100
 361              		.loc 1 978 3 view .LVU101
 362 0000 90F82832 		ldrb	r3, [r0, #552]	@ zero_extendqisi2
 363 0004 012B     		cmp	r3, #1
 364 0006 0ED0     		beq	.L28
 977:Drivers/STM32G4xx_HAL_Driver/Src/stm32g4xx_hal_pcd.c ****   __HAL_LOCK(hpcd);
 365              		.loc 1 977 1 is_stmt 0 discriminator 2 view .LVU102
 366 0008 10B5     		push	{r4, lr}
 367              	.LCFI7:
 368              		.cfi_def_cfa_offset 8
 369              		.cfi_offset 4, -8
 370              		.cfi_offset 14, -4
 371 000a 0446     		mov	r4, r0
 372              		.loc 1 978 3 is_stmt 1 discriminator 2 view .LVU103
 373 000c 0123     		movs	r3, #1
 374 000e 80F82832 		strb	r3, [r0, #552]
 375              		.loc 1 978 3 discriminator 2 view .LVU104
 979:Drivers/STM32G4xx_HAL_Driver/Src/stm32g4xx_hal_pcd.c ****   __HAL_PCD_DISABLE(hpcd);
 376              		.loc 1 979 3 discriminator 2 view .LVU105
ARM GAS  /tmp/ccXi6E5C.s 			page 26


 377 0012 0068     		ldr	r0, [r0]
 378              	.LVL28:
 379              		.loc 1 979 3 is_stmt 0 discriminator 2 view .LVU106
 380 0014 FFF7FEFF 		bl	USB_DisableGlobalInt
 381              	.LVL29:
 980:Drivers/STM32G4xx_HAL_Driver/Src/stm32g4xx_hal_pcd.c **** 
 981:Drivers/STM32G4xx_HAL_Driver/Src/stm32g4xx_hal_pcd.c ****   (void)USB_StopDevice(hpcd->Instance);
 382              		.loc 1 981 3 is_stmt 1 discriminator 2 view .LVU107
 383              		.loc 1 981 9 is_stmt 0 discriminator 2 view .LVU108
 384 0018 2068     		ldr	r0, [r4]
 385 001a FFF7FEFF 		bl	USB_StopDevice
 386              	.LVL30:
 982:Drivers/STM32G4xx_HAL_Driver/Src/stm32g4xx_hal_pcd.c **** 
 983:Drivers/STM32G4xx_HAL_Driver/Src/stm32g4xx_hal_pcd.c ****   __HAL_UNLOCK(hpcd);
 387              		.loc 1 983 3 is_stmt 1 discriminator 2 view .LVU109
 388              		.loc 1 983 3 discriminator 2 view .LVU110
 389 001e 0020     		movs	r0, #0
 390 0020 84F82802 		strb	r0, [r4, #552]
 391              		.loc 1 983 3 discriminator 2 view .LVU111
 984:Drivers/STM32G4xx_HAL_Driver/Src/stm32g4xx_hal_pcd.c **** 
 985:Drivers/STM32G4xx_HAL_Driver/Src/stm32g4xx_hal_pcd.c ****   return HAL_OK;
 392              		.loc 1 985 3 discriminator 2 view .LVU112
 986:Drivers/STM32G4xx_HAL_Driver/Src/stm32g4xx_hal_pcd.c **** }
 393              		.loc 1 986 1 is_stmt 0 discriminator 2 view .LVU113
 394 0024 10BD     		pop	{r4, pc}
 395              	.LVL31:
 396              	.L28:
 397              	.LCFI8:
 398              		.cfi_def_cfa_offset 0
 399              		.cfi_restore 4
 400              		.cfi_restore 14
 978:Drivers/STM32G4xx_HAL_Driver/Src/stm32g4xx_hal_pcd.c ****   __HAL_PCD_DISABLE(hpcd);
 401              		.loc 1 978 3 view .LVU114
 402 0026 0220     		movs	r0, #2
 403              	.LVL32:
 404              		.loc 1 986 1 view .LVU115
 405 0028 7047     		bx	lr
 406              		.cfi_endproc
 407              	.LFE167:
 409              		.section	.text.HAL_PCD_DeInit,"ax",%progbits
 410              		.align	1
 411              		.global	HAL_PCD_DeInit
 412              		.syntax unified
 413              		.thumb
 414              		.thumb_func
 415              		.fpu fpv4-sp-d16
 417              	HAL_PCD_DeInit:
 418              	.LVL33:
 419              	.LFB163:
 217:Drivers/STM32G4xx_HAL_Driver/Src/stm32g4xx_hal_pcd.c ****   /* Check the PCD handle allocation */
 420              		.loc 1 217 1 is_stmt 1 view -0
 421              		.cfi_startproc
 422              		@ args = 0, pretend = 0, frame = 0
 423              		@ frame_needed = 0, uses_anonymous_args = 0
 219:Drivers/STM32G4xx_HAL_Driver/Src/stm32g4xx_hal_pcd.c ****   {
 424              		.loc 1 219 3 view .LVU117
 219:Drivers/STM32G4xx_HAL_Driver/Src/stm32g4xx_hal_pcd.c ****   {
ARM GAS  /tmp/ccXi6E5C.s 			page 27


 425              		.loc 1 219 6 is_stmt 0 view .LVU118
 426 0000 68B1     		cbz	r0, .L35
 217:Drivers/STM32G4xx_HAL_Driver/Src/stm32g4xx_hal_pcd.c ****   /* Check the PCD handle allocation */
 427              		.loc 1 217 1 view .LVU119
 428 0002 10B5     		push	{r4, lr}
 429              	.LCFI9:
 430              		.cfi_def_cfa_offset 8
 431              		.cfi_offset 4, -8
 432              		.cfi_offset 14, -4
 433 0004 0446     		mov	r4, r0
 224:Drivers/STM32G4xx_HAL_Driver/Src/stm32g4xx_hal_pcd.c **** 
 434              		.loc 1 224 3 is_stmt 1 view .LVU120
 224:Drivers/STM32G4xx_HAL_Driver/Src/stm32g4xx_hal_pcd.c **** 
 435              		.loc 1 224 15 is_stmt 0 view .LVU121
 436 0006 0323     		movs	r3, #3
 437 0008 80F82932 		strb	r3, [r0, #553]
 227:Drivers/STM32G4xx_HAL_Driver/Src/stm32g4xx_hal_pcd.c **** 
 438              		.loc 1 227 3 is_stmt 1 view .LVU122
 227:Drivers/STM32G4xx_HAL_Driver/Src/stm32g4xx_hal_pcd.c **** 
 439              		.loc 1 227 9 is_stmt 0 view .LVU123
 440 000c FFF7FEFF 		bl	HAL_PCD_Stop
 441              	.LVL34:
 239:Drivers/STM32G4xx_HAL_Driver/Src/stm32g4xx_hal_pcd.c **** #endif /* USE_HAL_PCD_REGISTER_CALLBACKS */
 442              		.loc 1 239 3 is_stmt 1 view .LVU124
 443 0010 2046     		mov	r0, r4
 444 0012 FFF7FEFF 		bl	HAL_PCD_MspDeInit
 445              	.LVL35:
 242:Drivers/STM32G4xx_HAL_Driver/Src/stm32g4xx_hal_pcd.c **** 
 446              		.loc 1 242 3 view .LVU125
 242:Drivers/STM32G4xx_HAL_Driver/Src/stm32g4xx_hal_pcd.c **** 
 447              		.loc 1 242 15 is_stmt 0 view .LVU126
 448 0016 0020     		movs	r0, #0
 449 0018 84F82902 		strb	r0, [r4, #553]
 244:Drivers/STM32G4xx_HAL_Driver/Src/stm32g4xx_hal_pcd.c **** }
 450              		.loc 1 244 3 is_stmt 1 view .LVU127
 245:Drivers/STM32G4xx_HAL_Driver/Src/stm32g4xx_hal_pcd.c **** 
 451              		.loc 1 245 1 is_stmt 0 view .LVU128
 452 001c 10BD     		pop	{r4, pc}
 453              	.LVL36:
 454              	.L35:
 455              	.LCFI10:
 456              		.cfi_def_cfa_offset 0
 457              		.cfi_restore 4
 458              		.cfi_restore 14
 221:Drivers/STM32G4xx_HAL_Driver/Src/stm32g4xx_hal_pcd.c ****   }
 459              		.loc 1 221 12 view .LVU129
 460 001e 0120     		movs	r0, #1
 461              	.LVL37:
 245:Drivers/STM32G4xx_HAL_Driver/Src/stm32g4xx_hal_pcd.c **** 
 462              		.loc 1 245 1 view .LVU130
 463 0020 7047     		bx	lr
 464              		.cfi_endproc
 465              	.LFE163:
 467              		.section	.text.HAL_PCD_DataOutStageCallback,"ax",%progbits
 468              		.align	1
 469              		.weak	HAL_PCD_DataOutStageCallback
 470              		.syntax unified
ARM GAS  /tmp/ccXi6E5C.s 			page 28


 471              		.thumb
 472              		.thumb_func
 473              		.fpu fpv4-sp-d16
 475              	HAL_PCD_DataOutStageCallback:
 476              	.LVL38:
 477              	.LFB169:
 987:Drivers/STM32G4xx_HAL_Driver/Src/stm32g4xx_hal_pcd.c **** 
 988:Drivers/STM32G4xx_HAL_Driver/Src/stm32g4xx_hal_pcd.c **** 
 989:Drivers/STM32G4xx_HAL_Driver/Src/stm32g4xx_hal_pcd.c **** /**
 990:Drivers/STM32G4xx_HAL_Driver/Src/stm32g4xx_hal_pcd.c ****   * @brief  This function handles PCD interrupt request.
 991:Drivers/STM32G4xx_HAL_Driver/Src/stm32g4xx_hal_pcd.c ****   * @param  hpcd PCD handle
 992:Drivers/STM32G4xx_HAL_Driver/Src/stm32g4xx_hal_pcd.c ****   * @retval HAL status
 993:Drivers/STM32G4xx_HAL_Driver/Src/stm32g4xx_hal_pcd.c ****   */
 994:Drivers/STM32G4xx_HAL_Driver/Src/stm32g4xx_hal_pcd.c **** void HAL_PCD_IRQHandler(PCD_HandleTypeDef *hpcd)
 995:Drivers/STM32G4xx_HAL_Driver/Src/stm32g4xx_hal_pcd.c **** {
 996:Drivers/STM32G4xx_HAL_Driver/Src/stm32g4xx_hal_pcd.c ****   if (__HAL_PCD_GET_FLAG(hpcd, USB_ISTR_CTR))
 997:Drivers/STM32G4xx_HAL_Driver/Src/stm32g4xx_hal_pcd.c ****   {
 998:Drivers/STM32G4xx_HAL_Driver/Src/stm32g4xx_hal_pcd.c ****     /* servicing of the endpoint correct transfer interrupt */
 999:Drivers/STM32G4xx_HAL_Driver/Src/stm32g4xx_hal_pcd.c ****     /* clear of the CTR flag into the sub */
1000:Drivers/STM32G4xx_HAL_Driver/Src/stm32g4xx_hal_pcd.c ****     (void)PCD_EP_ISR_Handler(hpcd);
1001:Drivers/STM32G4xx_HAL_Driver/Src/stm32g4xx_hal_pcd.c ****   }
1002:Drivers/STM32G4xx_HAL_Driver/Src/stm32g4xx_hal_pcd.c **** 
1003:Drivers/STM32G4xx_HAL_Driver/Src/stm32g4xx_hal_pcd.c ****   if (__HAL_PCD_GET_FLAG(hpcd, USB_ISTR_RESET))
1004:Drivers/STM32G4xx_HAL_Driver/Src/stm32g4xx_hal_pcd.c ****   {
1005:Drivers/STM32G4xx_HAL_Driver/Src/stm32g4xx_hal_pcd.c ****     __HAL_PCD_CLEAR_FLAG(hpcd, USB_ISTR_RESET);
1006:Drivers/STM32G4xx_HAL_Driver/Src/stm32g4xx_hal_pcd.c **** 
1007:Drivers/STM32G4xx_HAL_Driver/Src/stm32g4xx_hal_pcd.c **** #if (USE_HAL_PCD_REGISTER_CALLBACKS == 1U)
1008:Drivers/STM32G4xx_HAL_Driver/Src/stm32g4xx_hal_pcd.c ****     hpcd->ResetCallback(hpcd);
1009:Drivers/STM32G4xx_HAL_Driver/Src/stm32g4xx_hal_pcd.c **** #else
1010:Drivers/STM32G4xx_HAL_Driver/Src/stm32g4xx_hal_pcd.c ****     HAL_PCD_ResetCallback(hpcd);
1011:Drivers/STM32G4xx_HAL_Driver/Src/stm32g4xx_hal_pcd.c **** #endif /* USE_HAL_PCD_REGISTER_CALLBACKS */
1012:Drivers/STM32G4xx_HAL_Driver/Src/stm32g4xx_hal_pcd.c **** 
1013:Drivers/STM32G4xx_HAL_Driver/Src/stm32g4xx_hal_pcd.c ****     (void)HAL_PCD_SetAddress(hpcd, 0U);
1014:Drivers/STM32G4xx_HAL_Driver/Src/stm32g4xx_hal_pcd.c ****   }
1015:Drivers/STM32G4xx_HAL_Driver/Src/stm32g4xx_hal_pcd.c **** 
1016:Drivers/STM32G4xx_HAL_Driver/Src/stm32g4xx_hal_pcd.c ****   if (__HAL_PCD_GET_FLAG(hpcd, USB_ISTR_PMAOVR))
1017:Drivers/STM32G4xx_HAL_Driver/Src/stm32g4xx_hal_pcd.c ****   {
1018:Drivers/STM32G4xx_HAL_Driver/Src/stm32g4xx_hal_pcd.c ****     __HAL_PCD_CLEAR_FLAG(hpcd, USB_ISTR_PMAOVR);
1019:Drivers/STM32G4xx_HAL_Driver/Src/stm32g4xx_hal_pcd.c ****   }
1020:Drivers/STM32G4xx_HAL_Driver/Src/stm32g4xx_hal_pcd.c **** 
1021:Drivers/STM32G4xx_HAL_Driver/Src/stm32g4xx_hal_pcd.c ****   if (__HAL_PCD_GET_FLAG(hpcd, USB_ISTR_ERR))
1022:Drivers/STM32G4xx_HAL_Driver/Src/stm32g4xx_hal_pcd.c ****   {
1023:Drivers/STM32G4xx_HAL_Driver/Src/stm32g4xx_hal_pcd.c ****     __HAL_PCD_CLEAR_FLAG(hpcd, USB_ISTR_ERR);
1024:Drivers/STM32G4xx_HAL_Driver/Src/stm32g4xx_hal_pcd.c ****   }
1025:Drivers/STM32G4xx_HAL_Driver/Src/stm32g4xx_hal_pcd.c **** 
1026:Drivers/STM32G4xx_HAL_Driver/Src/stm32g4xx_hal_pcd.c ****   if (__HAL_PCD_GET_FLAG(hpcd, USB_ISTR_WKUP))
1027:Drivers/STM32G4xx_HAL_Driver/Src/stm32g4xx_hal_pcd.c ****   {
1028:Drivers/STM32G4xx_HAL_Driver/Src/stm32g4xx_hal_pcd.c ****     hpcd->Instance->CNTR &= (uint16_t) ~(USB_CNTR_LPMODE);
1029:Drivers/STM32G4xx_HAL_Driver/Src/stm32g4xx_hal_pcd.c ****     hpcd->Instance->CNTR &= (uint16_t) ~(USB_CNTR_FSUSP);
1030:Drivers/STM32G4xx_HAL_Driver/Src/stm32g4xx_hal_pcd.c **** 
1031:Drivers/STM32G4xx_HAL_Driver/Src/stm32g4xx_hal_pcd.c ****     if (hpcd->LPM_State == LPM_L1)
1032:Drivers/STM32G4xx_HAL_Driver/Src/stm32g4xx_hal_pcd.c ****     {
1033:Drivers/STM32G4xx_HAL_Driver/Src/stm32g4xx_hal_pcd.c ****       hpcd->LPM_State = LPM_L0;
1034:Drivers/STM32G4xx_HAL_Driver/Src/stm32g4xx_hal_pcd.c **** #if (USE_HAL_PCD_REGISTER_CALLBACKS == 1U)
1035:Drivers/STM32G4xx_HAL_Driver/Src/stm32g4xx_hal_pcd.c ****       hpcd->LPMCallback(hpcd, PCD_LPM_L0_ACTIVE);
1036:Drivers/STM32G4xx_HAL_Driver/Src/stm32g4xx_hal_pcd.c **** #else
1037:Drivers/STM32G4xx_HAL_Driver/Src/stm32g4xx_hal_pcd.c ****       HAL_PCDEx_LPM_Callback(hpcd, PCD_LPM_L0_ACTIVE);
ARM GAS  /tmp/ccXi6E5C.s 			page 29


1038:Drivers/STM32G4xx_HAL_Driver/Src/stm32g4xx_hal_pcd.c **** #endif /* USE_HAL_PCD_REGISTER_CALLBACKS */
1039:Drivers/STM32G4xx_HAL_Driver/Src/stm32g4xx_hal_pcd.c ****     }
1040:Drivers/STM32G4xx_HAL_Driver/Src/stm32g4xx_hal_pcd.c **** 
1041:Drivers/STM32G4xx_HAL_Driver/Src/stm32g4xx_hal_pcd.c **** #if (USE_HAL_PCD_REGISTER_CALLBACKS == 1U)
1042:Drivers/STM32G4xx_HAL_Driver/Src/stm32g4xx_hal_pcd.c ****     hpcd->ResumeCallback(hpcd);
1043:Drivers/STM32G4xx_HAL_Driver/Src/stm32g4xx_hal_pcd.c **** #else
1044:Drivers/STM32G4xx_HAL_Driver/Src/stm32g4xx_hal_pcd.c ****     HAL_PCD_ResumeCallback(hpcd);
1045:Drivers/STM32G4xx_HAL_Driver/Src/stm32g4xx_hal_pcd.c **** #endif /* USE_HAL_PCD_REGISTER_CALLBACKS */
1046:Drivers/STM32G4xx_HAL_Driver/Src/stm32g4xx_hal_pcd.c **** 
1047:Drivers/STM32G4xx_HAL_Driver/Src/stm32g4xx_hal_pcd.c ****     __HAL_PCD_CLEAR_FLAG(hpcd, USB_ISTR_WKUP);
1048:Drivers/STM32G4xx_HAL_Driver/Src/stm32g4xx_hal_pcd.c ****   }
1049:Drivers/STM32G4xx_HAL_Driver/Src/stm32g4xx_hal_pcd.c **** 
1050:Drivers/STM32G4xx_HAL_Driver/Src/stm32g4xx_hal_pcd.c ****   if (__HAL_PCD_GET_FLAG(hpcd, USB_ISTR_SUSP))
1051:Drivers/STM32G4xx_HAL_Driver/Src/stm32g4xx_hal_pcd.c ****   {
1052:Drivers/STM32G4xx_HAL_Driver/Src/stm32g4xx_hal_pcd.c ****     /* Force low-power mode in the macrocell */
1053:Drivers/STM32G4xx_HAL_Driver/Src/stm32g4xx_hal_pcd.c ****     hpcd->Instance->CNTR |= USB_CNTR_FSUSP;
1054:Drivers/STM32G4xx_HAL_Driver/Src/stm32g4xx_hal_pcd.c **** 
1055:Drivers/STM32G4xx_HAL_Driver/Src/stm32g4xx_hal_pcd.c ****     /* clear of the ISTR bit must be done after setting of CNTR_FSUSP */
1056:Drivers/STM32G4xx_HAL_Driver/Src/stm32g4xx_hal_pcd.c ****     __HAL_PCD_CLEAR_FLAG(hpcd, USB_ISTR_SUSP);
1057:Drivers/STM32G4xx_HAL_Driver/Src/stm32g4xx_hal_pcd.c **** 
1058:Drivers/STM32G4xx_HAL_Driver/Src/stm32g4xx_hal_pcd.c ****     hpcd->Instance->CNTR |= USB_CNTR_LPMODE;
1059:Drivers/STM32G4xx_HAL_Driver/Src/stm32g4xx_hal_pcd.c **** 
1060:Drivers/STM32G4xx_HAL_Driver/Src/stm32g4xx_hal_pcd.c ****     if (__HAL_PCD_GET_FLAG(hpcd, USB_ISTR_WKUP) == 0U)
1061:Drivers/STM32G4xx_HAL_Driver/Src/stm32g4xx_hal_pcd.c ****     {
1062:Drivers/STM32G4xx_HAL_Driver/Src/stm32g4xx_hal_pcd.c **** #if (USE_HAL_PCD_REGISTER_CALLBACKS == 1U)
1063:Drivers/STM32G4xx_HAL_Driver/Src/stm32g4xx_hal_pcd.c ****       hpcd->SuspendCallback(hpcd);
1064:Drivers/STM32G4xx_HAL_Driver/Src/stm32g4xx_hal_pcd.c **** #else
1065:Drivers/STM32G4xx_HAL_Driver/Src/stm32g4xx_hal_pcd.c ****       HAL_PCD_SuspendCallback(hpcd);
1066:Drivers/STM32G4xx_HAL_Driver/Src/stm32g4xx_hal_pcd.c **** #endif /* USE_HAL_PCD_REGISTER_CALLBACKS */
1067:Drivers/STM32G4xx_HAL_Driver/Src/stm32g4xx_hal_pcd.c ****     }
1068:Drivers/STM32G4xx_HAL_Driver/Src/stm32g4xx_hal_pcd.c ****   }
1069:Drivers/STM32G4xx_HAL_Driver/Src/stm32g4xx_hal_pcd.c **** 
1070:Drivers/STM32G4xx_HAL_Driver/Src/stm32g4xx_hal_pcd.c ****   /* Handle LPM Interrupt */
1071:Drivers/STM32G4xx_HAL_Driver/Src/stm32g4xx_hal_pcd.c ****   if (__HAL_PCD_GET_FLAG(hpcd, USB_ISTR_L1REQ))
1072:Drivers/STM32G4xx_HAL_Driver/Src/stm32g4xx_hal_pcd.c ****   {
1073:Drivers/STM32G4xx_HAL_Driver/Src/stm32g4xx_hal_pcd.c ****     __HAL_PCD_CLEAR_FLAG(hpcd, USB_ISTR_L1REQ);
1074:Drivers/STM32G4xx_HAL_Driver/Src/stm32g4xx_hal_pcd.c ****     if (hpcd->LPM_State == LPM_L0)
1075:Drivers/STM32G4xx_HAL_Driver/Src/stm32g4xx_hal_pcd.c ****     {
1076:Drivers/STM32G4xx_HAL_Driver/Src/stm32g4xx_hal_pcd.c ****       /* Force suspend and low-power mode before going to L1 state*/
1077:Drivers/STM32G4xx_HAL_Driver/Src/stm32g4xx_hal_pcd.c ****       hpcd->Instance->CNTR |= USB_CNTR_LPMODE;
1078:Drivers/STM32G4xx_HAL_Driver/Src/stm32g4xx_hal_pcd.c ****       hpcd->Instance->CNTR |= USB_CNTR_FSUSP;
1079:Drivers/STM32G4xx_HAL_Driver/Src/stm32g4xx_hal_pcd.c **** 
1080:Drivers/STM32G4xx_HAL_Driver/Src/stm32g4xx_hal_pcd.c ****       hpcd->LPM_State = LPM_L1;
1081:Drivers/STM32G4xx_HAL_Driver/Src/stm32g4xx_hal_pcd.c ****       hpcd->BESL = ((uint32_t)hpcd->Instance->LPMCSR & USB_LPMCSR_BESL) >> 2;
1082:Drivers/STM32G4xx_HAL_Driver/Src/stm32g4xx_hal_pcd.c **** #if (USE_HAL_PCD_REGISTER_CALLBACKS == 1U)
1083:Drivers/STM32G4xx_HAL_Driver/Src/stm32g4xx_hal_pcd.c ****       hpcd->LPMCallback(hpcd, PCD_LPM_L1_ACTIVE);
1084:Drivers/STM32G4xx_HAL_Driver/Src/stm32g4xx_hal_pcd.c **** #else
1085:Drivers/STM32G4xx_HAL_Driver/Src/stm32g4xx_hal_pcd.c ****       HAL_PCDEx_LPM_Callback(hpcd, PCD_LPM_L1_ACTIVE);
1086:Drivers/STM32G4xx_HAL_Driver/Src/stm32g4xx_hal_pcd.c **** #endif /* USE_HAL_PCD_REGISTER_CALLBACKS */
1087:Drivers/STM32G4xx_HAL_Driver/Src/stm32g4xx_hal_pcd.c ****     }
1088:Drivers/STM32G4xx_HAL_Driver/Src/stm32g4xx_hal_pcd.c ****     else
1089:Drivers/STM32G4xx_HAL_Driver/Src/stm32g4xx_hal_pcd.c ****     {
1090:Drivers/STM32G4xx_HAL_Driver/Src/stm32g4xx_hal_pcd.c **** #if (USE_HAL_PCD_REGISTER_CALLBACKS == 1U)
1091:Drivers/STM32G4xx_HAL_Driver/Src/stm32g4xx_hal_pcd.c ****       hpcd->SuspendCallback(hpcd);
1092:Drivers/STM32G4xx_HAL_Driver/Src/stm32g4xx_hal_pcd.c **** #else
1093:Drivers/STM32G4xx_HAL_Driver/Src/stm32g4xx_hal_pcd.c ****       HAL_PCD_SuspendCallback(hpcd);
1094:Drivers/STM32G4xx_HAL_Driver/Src/stm32g4xx_hal_pcd.c **** #endif /* USE_HAL_PCD_REGISTER_CALLBACKS */
ARM GAS  /tmp/ccXi6E5C.s 			page 30


1095:Drivers/STM32G4xx_HAL_Driver/Src/stm32g4xx_hal_pcd.c ****     }
1096:Drivers/STM32G4xx_HAL_Driver/Src/stm32g4xx_hal_pcd.c ****   }
1097:Drivers/STM32G4xx_HAL_Driver/Src/stm32g4xx_hal_pcd.c **** 
1098:Drivers/STM32G4xx_HAL_Driver/Src/stm32g4xx_hal_pcd.c ****   if (__HAL_PCD_GET_FLAG(hpcd, USB_ISTR_SOF))
1099:Drivers/STM32G4xx_HAL_Driver/Src/stm32g4xx_hal_pcd.c ****   {
1100:Drivers/STM32G4xx_HAL_Driver/Src/stm32g4xx_hal_pcd.c ****     __HAL_PCD_CLEAR_FLAG(hpcd, USB_ISTR_SOF);
1101:Drivers/STM32G4xx_HAL_Driver/Src/stm32g4xx_hal_pcd.c **** 
1102:Drivers/STM32G4xx_HAL_Driver/Src/stm32g4xx_hal_pcd.c **** #if (USE_HAL_PCD_REGISTER_CALLBACKS == 1U)
1103:Drivers/STM32G4xx_HAL_Driver/Src/stm32g4xx_hal_pcd.c ****     hpcd->SOFCallback(hpcd);
1104:Drivers/STM32G4xx_HAL_Driver/Src/stm32g4xx_hal_pcd.c **** #else
1105:Drivers/STM32G4xx_HAL_Driver/Src/stm32g4xx_hal_pcd.c ****     HAL_PCD_SOFCallback(hpcd);
1106:Drivers/STM32G4xx_HAL_Driver/Src/stm32g4xx_hal_pcd.c **** #endif /* USE_HAL_PCD_REGISTER_CALLBACKS */
1107:Drivers/STM32G4xx_HAL_Driver/Src/stm32g4xx_hal_pcd.c ****   }
1108:Drivers/STM32G4xx_HAL_Driver/Src/stm32g4xx_hal_pcd.c **** 
1109:Drivers/STM32G4xx_HAL_Driver/Src/stm32g4xx_hal_pcd.c ****   if (__HAL_PCD_GET_FLAG(hpcd, USB_ISTR_ESOF))
1110:Drivers/STM32G4xx_HAL_Driver/Src/stm32g4xx_hal_pcd.c ****   {
1111:Drivers/STM32G4xx_HAL_Driver/Src/stm32g4xx_hal_pcd.c ****     /* clear ESOF flag in ISTR */
1112:Drivers/STM32G4xx_HAL_Driver/Src/stm32g4xx_hal_pcd.c ****     __HAL_PCD_CLEAR_FLAG(hpcd, USB_ISTR_ESOF);
1113:Drivers/STM32G4xx_HAL_Driver/Src/stm32g4xx_hal_pcd.c ****   }
1114:Drivers/STM32G4xx_HAL_Driver/Src/stm32g4xx_hal_pcd.c **** }
1115:Drivers/STM32G4xx_HAL_Driver/Src/stm32g4xx_hal_pcd.c **** 
1116:Drivers/STM32G4xx_HAL_Driver/Src/stm32g4xx_hal_pcd.c **** 
1117:Drivers/STM32G4xx_HAL_Driver/Src/stm32g4xx_hal_pcd.c **** /**
1118:Drivers/STM32G4xx_HAL_Driver/Src/stm32g4xx_hal_pcd.c ****   * @brief  Data OUT stage callback.
1119:Drivers/STM32G4xx_HAL_Driver/Src/stm32g4xx_hal_pcd.c ****   * @param  hpcd PCD handle
1120:Drivers/STM32G4xx_HAL_Driver/Src/stm32g4xx_hal_pcd.c ****   * @param  epnum endpoint number
1121:Drivers/STM32G4xx_HAL_Driver/Src/stm32g4xx_hal_pcd.c ****   * @retval None
1122:Drivers/STM32G4xx_HAL_Driver/Src/stm32g4xx_hal_pcd.c ****   */
1123:Drivers/STM32G4xx_HAL_Driver/Src/stm32g4xx_hal_pcd.c **** __weak void HAL_PCD_DataOutStageCallback(PCD_HandleTypeDef *hpcd, uint8_t epnum)
1124:Drivers/STM32G4xx_HAL_Driver/Src/stm32g4xx_hal_pcd.c **** {
 478              		.loc 1 1124 1 is_stmt 1 view -0
 479              		.cfi_startproc
 480              		@ args = 0, pretend = 0, frame = 0
 481              		@ frame_needed = 0, uses_anonymous_args = 0
 482              		@ link register save eliminated.
1125:Drivers/STM32G4xx_HAL_Driver/Src/stm32g4xx_hal_pcd.c ****   /* Prevent unused argument(s) compilation warning */
1126:Drivers/STM32G4xx_HAL_Driver/Src/stm32g4xx_hal_pcd.c ****   UNUSED(hpcd);
 483              		.loc 1 1126 3 view .LVU132
1127:Drivers/STM32G4xx_HAL_Driver/Src/stm32g4xx_hal_pcd.c ****   UNUSED(epnum);
 484              		.loc 1 1127 3 view .LVU133
1128:Drivers/STM32G4xx_HAL_Driver/Src/stm32g4xx_hal_pcd.c **** 
1129:Drivers/STM32G4xx_HAL_Driver/Src/stm32g4xx_hal_pcd.c ****   /* NOTE : This function should not be modified, when the callback is needed,
1130:Drivers/STM32G4xx_HAL_Driver/Src/stm32g4xx_hal_pcd.c ****             the HAL_PCD_DataOutStageCallback could be implemented in the user file
1131:Drivers/STM32G4xx_HAL_Driver/Src/stm32g4xx_hal_pcd.c ****    */
1132:Drivers/STM32G4xx_HAL_Driver/Src/stm32g4xx_hal_pcd.c **** }
 485              		.loc 1 1132 1 is_stmt 0 view .LVU134
 486 0000 7047     		bx	lr
 487              		.cfi_endproc
 488              	.LFE169:
 490              		.section	.text.HAL_PCD_DataInStageCallback,"ax",%progbits
 491              		.align	1
 492              		.weak	HAL_PCD_DataInStageCallback
 493              		.syntax unified
 494              		.thumb
 495              		.thumb_func
 496              		.fpu fpv4-sp-d16
 498              	HAL_PCD_DataInStageCallback:
ARM GAS  /tmp/ccXi6E5C.s 			page 31


 499              	.LVL39:
 500              	.LFB170:
1133:Drivers/STM32G4xx_HAL_Driver/Src/stm32g4xx_hal_pcd.c **** 
1134:Drivers/STM32G4xx_HAL_Driver/Src/stm32g4xx_hal_pcd.c **** /**
1135:Drivers/STM32G4xx_HAL_Driver/Src/stm32g4xx_hal_pcd.c ****   * @brief  Data IN stage callback
1136:Drivers/STM32G4xx_HAL_Driver/Src/stm32g4xx_hal_pcd.c ****   * @param  hpcd PCD handle
1137:Drivers/STM32G4xx_HAL_Driver/Src/stm32g4xx_hal_pcd.c ****   * @param  epnum endpoint number
1138:Drivers/STM32G4xx_HAL_Driver/Src/stm32g4xx_hal_pcd.c ****   * @retval None
1139:Drivers/STM32G4xx_HAL_Driver/Src/stm32g4xx_hal_pcd.c ****   */
1140:Drivers/STM32G4xx_HAL_Driver/Src/stm32g4xx_hal_pcd.c **** __weak void HAL_PCD_DataInStageCallback(PCD_HandleTypeDef *hpcd, uint8_t epnum)
1141:Drivers/STM32G4xx_HAL_Driver/Src/stm32g4xx_hal_pcd.c **** {
 501              		.loc 1 1141 1 is_stmt 1 view -0
 502              		.cfi_startproc
 503              		@ args = 0, pretend = 0, frame = 0
 504              		@ frame_needed = 0, uses_anonymous_args = 0
 505              		@ link register save eliminated.
1142:Drivers/STM32G4xx_HAL_Driver/Src/stm32g4xx_hal_pcd.c ****   /* Prevent unused argument(s) compilation warning */
1143:Drivers/STM32G4xx_HAL_Driver/Src/stm32g4xx_hal_pcd.c ****   UNUSED(hpcd);
 506              		.loc 1 1143 3 view .LVU136
1144:Drivers/STM32G4xx_HAL_Driver/Src/stm32g4xx_hal_pcd.c ****   UNUSED(epnum);
 507              		.loc 1 1144 3 view .LVU137
1145:Drivers/STM32G4xx_HAL_Driver/Src/stm32g4xx_hal_pcd.c **** 
1146:Drivers/STM32G4xx_HAL_Driver/Src/stm32g4xx_hal_pcd.c ****   /* NOTE : This function should not be modified, when the callback is needed,
1147:Drivers/STM32G4xx_HAL_Driver/Src/stm32g4xx_hal_pcd.c ****             the HAL_PCD_DataInStageCallback could be implemented in the user file
1148:Drivers/STM32G4xx_HAL_Driver/Src/stm32g4xx_hal_pcd.c ****    */
1149:Drivers/STM32G4xx_HAL_Driver/Src/stm32g4xx_hal_pcd.c **** }
 508              		.loc 1 1149 1 is_stmt 0 view .LVU138
 509 0000 7047     		bx	lr
 510              		.cfi_endproc
 511              	.LFE170:
 513              		.section	.text.HAL_PCD_SetupStageCallback,"ax",%progbits
 514              		.align	1
 515              		.weak	HAL_PCD_SetupStageCallback
 516              		.syntax unified
 517              		.thumb
 518              		.thumb_func
 519              		.fpu fpv4-sp-d16
 521              	HAL_PCD_SetupStageCallback:
 522              	.LVL40:
 523              	.LFB171:
1150:Drivers/STM32G4xx_HAL_Driver/Src/stm32g4xx_hal_pcd.c **** /**
1151:Drivers/STM32G4xx_HAL_Driver/Src/stm32g4xx_hal_pcd.c ****   * @brief  Setup stage callback
1152:Drivers/STM32G4xx_HAL_Driver/Src/stm32g4xx_hal_pcd.c ****   * @param  hpcd PCD handle
1153:Drivers/STM32G4xx_HAL_Driver/Src/stm32g4xx_hal_pcd.c ****   * @retval None
1154:Drivers/STM32G4xx_HAL_Driver/Src/stm32g4xx_hal_pcd.c ****   */
1155:Drivers/STM32G4xx_HAL_Driver/Src/stm32g4xx_hal_pcd.c **** __weak void HAL_PCD_SetupStageCallback(PCD_HandleTypeDef *hpcd)
1156:Drivers/STM32G4xx_HAL_Driver/Src/stm32g4xx_hal_pcd.c **** {
 524              		.loc 1 1156 1 is_stmt 1 view -0
 525              		.cfi_startproc
 526              		@ args = 0, pretend = 0, frame = 0
 527              		@ frame_needed = 0, uses_anonymous_args = 0
 528              		@ link register save eliminated.
1157:Drivers/STM32G4xx_HAL_Driver/Src/stm32g4xx_hal_pcd.c ****   /* Prevent unused argument(s) compilation warning */
1158:Drivers/STM32G4xx_HAL_Driver/Src/stm32g4xx_hal_pcd.c ****   UNUSED(hpcd);
 529              		.loc 1 1158 3 view .LVU140
1159:Drivers/STM32G4xx_HAL_Driver/Src/stm32g4xx_hal_pcd.c **** 
1160:Drivers/STM32G4xx_HAL_Driver/Src/stm32g4xx_hal_pcd.c ****   /* NOTE : This function should not be modified, when the callback is needed,
ARM GAS  /tmp/ccXi6E5C.s 			page 32


1161:Drivers/STM32G4xx_HAL_Driver/Src/stm32g4xx_hal_pcd.c ****             the HAL_PCD_SetupStageCallback could be implemented in the user file
1162:Drivers/STM32G4xx_HAL_Driver/Src/stm32g4xx_hal_pcd.c ****    */
1163:Drivers/STM32G4xx_HAL_Driver/Src/stm32g4xx_hal_pcd.c **** }
 530              		.loc 1 1163 1 is_stmt 0 view .LVU141
 531 0000 7047     		bx	lr
 532              		.cfi_endproc
 533              	.LFE171:
 535              		.section	.text.HAL_PCD_SOFCallback,"ax",%progbits
 536              		.align	1
 537              		.weak	HAL_PCD_SOFCallback
 538              		.syntax unified
 539              		.thumb
 540              		.thumb_func
 541              		.fpu fpv4-sp-d16
 543              	HAL_PCD_SOFCallback:
 544              	.LVL41:
 545              	.LFB172:
1164:Drivers/STM32G4xx_HAL_Driver/Src/stm32g4xx_hal_pcd.c **** 
1165:Drivers/STM32G4xx_HAL_Driver/Src/stm32g4xx_hal_pcd.c **** /**
1166:Drivers/STM32G4xx_HAL_Driver/Src/stm32g4xx_hal_pcd.c ****   * @brief  USB Start Of Frame callback.
1167:Drivers/STM32G4xx_HAL_Driver/Src/stm32g4xx_hal_pcd.c ****   * @param  hpcd PCD handle
1168:Drivers/STM32G4xx_HAL_Driver/Src/stm32g4xx_hal_pcd.c ****   * @retval None
1169:Drivers/STM32G4xx_HAL_Driver/Src/stm32g4xx_hal_pcd.c ****   */
1170:Drivers/STM32G4xx_HAL_Driver/Src/stm32g4xx_hal_pcd.c **** __weak void HAL_PCD_SOFCallback(PCD_HandleTypeDef *hpcd)
1171:Drivers/STM32G4xx_HAL_Driver/Src/stm32g4xx_hal_pcd.c **** {
 546              		.loc 1 1171 1 is_stmt 1 view -0
 547              		.cfi_startproc
 548              		@ args = 0, pretend = 0, frame = 0
 549              		@ frame_needed = 0, uses_anonymous_args = 0
 550              		@ link register save eliminated.
1172:Drivers/STM32G4xx_HAL_Driver/Src/stm32g4xx_hal_pcd.c ****   /* Prevent unused argument(s) compilation warning */
1173:Drivers/STM32G4xx_HAL_Driver/Src/stm32g4xx_hal_pcd.c ****   UNUSED(hpcd);
 551              		.loc 1 1173 3 view .LVU143
1174:Drivers/STM32G4xx_HAL_Driver/Src/stm32g4xx_hal_pcd.c **** 
1175:Drivers/STM32G4xx_HAL_Driver/Src/stm32g4xx_hal_pcd.c ****   /* NOTE : This function should not be modified, when the callback is needed,
1176:Drivers/STM32G4xx_HAL_Driver/Src/stm32g4xx_hal_pcd.c ****             the HAL_PCD_SOFCallback could be implemented in the user file
1177:Drivers/STM32G4xx_HAL_Driver/Src/stm32g4xx_hal_pcd.c ****    */
1178:Drivers/STM32G4xx_HAL_Driver/Src/stm32g4xx_hal_pcd.c **** }
 552              		.loc 1 1178 1 is_stmt 0 view .LVU144
 553 0000 7047     		bx	lr
 554              		.cfi_endproc
 555              	.LFE172:
 557              		.section	.text.HAL_PCD_ResetCallback,"ax",%progbits
 558              		.align	1
 559              		.weak	HAL_PCD_ResetCallback
 560              		.syntax unified
 561              		.thumb
 562              		.thumb_func
 563              		.fpu fpv4-sp-d16
 565              	HAL_PCD_ResetCallback:
 566              	.LVL42:
 567              	.LFB173:
1179:Drivers/STM32G4xx_HAL_Driver/Src/stm32g4xx_hal_pcd.c **** 
1180:Drivers/STM32G4xx_HAL_Driver/Src/stm32g4xx_hal_pcd.c **** /**
1181:Drivers/STM32G4xx_HAL_Driver/Src/stm32g4xx_hal_pcd.c ****   * @brief  USB Reset callback.
1182:Drivers/STM32G4xx_HAL_Driver/Src/stm32g4xx_hal_pcd.c ****   * @param  hpcd PCD handle
1183:Drivers/STM32G4xx_HAL_Driver/Src/stm32g4xx_hal_pcd.c ****   * @retval None
ARM GAS  /tmp/ccXi6E5C.s 			page 33


1184:Drivers/STM32G4xx_HAL_Driver/Src/stm32g4xx_hal_pcd.c ****   */
1185:Drivers/STM32G4xx_HAL_Driver/Src/stm32g4xx_hal_pcd.c **** __weak void HAL_PCD_ResetCallback(PCD_HandleTypeDef *hpcd)
1186:Drivers/STM32G4xx_HAL_Driver/Src/stm32g4xx_hal_pcd.c **** {
 568              		.loc 1 1186 1 is_stmt 1 view -0
 569              		.cfi_startproc
 570              		@ args = 0, pretend = 0, frame = 0
 571              		@ frame_needed = 0, uses_anonymous_args = 0
 572              		@ link register save eliminated.
1187:Drivers/STM32G4xx_HAL_Driver/Src/stm32g4xx_hal_pcd.c ****   /* Prevent unused argument(s) compilation warning */
1188:Drivers/STM32G4xx_HAL_Driver/Src/stm32g4xx_hal_pcd.c ****   UNUSED(hpcd);
 573              		.loc 1 1188 3 view .LVU146
1189:Drivers/STM32G4xx_HAL_Driver/Src/stm32g4xx_hal_pcd.c **** 
1190:Drivers/STM32G4xx_HAL_Driver/Src/stm32g4xx_hal_pcd.c ****   /* NOTE : This function should not be modified, when the callback is needed,
1191:Drivers/STM32G4xx_HAL_Driver/Src/stm32g4xx_hal_pcd.c ****             the HAL_PCD_ResetCallback could be implemented in the user file
1192:Drivers/STM32G4xx_HAL_Driver/Src/stm32g4xx_hal_pcd.c ****    */
1193:Drivers/STM32G4xx_HAL_Driver/Src/stm32g4xx_hal_pcd.c **** }
 574              		.loc 1 1193 1 is_stmt 0 view .LVU147
 575 0000 7047     		bx	lr
 576              		.cfi_endproc
 577              	.LFE173:
 579              		.section	.text.HAL_PCD_SuspendCallback,"ax",%progbits
 580              		.align	1
 581              		.weak	HAL_PCD_SuspendCallback
 582              		.syntax unified
 583              		.thumb
 584              		.thumb_func
 585              		.fpu fpv4-sp-d16
 587              	HAL_PCD_SuspendCallback:
 588              	.LVL43:
 589              	.LFB174:
1194:Drivers/STM32G4xx_HAL_Driver/Src/stm32g4xx_hal_pcd.c **** 
1195:Drivers/STM32G4xx_HAL_Driver/Src/stm32g4xx_hal_pcd.c **** /**
1196:Drivers/STM32G4xx_HAL_Driver/Src/stm32g4xx_hal_pcd.c ****   * @brief  Suspend event callback.
1197:Drivers/STM32G4xx_HAL_Driver/Src/stm32g4xx_hal_pcd.c ****   * @param  hpcd PCD handle
1198:Drivers/STM32G4xx_HAL_Driver/Src/stm32g4xx_hal_pcd.c ****   * @retval None
1199:Drivers/STM32G4xx_HAL_Driver/Src/stm32g4xx_hal_pcd.c ****   */
1200:Drivers/STM32G4xx_HAL_Driver/Src/stm32g4xx_hal_pcd.c **** __weak void HAL_PCD_SuspendCallback(PCD_HandleTypeDef *hpcd)
1201:Drivers/STM32G4xx_HAL_Driver/Src/stm32g4xx_hal_pcd.c **** {
 590              		.loc 1 1201 1 is_stmt 1 view -0
 591              		.cfi_startproc
 592              		@ args = 0, pretend = 0, frame = 0
 593              		@ frame_needed = 0, uses_anonymous_args = 0
 594              		@ link register save eliminated.
1202:Drivers/STM32G4xx_HAL_Driver/Src/stm32g4xx_hal_pcd.c ****   /* Prevent unused argument(s) compilation warning */
1203:Drivers/STM32G4xx_HAL_Driver/Src/stm32g4xx_hal_pcd.c ****   UNUSED(hpcd);
 595              		.loc 1 1203 3 view .LVU149
1204:Drivers/STM32G4xx_HAL_Driver/Src/stm32g4xx_hal_pcd.c **** 
1205:Drivers/STM32G4xx_HAL_Driver/Src/stm32g4xx_hal_pcd.c ****   /* NOTE : This function should not be modified, when the callback is needed,
1206:Drivers/STM32G4xx_HAL_Driver/Src/stm32g4xx_hal_pcd.c ****             the HAL_PCD_SuspendCallback could be implemented in the user file
1207:Drivers/STM32G4xx_HAL_Driver/Src/stm32g4xx_hal_pcd.c ****    */
1208:Drivers/STM32G4xx_HAL_Driver/Src/stm32g4xx_hal_pcd.c **** }
 596              		.loc 1 1208 1 is_stmt 0 view .LVU150
 597 0000 7047     		bx	lr
 598              		.cfi_endproc
 599              	.LFE174:
 601              		.section	.text.HAL_PCD_ResumeCallback,"ax",%progbits
 602              		.align	1
ARM GAS  /tmp/ccXi6E5C.s 			page 34


 603              		.weak	HAL_PCD_ResumeCallback
 604              		.syntax unified
 605              		.thumb
 606              		.thumb_func
 607              		.fpu fpv4-sp-d16
 609              	HAL_PCD_ResumeCallback:
 610              	.LVL44:
 611              	.LFB175:
1209:Drivers/STM32G4xx_HAL_Driver/Src/stm32g4xx_hal_pcd.c **** 
1210:Drivers/STM32G4xx_HAL_Driver/Src/stm32g4xx_hal_pcd.c **** /**
1211:Drivers/STM32G4xx_HAL_Driver/Src/stm32g4xx_hal_pcd.c ****   * @brief  Resume event callback.
1212:Drivers/STM32G4xx_HAL_Driver/Src/stm32g4xx_hal_pcd.c ****   * @param  hpcd PCD handle
1213:Drivers/STM32G4xx_HAL_Driver/Src/stm32g4xx_hal_pcd.c ****   * @retval None
1214:Drivers/STM32G4xx_HAL_Driver/Src/stm32g4xx_hal_pcd.c ****   */
1215:Drivers/STM32G4xx_HAL_Driver/Src/stm32g4xx_hal_pcd.c **** __weak void HAL_PCD_ResumeCallback(PCD_HandleTypeDef *hpcd)
1216:Drivers/STM32G4xx_HAL_Driver/Src/stm32g4xx_hal_pcd.c **** {
 612              		.loc 1 1216 1 is_stmt 1 view -0
 613              		.cfi_startproc
 614              		@ args = 0, pretend = 0, frame = 0
 615              		@ frame_needed = 0, uses_anonymous_args = 0
 616              		@ link register save eliminated.
1217:Drivers/STM32G4xx_HAL_Driver/Src/stm32g4xx_hal_pcd.c ****   /* Prevent unused argument(s) compilation warning */
1218:Drivers/STM32G4xx_HAL_Driver/Src/stm32g4xx_hal_pcd.c ****   UNUSED(hpcd);
 617              		.loc 1 1218 3 view .LVU152
1219:Drivers/STM32G4xx_HAL_Driver/Src/stm32g4xx_hal_pcd.c **** 
1220:Drivers/STM32G4xx_HAL_Driver/Src/stm32g4xx_hal_pcd.c ****   /* NOTE : This function should not be modified, when the callback is needed,
1221:Drivers/STM32G4xx_HAL_Driver/Src/stm32g4xx_hal_pcd.c ****             the HAL_PCD_ResumeCallback could be implemented in the user file
1222:Drivers/STM32G4xx_HAL_Driver/Src/stm32g4xx_hal_pcd.c ****    */
1223:Drivers/STM32G4xx_HAL_Driver/Src/stm32g4xx_hal_pcd.c **** }
 618              		.loc 1 1223 1 is_stmt 0 view .LVU153
 619 0000 7047     		bx	lr
 620              		.cfi_endproc
 621              	.LFE175:
 623              		.section	.text.HAL_PCD_ISOOUTIncompleteCallback,"ax",%progbits
 624              		.align	1
 625              		.weak	HAL_PCD_ISOOUTIncompleteCallback
 626              		.syntax unified
 627              		.thumb
 628              		.thumb_func
 629              		.fpu fpv4-sp-d16
 631              	HAL_PCD_ISOOUTIncompleteCallback:
 632              	.LVL45:
 633              	.LFB176:
1224:Drivers/STM32G4xx_HAL_Driver/Src/stm32g4xx_hal_pcd.c **** 
1225:Drivers/STM32G4xx_HAL_Driver/Src/stm32g4xx_hal_pcd.c **** /**
1226:Drivers/STM32G4xx_HAL_Driver/Src/stm32g4xx_hal_pcd.c ****   * @brief  Incomplete ISO OUT callback.
1227:Drivers/STM32G4xx_HAL_Driver/Src/stm32g4xx_hal_pcd.c ****   * @param  hpcd PCD handle
1228:Drivers/STM32G4xx_HAL_Driver/Src/stm32g4xx_hal_pcd.c ****   * @param  epnum endpoint number
1229:Drivers/STM32G4xx_HAL_Driver/Src/stm32g4xx_hal_pcd.c ****   * @retval None
1230:Drivers/STM32G4xx_HAL_Driver/Src/stm32g4xx_hal_pcd.c ****   */
1231:Drivers/STM32G4xx_HAL_Driver/Src/stm32g4xx_hal_pcd.c **** __weak void HAL_PCD_ISOOUTIncompleteCallback(PCD_HandleTypeDef *hpcd, uint8_t epnum)
1232:Drivers/STM32G4xx_HAL_Driver/Src/stm32g4xx_hal_pcd.c **** {
 634              		.loc 1 1232 1 is_stmt 1 view -0
 635              		.cfi_startproc
 636              		@ args = 0, pretend = 0, frame = 0
 637              		@ frame_needed = 0, uses_anonymous_args = 0
 638              		@ link register save eliminated.
ARM GAS  /tmp/ccXi6E5C.s 			page 35


1233:Drivers/STM32G4xx_HAL_Driver/Src/stm32g4xx_hal_pcd.c ****   /* Prevent unused argument(s) compilation warning */
1234:Drivers/STM32G4xx_HAL_Driver/Src/stm32g4xx_hal_pcd.c ****   UNUSED(hpcd);
 639              		.loc 1 1234 3 view .LVU155
1235:Drivers/STM32G4xx_HAL_Driver/Src/stm32g4xx_hal_pcd.c ****   UNUSED(epnum);
 640              		.loc 1 1235 3 view .LVU156
1236:Drivers/STM32G4xx_HAL_Driver/Src/stm32g4xx_hal_pcd.c **** 
1237:Drivers/STM32G4xx_HAL_Driver/Src/stm32g4xx_hal_pcd.c ****   /* NOTE : This function should not be modified, when the callback is needed,
1238:Drivers/STM32G4xx_HAL_Driver/Src/stm32g4xx_hal_pcd.c ****             the HAL_PCD_ISOOUTIncompleteCallback could be implemented in the user file
1239:Drivers/STM32G4xx_HAL_Driver/Src/stm32g4xx_hal_pcd.c ****    */
1240:Drivers/STM32G4xx_HAL_Driver/Src/stm32g4xx_hal_pcd.c **** }
 641              		.loc 1 1240 1 is_stmt 0 view .LVU157
 642 0000 7047     		bx	lr
 643              		.cfi_endproc
 644              	.LFE176:
 646              		.section	.text.HAL_PCD_ISOINIncompleteCallback,"ax",%progbits
 647              		.align	1
 648              		.weak	HAL_PCD_ISOINIncompleteCallback
 649              		.syntax unified
 650              		.thumb
 651              		.thumb_func
 652              		.fpu fpv4-sp-d16
 654              	HAL_PCD_ISOINIncompleteCallback:
 655              	.LVL46:
 656              	.LFB177:
1241:Drivers/STM32G4xx_HAL_Driver/Src/stm32g4xx_hal_pcd.c **** 
1242:Drivers/STM32G4xx_HAL_Driver/Src/stm32g4xx_hal_pcd.c **** /**
1243:Drivers/STM32G4xx_HAL_Driver/Src/stm32g4xx_hal_pcd.c ****   * @brief  Incomplete ISO IN callback.
1244:Drivers/STM32G4xx_HAL_Driver/Src/stm32g4xx_hal_pcd.c ****   * @param  hpcd PCD handle
1245:Drivers/STM32G4xx_HAL_Driver/Src/stm32g4xx_hal_pcd.c ****   * @param  epnum endpoint number
1246:Drivers/STM32G4xx_HAL_Driver/Src/stm32g4xx_hal_pcd.c ****   * @retval None
1247:Drivers/STM32G4xx_HAL_Driver/Src/stm32g4xx_hal_pcd.c ****   */
1248:Drivers/STM32G4xx_HAL_Driver/Src/stm32g4xx_hal_pcd.c **** __weak void HAL_PCD_ISOINIncompleteCallback(PCD_HandleTypeDef *hpcd, uint8_t epnum)
1249:Drivers/STM32G4xx_HAL_Driver/Src/stm32g4xx_hal_pcd.c **** {
 657              		.loc 1 1249 1 is_stmt 1 view -0
 658              		.cfi_startproc
 659              		@ args = 0, pretend = 0, frame = 0
 660              		@ frame_needed = 0, uses_anonymous_args = 0
 661              		@ link register save eliminated.
1250:Drivers/STM32G4xx_HAL_Driver/Src/stm32g4xx_hal_pcd.c ****   /* Prevent unused argument(s) compilation warning */
1251:Drivers/STM32G4xx_HAL_Driver/Src/stm32g4xx_hal_pcd.c ****   UNUSED(hpcd);
 662              		.loc 1 1251 3 view .LVU159
1252:Drivers/STM32G4xx_HAL_Driver/Src/stm32g4xx_hal_pcd.c ****   UNUSED(epnum);
 663              		.loc 1 1252 3 view .LVU160
1253:Drivers/STM32G4xx_HAL_Driver/Src/stm32g4xx_hal_pcd.c **** 
1254:Drivers/STM32G4xx_HAL_Driver/Src/stm32g4xx_hal_pcd.c ****   /* NOTE : This function should not be modified, when the callback is needed,
1255:Drivers/STM32G4xx_HAL_Driver/Src/stm32g4xx_hal_pcd.c ****             the HAL_PCD_ISOINIncompleteCallback could be implemented in the user file
1256:Drivers/STM32G4xx_HAL_Driver/Src/stm32g4xx_hal_pcd.c ****    */
1257:Drivers/STM32G4xx_HAL_Driver/Src/stm32g4xx_hal_pcd.c **** }
 664              		.loc 1 1257 1 is_stmt 0 view .LVU161
 665 0000 7047     		bx	lr
 666              		.cfi_endproc
 667              	.LFE177:
 669              		.section	.text.HAL_PCD_ConnectCallback,"ax",%progbits
 670              		.align	1
 671              		.weak	HAL_PCD_ConnectCallback
 672              		.syntax unified
 673              		.thumb
ARM GAS  /tmp/ccXi6E5C.s 			page 36


 674              		.thumb_func
 675              		.fpu fpv4-sp-d16
 677              	HAL_PCD_ConnectCallback:
 678              	.LVL47:
 679              	.LFB178:
1258:Drivers/STM32G4xx_HAL_Driver/Src/stm32g4xx_hal_pcd.c **** 
1259:Drivers/STM32G4xx_HAL_Driver/Src/stm32g4xx_hal_pcd.c **** /**
1260:Drivers/STM32G4xx_HAL_Driver/Src/stm32g4xx_hal_pcd.c ****   * @brief  Connection event callback.
1261:Drivers/STM32G4xx_HAL_Driver/Src/stm32g4xx_hal_pcd.c ****   * @param  hpcd PCD handle
1262:Drivers/STM32G4xx_HAL_Driver/Src/stm32g4xx_hal_pcd.c ****   * @retval None
1263:Drivers/STM32G4xx_HAL_Driver/Src/stm32g4xx_hal_pcd.c ****   */
1264:Drivers/STM32G4xx_HAL_Driver/Src/stm32g4xx_hal_pcd.c **** __weak void HAL_PCD_ConnectCallback(PCD_HandleTypeDef *hpcd)
1265:Drivers/STM32G4xx_HAL_Driver/Src/stm32g4xx_hal_pcd.c **** {
 680              		.loc 1 1265 1 is_stmt 1 view -0
 681              		.cfi_startproc
 682              		@ args = 0, pretend = 0, frame = 0
 683              		@ frame_needed = 0, uses_anonymous_args = 0
 684              		@ link register save eliminated.
1266:Drivers/STM32G4xx_HAL_Driver/Src/stm32g4xx_hal_pcd.c ****   /* Prevent unused argument(s) compilation warning */
1267:Drivers/STM32G4xx_HAL_Driver/Src/stm32g4xx_hal_pcd.c ****   UNUSED(hpcd);
 685              		.loc 1 1267 3 view .LVU163
1268:Drivers/STM32G4xx_HAL_Driver/Src/stm32g4xx_hal_pcd.c **** 
1269:Drivers/STM32G4xx_HAL_Driver/Src/stm32g4xx_hal_pcd.c ****   /* NOTE : This function should not be modified, when the callback is needed,
1270:Drivers/STM32G4xx_HAL_Driver/Src/stm32g4xx_hal_pcd.c ****             the HAL_PCD_ConnectCallback could be implemented in the user file
1271:Drivers/STM32G4xx_HAL_Driver/Src/stm32g4xx_hal_pcd.c ****    */
1272:Drivers/STM32G4xx_HAL_Driver/Src/stm32g4xx_hal_pcd.c **** }
 686              		.loc 1 1272 1 is_stmt 0 view .LVU164
 687 0000 7047     		bx	lr
 688              		.cfi_endproc
 689              	.LFE178:
 691              		.section	.text.HAL_PCD_DisconnectCallback,"ax",%progbits
 692              		.align	1
 693              		.weak	HAL_PCD_DisconnectCallback
 694              		.syntax unified
 695              		.thumb
 696              		.thumb_func
 697              		.fpu fpv4-sp-d16
 699              	HAL_PCD_DisconnectCallback:
 700              	.LVL48:
 701              	.LFB179:
1273:Drivers/STM32G4xx_HAL_Driver/Src/stm32g4xx_hal_pcd.c **** 
1274:Drivers/STM32G4xx_HAL_Driver/Src/stm32g4xx_hal_pcd.c **** /**
1275:Drivers/STM32G4xx_HAL_Driver/Src/stm32g4xx_hal_pcd.c ****   * @brief  Disconnection event callback.
1276:Drivers/STM32G4xx_HAL_Driver/Src/stm32g4xx_hal_pcd.c ****   * @param  hpcd PCD handle
1277:Drivers/STM32G4xx_HAL_Driver/Src/stm32g4xx_hal_pcd.c ****   * @retval None
1278:Drivers/STM32G4xx_HAL_Driver/Src/stm32g4xx_hal_pcd.c ****   */
1279:Drivers/STM32G4xx_HAL_Driver/Src/stm32g4xx_hal_pcd.c **** __weak void HAL_PCD_DisconnectCallback(PCD_HandleTypeDef *hpcd)
1280:Drivers/STM32G4xx_HAL_Driver/Src/stm32g4xx_hal_pcd.c **** {
 702              		.loc 1 1280 1 is_stmt 1 view -0
 703              		.cfi_startproc
 704              		@ args = 0, pretend = 0, frame = 0
 705              		@ frame_needed = 0, uses_anonymous_args = 0
 706              		@ link register save eliminated.
1281:Drivers/STM32G4xx_HAL_Driver/Src/stm32g4xx_hal_pcd.c ****   /* Prevent unused argument(s) compilation warning */
1282:Drivers/STM32G4xx_HAL_Driver/Src/stm32g4xx_hal_pcd.c ****   UNUSED(hpcd);
 707              		.loc 1 1282 3 view .LVU166
1283:Drivers/STM32G4xx_HAL_Driver/Src/stm32g4xx_hal_pcd.c **** 
ARM GAS  /tmp/ccXi6E5C.s 			page 37


1284:Drivers/STM32G4xx_HAL_Driver/Src/stm32g4xx_hal_pcd.c ****   /* NOTE : This function should not be modified, when the callback is needed,
1285:Drivers/STM32G4xx_HAL_Driver/Src/stm32g4xx_hal_pcd.c ****             the HAL_PCD_DisconnectCallback could be implemented in the user file
1286:Drivers/STM32G4xx_HAL_Driver/Src/stm32g4xx_hal_pcd.c ****    */
1287:Drivers/STM32G4xx_HAL_Driver/Src/stm32g4xx_hal_pcd.c **** }
 708              		.loc 1 1287 1 is_stmt 0 view .LVU167
 709 0000 7047     		bx	lr
 710              		.cfi_endproc
 711              	.LFE179:
 713              		.section	.text.HAL_PCD_DevConnect,"ax",%progbits
 714              		.align	1
 715              		.global	HAL_PCD_DevConnect
 716              		.syntax unified
 717              		.thumb
 718              		.thumb_func
 719              		.fpu fpv4-sp-d16
 721              	HAL_PCD_DevConnect:
 722              	.LVL49:
 723              	.LFB180:
1288:Drivers/STM32G4xx_HAL_Driver/Src/stm32g4xx_hal_pcd.c **** 
1289:Drivers/STM32G4xx_HAL_Driver/Src/stm32g4xx_hal_pcd.c **** /**
1290:Drivers/STM32G4xx_HAL_Driver/Src/stm32g4xx_hal_pcd.c ****   * @}
1291:Drivers/STM32G4xx_HAL_Driver/Src/stm32g4xx_hal_pcd.c ****   */
1292:Drivers/STM32G4xx_HAL_Driver/Src/stm32g4xx_hal_pcd.c **** 
1293:Drivers/STM32G4xx_HAL_Driver/Src/stm32g4xx_hal_pcd.c **** /** @defgroup PCD_Exported_Functions_Group3 Peripheral Control functions
1294:Drivers/STM32G4xx_HAL_Driver/Src/stm32g4xx_hal_pcd.c ****  *  @brief   management functions
1295:Drivers/STM32G4xx_HAL_Driver/Src/stm32g4xx_hal_pcd.c ****  *
1296:Drivers/STM32G4xx_HAL_Driver/Src/stm32g4xx_hal_pcd.c **** @verbatim
1297:Drivers/STM32G4xx_HAL_Driver/Src/stm32g4xx_hal_pcd.c ****  ===============================================================================
1298:Drivers/STM32G4xx_HAL_Driver/Src/stm32g4xx_hal_pcd.c ****                       ##### Peripheral Control functions #####
1299:Drivers/STM32G4xx_HAL_Driver/Src/stm32g4xx_hal_pcd.c ****  ===============================================================================
1300:Drivers/STM32G4xx_HAL_Driver/Src/stm32g4xx_hal_pcd.c ****     [..]
1301:Drivers/STM32G4xx_HAL_Driver/Src/stm32g4xx_hal_pcd.c ****     This subsection provides a set of functions allowing to control the PCD data
1302:Drivers/STM32G4xx_HAL_Driver/Src/stm32g4xx_hal_pcd.c ****     transfers.
1303:Drivers/STM32G4xx_HAL_Driver/Src/stm32g4xx_hal_pcd.c **** 
1304:Drivers/STM32G4xx_HAL_Driver/Src/stm32g4xx_hal_pcd.c **** @endverbatim
1305:Drivers/STM32G4xx_HAL_Driver/Src/stm32g4xx_hal_pcd.c ****   * @{
1306:Drivers/STM32G4xx_HAL_Driver/Src/stm32g4xx_hal_pcd.c ****   */
1307:Drivers/STM32G4xx_HAL_Driver/Src/stm32g4xx_hal_pcd.c **** 
1308:Drivers/STM32G4xx_HAL_Driver/Src/stm32g4xx_hal_pcd.c **** /**
1309:Drivers/STM32G4xx_HAL_Driver/Src/stm32g4xx_hal_pcd.c ****   * @brief  Connect the USB device
1310:Drivers/STM32G4xx_HAL_Driver/Src/stm32g4xx_hal_pcd.c ****   * @param  hpcd PCD handle
1311:Drivers/STM32G4xx_HAL_Driver/Src/stm32g4xx_hal_pcd.c ****   * @retval HAL status
1312:Drivers/STM32G4xx_HAL_Driver/Src/stm32g4xx_hal_pcd.c ****   */
1313:Drivers/STM32G4xx_HAL_Driver/Src/stm32g4xx_hal_pcd.c **** HAL_StatusTypeDef HAL_PCD_DevConnect(PCD_HandleTypeDef *hpcd)
1314:Drivers/STM32G4xx_HAL_Driver/Src/stm32g4xx_hal_pcd.c **** {
 724              		.loc 1 1314 1 is_stmt 1 view -0
 725              		.cfi_startproc
 726              		@ args = 0, pretend = 0, frame = 0
 727              		@ frame_needed = 0, uses_anonymous_args = 0
1315:Drivers/STM32G4xx_HAL_Driver/Src/stm32g4xx_hal_pcd.c ****   __HAL_LOCK(hpcd);
 728              		.loc 1 1315 3 view .LVU169
 729              		.loc 1 1315 3 view .LVU170
 730 0000 90F82832 		ldrb	r3, [r0, #552]	@ zero_extendqisi2
 731 0004 012B     		cmp	r3, #1
 732 0006 0BD0     		beq	.L53
1314:Drivers/STM32G4xx_HAL_Driver/Src/stm32g4xx_hal_pcd.c ****   __HAL_LOCK(hpcd);
 733              		.loc 1 1314 1 is_stmt 0 discriminator 2 view .LVU171
ARM GAS  /tmp/ccXi6E5C.s 			page 38


 734 0008 10B5     		push	{r4, lr}
 735              	.LCFI11:
 736              		.cfi_def_cfa_offset 8
 737              		.cfi_offset 4, -8
 738              		.cfi_offset 14, -4
 739 000a 0446     		mov	r4, r0
 740              		.loc 1 1315 3 is_stmt 1 discriminator 2 view .LVU172
 741 000c 0123     		movs	r3, #1
 742 000e 80F82832 		strb	r3, [r0, #552]
 743              		.loc 1 1315 3 discriminator 2 view .LVU173
1316:Drivers/STM32G4xx_HAL_Driver/Src/stm32g4xx_hal_pcd.c ****   (void)USB_DevConnect(hpcd->Instance);
 744              		.loc 1 1316 3 discriminator 2 view .LVU174
 745              		.loc 1 1316 9 is_stmt 0 discriminator 2 view .LVU175
 746 0012 0068     		ldr	r0, [r0]
 747              	.LVL50:
 748              		.loc 1 1316 9 discriminator 2 view .LVU176
 749 0014 FFF7FEFF 		bl	USB_DevConnect
 750              	.LVL51:
1317:Drivers/STM32G4xx_HAL_Driver/Src/stm32g4xx_hal_pcd.c ****   __HAL_UNLOCK(hpcd);
 751              		.loc 1 1317 3 is_stmt 1 discriminator 2 view .LVU177
 752              		.loc 1 1317 3 discriminator 2 view .LVU178
 753 0018 0020     		movs	r0, #0
 754 001a 84F82802 		strb	r0, [r4, #552]
 755              		.loc 1 1317 3 discriminator 2 view .LVU179
1318:Drivers/STM32G4xx_HAL_Driver/Src/stm32g4xx_hal_pcd.c ****   return HAL_OK;
 756              		.loc 1 1318 3 discriminator 2 view .LVU180
1319:Drivers/STM32G4xx_HAL_Driver/Src/stm32g4xx_hal_pcd.c **** }
 757              		.loc 1 1319 1 is_stmt 0 discriminator 2 view .LVU181
 758 001e 10BD     		pop	{r4, pc}
 759              	.LVL52:
 760              	.L53:
 761              	.LCFI12:
 762              		.cfi_def_cfa_offset 0
 763              		.cfi_restore 4
 764              		.cfi_restore 14
1315:Drivers/STM32G4xx_HAL_Driver/Src/stm32g4xx_hal_pcd.c ****   (void)USB_DevConnect(hpcd->Instance);
 765              		.loc 1 1315 3 view .LVU182
 766 0020 0220     		movs	r0, #2
 767              	.LVL53:
 768              		.loc 1 1319 1 view .LVU183
 769 0022 7047     		bx	lr
 770              		.cfi_endproc
 771              	.LFE180:
 773              		.section	.text.HAL_PCD_DevDisconnect,"ax",%progbits
 774              		.align	1
 775              		.global	HAL_PCD_DevDisconnect
 776              		.syntax unified
 777              		.thumb
 778              		.thumb_func
 779              		.fpu fpv4-sp-d16
 781              	HAL_PCD_DevDisconnect:
 782              	.LVL54:
 783              	.LFB181:
1320:Drivers/STM32G4xx_HAL_Driver/Src/stm32g4xx_hal_pcd.c **** 
1321:Drivers/STM32G4xx_HAL_Driver/Src/stm32g4xx_hal_pcd.c **** /**
1322:Drivers/STM32G4xx_HAL_Driver/Src/stm32g4xx_hal_pcd.c ****   * @brief  Disconnect the USB device.
1323:Drivers/STM32G4xx_HAL_Driver/Src/stm32g4xx_hal_pcd.c ****   * @param  hpcd PCD handle
ARM GAS  /tmp/ccXi6E5C.s 			page 39


1324:Drivers/STM32G4xx_HAL_Driver/Src/stm32g4xx_hal_pcd.c ****   * @retval HAL status
1325:Drivers/STM32G4xx_HAL_Driver/Src/stm32g4xx_hal_pcd.c ****   */
1326:Drivers/STM32G4xx_HAL_Driver/Src/stm32g4xx_hal_pcd.c **** HAL_StatusTypeDef HAL_PCD_DevDisconnect(PCD_HandleTypeDef *hpcd)
1327:Drivers/STM32G4xx_HAL_Driver/Src/stm32g4xx_hal_pcd.c **** {
 784              		.loc 1 1327 1 is_stmt 1 view -0
 785              		.cfi_startproc
 786              		@ args = 0, pretend = 0, frame = 0
 787              		@ frame_needed = 0, uses_anonymous_args = 0
1328:Drivers/STM32G4xx_HAL_Driver/Src/stm32g4xx_hal_pcd.c ****   __HAL_LOCK(hpcd);
 788              		.loc 1 1328 3 view .LVU185
 789              		.loc 1 1328 3 view .LVU186
 790 0000 90F82832 		ldrb	r3, [r0, #552]	@ zero_extendqisi2
 791 0004 012B     		cmp	r3, #1
 792 0006 0BD0     		beq	.L60
1327:Drivers/STM32G4xx_HAL_Driver/Src/stm32g4xx_hal_pcd.c ****   __HAL_LOCK(hpcd);
 793              		.loc 1 1327 1 is_stmt 0 discriminator 2 view .LVU187
 794 0008 10B5     		push	{r4, lr}
 795              	.LCFI13:
 796              		.cfi_def_cfa_offset 8
 797              		.cfi_offset 4, -8
 798              		.cfi_offset 14, -4
 799 000a 0446     		mov	r4, r0
 800              		.loc 1 1328 3 is_stmt 1 discriminator 2 view .LVU188
 801 000c 0123     		movs	r3, #1
 802 000e 80F82832 		strb	r3, [r0, #552]
 803              		.loc 1 1328 3 discriminator 2 view .LVU189
1329:Drivers/STM32G4xx_HAL_Driver/Src/stm32g4xx_hal_pcd.c ****   (void)USB_DevDisconnect(hpcd->Instance);
 804              		.loc 1 1329 3 discriminator 2 view .LVU190
 805              		.loc 1 1329 9 is_stmt 0 discriminator 2 view .LVU191
 806 0012 0068     		ldr	r0, [r0]
 807              	.LVL55:
 808              		.loc 1 1329 9 discriminator 2 view .LVU192
 809 0014 FFF7FEFF 		bl	USB_DevDisconnect
 810              	.LVL56:
1330:Drivers/STM32G4xx_HAL_Driver/Src/stm32g4xx_hal_pcd.c ****   __HAL_UNLOCK(hpcd);
 811              		.loc 1 1330 3 is_stmt 1 discriminator 2 view .LVU193
 812              		.loc 1 1330 3 discriminator 2 view .LVU194
 813 0018 0020     		movs	r0, #0
 814 001a 84F82802 		strb	r0, [r4, #552]
 815              		.loc 1 1330 3 discriminator 2 view .LVU195
1331:Drivers/STM32G4xx_HAL_Driver/Src/stm32g4xx_hal_pcd.c ****   return HAL_OK;
 816              		.loc 1 1331 3 discriminator 2 view .LVU196
1332:Drivers/STM32G4xx_HAL_Driver/Src/stm32g4xx_hal_pcd.c **** }
 817              		.loc 1 1332 1 is_stmt 0 discriminator 2 view .LVU197
 818 001e 10BD     		pop	{r4, pc}
 819              	.LVL57:
 820              	.L60:
 821              	.LCFI14:
 822              		.cfi_def_cfa_offset 0
 823              		.cfi_restore 4
 824              		.cfi_restore 14
1328:Drivers/STM32G4xx_HAL_Driver/Src/stm32g4xx_hal_pcd.c ****   (void)USB_DevDisconnect(hpcd->Instance);
 825              		.loc 1 1328 3 view .LVU198
 826 0020 0220     		movs	r0, #2
 827              	.LVL58:
 828              		.loc 1 1332 1 view .LVU199
 829 0022 7047     		bx	lr
ARM GAS  /tmp/ccXi6E5C.s 			page 40


 830              		.cfi_endproc
 831              	.LFE181:
 833              		.section	.text.HAL_PCD_SetAddress,"ax",%progbits
 834              		.align	1
 835              		.global	HAL_PCD_SetAddress
 836              		.syntax unified
 837              		.thumb
 838              		.thumb_func
 839              		.fpu fpv4-sp-d16
 841              	HAL_PCD_SetAddress:
 842              	.LVL59:
 843              	.LFB182:
1333:Drivers/STM32G4xx_HAL_Driver/Src/stm32g4xx_hal_pcd.c **** 
1334:Drivers/STM32G4xx_HAL_Driver/Src/stm32g4xx_hal_pcd.c **** /**
1335:Drivers/STM32G4xx_HAL_Driver/Src/stm32g4xx_hal_pcd.c ****   * @brief  Set the USB Device address.
1336:Drivers/STM32G4xx_HAL_Driver/Src/stm32g4xx_hal_pcd.c ****   * @param  hpcd PCD handle
1337:Drivers/STM32G4xx_HAL_Driver/Src/stm32g4xx_hal_pcd.c ****   * @param  address new device address
1338:Drivers/STM32G4xx_HAL_Driver/Src/stm32g4xx_hal_pcd.c ****   * @retval HAL status
1339:Drivers/STM32G4xx_HAL_Driver/Src/stm32g4xx_hal_pcd.c ****   */
1340:Drivers/STM32G4xx_HAL_Driver/Src/stm32g4xx_hal_pcd.c **** HAL_StatusTypeDef HAL_PCD_SetAddress(PCD_HandleTypeDef *hpcd, uint8_t address)
1341:Drivers/STM32G4xx_HAL_Driver/Src/stm32g4xx_hal_pcd.c **** {
 844              		.loc 1 1341 1 is_stmt 1 view -0
 845              		.cfi_startproc
 846              		@ args = 0, pretend = 0, frame = 0
 847              		@ frame_needed = 0, uses_anonymous_args = 0
1342:Drivers/STM32G4xx_HAL_Driver/Src/stm32g4xx_hal_pcd.c ****   __HAL_LOCK(hpcd);
 848              		.loc 1 1342 3 view .LVU201
 849              		.loc 1 1342 3 view .LVU202
 850 0000 90F82832 		ldrb	r3, [r0, #552]	@ zero_extendqisi2
 851 0004 012B     		cmp	r3, #1
 852 0006 0DD0     		beq	.L67
1341:Drivers/STM32G4xx_HAL_Driver/Src/stm32g4xx_hal_pcd.c ****   __HAL_LOCK(hpcd);
 853              		.loc 1 1341 1 is_stmt 0 discriminator 2 view .LVU203
 854 0008 10B5     		push	{r4, lr}
 855              	.LCFI15:
 856              		.cfi_def_cfa_offset 8
 857              		.cfi_offset 4, -8
 858              		.cfi_offset 14, -4
 859 000a 0446     		mov	r4, r0
 860              		.loc 1 1342 3 is_stmt 1 discriminator 2 view .LVU204
 861 000c 0123     		movs	r3, #1
 862 000e 80F82832 		strb	r3, [r0, #552]
 863              		.loc 1 1342 3 discriminator 2 view .LVU205
1343:Drivers/STM32G4xx_HAL_Driver/Src/stm32g4xx_hal_pcd.c ****   hpcd->USB_Address = address;
 864              		.loc 1 1343 3 discriminator 2 view .LVU206
 865              		.loc 1 1343 21 is_stmt 0 discriminator 2 view .LVU207
 866 0012 80F82410 		strb	r1, [r0, #36]
1344:Drivers/STM32G4xx_HAL_Driver/Src/stm32g4xx_hal_pcd.c ****   (void)USB_SetDevAddress(hpcd->Instance, address);
 867              		.loc 1 1344 3 is_stmt 1 discriminator 2 view .LVU208
 868              		.loc 1 1344 9 is_stmt 0 discriminator 2 view .LVU209
 869 0016 0068     		ldr	r0, [r0]
 870              	.LVL60:
 871              		.loc 1 1344 9 discriminator 2 view .LVU210
 872 0018 FFF7FEFF 		bl	USB_SetDevAddress
 873              	.LVL61:
1345:Drivers/STM32G4xx_HAL_Driver/Src/stm32g4xx_hal_pcd.c ****   __HAL_UNLOCK(hpcd);
 874              		.loc 1 1345 3 is_stmt 1 discriminator 2 view .LVU211
ARM GAS  /tmp/ccXi6E5C.s 			page 41


 875              		.loc 1 1345 3 discriminator 2 view .LVU212
 876 001c 0020     		movs	r0, #0
 877 001e 84F82802 		strb	r0, [r4, #552]
 878              		.loc 1 1345 3 discriminator 2 view .LVU213
1346:Drivers/STM32G4xx_HAL_Driver/Src/stm32g4xx_hal_pcd.c ****   return HAL_OK;
 879              		.loc 1 1346 3 discriminator 2 view .LVU214
1347:Drivers/STM32G4xx_HAL_Driver/Src/stm32g4xx_hal_pcd.c **** }
 880              		.loc 1 1347 1 is_stmt 0 discriminator 2 view .LVU215
 881 0022 10BD     		pop	{r4, pc}
 882              	.LVL62:
 883              	.L67:
 884              	.LCFI16:
 885              		.cfi_def_cfa_offset 0
 886              		.cfi_restore 4
 887              		.cfi_restore 14
1342:Drivers/STM32G4xx_HAL_Driver/Src/stm32g4xx_hal_pcd.c ****   hpcd->USB_Address = address;
 888              		.loc 1 1342 3 view .LVU216
 889 0024 0220     		movs	r0, #2
 890              	.LVL63:
 891              		.loc 1 1347 1 view .LVU217
 892 0026 7047     		bx	lr
 893              		.cfi_endproc
 894              	.LFE182:
 896              		.section	.text.HAL_PCD_EP_Open,"ax",%progbits
 897              		.align	1
 898              		.global	HAL_PCD_EP_Open
 899              		.syntax unified
 900              		.thumb
 901              		.thumb_func
 902              		.fpu fpv4-sp-d16
 904              	HAL_PCD_EP_Open:
 905              	.LVL64:
 906              	.LFB183:
1348:Drivers/STM32G4xx_HAL_Driver/Src/stm32g4xx_hal_pcd.c **** /**
1349:Drivers/STM32G4xx_HAL_Driver/Src/stm32g4xx_hal_pcd.c ****   * @brief  Open and configure an endpoint.
1350:Drivers/STM32G4xx_HAL_Driver/Src/stm32g4xx_hal_pcd.c ****   * @param  hpcd PCD handle
1351:Drivers/STM32G4xx_HAL_Driver/Src/stm32g4xx_hal_pcd.c ****   * @param  ep_addr endpoint address
1352:Drivers/STM32G4xx_HAL_Driver/Src/stm32g4xx_hal_pcd.c ****   * @param  ep_mps endpoint max packet size
1353:Drivers/STM32G4xx_HAL_Driver/Src/stm32g4xx_hal_pcd.c ****   * @param  ep_type endpoint type
1354:Drivers/STM32G4xx_HAL_Driver/Src/stm32g4xx_hal_pcd.c ****   * @retval HAL status
1355:Drivers/STM32G4xx_HAL_Driver/Src/stm32g4xx_hal_pcd.c ****   */
1356:Drivers/STM32G4xx_HAL_Driver/Src/stm32g4xx_hal_pcd.c **** HAL_StatusTypeDef HAL_PCD_EP_Open(PCD_HandleTypeDef *hpcd, uint8_t ep_addr, uint16_t ep_mps, uint8_
1357:Drivers/STM32G4xx_HAL_Driver/Src/stm32g4xx_hal_pcd.c **** {
 907              		.loc 1 1357 1 is_stmt 1 view -0
 908              		.cfi_startproc
 909              		@ args = 0, pretend = 0, frame = 0
 910              		@ frame_needed = 0, uses_anonymous_args = 0
 911              		.loc 1 1357 1 is_stmt 0 view .LVU219
 912 0000 70B5     		push	{r4, r5, r6, lr}
 913              	.LCFI17:
 914              		.cfi_def_cfa_offset 16
 915              		.cfi_offset 4, -16
 916              		.cfi_offset 5, -12
 917              		.cfi_offset 6, -8
 918              		.cfi_offset 14, -4
 919 0002 0546     		mov	r5, r0
 920 0004 0C46     		mov	r4, r1
ARM GAS  /tmp/ccXi6E5C.s 			page 42


1358:Drivers/STM32G4xx_HAL_Driver/Src/stm32g4xx_hal_pcd.c ****   HAL_StatusTypeDef  ret = HAL_OK;
 921              		.loc 1 1358 3 is_stmt 1 view .LVU220
 922              	.LVL65:
1359:Drivers/STM32G4xx_HAL_Driver/Src/stm32g4xx_hal_pcd.c ****   PCD_EPTypeDef *ep;
 923              		.loc 1 1359 3 view .LVU221
1360:Drivers/STM32G4xx_HAL_Driver/Src/stm32g4xx_hal_pcd.c **** 
1361:Drivers/STM32G4xx_HAL_Driver/Src/stm32g4xx_hal_pcd.c ****   if ((ep_addr & 0x80U) == 0x80U)
 924              		.loc 1 1361 3 view .LVU222
 925              		.loc 1 1361 6 is_stmt 0 view .LVU223
 926 0006 11F0800F 		tst	r1, #128
 927 000a 21D1     		bne	.L80
1362:Drivers/STM32G4xx_HAL_Driver/Src/stm32g4xx_hal_pcd.c ****   {
1363:Drivers/STM32G4xx_HAL_Driver/Src/stm32g4xx_hal_pcd.c ****     ep = &hpcd->IN_ep[ep_addr & EP_ADDR_MSK];
1364:Drivers/STM32G4xx_HAL_Driver/Src/stm32g4xx_hal_pcd.c ****     ep->is_in = 1U;
1365:Drivers/STM32G4xx_HAL_Driver/Src/stm32g4xx_hal_pcd.c ****   }
1366:Drivers/STM32G4xx_HAL_Driver/Src/stm32g4xx_hal_pcd.c ****   else
1367:Drivers/STM32G4xx_HAL_Driver/Src/stm32g4xx_hal_pcd.c ****   {
1368:Drivers/STM32G4xx_HAL_Driver/Src/stm32g4xx_hal_pcd.c ****     ep = &hpcd->OUT_ep[ep_addr & EP_ADDR_MSK];
 928              		.loc 1 1368 5 is_stmt 1 view .LVU224
 929              		.loc 1 1368 32 is_stmt 0 view .LVU225
 930 000c 01F00700 		and	r0, r1, #7
 931              	.LVL66:
 932              		.loc 1 1368 8 view .LVU226
 933 0010 4001     		lsls	r0, r0, #5
 934 0012 00F59471 		add	r1, r0, #296
 935              	.LVL67:
 936              		.loc 1 1368 8 view .LVU227
 937 0016 2944     		add	r1, r1, r5
 938              	.LVL68:
1369:Drivers/STM32G4xx_HAL_Driver/Src/stm32g4xx_hal_pcd.c ****     ep->is_in = 0U;
 939              		.loc 1 1369 5 is_stmt 1 view .LVU228
 940              		.loc 1 1369 15 is_stmt 0 view .LVU229
 941 0018 2844     		add	r0, r0, r5
 942 001a 0026     		movs	r6, #0
 943 001c 80F82961 		strb	r6, [r0, #297]
 944              	.L74:
1370:Drivers/STM32G4xx_HAL_Driver/Src/stm32g4xx_hal_pcd.c ****   }
1371:Drivers/STM32G4xx_HAL_Driver/Src/stm32g4xx_hal_pcd.c **** 
1372:Drivers/STM32G4xx_HAL_Driver/Src/stm32g4xx_hal_pcd.c ****   ep->num = ep_addr & EP_ADDR_MSK;
 945              		.loc 1 1372 3 is_stmt 1 view .LVU230
 946              		.loc 1 1372 21 is_stmt 0 view .LVU231
 947 0020 04F00704 		and	r4, r4, #7
 948              		.loc 1 1372 11 view .LVU232
 949 0024 0C70     		strb	r4, [r1]
1373:Drivers/STM32G4xx_HAL_Driver/Src/stm32g4xx_hal_pcd.c ****   ep->maxpacket = ep_mps;
 950              		.loc 1 1373 3 is_stmt 1 view .LVU233
 951              		.loc 1 1373 17 is_stmt 0 view .LVU234
 952 0026 0A61     		str	r2, [r1, #16]
1374:Drivers/STM32G4xx_HAL_Driver/Src/stm32g4xx_hal_pcd.c ****   ep->type = ep_type;
 953              		.loc 1 1374 3 is_stmt 1 view .LVU235
 954              		.loc 1 1374 12 is_stmt 0 view .LVU236
 955 0028 CB70     		strb	r3, [r1, #3]
1375:Drivers/STM32G4xx_HAL_Driver/Src/stm32g4xx_hal_pcd.c **** 
1376:Drivers/STM32G4xx_HAL_Driver/Src/stm32g4xx_hal_pcd.c ****   if (ep->is_in != 0U)
 956              		.loc 1 1376 3 is_stmt 1 view .LVU237
 957              		.loc 1 1376 9 is_stmt 0 view .LVU238
 958 002a 4A78     		ldrb	r2, [r1, #1]	@ zero_extendqisi2
ARM GAS  /tmp/ccXi6E5C.s 			page 43


 959              	.LVL69:
 960              		.loc 1 1376 6 view .LVU239
 961 002c 02B1     		cbz	r2, .L75
1377:Drivers/STM32G4xx_HAL_Driver/Src/stm32g4xx_hal_pcd.c ****   {
1378:Drivers/STM32G4xx_HAL_Driver/Src/stm32g4xx_hal_pcd.c ****     /* Assign a Tx FIFO */
1379:Drivers/STM32G4xx_HAL_Driver/Src/stm32g4xx_hal_pcd.c ****     ep->tx_fifo_num = ep->num;
 962              		.loc 1 1379 5 is_stmt 1 view .LVU240
 963              		.loc 1 1379 21 is_stmt 0 view .LVU241
 964 002e CC81     		strh	r4, [r1, #14]	@ movhi
 965              	.L75:
1380:Drivers/STM32G4xx_HAL_Driver/Src/stm32g4xx_hal_pcd.c ****   }
1381:Drivers/STM32G4xx_HAL_Driver/Src/stm32g4xx_hal_pcd.c ****   /* Set initial data PID. */
1382:Drivers/STM32G4xx_HAL_Driver/Src/stm32g4xx_hal_pcd.c ****   if (ep_type == EP_TYPE_BULK)
 966              		.loc 1 1382 3 is_stmt 1 view .LVU242
 967              		.loc 1 1382 6 is_stmt 0 view .LVU243
 968 0030 022B     		cmp	r3, #2
 969 0032 18D0     		beq	.L81
 970              	.LVL70:
 971              	.L76:
1383:Drivers/STM32G4xx_HAL_Driver/Src/stm32g4xx_hal_pcd.c ****   {
1384:Drivers/STM32G4xx_HAL_Driver/Src/stm32g4xx_hal_pcd.c ****     ep->data_pid_start = 0U;
1385:Drivers/STM32G4xx_HAL_Driver/Src/stm32g4xx_hal_pcd.c ****   }
1386:Drivers/STM32G4xx_HAL_Driver/Src/stm32g4xx_hal_pcd.c **** 
1387:Drivers/STM32G4xx_HAL_Driver/Src/stm32g4xx_hal_pcd.c ****   __HAL_LOCK(hpcd);
 972              		.loc 1 1387 3 is_stmt 1 view .LVU244
 973              		.loc 1 1387 3 view .LVU245
 974 0034 95F82832 		ldrb	r3, [r5, #552]	@ zero_extendqisi2
 975 0038 012B     		cmp	r3, #1
 976 003a 17D0     		beq	.L78
 977              		.loc 1 1387 3 discriminator 2 view .LVU246
 978 003c 0123     		movs	r3, #1
 979 003e 85F82832 		strb	r3, [r5, #552]
 980              	.LVL71:
 981              		.loc 1 1387 3 discriminator 2 view .LVU247
1388:Drivers/STM32G4xx_HAL_Driver/Src/stm32g4xx_hal_pcd.c ****   (void)USB_ActivateEndpoint(hpcd->Instance, ep);
 982              		.loc 1 1388 3 discriminator 2 view .LVU248
 983              		.loc 1 1388 9 is_stmt 0 discriminator 2 view .LVU249
 984 0042 2868     		ldr	r0, [r5]
 985 0044 FFF7FEFF 		bl	USB_ActivateEndpoint
 986              	.LVL72:
1389:Drivers/STM32G4xx_HAL_Driver/Src/stm32g4xx_hal_pcd.c ****   __HAL_UNLOCK(hpcd);
 987              		.loc 1 1389 3 is_stmt 1 discriminator 2 view .LVU250
 988              		.loc 1 1389 3 discriminator 2 view .LVU251
 989 0048 0020     		movs	r0, #0
 990 004a 85F82802 		strb	r0, [r5, #552]
 991              		.loc 1 1389 3 discriminator 2 view .LVU252
1390:Drivers/STM32G4xx_HAL_Driver/Src/stm32g4xx_hal_pcd.c **** 
1391:Drivers/STM32G4xx_HAL_Driver/Src/stm32g4xx_hal_pcd.c ****   return ret;
 992              		.loc 1 1391 3 discriminator 2 view .LVU253
 993              	.L77:
1392:Drivers/STM32G4xx_HAL_Driver/Src/stm32g4xx_hal_pcd.c **** }
 994              		.loc 1 1392 1 is_stmt 0 view .LVU254
 995 004e 70BD     		pop	{r4, r5, r6, pc}
 996              	.LVL73:
 997              	.L80:
1363:Drivers/STM32G4xx_HAL_Driver/Src/stm32g4xx_hal_pcd.c ****     ep->is_in = 1U;
 998              		.loc 1 1363 5 is_stmt 1 view .LVU255
ARM GAS  /tmp/ccXi6E5C.s 			page 44


1363:Drivers/STM32G4xx_HAL_Driver/Src/stm32g4xx_hal_pcd.c ****     ep->is_in = 1U;
 999              		.loc 1 1363 31 is_stmt 0 view .LVU256
 1000 0050 01F00700 		and	r0, r1, #7
 1001              	.LVL74:
1363:Drivers/STM32G4xx_HAL_Driver/Src/stm32g4xx_hal_pcd.c ****     ep->is_in = 1U;
 1002              		.loc 1 1363 8 view .LVU257
 1003 0054 4001     		lsls	r0, r0, #5
 1004 0056 00F12801 		add	r1, r0, #40
 1005              	.LVL75:
1363:Drivers/STM32G4xx_HAL_Driver/Src/stm32g4xx_hal_pcd.c ****     ep->is_in = 1U;
 1006              		.loc 1 1363 8 view .LVU258
 1007 005a 2944     		add	r1, r1, r5
 1008              	.LVL76:
1364:Drivers/STM32G4xx_HAL_Driver/Src/stm32g4xx_hal_pcd.c ****   }
 1009              		.loc 1 1364 5 is_stmt 1 view .LVU259
1364:Drivers/STM32G4xx_HAL_Driver/Src/stm32g4xx_hal_pcd.c ****   }
 1010              		.loc 1 1364 15 is_stmt 0 view .LVU260
 1011 005c 2844     		add	r0, r0, r5
 1012 005e 0126     		movs	r6, #1
 1013 0060 80F82960 		strb	r6, [r0, #41]
 1014 0064 DCE7     		b	.L74
 1015              	.LVL77:
 1016              	.L81:
1384:Drivers/STM32G4xx_HAL_Driver/Src/stm32g4xx_hal_pcd.c ****   }
 1017              		.loc 1 1384 5 is_stmt 1 view .LVU261
1384:Drivers/STM32G4xx_HAL_Driver/Src/stm32g4xx_hal_pcd.c ****   }
 1018              		.loc 1 1384 24 is_stmt 0 view .LVU262
 1019 0066 0023     		movs	r3, #0
 1020              	.LVL78:
1384:Drivers/STM32G4xx_HAL_Driver/Src/stm32g4xx_hal_pcd.c ****   }
 1021              		.loc 1 1384 24 view .LVU263
 1022 0068 0B71     		strb	r3, [r1, #4]
 1023 006a E3E7     		b	.L76
 1024              	.L78:
1387:Drivers/STM32G4xx_HAL_Driver/Src/stm32g4xx_hal_pcd.c ****   (void)USB_ActivateEndpoint(hpcd->Instance, ep);
 1025              		.loc 1 1387 3 view .LVU264
 1026 006c 0220     		movs	r0, #2
 1027 006e EEE7     		b	.L77
 1028              		.cfi_endproc
 1029              	.LFE183:
 1031              		.section	.text.HAL_PCD_EP_Close,"ax",%progbits
 1032              		.align	1
 1033              		.global	HAL_PCD_EP_Close
 1034              		.syntax unified
 1035              		.thumb
 1036              		.thumb_func
 1037              		.fpu fpv4-sp-d16
 1039              	HAL_PCD_EP_Close:
 1040              	.LVL79:
 1041              	.LFB184:
1393:Drivers/STM32G4xx_HAL_Driver/Src/stm32g4xx_hal_pcd.c **** 
1394:Drivers/STM32G4xx_HAL_Driver/Src/stm32g4xx_hal_pcd.c **** /**
1395:Drivers/STM32G4xx_HAL_Driver/Src/stm32g4xx_hal_pcd.c ****   * @brief  Deactivate an endpoint.
1396:Drivers/STM32G4xx_HAL_Driver/Src/stm32g4xx_hal_pcd.c ****   * @param  hpcd PCD handle
1397:Drivers/STM32G4xx_HAL_Driver/Src/stm32g4xx_hal_pcd.c ****   * @param  ep_addr endpoint address
1398:Drivers/STM32G4xx_HAL_Driver/Src/stm32g4xx_hal_pcd.c ****   * @retval HAL status
1399:Drivers/STM32G4xx_HAL_Driver/Src/stm32g4xx_hal_pcd.c ****   */
ARM GAS  /tmp/ccXi6E5C.s 			page 45


1400:Drivers/STM32G4xx_HAL_Driver/Src/stm32g4xx_hal_pcd.c **** HAL_StatusTypeDef HAL_PCD_EP_Close(PCD_HandleTypeDef *hpcd, uint8_t ep_addr)
1401:Drivers/STM32G4xx_HAL_Driver/Src/stm32g4xx_hal_pcd.c **** {
 1042              		.loc 1 1401 1 is_stmt 1 view -0
 1043              		.cfi_startproc
 1044              		@ args = 0, pretend = 0, frame = 0
 1045              		@ frame_needed = 0, uses_anonymous_args = 0
 1046              		.loc 1 1401 1 is_stmt 0 view .LVU266
 1047 0000 10B5     		push	{r4, lr}
 1048              	.LCFI18:
 1049              		.cfi_def_cfa_offset 8
 1050              		.cfi_offset 4, -8
 1051              		.cfi_offset 14, -4
 1052 0002 0446     		mov	r4, r0
 1053 0004 0B46     		mov	r3, r1
1402:Drivers/STM32G4xx_HAL_Driver/Src/stm32g4xx_hal_pcd.c ****   PCD_EPTypeDef *ep;
 1054              		.loc 1 1402 3 is_stmt 1 view .LVU267
1403:Drivers/STM32G4xx_HAL_Driver/Src/stm32g4xx_hal_pcd.c **** 
1404:Drivers/STM32G4xx_HAL_Driver/Src/stm32g4xx_hal_pcd.c ****   if ((ep_addr & 0x80U) == 0x80U)
 1055              		.loc 1 1404 3 view .LVU268
 1056              		.loc 1 1404 6 is_stmt 0 view .LVU269
 1057 0006 11F0800F 		tst	r1, #128
 1058 000a 1AD1     		bne	.L88
1405:Drivers/STM32G4xx_HAL_Driver/Src/stm32g4xx_hal_pcd.c ****   {
1406:Drivers/STM32G4xx_HAL_Driver/Src/stm32g4xx_hal_pcd.c ****     ep = &hpcd->IN_ep[ep_addr & EP_ADDR_MSK];
1407:Drivers/STM32G4xx_HAL_Driver/Src/stm32g4xx_hal_pcd.c ****     ep->is_in = 1U;
1408:Drivers/STM32G4xx_HAL_Driver/Src/stm32g4xx_hal_pcd.c ****   }
1409:Drivers/STM32G4xx_HAL_Driver/Src/stm32g4xx_hal_pcd.c ****   else
1410:Drivers/STM32G4xx_HAL_Driver/Src/stm32g4xx_hal_pcd.c ****   {
1411:Drivers/STM32G4xx_HAL_Driver/Src/stm32g4xx_hal_pcd.c ****     ep = &hpcd->OUT_ep[ep_addr & EP_ADDR_MSK];
 1059              		.loc 1 1411 5 is_stmt 1 view .LVU270
 1060              		.loc 1 1411 32 is_stmt 0 view .LVU271
 1061 000c 01F00702 		and	r2, r1, #7
 1062              		.loc 1 1411 8 view .LVU272
 1063 0010 5201     		lsls	r2, r2, #5
 1064 0012 02F59471 		add	r1, r2, #296
 1065              	.LVL80:
 1066              		.loc 1 1411 8 view .LVU273
 1067 0016 0144     		add	r1, r1, r0
 1068              	.LVL81:
1412:Drivers/STM32G4xx_HAL_Driver/Src/stm32g4xx_hal_pcd.c ****     ep->is_in = 0U;
 1069              		.loc 1 1412 5 is_stmt 1 view .LVU274
 1070              		.loc 1 1412 15 is_stmt 0 view .LVU275
 1071 0018 0244     		add	r2, r2, r0
 1072 001a 0020     		movs	r0, #0
 1073              	.LVL82:
 1074              		.loc 1 1412 15 view .LVU276
 1075 001c 82F82901 		strb	r0, [r2, #297]
 1076              	.L84:
1413:Drivers/STM32G4xx_HAL_Driver/Src/stm32g4xx_hal_pcd.c ****   }
1414:Drivers/STM32G4xx_HAL_Driver/Src/stm32g4xx_hal_pcd.c ****   ep->num   = ep_addr & EP_ADDR_MSK;
 1077              		.loc 1 1414 3 is_stmt 1 view .LVU277
 1078              		.loc 1 1414 23 is_stmt 0 view .LVU278
 1079 0020 03F00703 		and	r3, r3, #7
 1080              		.loc 1 1414 13 view .LVU279
 1081 0024 0B70     		strb	r3, [r1]
1415:Drivers/STM32G4xx_HAL_Driver/Src/stm32g4xx_hal_pcd.c **** 
1416:Drivers/STM32G4xx_HAL_Driver/Src/stm32g4xx_hal_pcd.c ****   __HAL_LOCK(hpcd);
ARM GAS  /tmp/ccXi6E5C.s 			page 46


 1082              		.loc 1 1416 3 is_stmt 1 view .LVU280
 1083              		.loc 1 1416 3 view .LVU281
 1084 0026 94F82832 		ldrb	r3, [r4, #552]	@ zero_extendqisi2
 1085 002a 012B     		cmp	r3, #1
 1086 002c 14D0     		beq	.L86
 1087              		.loc 1 1416 3 discriminator 2 view .LVU282
 1088 002e 0123     		movs	r3, #1
 1089 0030 84F82832 		strb	r3, [r4, #552]
 1090              		.loc 1 1416 3 discriminator 2 view .LVU283
1417:Drivers/STM32G4xx_HAL_Driver/Src/stm32g4xx_hal_pcd.c ****   (void)USB_DeactivateEndpoint(hpcd->Instance, ep);
 1091              		.loc 1 1417 3 discriminator 2 view .LVU284
 1092              		.loc 1 1417 9 is_stmt 0 discriminator 2 view .LVU285
 1093 0034 2068     		ldr	r0, [r4]
 1094 0036 FFF7FEFF 		bl	USB_DeactivateEndpoint
 1095              	.LVL83:
1418:Drivers/STM32G4xx_HAL_Driver/Src/stm32g4xx_hal_pcd.c ****   __HAL_UNLOCK(hpcd);
 1096              		.loc 1 1418 3 is_stmt 1 discriminator 2 view .LVU286
 1097              		.loc 1 1418 3 discriminator 2 view .LVU287
 1098 003a 0020     		movs	r0, #0
 1099 003c 84F82802 		strb	r0, [r4, #552]
 1100              		.loc 1 1418 3 discriminator 2 view .LVU288
1419:Drivers/STM32G4xx_HAL_Driver/Src/stm32g4xx_hal_pcd.c ****   return HAL_OK;
 1101              		.loc 1 1419 3 discriminator 2 view .LVU289
 1102              	.L85:
1420:Drivers/STM32G4xx_HAL_Driver/Src/stm32g4xx_hal_pcd.c **** }
 1103              		.loc 1 1420 1 is_stmt 0 view .LVU290
 1104 0040 10BD     		pop	{r4, pc}
 1105              	.LVL84:
 1106              	.L88:
1406:Drivers/STM32G4xx_HAL_Driver/Src/stm32g4xx_hal_pcd.c ****     ep->is_in = 1U;
 1107              		.loc 1 1406 5 is_stmt 1 view .LVU291
1406:Drivers/STM32G4xx_HAL_Driver/Src/stm32g4xx_hal_pcd.c ****     ep->is_in = 1U;
 1108              		.loc 1 1406 31 is_stmt 0 view .LVU292
 1109 0042 01F00702 		and	r2, r1, #7
1406:Drivers/STM32G4xx_HAL_Driver/Src/stm32g4xx_hal_pcd.c ****     ep->is_in = 1U;
 1110              		.loc 1 1406 8 view .LVU293
 1111 0046 5201     		lsls	r2, r2, #5
 1112 0048 02F12801 		add	r1, r2, #40
 1113              	.LVL85:
1406:Drivers/STM32G4xx_HAL_Driver/Src/stm32g4xx_hal_pcd.c ****     ep->is_in = 1U;
 1114              		.loc 1 1406 8 view .LVU294
 1115 004c 0144     		add	r1, r1, r0
 1116              	.LVL86:
1407:Drivers/STM32G4xx_HAL_Driver/Src/stm32g4xx_hal_pcd.c ****   }
 1117              		.loc 1 1407 5 is_stmt 1 view .LVU295
1407:Drivers/STM32G4xx_HAL_Driver/Src/stm32g4xx_hal_pcd.c ****   }
 1118              		.loc 1 1407 15 is_stmt 0 view .LVU296
 1119 004e 0244     		add	r2, r2, r0
 1120 0050 0120     		movs	r0, #1
 1121              	.LVL87:
1407:Drivers/STM32G4xx_HAL_Driver/Src/stm32g4xx_hal_pcd.c ****   }
 1122              		.loc 1 1407 15 view .LVU297
 1123 0052 82F82900 		strb	r0, [r2, #41]
 1124 0056 E3E7     		b	.L84
 1125              	.L86:
1416:Drivers/STM32G4xx_HAL_Driver/Src/stm32g4xx_hal_pcd.c ****   (void)USB_DeactivateEndpoint(hpcd->Instance, ep);
 1126              		.loc 1 1416 3 view .LVU298
ARM GAS  /tmp/ccXi6E5C.s 			page 47


 1127 0058 0220     		movs	r0, #2
 1128 005a F1E7     		b	.L85
 1129              		.cfi_endproc
 1130              	.LFE184:
 1132              		.section	.text.HAL_PCD_EP_Receive,"ax",%progbits
 1133              		.align	1
 1134              		.global	HAL_PCD_EP_Receive
 1135              		.syntax unified
 1136              		.thumb
 1137              		.thumb_func
 1138              		.fpu fpv4-sp-d16
 1140              	HAL_PCD_EP_Receive:
 1141              	.LVL88:
 1142              	.LFB185:
1421:Drivers/STM32G4xx_HAL_Driver/Src/stm32g4xx_hal_pcd.c **** 
1422:Drivers/STM32G4xx_HAL_Driver/Src/stm32g4xx_hal_pcd.c **** 
1423:Drivers/STM32G4xx_HAL_Driver/Src/stm32g4xx_hal_pcd.c **** /**
1424:Drivers/STM32G4xx_HAL_Driver/Src/stm32g4xx_hal_pcd.c ****   * @brief  Receive an amount of data.
1425:Drivers/STM32G4xx_HAL_Driver/Src/stm32g4xx_hal_pcd.c ****   * @param  hpcd PCD handle
1426:Drivers/STM32G4xx_HAL_Driver/Src/stm32g4xx_hal_pcd.c ****   * @param  ep_addr endpoint address
1427:Drivers/STM32G4xx_HAL_Driver/Src/stm32g4xx_hal_pcd.c ****   * @param  pBuf pointer to the reception buffer
1428:Drivers/STM32G4xx_HAL_Driver/Src/stm32g4xx_hal_pcd.c ****   * @param  len amount of data to be received
1429:Drivers/STM32G4xx_HAL_Driver/Src/stm32g4xx_hal_pcd.c ****   * @retval HAL status
1430:Drivers/STM32G4xx_HAL_Driver/Src/stm32g4xx_hal_pcd.c ****   */
1431:Drivers/STM32G4xx_HAL_Driver/Src/stm32g4xx_hal_pcd.c **** HAL_StatusTypeDef HAL_PCD_EP_Receive(PCD_HandleTypeDef *hpcd, uint8_t ep_addr, uint8_t *pBuf, uint3
1432:Drivers/STM32G4xx_HAL_Driver/Src/stm32g4xx_hal_pcd.c **** {
 1143              		.loc 1 1432 1 is_stmt 1 view -0
 1144              		.cfi_startproc
 1145              		@ args = 0, pretend = 0, frame = 0
 1146              		@ frame_needed = 0, uses_anonymous_args = 0
 1147              		.loc 1 1432 1 is_stmt 0 view .LVU300
 1148 0000 70B5     		push	{r4, r5, r6, lr}
 1149              	.LCFI19:
 1150              		.cfi_def_cfa_offset 16
 1151              		.cfi_offset 4, -16
 1152              		.cfi_offset 5, -12
 1153              		.cfi_offset 6, -8
 1154              		.cfi_offset 14, -4
1433:Drivers/STM32G4xx_HAL_Driver/Src/stm32g4xx_hal_pcd.c ****   PCD_EPTypeDef *ep;
 1155              		.loc 1 1433 3 is_stmt 1 view .LVU301
1434:Drivers/STM32G4xx_HAL_Driver/Src/stm32g4xx_hal_pcd.c **** 
1435:Drivers/STM32G4xx_HAL_Driver/Src/stm32g4xx_hal_pcd.c ****   ep = &hpcd->OUT_ep[ep_addr & EP_ADDR_MSK];
 1156              		.loc 1 1435 3 view .LVU302
 1157 0002 01F00704 		and	r4, r1, #7
 1158              		.loc 1 1435 6 is_stmt 0 view .LVU303
 1159 0006 6501     		lsls	r5, r4, #5
 1160 0008 05F59471 		add	r1, r5, #296
 1161              	.LVL89:
 1162              		.loc 1 1435 6 view .LVU304
 1163 000c 0144     		add	r1, r1, r0
 1164              	.LVL90:
1436:Drivers/STM32G4xx_HAL_Driver/Src/stm32g4xx_hal_pcd.c **** 
1437:Drivers/STM32G4xx_HAL_Driver/Src/stm32g4xx_hal_pcd.c ****   /*setup and start the Xfer */
1438:Drivers/STM32G4xx_HAL_Driver/Src/stm32g4xx_hal_pcd.c ****   ep->xfer_buff = pBuf;
 1165              		.loc 1 1438 3 is_stmt 1 view .LVU305
 1166              		.loc 1 1438 17 is_stmt 0 view .LVU306
 1167 000e 0544     		add	r5, r5, r0
ARM GAS  /tmp/ccXi6E5C.s 			page 48


 1168 0010 C5F83C21 		str	r2, [r5, #316]
1439:Drivers/STM32G4xx_HAL_Driver/Src/stm32g4xx_hal_pcd.c ****   ep->xfer_len = len;
 1169              		.loc 1 1439 3 is_stmt 1 view .LVU307
 1170              		.loc 1 1439 16 is_stmt 0 view .LVU308
 1171 0014 04F10A02 		add	r2, r4, #10
 1172              	.LVL91:
 1173              		.loc 1 1439 16 view .LVU309
 1174 0018 5601     		lsls	r6, r2, #5
 1175 001a 00EB4212 		add	r2, r0, r2, lsl #5
 1176 001e 8351     		str	r3, [r0, r6]
 1177              	.LVL92:
1440:Drivers/STM32G4xx_HAL_Driver/Src/stm32g4xx_hal_pcd.c ****   ep->xfer_count = 0U;
 1178              		.loc 1 1440 3 is_stmt 1 view .LVU310
 1179              		.loc 1 1440 18 is_stmt 0 view .LVU311
 1180 0020 0023     		movs	r3, #0
 1181              	.LVL93:
 1182              		.loc 1 1440 18 view .LVU312
 1183 0022 5360     		str	r3, [r2, #4]
1441:Drivers/STM32G4xx_HAL_Driver/Src/stm32g4xx_hal_pcd.c ****   ep->is_in = 0U;
 1184              		.loc 1 1441 3 is_stmt 1 view .LVU313
 1185              		.loc 1 1441 13 is_stmt 0 view .LVU314
 1186 0024 85F82931 		strb	r3, [r5, #297]
 1187              	.LVL94:
1442:Drivers/STM32G4xx_HAL_Driver/Src/stm32g4xx_hal_pcd.c ****   ep->num = ep_addr & EP_ADDR_MSK;
 1188              		.loc 1 1442 3 is_stmt 1 view .LVU315
 1189              		.loc 1 1442 11 is_stmt 0 view .LVU316
 1190 0028 85F82841 		strb	r4, [r5, #296]
1443:Drivers/STM32G4xx_HAL_Driver/Src/stm32g4xx_hal_pcd.c **** 
1444:Drivers/STM32G4xx_HAL_Driver/Src/stm32g4xx_hal_pcd.c ****   if ((ep_addr & EP_ADDR_MSK) == 0U)
 1191              		.loc 1 1444 3 is_stmt 1 view .LVU317
 1192              		.loc 1 1444 6 is_stmt 0 view .LVU318
 1193 002c 24B9     		cbnz	r4, .L90
1445:Drivers/STM32G4xx_HAL_Driver/Src/stm32g4xx_hal_pcd.c ****   {
1446:Drivers/STM32G4xx_HAL_Driver/Src/stm32g4xx_hal_pcd.c ****     (void)USB_EP0StartXfer(hpcd->Instance, ep);
 1194              		.loc 1 1446 5 is_stmt 1 view .LVU319
 1195              		.loc 1 1446 11 is_stmt 0 view .LVU320
 1196 002e 0068     		ldr	r0, [r0]
 1197              	.LVL95:
 1198              		.loc 1 1446 11 view .LVU321
 1199 0030 FFF7FEFF 		bl	USB_EPStartXfer
 1200              	.LVL96:
 1201              	.L91:
1447:Drivers/STM32G4xx_HAL_Driver/Src/stm32g4xx_hal_pcd.c ****   }
1448:Drivers/STM32G4xx_HAL_Driver/Src/stm32g4xx_hal_pcd.c ****   else
1449:Drivers/STM32G4xx_HAL_Driver/Src/stm32g4xx_hal_pcd.c ****   {
1450:Drivers/STM32G4xx_HAL_Driver/Src/stm32g4xx_hal_pcd.c ****     (void)USB_EPStartXfer(hpcd->Instance, ep);
1451:Drivers/STM32G4xx_HAL_Driver/Src/stm32g4xx_hal_pcd.c ****   }
1452:Drivers/STM32G4xx_HAL_Driver/Src/stm32g4xx_hal_pcd.c **** 
1453:Drivers/STM32G4xx_HAL_Driver/Src/stm32g4xx_hal_pcd.c ****   return HAL_OK;
 1202              		.loc 1 1453 3 is_stmt 1 view .LVU322
1454:Drivers/STM32G4xx_HAL_Driver/Src/stm32g4xx_hal_pcd.c **** }
 1203              		.loc 1 1454 1 is_stmt 0 view .LVU323
 1204 0034 0020     		movs	r0, #0
 1205 0036 70BD     		pop	{r4, r5, r6, pc}
 1206              	.LVL97:
 1207              	.L90:
1450:Drivers/STM32G4xx_HAL_Driver/Src/stm32g4xx_hal_pcd.c ****   }
ARM GAS  /tmp/ccXi6E5C.s 			page 49


 1208              		.loc 1 1450 5 is_stmt 1 view .LVU324
1450:Drivers/STM32G4xx_HAL_Driver/Src/stm32g4xx_hal_pcd.c ****   }
 1209              		.loc 1 1450 11 is_stmt 0 view .LVU325
 1210 0038 0068     		ldr	r0, [r0]
 1211              	.LVL98:
1450:Drivers/STM32G4xx_HAL_Driver/Src/stm32g4xx_hal_pcd.c ****   }
 1212              		.loc 1 1450 11 view .LVU326
 1213 003a FFF7FEFF 		bl	USB_EPStartXfer
 1214              	.LVL99:
1450:Drivers/STM32G4xx_HAL_Driver/Src/stm32g4xx_hal_pcd.c ****   }
 1215              		.loc 1 1450 11 view .LVU327
 1216 003e F9E7     		b	.L91
 1217              		.cfi_endproc
 1218              	.LFE185:
 1220              		.section	.text.HAL_PCD_EP_GetRxCount,"ax",%progbits
 1221              		.align	1
 1222              		.global	HAL_PCD_EP_GetRxCount
 1223              		.syntax unified
 1224              		.thumb
 1225              		.thumb_func
 1226              		.fpu fpv4-sp-d16
 1228              	HAL_PCD_EP_GetRxCount:
 1229              	.LVL100:
 1230              	.LFB186:
1455:Drivers/STM32G4xx_HAL_Driver/Src/stm32g4xx_hal_pcd.c **** 
1456:Drivers/STM32G4xx_HAL_Driver/Src/stm32g4xx_hal_pcd.c **** /**
1457:Drivers/STM32G4xx_HAL_Driver/Src/stm32g4xx_hal_pcd.c ****   * @brief  Get Received Data Size
1458:Drivers/STM32G4xx_HAL_Driver/Src/stm32g4xx_hal_pcd.c ****   * @param  hpcd PCD handle
1459:Drivers/STM32G4xx_HAL_Driver/Src/stm32g4xx_hal_pcd.c ****   * @param  ep_addr endpoint address
1460:Drivers/STM32G4xx_HAL_Driver/Src/stm32g4xx_hal_pcd.c ****   * @retval Data Size
1461:Drivers/STM32G4xx_HAL_Driver/Src/stm32g4xx_hal_pcd.c ****   */
1462:Drivers/STM32G4xx_HAL_Driver/Src/stm32g4xx_hal_pcd.c **** uint32_t HAL_PCD_EP_GetRxCount(PCD_HandleTypeDef *hpcd, uint8_t ep_addr)
1463:Drivers/STM32G4xx_HAL_Driver/Src/stm32g4xx_hal_pcd.c **** {
 1231              		.loc 1 1463 1 is_stmt 1 view -0
 1232              		.cfi_startproc
 1233              		@ args = 0, pretend = 0, frame = 0
 1234              		@ frame_needed = 0, uses_anonymous_args = 0
 1235              		@ link register save eliminated.
1464:Drivers/STM32G4xx_HAL_Driver/Src/stm32g4xx_hal_pcd.c ****   return hpcd->OUT_ep[ep_addr & EP_ADDR_MSK].xfer_count;
 1236              		.loc 1 1464 3 view .LVU329
 1237              		.loc 1 1464 31 is_stmt 0 view .LVU330
 1238 0000 01F00701 		and	r1, r1, #7
 1239              	.LVL101:
 1240              		.loc 1 1464 45 view .LVU331
 1241 0004 0A31     		adds	r1, r1, #10
 1242 0006 00EB4111 		add	r1, r0, r1, lsl #5
1465:Drivers/STM32G4xx_HAL_Driver/Src/stm32g4xx_hal_pcd.c **** }
 1243              		.loc 1 1465 1 view .LVU332
 1244 000a 4868     		ldr	r0, [r1, #4]
 1245              	.LVL102:
 1246              		.loc 1 1465 1 view .LVU333
 1247 000c 7047     		bx	lr
 1248              		.cfi_endproc
 1249              	.LFE186:
 1251              		.section	.text.HAL_PCD_EP_Transmit,"ax",%progbits
 1252              		.align	1
 1253              		.global	HAL_PCD_EP_Transmit
ARM GAS  /tmp/ccXi6E5C.s 			page 50


 1254              		.syntax unified
 1255              		.thumb
 1256              		.thumb_func
 1257              		.fpu fpv4-sp-d16
 1259              	HAL_PCD_EP_Transmit:
 1260              	.LVL103:
 1261              	.LFB187:
1466:Drivers/STM32G4xx_HAL_Driver/Src/stm32g4xx_hal_pcd.c **** /**
1467:Drivers/STM32G4xx_HAL_Driver/Src/stm32g4xx_hal_pcd.c ****   * @brief  Send an amount of data
1468:Drivers/STM32G4xx_HAL_Driver/Src/stm32g4xx_hal_pcd.c ****   * @param  hpcd PCD handle
1469:Drivers/STM32G4xx_HAL_Driver/Src/stm32g4xx_hal_pcd.c ****   * @param  ep_addr endpoint address
1470:Drivers/STM32G4xx_HAL_Driver/Src/stm32g4xx_hal_pcd.c ****   * @param  pBuf pointer to the transmission buffer
1471:Drivers/STM32G4xx_HAL_Driver/Src/stm32g4xx_hal_pcd.c ****   * @param  len amount of data to be sent
1472:Drivers/STM32G4xx_HAL_Driver/Src/stm32g4xx_hal_pcd.c ****   * @retval HAL status
1473:Drivers/STM32G4xx_HAL_Driver/Src/stm32g4xx_hal_pcd.c ****   */
1474:Drivers/STM32G4xx_HAL_Driver/Src/stm32g4xx_hal_pcd.c **** HAL_StatusTypeDef HAL_PCD_EP_Transmit(PCD_HandleTypeDef *hpcd, uint8_t ep_addr, uint8_t *pBuf, uint
1475:Drivers/STM32G4xx_HAL_Driver/Src/stm32g4xx_hal_pcd.c **** {
 1262              		.loc 1 1475 1 is_stmt 1 view -0
 1263              		.cfi_startproc
 1264              		@ args = 0, pretend = 0, frame = 0
 1265              		@ frame_needed = 0, uses_anonymous_args = 0
 1266              		.loc 1 1475 1 is_stmt 0 view .LVU335
 1267 0000 70B5     		push	{r4, r5, r6, lr}
 1268              	.LCFI20:
 1269              		.cfi_def_cfa_offset 16
 1270              		.cfi_offset 4, -16
 1271              		.cfi_offset 5, -12
 1272              		.cfi_offset 6, -8
 1273              		.cfi_offset 14, -4
1476:Drivers/STM32G4xx_HAL_Driver/Src/stm32g4xx_hal_pcd.c ****   PCD_EPTypeDef *ep;
 1274              		.loc 1 1476 3 is_stmt 1 view .LVU336
1477:Drivers/STM32G4xx_HAL_Driver/Src/stm32g4xx_hal_pcd.c **** 
1478:Drivers/STM32G4xx_HAL_Driver/Src/stm32g4xx_hal_pcd.c ****   ep = &hpcd->IN_ep[ep_addr & EP_ADDR_MSK];
 1275              		.loc 1 1478 3 view .LVU337
 1276 0002 01F00704 		and	r4, r1, #7
 1277              		.loc 1 1478 6 is_stmt 0 view .LVU338
 1278 0006 6501     		lsls	r5, r4, #5
 1279 0008 05F12801 		add	r1, r5, #40
 1280              	.LVL104:
 1281              		.loc 1 1478 6 view .LVU339
 1282 000c 0144     		add	r1, r1, r0
 1283              	.LVL105:
1479:Drivers/STM32G4xx_HAL_Driver/Src/stm32g4xx_hal_pcd.c **** 
1480:Drivers/STM32G4xx_HAL_Driver/Src/stm32g4xx_hal_pcd.c ****   /*setup and start the Xfer */
1481:Drivers/STM32G4xx_HAL_Driver/Src/stm32g4xx_hal_pcd.c ****   ep->xfer_buff = pBuf;
 1284              		.loc 1 1481 3 is_stmt 1 view .LVU340
 1285              		.loc 1 1481 17 is_stmt 0 view .LVU341
 1286 000e 0544     		add	r5, r5, r0
 1287 0010 EA63     		str	r2, [r5, #60]
1482:Drivers/STM32G4xx_HAL_Driver/Src/stm32g4xx_hal_pcd.c ****   ep->xfer_len = len;
 1288              		.loc 1 1482 3 is_stmt 1 view .LVU342
 1289              		.loc 1 1482 16 is_stmt 0 view .LVU343
 1290 0012 A21C     		adds	r2, r4, #2
 1291              	.LVL106:
 1292              		.loc 1 1482 16 view .LVU344
 1293 0014 5601     		lsls	r6, r2, #5
 1294 0016 00EB4212 		add	r2, r0, r2, lsl #5
ARM GAS  /tmp/ccXi6E5C.s 			page 51


 1295 001a 8351     		str	r3, [r0, r6]
 1296              	.LVL107:
1483:Drivers/STM32G4xx_HAL_Driver/Src/stm32g4xx_hal_pcd.c ****   ep->xfer_count = 0U;
 1297              		.loc 1 1483 3 is_stmt 1 view .LVU345
 1298              		.loc 1 1483 18 is_stmt 0 view .LVU346
 1299 001c 0023     		movs	r3, #0
 1300              	.LVL108:
 1301              		.loc 1 1483 18 view .LVU347
 1302 001e 5360     		str	r3, [r2, #4]
1484:Drivers/STM32G4xx_HAL_Driver/Src/stm32g4xx_hal_pcd.c ****   ep->is_in = 1U;
 1303              		.loc 1 1484 3 is_stmt 1 view .LVU348
 1304              		.loc 1 1484 13 is_stmt 0 view .LVU349
 1305 0020 0123     		movs	r3, #1
 1306 0022 85F82930 		strb	r3, [r5, #41]
 1307              	.LVL109:
1485:Drivers/STM32G4xx_HAL_Driver/Src/stm32g4xx_hal_pcd.c ****   ep->num = ep_addr & EP_ADDR_MSK;
 1308              		.loc 1 1485 3 is_stmt 1 view .LVU350
 1309              		.loc 1 1485 11 is_stmt 0 view .LVU351
 1310 0026 85F82840 		strb	r4, [r5, #40]
1486:Drivers/STM32G4xx_HAL_Driver/Src/stm32g4xx_hal_pcd.c **** 
1487:Drivers/STM32G4xx_HAL_Driver/Src/stm32g4xx_hal_pcd.c ****   if ((ep_addr & EP_ADDR_MSK) == 0U)
 1311              		.loc 1 1487 3 is_stmt 1 view .LVU352
 1312              		.loc 1 1487 6 is_stmt 0 view .LVU353
 1313 002a 24B9     		cbnz	r4, .L95
1488:Drivers/STM32G4xx_HAL_Driver/Src/stm32g4xx_hal_pcd.c ****   {
1489:Drivers/STM32G4xx_HAL_Driver/Src/stm32g4xx_hal_pcd.c ****     (void)USB_EP0StartXfer(hpcd->Instance, ep);
 1314              		.loc 1 1489 5 is_stmt 1 view .LVU354
 1315              		.loc 1 1489 11 is_stmt 0 view .LVU355
 1316 002c 0068     		ldr	r0, [r0]
 1317              	.LVL110:
 1318              		.loc 1 1489 11 view .LVU356
 1319 002e FFF7FEFF 		bl	USB_EPStartXfer
 1320              	.LVL111:
 1321              	.L96:
1490:Drivers/STM32G4xx_HAL_Driver/Src/stm32g4xx_hal_pcd.c ****   }
1491:Drivers/STM32G4xx_HAL_Driver/Src/stm32g4xx_hal_pcd.c ****   else
1492:Drivers/STM32G4xx_HAL_Driver/Src/stm32g4xx_hal_pcd.c ****   {
1493:Drivers/STM32G4xx_HAL_Driver/Src/stm32g4xx_hal_pcd.c ****     (void)USB_EPStartXfer(hpcd->Instance, ep);
1494:Drivers/STM32G4xx_HAL_Driver/Src/stm32g4xx_hal_pcd.c ****   }
1495:Drivers/STM32G4xx_HAL_Driver/Src/stm32g4xx_hal_pcd.c **** 
1496:Drivers/STM32G4xx_HAL_Driver/Src/stm32g4xx_hal_pcd.c ****   return HAL_OK;
 1322              		.loc 1 1496 3 is_stmt 1 view .LVU357
1497:Drivers/STM32G4xx_HAL_Driver/Src/stm32g4xx_hal_pcd.c **** }
 1323              		.loc 1 1497 1 is_stmt 0 view .LVU358
 1324 0032 0020     		movs	r0, #0
 1325 0034 70BD     		pop	{r4, r5, r6, pc}
 1326              	.LVL112:
 1327              	.L95:
1493:Drivers/STM32G4xx_HAL_Driver/Src/stm32g4xx_hal_pcd.c ****   }
 1328              		.loc 1 1493 5 is_stmt 1 view .LVU359
1493:Drivers/STM32G4xx_HAL_Driver/Src/stm32g4xx_hal_pcd.c ****   }
 1329              		.loc 1 1493 11 is_stmt 0 view .LVU360
 1330 0036 0068     		ldr	r0, [r0]
 1331              	.LVL113:
1493:Drivers/STM32G4xx_HAL_Driver/Src/stm32g4xx_hal_pcd.c ****   }
 1332              		.loc 1 1493 11 view .LVU361
 1333 0038 FFF7FEFF 		bl	USB_EPStartXfer
ARM GAS  /tmp/ccXi6E5C.s 			page 52


 1334              	.LVL114:
1493:Drivers/STM32G4xx_HAL_Driver/Src/stm32g4xx_hal_pcd.c ****   }
 1335              		.loc 1 1493 11 view .LVU362
 1336 003c F9E7     		b	.L96
 1337              		.cfi_endproc
 1338              	.LFE187:
 1340              		.section	.text.PCD_EP_ISR_Handler,"ax",%progbits
 1341              		.align	1
 1342              		.syntax unified
 1343              		.thumb
 1344              		.thumb_func
 1345              		.fpu fpv4-sp-d16
 1347              	PCD_EP_ISR_Handler:
 1348              	.LVL115:
 1349              	.LFB194:
1498:Drivers/STM32G4xx_HAL_Driver/Src/stm32g4xx_hal_pcd.c **** 
1499:Drivers/STM32G4xx_HAL_Driver/Src/stm32g4xx_hal_pcd.c **** /**
1500:Drivers/STM32G4xx_HAL_Driver/Src/stm32g4xx_hal_pcd.c ****   * @brief  Set a STALL condition over an endpoint
1501:Drivers/STM32G4xx_HAL_Driver/Src/stm32g4xx_hal_pcd.c ****   * @param  hpcd PCD handle
1502:Drivers/STM32G4xx_HAL_Driver/Src/stm32g4xx_hal_pcd.c ****   * @param  ep_addr endpoint address
1503:Drivers/STM32G4xx_HAL_Driver/Src/stm32g4xx_hal_pcd.c ****   * @retval HAL status
1504:Drivers/STM32G4xx_HAL_Driver/Src/stm32g4xx_hal_pcd.c ****   */
1505:Drivers/STM32G4xx_HAL_Driver/Src/stm32g4xx_hal_pcd.c **** HAL_StatusTypeDef HAL_PCD_EP_SetStall(PCD_HandleTypeDef *hpcd, uint8_t ep_addr)
1506:Drivers/STM32G4xx_HAL_Driver/Src/stm32g4xx_hal_pcd.c **** {
1507:Drivers/STM32G4xx_HAL_Driver/Src/stm32g4xx_hal_pcd.c ****   PCD_EPTypeDef *ep;
1508:Drivers/STM32G4xx_HAL_Driver/Src/stm32g4xx_hal_pcd.c **** 
1509:Drivers/STM32G4xx_HAL_Driver/Src/stm32g4xx_hal_pcd.c ****   if (((uint32_t)ep_addr & EP_ADDR_MSK) > hpcd->Init.dev_endpoints)
1510:Drivers/STM32G4xx_HAL_Driver/Src/stm32g4xx_hal_pcd.c ****   {
1511:Drivers/STM32G4xx_HAL_Driver/Src/stm32g4xx_hal_pcd.c ****     return HAL_ERROR;
1512:Drivers/STM32G4xx_HAL_Driver/Src/stm32g4xx_hal_pcd.c ****   }
1513:Drivers/STM32G4xx_HAL_Driver/Src/stm32g4xx_hal_pcd.c **** 
1514:Drivers/STM32G4xx_HAL_Driver/Src/stm32g4xx_hal_pcd.c ****   if ((0x80U & ep_addr) == 0x80U)
1515:Drivers/STM32G4xx_HAL_Driver/Src/stm32g4xx_hal_pcd.c ****   {
1516:Drivers/STM32G4xx_HAL_Driver/Src/stm32g4xx_hal_pcd.c ****     ep = &hpcd->IN_ep[ep_addr & EP_ADDR_MSK];
1517:Drivers/STM32G4xx_HAL_Driver/Src/stm32g4xx_hal_pcd.c ****     ep->is_in = 1U;
1518:Drivers/STM32G4xx_HAL_Driver/Src/stm32g4xx_hal_pcd.c ****   }
1519:Drivers/STM32G4xx_HAL_Driver/Src/stm32g4xx_hal_pcd.c ****   else
1520:Drivers/STM32G4xx_HAL_Driver/Src/stm32g4xx_hal_pcd.c ****   {
1521:Drivers/STM32G4xx_HAL_Driver/Src/stm32g4xx_hal_pcd.c ****     ep = &hpcd->OUT_ep[ep_addr];
1522:Drivers/STM32G4xx_HAL_Driver/Src/stm32g4xx_hal_pcd.c ****     ep->is_in = 0U;
1523:Drivers/STM32G4xx_HAL_Driver/Src/stm32g4xx_hal_pcd.c ****   }
1524:Drivers/STM32G4xx_HAL_Driver/Src/stm32g4xx_hal_pcd.c **** 
1525:Drivers/STM32G4xx_HAL_Driver/Src/stm32g4xx_hal_pcd.c ****   ep->is_stall = 1U;
1526:Drivers/STM32G4xx_HAL_Driver/Src/stm32g4xx_hal_pcd.c ****   ep->num = ep_addr & EP_ADDR_MSK;
1527:Drivers/STM32G4xx_HAL_Driver/Src/stm32g4xx_hal_pcd.c **** 
1528:Drivers/STM32G4xx_HAL_Driver/Src/stm32g4xx_hal_pcd.c ****   __HAL_LOCK(hpcd);
1529:Drivers/STM32G4xx_HAL_Driver/Src/stm32g4xx_hal_pcd.c **** 
1530:Drivers/STM32G4xx_HAL_Driver/Src/stm32g4xx_hal_pcd.c ****   (void)USB_EPSetStall(hpcd->Instance, ep);
1531:Drivers/STM32G4xx_HAL_Driver/Src/stm32g4xx_hal_pcd.c ****   if ((ep_addr & EP_ADDR_MSK) == 0U)
1532:Drivers/STM32G4xx_HAL_Driver/Src/stm32g4xx_hal_pcd.c ****   {
1533:Drivers/STM32G4xx_HAL_Driver/Src/stm32g4xx_hal_pcd.c ****     (void)USB_EP0_OutStart(hpcd->Instance, (uint8_t *)hpcd->Setup);
1534:Drivers/STM32G4xx_HAL_Driver/Src/stm32g4xx_hal_pcd.c ****   }
1535:Drivers/STM32G4xx_HAL_Driver/Src/stm32g4xx_hal_pcd.c ****   __HAL_UNLOCK(hpcd);
1536:Drivers/STM32G4xx_HAL_Driver/Src/stm32g4xx_hal_pcd.c **** 
1537:Drivers/STM32G4xx_HAL_Driver/Src/stm32g4xx_hal_pcd.c ****   return HAL_OK;
1538:Drivers/STM32G4xx_HAL_Driver/Src/stm32g4xx_hal_pcd.c **** }
1539:Drivers/STM32G4xx_HAL_Driver/Src/stm32g4xx_hal_pcd.c **** 
ARM GAS  /tmp/ccXi6E5C.s 			page 53


1540:Drivers/STM32G4xx_HAL_Driver/Src/stm32g4xx_hal_pcd.c **** /**
1541:Drivers/STM32G4xx_HAL_Driver/Src/stm32g4xx_hal_pcd.c ****   * @brief  Clear a STALL condition over in an endpoint
1542:Drivers/STM32G4xx_HAL_Driver/Src/stm32g4xx_hal_pcd.c ****   * @param  hpcd PCD handle
1543:Drivers/STM32G4xx_HAL_Driver/Src/stm32g4xx_hal_pcd.c ****   * @param  ep_addr endpoint address
1544:Drivers/STM32G4xx_HAL_Driver/Src/stm32g4xx_hal_pcd.c ****   * @retval HAL status
1545:Drivers/STM32G4xx_HAL_Driver/Src/stm32g4xx_hal_pcd.c ****   */
1546:Drivers/STM32G4xx_HAL_Driver/Src/stm32g4xx_hal_pcd.c **** HAL_StatusTypeDef HAL_PCD_EP_ClrStall(PCD_HandleTypeDef *hpcd, uint8_t ep_addr)
1547:Drivers/STM32G4xx_HAL_Driver/Src/stm32g4xx_hal_pcd.c **** {
1548:Drivers/STM32G4xx_HAL_Driver/Src/stm32g4xx_hal_pcd.c ****   PCD_EPTypeDef *ep;
1549:Drivers/STM32G4xx_HAL_Driver/Src/stm32g4xx_hal_pcd.c **** 
1550:Drivers/STM32G4xx_HAL_Driver/Src/stm32g4xx_hal_pcd.c ****   if (((uint32_t)ep_addr & 0x0FU) > hpcd->Init.dev_endpoints)
1551:Drivers/STM32G4xx_HAL_Driver/Src/stm32g4xx_hal_pcd.c ****   {
1552:Drivers/STM32G4xx_HAL_Driver/Src/stm32g4xx_hal_pcd.c ****     return HAL_ERROR;
1553:Drivers/STM32G4xx_HAL_Driver/Src/stm32g4xx_hal_pcd.c ****   }
1554:Drivers/STM32G4xx_HAL_Driver/Src/stm32g4xx_hal_pcd.c **** 
1555:Drivers/STM32G4xx_HAL_Driver/Src/stm32g4xx_hal_pcd.c ****   if ((0x80U & ep_addr) == 0x80U)
1556:Drivers/STM32G4xx_HAL_Driver/Src/stm32g4xx_hal_pcd.c ****   {
1557:Drivers/STM32G4xx_HAL_Driver/Src/stm32g4xx_hal_pcd.c ****     ep = &hpcd->IN_ep[ep_addr & EP_ADDR_MSK];
1558:Drivers/STM32G4xx_HAL_Driver/Src/stm32g4xx_hal_pcd.c ****     ep->is_in = 1U;
1559:Drivers/STM32G4xx_HAL_Driver/Src/stm32g4xx_hal_pcd.c ****   }
1560:Drivers/STM32G4xx_HAL_Driver/Src/stm32g4xx_hal_pcd.c ****   else
1561:Drivers/STM32G4xx_HAL_Driver/Src/stm32g4xx_hal_pcd.c ****   {
1562:Drivers/STM32G4xx_HAL_Driver/Src/stm32g4xx_hal_pcd.c ****     ep = &hpcd->OUT_ep[ep_addr & EP_ADDR_MSK];
1563:Drivers/STM32G4xx_HAL_Driver/Src/stm32g4xx_hal_pcd.c ****     ep->is_in = 0U;
1564:Drivers/STM32G4xx_HAL_Driver/Src/stm32g4xx_hal_pcd.c ****   }
1565:Drivers/STM32G4xx_HAL_Driver/Src/stm32g4xx_hal_pcd.c **** 
1566:Drivers/STM32G4xx_HAL_Driver/Src/stm32g4xx_hal_pcd.c ****   ep->is_stall = 0U;
1567:Drivers/STM32G4xx_HAL_Driver/Src/stm32g4xx_hal_pcd.c ****   ep->num = ep_addr & EP_ADDR_MSK;
1568:Drivers/STM32G4xx_HAL_Driver/Src/stm32g4xx_hal_pcd.c **** 
1569:Drivers/STM32G4xx_HAL_Driver/Src/stm32g4xx_hal_pcd.c ****   __HAL_LOCK(hpcd);
1570:Drivers/STM32G4xx_HAL_Driver/Src/stm32g4xx_hal_pcd.c ****   (void)USB_EPClearStall(hpcd->Instance, ep);
1571:Drivers/STM32G4xx_HAL_Driver/Src/stm32g4xx_hal_pcd.c ****   __HAL_UNLOCK(hpcd);
1572:Drivers/STM32G4xx_HAL_Driver/Src/stm32g4xx_hal_pcd.c **** 
1573:Drivers/STM32G4xx_HAL_Driver/Src/stm32g4xx_hal_pcd.c ****   return HAL_OK;
1574:Drivers/STM32G4xx_HAL_Driver/Src/stm32g4xx_hal_pcd.c **** }
1575:Drivers/STM32G4xx_HAL_Driver/Src/stm32g4xx_hal_pcd.c **** 
1576:Drivers/STM32G4xx_HAL_Driver/Src/stm32g4xx_hal_pcd.c **** /**
1577:Drivers/STM32G4xx_HAL_Driver/Src/stm32g4xx_hal_pcd.c ****   * @brief  Flush an endpoint
1578:Drivers/STM32G4xx_HAL_Driver/Src/stm32g4xx_hal_pcd.c ****   * @param  hpcd PCD handle
1579:Drivers/STM32G4xx_HAL_Driver/Src/stm32g4xx_hal_pcd.c ****   * @param  ep_addr endpoint address
1580:Drivers/STM32G4xx_HAL_Driver/Src/stm32g4xx_hal_pcd.c ****   * @retval HAL status
1581:Drivers/STM32G4xx_HAL_Driver/Src/stm32g4xx_hal_pcd.c ****   */
1582:Drivers/STM32G4xx_HAL_Driver/Src/stm32g4xx_hal_pcd.c **** HAL_StatusTypeDef HAL_PCD_EP_Flush(PCD_HandleTypeDef *hpcd, uint8_t ep_addr)
1583:Drivers/STM32G4xx_HAL_Driver/Src/stm32g4xx_hal_pcd.c **** {
1584:Drivers/STM32G4xx_HAL_Driver/Src/stm32g4xx_hal_pcd.c ****   /* Prevent unused argument(s) compilation warning */
1585:Drivers/STM32G4xx_HAL_Driver/Src/stm32g4xx_hal_pcd.c ****   UNUSED(hpcd);
1586:Drivers/STM32G4xx_HAL_Driver/Src/stm32g4xx_hal_pcd.c ****   UNUSED(ep_addr);
1587:Drivers/STM32G4xx_HAL_Driver/Src/stm32g4xx_hal_pcd.c **** 
1588:Drivers/STM32G4xx_HAL_Driver/Src/stm32g4xx_hal_pcd.c ****   return HAL_OK;
1589:Drivers/STM32G4xx_HAL_Driver/Src/stm32g4xx_hal_pcd.c **** }
1590:Drivers/STM32G4xx_HAL_Driver/Src/stm32g4xx_hal_pcd.c **** 
1591:Drivers/STM32G4xx_HAL_Driver/Src/stm32g4xx_hal_pcd.c **** /**
1592:Drivers/STM32G4xx_HAL_Driver/Src/stm32g4xx_hal_pcd.c ****   * @brief  Activate remote wakeup signalling
1593:Drivers/STM32G4xx_HAL_Driver/Src/stm32g4xx_hal_pcd.c ****   * @param  hpcd PCD handle
1594:Drivers/STM32G4xx_HAL_Driver/Src/stm32g4xx_hal_pcd.c ****   * @retval HAL status
1595:Drivers/STM32G4xx_HAL_Driver/Src/stm32g4xx_hal_pcd.c ****   */
1596:Drivers/STM32G4xx_HAL_Driver/Src/stm32g4xx_hal_pcd.c **** HAL_StatusTypeDef HAL_PCD_ActivateRemoteWakeup(PCD_HandleTypeDef *hpcd)
ARM GAS  /tmp/ccXi6E5C.s 			page 54


1597:Drivers/STM32G4xx_HAL_Driver/Src/stm32g4xx_hal_pcd.c **** {
1598:Drivers/STM32G4xx_HAL_Driver/Src/stm32g4xx_hal_pcd.c ****   return (USB_ActivateRemoteWakeup(hpcd->Instance));
1599:Drivers/STM32G4xx_HAL_Driver/Src/stm32g4xx_hal_pcd.c **** }
1600:Drivers/STM32G4xx_HAL_Driver/Src/stm32g4xx_hal_pcd.c **** 
1601:Drivers/STM32G4xx_HAL_Driver/Src/stm32g4xx_hal_pcd.c **** /**
1602:Drivers/STM32G4xx_HAL_Driver/Src/stm32g4xx_hal_pcd.c ****   * @brief  De-activate remote wakeup signalling.
1603:Drivers/STM32G4xx_HAL_Driver/Src/stm32g4xx_hal_pcd.c ****   * @param  hpcd PCD handle
1604:Drivers/STM32G4xx_HAL_Driver/Src/stm32g4xx_hal_pcd.c ****   * @retval HAL status
1605:Drivers/STM32G4xx_HAL_Driver/Src/stm32g4xx_hal_pcd.c ****   */
1606:Drivers/STM32G4xx_HAL_Driver/Src/stm32g4xx_hal_pcd.c **** HAL_StatusTypeDef HAL_PCD_DeActivateRemoteWakeup(PCD_HandleTypeDef *hpcd)
1607:Drivers/STM32G4xx_HAL_Driver/Src/stm32g4xx_hal_pcd.c **** {
1608:Drivers/STM32G4xx_HAL_Driver/Src/stm32g4xx_hal_pcd.c ****   return (USB_DeActivateRemoteWakeup(hpcd->Instance));
1609:Drivers/STM32G4xx_HAL_Driver/Src/stm32g4xx_hal_pcd.c **** }
1610:Drivers/STM32G4xx_HAL_Driver/Src/stm32g4xx_hal_pcd.c **** 
1611:Drivers/STM32G4xx_HAL_Driver/Src/stm32g4xx_hal_pcd.c **** /**
1612:Drivers/STM32G4xx_HAL_Driver/Src/stm32g4xx_hal_pcd.c ****   * @}
1613:Drivers/STM32G4xx_HAL_Driver/Src/stm32g4xx_hal_pcd.c ****   */
1614:Drivers/STM32G4xx_HAL_Driver/Src/stm32g4xx_hal_pcd.c **** 
1615:Drivers/STM32G4xx_HAL_Driver/Src/stm32g4xx_hal_pcd.c **** /** @defgroup PCD_Exported_Functions_Group4 Peripheral State functions
1616:Drivers/STM32G4xx_HAL_Driver/Src/stm32g4xx_hal_pcd.c ****  *  @brief   Peripheral State functions
1617:Drivers/STM32G4xx_HAL_Driver/Src/stm32g4xx_hal_pcd.c ****  *
1618:Drivers/STM32G4xx_HAL_Driver/Src/stm32g4xx_hal_pcd.c **** @verbatim
1619:Drivers/STM32G4xx_HAL_Driver/Src/stm32g4xx_hal_pcd.c ****  ===============================================================================
1620:Drivers/STM32G4xx_HAL_Driver/Src/stm32g4xx_hal_pcd.c ****                       ##### Peripheral State functions #####
1621:Drivers/STM32G4xx_HAL_Driver/Src/stm32g4xx_hal_pcd.c ****  ===============================================================================
1622:Drivers/STM32G4xx_HAL_Driver/Src/stm32g4xx_hal_pcd.c ****     [..]
1623:Drivers/STM32G4xx_HAL_Driver/Src/stm32g4xx_hal_pcd.c ****     This subsection permits to get in run-time the status of the peripheral
1624:Drivers/STM32G4xx_HAL_Driver/Src/stm32g4xx_hal_pcd.c ****     and the data flow.
1625:Drivers/STM32G4xx_HAL_Driver/Src/stm32g4xx_hal_pcd.c **** 
1626:Drivers/STM32G4xx_HAL_Driver/Src/stm32g4xx_hal_pcd.c **** @endverbatim
1627:Drivers/STM32G4xx_HAL_Driver/Src/stm32g4xx_hal_pcd.c ****   * @{
1628:Drivers/STM32G4xx_HAL_Driver/Src/stm32g4xx_hal_pcd.c ****   */
1629:Drivers/STM32G4xx_HAL_Driver/Src/stm32g4xx_hal_pcd.c **** 
1630:Drivers/STM32G4xx_HAL_Driver/Src/stm32g4xx_hal_pcd.c **** /**
1631:Drivers/STM32G4xx_HAL_Driver/Src/stm32g4xx_hal_pcd.c ****   * @brief  Return the PCD handle state.
1632:Drivers/STM32G4xx_HAL_Driver/Src/stm32g4xx_hal_pcd.c ****   * @param  hpcd PCD handle
1633:Drivers/STM32G4xx_HAL_Driver/Src/stm32g4xx_hal_pcd.c ****   * @retval HAL state
1634:Drivers/STM32G4xx_HAL_Driver/Src/stm32g4xx_hal_pcd.c ****   */
1635:Drivers/STM32G4xx_HAL_Driver/Src/stm32g4xx_hal_pcd.c **** PCD_StateTypeDef HAL_PCD_GetState(PCD_HandleTypeDef *hpcd)
1636:Drivers/STM32G4xx_HAL_Driver/Src/stm32g4xx_hal_pcd.c **** {
1637:Drivers/STM32G4xx_HAL_Driver/Src/stm32g4xx_hal_pcd.c ****   return hpcd->State;
1638:Drivers/STM32G4xx_HAL_Driver/Src/stm32g4xx_hal_pcd.c **** }
1639:Drivers/STM32G4xx_HAL_Driver/Src/stm32g4xx_hal_pcd.c **** 
1640:Drivers/STM32G4xx_HAL_Driver/Src/stm32g4xx_hal_pcd.c **** /**
1641:Drivers/STM32G4xx_HAL_Driver/Src/stm32g4xx_hal_pcd.c ****   * @}
1642:Drivers/STM32G4xx_HAL_Driver/Src/stm32g4xx_hal_pcd.c ****   */
1643:Drivers/STM32G4xx_HAL_Driver/Src/stm32g4xx_hal_pcd.c **** 
1644:Drivers/STM32G4xx_HAL_Driver/Src/stm32g4xx_hal_pcd.c **** /**
1645:Drivers/STM32G4xx_HAL_Driver/Src/stm32g4xx_hal_pcd.c ****   * @}
1646:Drivers/STM32G4xx_HAL_Driver/Src/stm32g4xx_hal_pcd.c ****   */
1647:Drivers/STM32G4xx_HAL_Driver/Src/stm32g4xx_hal_pcd.c **** 
1648:Drivers/STM32G4xx_HAL_Driver/Src/stm32g4xx_hal_pcd.c **** /* Private functions ---------------------------------------------------------*/
1649:Drivers/STM32G4xx_HAL_Driver/Src/stm32g4xx_hal_pcd.c **** /** @addtogroup PCD_Private_Functions
1650:Drivers/STM32G4xx_HAL_Driver/Src/stm32g4xx_hal_pcd.c ****   * @{
1651:Drivers/STM32G4xx_HAL_Driver/Src/stm32g4xx_hal_pcd.c ****   */
1652:Drivers/STM32G4xx_HAL_Driver/Src/stm32g4xx_hal_pcd.c **** 
1653:Drivers/STM32G4xx_HAL_Driver/Src/stm32g4xx_hal_pcd.c **** 
ARM GAS  /tmp/ccXi6E5C.s 			page 55


1654:Drivers/STM32G4xx_HAL_Driver/Src/stm32g4xx_hal_pcd.c **** /**
1655:Drivers/STM32G4xx_HAL_Driver/Src/stm32g4xx_hal_pcd.c ****   * @brief  This function handles PCD Endpoint interrupt request.
1656:Drivers/STM32G4xx_HAL_Driver/Src/stm32g4xx_hal_pcd.c ****   * @param  hpcd PCD handle
1657:Drivers/STM32G4xx_HAL_Driver/Src/stm32g4xx_hal_pcd.c ****   * @retval HAL status
1658:Drivers/STM32G4xx_HAL_Driver/Src/stm32g4xx_hal_pcd.c ****   */
1659:Drivers/STM32G4xx_HAL_Driver/Src/stm32g4xx_hal_pcd.c **** static HAL_StatusTypeDef PCD_EP_ISR_Handler(PCD_HandleTypeDef *hpcd)
1660:Drivers/STM32G4xx_HAL_Driver/Src/stm32g4xx_hal_pcd.c **** {
 1350              		.loc 1 1660 1 is_stmt 1 view -0
 1351              		.cfi_startproc
 1352              		@ args = 0, pretend = 0, frame = 0
 1353              		@ frame_needed = 0, uses_anonymous_args = 0
 1354              		.loc 1 1660 1 is_stmt 0 view .LVU364
 1355 0000 F8B5     		push	{r3, r4, r5, r6, r7, lr}
 1356              	.LCFI21:
 1357              		.cfi_def_cfa_offset 24
 1358              		.cfi_offset 3, -24
 1359              		.cfi_offset 4, -20
 1360              		.cfi_offset 5, -16
 1361              		.cfi_offset 6, -12
 1362              		.cfi_offset 7, -8
 1363              		.cfi_offset 14, -4
 1364 0002 0546     		mov	r5, r0
1661:Drivers/STM32G4xx_HAL_Driver/Src/stm32g4xx_hal_pcd.c ****   PCD_EPTypeDef *ep;
 1365              		.loc 1 1661 3 is_stmt 1 view .LVU365
1662:Drivers/STM32G4xx_HAL_Driver/Src/stm32g4xx_hal_pcd.c ****   uint16_t count;
 1366              		.loc 1 1662 3 view .LVU366
1663:Drivers/STM32G4xx_HAL_Driver/Src/stm32g4xx_hal_pcd.c ****   uint16_t wIstr;
 1367              		.loc 1 1663 3 view .LVU367
1664:Drivers/STM32G4xx_HAL_Driver/Src/stm32g4xx_hal_pcd.c ****   uint16_t wEPVal;
 1368              		.loc 1 1664 3 view .LVU368
1665:Drivers/STM32G4xx_HAL_Driver/Src/stm32g4xx_hal_pcd.c ****   uint8_t epindex;
 1369              		.loc 1 1665 3 view .LVU369
1666:Drivers/STM32G4xx_HAL_Driver/Src/stm32g4xx_hal_pcd.c **** 
1667:Drivers/STM32G4xx_HAL_Driver/Src/stm32g4xx_hal_pcd.c ****   /* stay in loop while pending interrupts */
1668:Drivers/STM32G4xx_HAL_Driver/Src/stm32g4xx_hal_pcd.c ****   while ((hpcd->Instance->ISTR & USB_ISTR_CTR) != 0U)
 1370              		.loc 1 1668 3 view .LVU370
 1371              		.loc 1 1668 9 is_stmt 0 view .LVU371
 1372 0004 A6E0     		b	.L99
 1373              	.LVL116:
 1374              	.L122:
1669:Drivers/STM32G4xx_HAL_Driver/Src/stm32g4xx_hal_pcd.c ****   {
1670:Drivers/STM32G4xx_HAL_Driver/Src/stm32g4xx_hal_pcd.c ****     wIstr = hpcd->Instance->ISTR;
1671:Drivers/STM32G4xx_HAL_Driver/Src/stm32g4xx_hal_pcd.c ****     /* extract highest priority endpoint number */
1672:Drivers/STM32G4xx_HAL_Driver/Src/stm32g4xx_hal_pcd.c ****     epindex = (uint8_t)(wIstr & USB_ISTR_EP_ID);
1673:Drivers/STM32G4xx_HAL_Driver/Src/stm32g4xx_hal_pcd.c **** 
1674:Drivers/STM32G4xx_HAL_Driver/Src/stm32g4xx_hal_pcd.c ****     if (epindex == 0U)
1675:Drivers/STM32G4xx_HAL_Driver/Src/stm32g4xx_hal_pcd.c ****     {
1676:Drivers/STM32G4xx_HAL_Driver/Src/stm32g4xx_hal_pcd.c ****       /* Decode and service control endpoint interrupt */
1677:Drivers/STM32G4xx_HAL_Driver/Src/stm32g4xx_hal_pcd.c **** 
1678:Drivers/STM32G4xx_HAL_Driver/Src/stm32g4xx_hal_pcd.c ****       /* DIR bit = origin of the interrupt */
1679:Drivers/STM32G4xx_HAL_Driver/Src/stm32g4xx_hal_pcd.c ****       if ((wIstr & USB_ISTR_DIR) == 0U)
1680:Drivers/STM32G4xx_HAL_Driver/Src/stm32g4xx_hal_pcd.c ****       {
1681:Drivers/STM32G4xx_HAL_Driver/Src/stm32g4xx_hal_pcd.c ****         /* DIR = 0 */
1682:Drivers/STM32G4xx_HAL_Driver/Src/stm32g4xx_hal_pcd.c **** 
1683:Drivers/STM32G4xx_HAL_Driver/Src/stm32g4xx_hal_pcd.c ****         /* DIR = 0      => IN  int */
1684:Drivers/STM32G4xx_HAL_Driver/Src/stm32g4xx_hal_pcd.c ****         /* DIR = 0 implies that (EP_CTR_TX = 1) always  */
1685:Drivers/STM32G4xx_HAL_Driver/Src/stm32g4xx_hal_pcd.c ****         PCD_CLEAR_TX_EP_CTR(hpcd->Instance, PCD_ENDP0);
ARM GAS  /tmp/ccXi6E5C.s 			page 56


 1375              		.loc 1 1685 9 is_stmt 1 view .LVU372
 1376              	.LBB2:
 1377              		.loc 1 1685 9 view .LVU373
 1378              		.loc 1 1685 9 view .LVU374
 1379 0006 0388     		ldrh	r3, [r0]
 1380              	.LVL117:
 1381              		.loc 1 1685 9 is_stmt 0 view .LVU375
 1382 0008 9BB2     		uxth	r3, r3
 1383 000a 23F4E143 		bic	r3, r3, #28800
 1384 000e 23F07003 		bic	r3, r3, #112
 1385              	.LVL118:
 1386              		.loc 1 1685 9 is_stmt 1 view .LVU376
 1387 0012 6FEA4343 		mvn	r3, r3, lsl #17
 1388              	.LVL119:
 1389              		.loc 1 1685 9 is_stmt 0 view .LVU377
 1390 0016 6FEA5343 		mvn	r3, r3, lsr #17
 1391 001a 9BB2     		uxth	r3, r3
 1392 001c 0380     		strh	r3, [r0]	@ movhi
 1393              	.LBE2:
 1394              		.loc 1 1685 9 is_stmt 1 view .LVU378
1686:Drivers/STM32G4xx_HAL_Driver/Src/stm32g4xx_hal_pcd.c ****         ep = &hpcd->IN_ep[0];
 1395              		.loc 1 1686 9 view .LVU379
 1396              	.LVL120:
1687:Drivers/STM32G4xx_HAL_Driver/Src/stm32g4xx_hal_pcd.c **** 
1688:Drivers/STM32G4xx_HAL_Driver/Src/stm32g4xx_hal_pcd.c ****         ep->xfer_count = PCD_GET_EP_TX_CNT(hpcd->Instance, ep->num);
 1397              		.loc 1 1688 9 view .LVU380
 1398              		.loc 1 1688 26 is_stmt 0 view .LVU381
 1399 001e 2968     		ldr	r1, [r5]
 1400 0020 B1F85030 		ldrh	r3, [r1, #80]
 1401 0024 95F82820 		ldrb	r2, [r5, #40]	@ zero_extendqisi2
 1402 0028 D200     		lsls	r2, r2, #3
 1403 002a 12FA83F3 		uxtah	r3, r2, r3
 1404 002e 0B44     		add	r3, r3, r1
 1405 0030 B3F80234 		ldrh	r3, [r3, #1026]
 1406 0034 C3F30903 		ubfx	r3, r3, #0, #10
 1407              		.loc 1 1688 24 view .LVU382
 1408 0038 6B64     		str	r3, [r5, #68]
1689:Drivers/STM32G4xx_HAL_Driver/Src/stm32g4xx_hal_pcd.c ****         ep->xfer_buff += ep->xfer_count;
 1409              		.loc 1 1689 9 is_stmt 1 view .LVU383
 1410              		.loc 1 1689 23 is_stmt 0 view .LVU384
 1411 003a EA6B     		ldr	r2, [r5, #60]
 1412 003c 1344     		add	r3, r3, r2
 1413 003e EB63     		str	r3, [r5, #60]
1690:Drivers/STM32G4xx_HAL_Driver/Src/stm32g4xx_hal_pcd.c **** 
1691:Drivers/STM32G4xx_HAL_Driver/Src/stm32g4xx_hal_pcd.c ****         /* TX COMPLETE */
1692:Drivers/STM32G4xx_HAL_Driver/Src/stm32g4xx_hal_pcd.c **** #if (USE_HAL_PCD_REGISTER_CALLBACKS == 1U)
1693:Drivers/STM32G4xx_HAL_Driver/Src/stm32g4xx_hal_pcd.c ****         hpcd->DataInStageCallback(hpcd, 0U);
1694:Drivers/STM32G4xx_HAL_Driver/Src/stm32g4xx_hal_pcd.c **** #else
1695:Drivers/STM32G4xx_HAL_Driver/Src/stm32g4xx_hal_pcd.c ****         HAL_PCD_DataInStageCallback(hpcd, 0U);
 1414              		.loc 1 1695 9 is_stmt 1 view .LVU385
 1415 0040 0021     		movs	r1, #0
 1416 0042 2846     		mov	r0, r5
 1417 0044 FFF7FEFF 		bl	HAL_PCD_DataInStageCallback
 1418              	.LVL121:
1696:Drivers/STM32G4xx_HAL_Driver/Src/stm32g4xx_hal_pcd.c **** #endif /* USE_HAL_PCD_REGISTER_CALLBACKS */
1697:Drivers/STM32G4xx_HAL_Driver/Src/stm32g4xx_hal_pcd.c **** 
1698:Drivers/STM32G4xx_HAL_Driver/Src/stm32g4xx_hal_pcd.c ****         if ((hpcd->USB_Address > 0U) && (ep->xfer_len == 0U))
ARM GAS  /tmp/ccXi6E5C.s 			page 57


 1419              		.loc 1 1698 9 view .LVU386
 1420              		.loc 1 1698 18 is_stmt 0 view .LVU387
 1421 0048 95F82430 		ldrb	r3, [r5, #36]	@ zero_extendqisi2
 1422              		.loc 1 1698 12 view .LVU388
 1423 004c 002B     		cmp	r3, #0
 1424 004e 00F08180 		beq	.L99
 1425              		.loc 1 1698 44 discriminator 1 view .LVU389
 1426 0052 2B6C     		ldr	r3, [r5, #64]
 1427              		.loc 1 1698 38 discriminator 1 view .LVU390
 1428 0054 002B     		cmp	r3, #0
 1429 0056 7DD1     		bne	.L99
1699:Drivers/STM32G4xx_HAL_Driver/Src/stm32g4xx_hal_pcd.c ****         {
1700:Drivers/STM32G4xx_HAL_Driver/Src/stm32g4xx_hal_pcd.c ****           hpcd->Instance->DADDR = ((uint16_t)hpcd->USB_Address | USB_DADDR_EF);
 1430              		.loc 1 1700 11 is_stmt 1 view .LVU391
 1431              		.loc 1 1700 50 is_stmt 0 view .LVU392
 1432 0058 95F82430 		ldrb	r3, [r5, #36]	@ zero_extendqisi2
 1433              		.loc 1 1700 15 view .LVU393
 1434 005c 2A68     		ldr	r2, [r5]
 1435              		.loc 1 1700 33 view .LVU394
 1436 005e 43F08003 		orr	r3, r3, #128
 1437 0062 A2F84C30 		strh	r3, [r2, #76]	@ movhi
1701:Drivers/STM32G4xx_HAL_Driver/Src/stm32g4xx_hal_pcd.c ****           hpcd->USB_Address = 0U;
 1438              		.loc 1 1701 11 is_stmt 1 view .LVU395
 1439              		.loc 1 1701 29 is_stmt 0 view .LVU396
 1440 0066 0023     		movs	r3, #0
 1441 0068 85F82430 		strb	r3, [r5, #36]
 1442 006c 72E0     		b	.L99
 1443              	.LVL122:
 1444              	.L123:
1702:Drivers/STM32G4xx_HAL_Driver/Src/stm32g4xx_hal_pcd.c ****         }
1703:Drivers/STM32G4xx_HAL_Driver/Src/stm32g4xx_hal_pcd.c ****       }
1704:Drivers/STM32G4xx_HAL_Driver/Src/stm32g4xx_hal_pcd.c ****       else
1705:Drivers/STM32G4xx_HAL_Driver/Src/stm32g4xx_hal_pcd.c ****       {
1706:Drivers/STM32G4xx_HAL_Driver/Src/stm32g4xx_hal_pcd.c ****         /* DIR = 1 */
1707:Drivers/STM32G4xx_HAL_Driver/Src/stm32g4xx_hal_pcd.c **** 
1708:Drivers/STM32G4xx_HAL_Driver/Src/stm32g4xx_hal_pcd.c ****         /* DIR = 1 & CTR_RX       => SETUP or OUT int */
1709:Drivers/STM32G4xx_HAL_Driver/Src/stm32g4xx_hal_pcd.c ****         /* DIR = 1 & (CTR_TX | CTR_RX) => 2 int pending */
1710:Drivers/STM32G4xx_HAL_Driver/Src/stm32g4xx_hal_pcd.c ****         ep = &hpcd->OUT_ep[0];
1711:Drivers/STM32G4xx_HAL_Driver/Src/stm32g4xx_hal_pcd.c ****         wEPVal = PCD_GET_ENDPOINT(hpcd->Instance, PCD_ENDP0);
1712:Drivers/STM32G4xx_HAL_Driver/Src/stm32g4xx_hal_pcd.c **** 
1713:Drivers/STM32G4xx_HAL_Driver/Src/stm32g4xx_hal_pcd.c ****         if ((wEPVal & USB_EP_SETUP) != 0U)
1714:Drivers/STM32G4xx_HAL_Driver/Src/stm32g4xx_hal_pcd.c ****         {
1715:Drivers/STM32G4xx_HAL_Driver/Src/stm32g4xx_hal_pcd.c ****           /* Get SETUP Packet*/
1716:Drivers/STM32G4xx_HAL_Driver/Src/stm32g4xx_hal_pcd.c ****           ep->xfer_count = PCD_GET_EP_RX_CNT(hpcd->Instance, ep->num);
 1445              		.loc 1 1716 11 is_stmt 1 view .LVU397
 1446              		.loc 1 1716 28 is_stmt 0 view .LVU398
 1447 006e B0F85030 		ldrh	r3, [r0, #80]
 1448 0072 95F82821 		ldrb	r2, [r5, #296]	@ zero_extendqisi2
 1449              	.LVL123:
 1450              		.loc 1 1716 28 view .LVU399
 1451 0076 D200     		lsls	r2, r2, #3
 1452 0078 12FA83F3 		uxtah	r3, r2, r3
 1453 007c 0344     		add	r3, r3, r0
 1454 007e B3F80634 		ldrh	r3, [r3, #1030]
 1455 0082 C3F30903 		ubfx	r3, r3, #0, #10
 1456              		.loc 1 1716 26 view .LVU400
 1457 0086 C5F84431 		str	r3, [r5, #324]
ARM GAS  /tmp/ccXi6E5C.s 			page 58


1717:Drivers/STM32G4xx_HAL_Driver/Src/stm32g4xx_hal_pcd.c **** 
1718:Drivers/STM32G4xx_HAL_Driver/Src/stm32g4xx_hal_pcd.c ****           USB_ReadPMA(hpcd->Instance, (uint8_t *)hpcd->Setup,
 1458              		.loc 1 1718 11 is_stmt 1 view .LVU401
 1459 008a B5F82E21 		ldrh	r2, [r5, #302]
 1460 008e 05F50C71 		add	r1, r5, #560
 1461 0092 FFF7FEFF 		bl	USB_ReadPMA
 1462              	.LVL124:
1719:Drivers/STM32G4xx_HAL_Driver/Src/stm32g4xx_hal_pcd.c ****                       ep->pmaadress, (uint16_t)ep->xfer_count);
1720:Drivers/STM32G4xx_HAL_Driver/Src/stm32g4xx_hal_pcd.c **** 
1721:Drivers/STM32G4xx_HAL_Driver/Src/stm32g4xx_hal_pcd.c ****           /* SETUP bit kept frozen while CTR_RX = 1*/
1722:Drivers/STM32G4xx_HAL_Driver/Src/stm32g4xx_hal_pcd.c ****           PCD_CLEAR_RX_EP_CTR(hpcd->Instance, PCD_ENDP0);
 1463              		.loc 1 1722 11 view .LVU402
 1464              	.LBB3:
 1465              		.loc 1 1722 11 view .LVU403
 1466              		.loc 1 1722 11 view .LVU404
 1467 0096 2A68     		ldr	r2, [r5]
 1468 0098 1388     		ldrh	r3, [r2]
 1469 009a 23F07003 		bic	r3, r3, #112
 1470 009e 1B05     		lsls	r3, r3, #20
 1471 00a0 1B0D     		lsrs	r3, r3, #20
 1472              	.LVL125:
 1473              		.loc 1 1722 11 view .LVU405
 1474 00a2 43F08003 		orr	r3, r3, #128
 1475              	.LVL126:
 1476              		.loc 1 1722 11 is_stmt 0 view .LVU406
 1477 00a6 1380     		strh	r3, [r2]	@ movhi
 1478              	.LBE3:
 1479              		.loc 1 1722 11 is_stmt 1 view .LVU407
1723:Drivers/STM32G4xx_HAL_Driver/Src/stm32g4xx_hal_pcd.c **** 
1724:Drivers/STM32G4xx_HAL_Driver/Src/stm32g4xx_hal_pcd.c ****           /* Process SETUP Packet*/
1725:Drivers/STM32G4xx_HAL_Driver/Src/stm32g4xx_hal_pcd.c **** #if (USE_HAL_PCD_REGISTER_CALLBACKS == 1U)
1726:Drivers/STM32G4xx_HAL_Driver/Src/stm32g4xx_hal_pcd.c ****           hpcd->SetupStageCallback(hpcd);
1727:Drivers/STM32G4xx_HAL_Driver/Src/stm32g4xx_hal_pcd.c **** #else
1728:Drivers/STM32G4xx_HAL_Driver/Src/stm32g4xx_hal_pcd.c ****           HAL_PCD_SetupStageCallback(hpcd);
 1480              		.loc 1 1728 11 view .LVU408
 1481 00a8 2846     		mov	r0, r5
 1482 00aa FFF7FEFF 		bl	HAL_PCD_SetupStageCallback
 1483              	.LVL127:
 1484 00ae 51E0     		b	.L99
 1485              	.LVL128:
 1486              	.L105:
 1487              	.LBB4:
 1488              	.LBB5:
1729:Drivers/STM32G4xx_HAL_Driver/Src/stm32g4xx_hal_pcd.c **** #endif /* USE_HAL_PCD_REGISTER_CALLBACKS */
1730:Drivers/STM32G4xx_HAL_Driver/Src/stm32g4xx_hal_pcd.c ****         }
1731:Drivers/STM32G4xx_HAL_Driver/Src/stm32g4xx_hal_pcd.c **** 
1732:Drivers/STM32G4xx_HAL_Driver/Src/stm32g4xx_hal_pcd.c ****         else if ((wEPVal & USB_EP_CTR_RX) != 0U)
1733:Drivers/STM32G4xx_HAL_Driver/Src/stm32g4xx_hal_pcd.c ****         {
1734:Drivers/STM32G4xx_HAL_Driver/Src/stm32g4xx_hal_pcd.c ****           PCD_CLEAR_RX_EP_CTR(hpcd->Instance, PCD_ENDP0);
1735:Drivers/STM32G4xx_HAL_Driver/Src/stm32g4xx_hal_pcd.c **** 
1736:Drivers/STM32G4xx_HAL_Driver/Src/stm32g4xx_hal_pcd.c ****           /* Get Control Data OUT Packet*/
1737:Drivers/STM32G4xx_HAL_Driver/Src/stm32g4xx_hal_pcd.c ****           ep->xfer_count = PCD_GET_EP_RX_CNT(hpcd->Instance, ep->num);
1738:Drivers/STM32G4xx_HAL_Driver/Src/stm32g4xx_hal_pcd.c **** 
1739:Drivers/STM32G4xx_HAL_Driver/Src/stm32g4xx_hal_pcd.c ****           if ((ep->xfer_count != 0U) && (ep->xfer_buff != 0U))
1740:Drivers/STM32G4xx_HAL_Driver/Src/stm32g4xx_hal_pcd.c ****           {
1741:Drivers/STM32G4xx_HAL_Driver/Src/stm32g4xx_hal_pcd.c ****             USB_ReadPMA(hpcd->Instance, ep->xfer_buff,
1742:Drivers/STM32G4xx_HAL_Driver/Src/stm32g4xx_hal_pcd.c ****                         ep->pmaadress, (uint16_t)ep->xfer_count);
ARM GAS  /tmp/ccXi6E5C.s 			page 59


1743:Drivers/STM32G4xx_HAL_Driver/Src/stm32g4xx_hal_pcd.c **** 
1744:Drivers/STM32G4xx_HAL_Driver/Src/stm32g4xx_hal_pcd.c ****             ep->xfer_buff += ep->xfer_count;
1745:Drivers/STM32G4xx_HAL_Driver/Src/stm32g4xx_hal_pcd.c **** 
1746:Drivers/STM32G4xx_HAL_Driver/Src/stm32g4xx_hal_pcd.c ****             /* Process Control Data OUT Packet*/
1747:Drivers/STM32G4xx_HAL_Driver/Src/stm32g4xx_hal_pcd.c **** #if (USE_HAL_PCD_REGISTER_CALLBACKS == 1U)
1748:Drivers/STM32G4xx_HAL_Driver/Src/stm32g4xx_hal_pcd.c ****             hpcd->DataOutStageCallback(hpcd, 0U);
1749:Drivers/STM32G4xx_HAL_Driver/Src/stm32g4xx_hal_pcd.c **** #else
1750:Drivers/STM32G4xx_HAL_Driver/Src/stm32g4xx_hal_pcd.c ****             HAL_PCD_DataOutStageCallback(hpcd, 0U);
1751:Drivers/STM32G4xx_HAL_Driver/Src/stm32g4xx_hal_pcd.c **** #endif /* USE_HAL_PCD_REGISTER_CALLBACKS */
1752:Drivers/STM32G4xx_HAL_Driver/Src/stm32g4xx_hal_pcd.c ****           }
1753:Drivers/STM32G4xx_HAL_Driver/Src/stm32g4xx_hal_pcd.c **** 
1754:Drivers/STM32G4xx_HAL_Driver/Src/stm32g4xx_hal_pcd.c ****           PCD_SET_EP_RX_CNT(hpcd->Instance, PCD_ENDP0, ep->maxpacket);
 1489              		.loc 1 1754 11 discriminator 2 view .LVU409
 1490 00b0 3E2A     		cmp	r2, #62
 1491 00b2 09D8     		bhi	.L107
 1492              		.loc 1 1754 11 discriminator 4 view .LVU410
 1493              		.loc 1 1754 11 discriminator 4 view .LVU411
 1494 00b4 5108     		lsrs	r1, r2, #1
 1495              	.LVL129:
 1496              		.loc 1 1754 11 discriminator 4 view .LVU412
 1497 00b6 12F0010F 		tst	r2, #1
 1498 00ba 00D0     		beq	.L108
 1499              		.loc 1 1754 11 discriminator 6 view .LVU413
 1500 00bc 0131     		adds	r1, r1, #1
 1501              	.LVL130:
 1502              	.L108:
 1503              		.loc 1 1754 11 discriminator 8 view .LVU414
 1504 00be 8902     		lsls	r1, r1, #10
 1505              	.LVL131:
 1506              		.loc 1 1754 11 is_stmt 0 discriminator 8 view .LVU415
 1507 00c0 89B2     		uxth	r1, r1
 1508 00c2 A3F80614 		strh	r1, [r3, #1030]	@ movhi
 1509              		.loc 1 1754 11 is_stmt 1 discriminator 8 view .LVU416
 1510 00c6 A4E0     		b	.L106
 1511              	.L107:
 1512              		.loc 1 1754 11 discriminator 5 view .LVU417
 1513              		.loc 1 1754 11 discriminator 5 view .LVU418
 1514 00c8 5109     		lsrs	r1, r2, #5
 1515              	.LVL132:
 1516              		.loc 1 1754 11 discriminator 5 view .LVU419
 1517 00ca 12F01F0F 		tst	r2, #31
 1518 00ce 00D1     		bne	.L109
 1519              		.loc 1 1754 11 discriminator 10 view .LVU420
 1520 00d0 0139     		subs	r1, r1, #1
 1521              	.LVL133:
 1522              	.L109:
 1523              		.loc 1 1754 11 discriminator 12 view .LVU421
 1524 00d2 6FEAC162 		mvn	r2, r1, lsl #27
 1525 00d6 6FEA5242 		mvn	r2, r2, lsr #17
 1526 00da 92B2     		uxth	r2, r2
 1527 00dc A3F80624 		strh	r2, [r3, #1030]	@ movhi
 1528 00e0 97E0     		b	.L106
 1529              	.LVL134:
 1530              	.L100:
 1531              		.loc 1 1754 11 is_stmt 0 discriminator 12 view .LVU422
 1532              	.LBE5:
 1533              	.LBE4:
ARM GAS  /tmp/ccXi6E5C.s 			page 60


1755:Drivers/STM32G4xx_HAL_Driver/Src/stm32g4xx_hal_pcd.c ****           PCD_SET_EP_RX_STATUS(hpcd->Instance, PCD_ENDP0, USB_EP_RX_VALID);
1756:Drivers/STM32G4xx_HAL_Driver/Src/stm32g4xx_hal_pcd.c ****         }
1757:Drivers/STM32G4xx_HAL_Driver/Src/stm32g4xx_hal_pcd.c ****       }
1758:Drivers/STM32G4xx_HAL_Driver/Src/stm32g4xx_hal_pcd.c ****     }
1759:Drivers/STM32G4xx_HAL_Driver/Src/stm32g4xx_hal_pcd.c ****     else
1760:Drivers/STM32G4xx_HAL_Driver/Src/stm32g4xx_hal_pcd.c ****     {
1761:Drivers/STM32G4xx_HAL_Driver/Src/stm32g4xx_hal_pcd.c ****       /* Decode and service non control endpoints interrupt  */
1762:Drivers/STM32G4xx_HAL_Driver/Src/stm32g4xx_hal_pcd.c **** 
1763:Drivers/STM32G4xx_HAL_Driver/Src/stm32g4xx_hal_pcd.c ****       /* process related endpoint register */
1764:Drivers/STM32G4xx_HAL_Driver/Src/stm32g4xx_hal_pcd.c ****       wEPVal = PCD_GET_ENDPOINT(hpcd->Instance, epindex);
 1534              		.loc 1 1764 7 is_stmt 1 view .LVU423
 1535              		.loc 1 1764 14 is_stmt 0 view .LVU424
 1536 00e2 30F82430 		ldrh	r3, [r0, r4, lsl #2]
 1537              	.LVL135:
 1538              		.loc 1 1764 14 view .LVU425
 1539 00e6 9FB2     		uxth	r7, r3
 1540              	.LVL136:
1765:Drivers/STM32G4xx_HAL_Driver/Src/stm32g4xx_hal_pcd.c ****       if ((wEPVal & USB_EP_CTR_RX) != 0U)
 1541              		.loc 1 1765 7 is_stmt 1 view .LVU426
 1542              		.loc 1 1765 10 is_stmt 0 view .LVU427
 1543 00e8 13F4004F 		tst	r3, #32768
 1544 00ec 40F0A080 		bne	.L120
 1545              	.L110:
1766:Drivers/STM32G4xx_HAL_Driver/Src/stm32g4xx_hal_pcd.c ****       {
1767:Drivers/STM32G4xx_HAL_Driver/Src/stm32g4xx_hal_pcd.c ****         /* clear int flag */
1768:Drivers/STM32G4xx_HAL_Driver/Src/stm32g4xx_hal_pcd.c ****         PCD_CLEAR_RX_EP_CTR(hpcd->Instance, epindex);
1769:Drivers/STM32G4xx_HAL_Driver/Src/stm32g4xx_hal_pcd.c ****         ep = &hpcd->OUT_ep[epindex];
1770:Drivers/STM32G4xx_HAL_Driver/Src/stm32g4xx_hal_pcd.c **** 
1771:Drivers/STM32G4xx_HAL_Driver/Src/stm32g4xx_hal_pcd.c ****         /* OUT double Buffering*/
1772:Drivers/STM32G4xx_HAL_Driver/Src/stm32g4xx_hal_pcd.c ****         if (ep->doublebuffer == 0U)
1773:Drivers/STM32G4xx_HAL_Driver/Src/stm32g4xx_hal_pcd.c ****         {
1774:Drivers/STM32G4xx_HAL_Driver/Src/stm32g4xx_hal_pcd.c ****           count = (uint16_t)PCD_GET_EP_RX_CNT(hpcd->Instance, ep->num);
1775:Drivers/STM32G4xx_HAL_Driver/Src/stm32g4xx_hal_pcd.c ****           if (count != 0U)
1776:Drivers/STM32G4xx_HAL_Driver/Src/stm32g4xx_hal_pcd.c ****           {
1777:Drivers/STM32G4xx_HAL_Driver/Src/stm32g4xx_hal_pcd.c ****             USB_ReadPMA(hpcd->Instance, ep->xfer_buff, ep->pmaadress, count);
1778:Drivers/STM32G4xx_HAL_Driver/Src/stm32g4xx_hal_pcd.c ****           }
1779:Drivers/STM32G4xx_HAL_Driver/Src/stm32g4xx_hal_pcd.c ****         }
1780:Drivers/STM32G4xx_HAL_Driver/Src/stm32g4xx_hal_pcd.c ****         else
1781:Drivers/STM32G4xx_HAL_Driver/Src/stm32g4xx_hal_pcd.c ****         {
1782:Drivers/STM32G4xx_HAL_Driver/Src/stm32g4xx_hal_pcd.c ****           if ((PCD_GET_ENDPOINT(hpcd->Instance, ep->num) & USB_EP_DTOG_RX) != 0U)
1783:Drivers/STM32G4xx_HAL_Driver/Src/stm32g4xx_hal_pcd.c ****           {
1784:Drivers/STM32G4xx_HAL_Driver/Src/stm32g4xx_hal_pcd.c ****             /*read from endpoint BUF0Addr buffer*/
1785:Drivers/STM32G4xx_HAL_Driver/Src/stm32g4xx_hal_pcd.c ****             count = (uint16_t)PCD_GET_EP_DBUF0_CNT(hpcd->Instance, ep->num);
1786:Drivers/STM32G4xx_HAL_Driver/Src/stm32g4xx_hal_pcd.c ****             if (count != 0U)
1787:Drivers/STM32G4xx_HAL_Driver/Src/stm32g4xx_hal_pcd.c ****             {
1788:Drivers/STM32G4xx_HAL_Driver/Src/stm32g4xx_hal_pcd.c ****               USB_ReadPMA(hpcd->Instance, ep->xfer_buff, ep->pmaaddr0, count);
1789:Drivers/STM32G4xx_HAL_Driver/Src/stm32g4xx_hal_pcd.c ****             }
1790:Drivers/STM32G4xx_HAL_Driver/Src/stm32g4xx_hal_pcd.c ****           }
1791:Drivers/STM32G4xx_HAL_Driver/Src/stm32g4xx_hal_pcd.c ****           else
1792:Drivers/STM32G4xx_HAL_Driver/Src/stm32g4xx_hal_pcd.c ****           {
1793:Drivers/STM32G4xx_HAL_Driver/Src/stm32g4xx_hal_pcd.c ****             /*read from endpoint BUF1Addr buffer*/
1794:Drivers/STM32G4xx_HAL_Driver/Src/stm32g4xx_hal_pcd.c ****             count = (uint16_t)PCD_GET_EP_DBUF1_CNT(hpcd->Instance, ep->num);
1795:Drivers/STM32G4xx_HAL_Driver/Src/stm32g4xx_hal_pcd.c ****             if (count != 0U)
1796:Drivers/STM32G4xx_HAL_Driver/Src/stm32g4xx_hal_pcd.c ****             {
1797:Drivers/STM32G4xx_HAL_Driver/Src/stm32g4xx_hal_pcd.c ****               USB_ReadPMA(hpcd->Instance, ep->xfer_buff, ep->pmaaddr1, count);
1798:Drivers/STM32G4xx_HAL_Driver/Src/stm32g4xx_hal_pcd.c ****             }
1799:Drivers/STM32G4xx_HAL_Driver/Src/stm32g4xx_hal_pcd.c ****           }
ARM GAS  /tmp/ccXi6E5C.s 			page 61


1800:Drivers/STM32G4xx_HAL_Driver/Src/stm32g4xx_hal_pcd.c ****           /* free EP OUT Buffer */
1801:Drivers/STM32G4xx_HAL_Driver/Src/stm32g4xx_hal_pcd.c ****           PCD_FreeUserBuffer(hpcd->Instance, ep->num, 0U);
1802:Drivers/STM32G4xx_HAL_Driver/Src/stm32g4xx_hal_pcd.c ****         }
1803:Drivers/STM32G4xx_HAL_Driver/Src/stm32g4xx_hal_pcd.c ****         /*multi-packet on the NON control OUT endpoint*/
1804:Drivers/STM32G4xx_HAL_Driver/Src/stm32g4xx_hal_pcd.c ****         ep->xfer_count += count;
1805:Drivers/STM32G4xx_HAL_Driver/Src/stm32g4xx_hal_pcd.c ****         ep->xfer_buff += count;
1806:Drivers/STM32G4xx_HAL_Driver/Src/stm32g4xx_hal_pcd.c **** 
1807:Drivers/STM32G4xx_HAL_Driver/Src/stm32g4xx_hal_pcd.c ****         if ((ep->xfer_len == 0U) || (count < ep->maxpacket))
1808:Drivers/STM32G4xx_HAL_Driver/Src/stm32g4xx_hal_pcd.c ****         {
1809:Drivers/STM32G4xx_HAL_Driver/Src/stm32g4xx_hal_pcd.c ****           /* RX COMPLETE */
1810:Drivers/STM32G4xx_HAL_Driver/Src/stm32g4xx_hal_pcd.c **** #if (USE_HAL_PCD_REGISTER_CALLBACKS == 1U)
1811:Drivers/STM32G4xx_HAL_Driver/Src/stm32g4xx_hal_pcd.c ****           hpcd->DataOutStageCallback(hpcd, ep->num);
1812:Drivers/STM32G4xx_HAL_Driver/Src/stm32g4xx_hal_pcd.c **** #else
1813:Drivers/STM32G4xx_HAL_Driver/Src/stm32g4xx_hal_pcd.c ****           HAL_PCD_DataOutStageCallback(hpcd, ep->num);
1814:Drivers/STM32G4xx_HAL_Driver/Src/stm32g4xx_hal_pcd.c **** #endif /* USE_HAL_PCD_REGISTER_CALLBACKS */
1815:Drivers/STM32G4xx_HAL_Driver/Src/stm32g4xx_hal_pcd.c ****         }
1816:Drivers/STM32G4xx_HAL_Driver/Src/stm32g4xx_hal_pcd.c ****         else
1817:Drivers/STM32G4xx_HAL_Driver/Src/stm32g4xx_hal_pcd.c ****         {
1818:Drivers/STM32G4xx_HAL_Driver/Src/stm32g4xx_hal_pcd.c ****           (void)HAL_PCD_EP_Receive(hpcd, ep->num, ep->xfer_buff, ep->xfer_len);
1819:Drivers/STM32G4xx_HAL_Driver/Src/stm32g4xx_hal_pcd.c ****         }
1820:Drivers/STM32G4xx_HAL_Driver/Src/stm32g4xx_hal_pcd.c **** 
1821:Drivers/STM32G4xx_HAL_Driver/Src/stm32g4xx_hal_pcd.c ****       } /* if((wEPVal & EP_CTR_RX) */
1822:Drivers/STM32G4xx_HAL_Driver/Src/stm32g4xx_hal_pcd.c **** 
1823:Drivers/STM32G4xx_HAL_Driver/Src/stm32g4xx_hal_pcd.c ****       if ((wEPVal & USB_EP_CTR_TX) != 0U)
 1546              		.loc 1 1823 7 is_stmt 1 view .LVU428
 1547              		.loc 1 1823 10 is_stmt 0 view .LVU429
 1548 00f0 17F0800F 		tst	r7, #128
 1549 00f4 2ED0     		beq	.L99
1824:Drivers/STM32G4xx_HAL_Driver/Src/stm32g4xx_hal_pcd.c ****       {
1825:Drivers/STM32G4xx_HAL_Driver/Src/stm32g4xx_hal_pcd.c ****         ep = &hpcd->IN_ep[epindex];
 1550              		.loc 1 1825 9 is_stmt 1 view .LVU430
 1551              	.LVL137:
1826:Drivers/STM32G4xx_HAL_Driver/Src/stm32g4xx_hal_pcd.c **** 
1827:Drivers/STM32G4xx_HAL_Driver/Src/stm32g4xx_hal_pcd.c ****         /* clear int flag */
1828:Drivers/STM32G4xx_HAL_Driver/Src/stm32g4xx_hal_pcd.c ****         PCD_CLEAR_TX_EP_CTR(hpcd->Instance, epindex);
 1552              		.loc 1 1828 9 view .LVU431
 1553              	.LBB7:
 1554              		.loc 1 1828 9 view .LVU432
 1555              		.loc 1 1828 9 view .LVU433
 1556 00f6 2A68     		ldr	r2, [r5]
 1557 00f8 32F82430 		ldrh	r3, [r2, r4, lsl #2]
 1558 00fc 9BB2     		uxth	r3, r3
 1559 00fe 23F4E143 		bic	r3, r3, #28800
 1560 0102 23F07003 		bic	r3, r3, #112
 1561              	.LVL138:
 1562              		.loc 1 1828 9 view .LVU434
 1563 0106 6FEA4343 		mvn	r3, r3, lsl #17
 1564              	.LVL139:
 1565              		.loc 1 1828 9 is_stmt 0 view .LVU435
 1566 010a 6FEA5343 		mvn	r3, r3, lsr #17
 1567 010e 9BB2     		uxth	r3, r3
 1568 0110 22F82430 		strh	r3, [r2, r4, lsl #2]	@ movhi
 1569              	.LBE7:
 1570              		.loc 1 1828 9 is_stmt 1 view .LVU436
1829:Drivers/STM32G4xx_HAL_Driver/Src/stm32g4xx_hal_pcd.c **** 
1830:Drivers/STM32G4xx_HAL_Driver/Src/stm32g4xx_hal_pcd.c ****         /*multi-packet on the NON control IN endpoint*/
1831:Drivers/STM32G4xx_HAL_Driver/Src/stm32g4xx_hal_pcd.c ****         ep->xfer_count = PCD_GET_EP_TX_CNT(hpcd->Instance, ep->num);
ARM GAS  /tmp/ccXi6E5C.s 			page 62


 1571              		.loc 1 1831 9 view .LVU437
 1572              		.loc 1 1831 26 is_stmt 0 view .LVU438
 1573 0114 2868     		ldr	r0, [r5]
 1574 0116 B0F85030 		ldrh	r3, [r0, #80]
 1575 011a 05EB4411 		add	r1, r5, r4, lsl #5
 1576 011e 91F82820 		ldrb	r2, [r1, #40]	@ zero_extendqisi2
 1577 0122 D200     		lsls	r2, r2, #3
 1578 0124 12FA83F3 		uxtah	r3, r2, r3
 1579 0128 0344     		add	r3, r3, r0
 1580 012a B3F80224 		ldrh	r2, [r3, #1026]
 1581 012e C2F30902 		ubfx	r2, r2, #0, #10
 1582              		.loc 1 1831 24 view .LVU439
 1583 0132 A31C     		adds	r3, r4, #2
 1584 0134 5801     		lsls	r0, r3, #5
 1585 0136 05EB4313 		add	r3, r5, r3, lsl #5
 1586 013a 5A60     		str	r2, [r3, #4]
1832:Drivers/STM32G4xx_HAL_Driver/Src/stm32g4xx_hal_pcd.c ****         ep->xfer_buff += ep->xfer_count;
 1587              		.loc 1 1832 9 is_stmt 1 view .LVU440
 1588              		.loc 1 1832 23 is_stmt 0 view .LVU441
 1589 013c CB6B     		ldr	r3, [r1, #60]
 1590 013e 1A44     		add	r2, r2, r3
 1591 0140 CA63     		str	r2, [r1, #60]
1833:Drivers/STM32G4xx_HAL_Driver/Src/stm32g4xx_hal_pcd.c **** 
1834:Drivers/STM32G4xx_HAL_Driver/Src/stm32g4xx_hal_pcd.c ****         /* Zero Length Packet? */
1835:Drivers/STM32G4xx_HAL_Driver/Src/stm32g4xx_hal_pcd.c ****         if (ep->xfer_len == 0U)
 1592              		.loc 1 1835 9 is_stmt 1 view .LVU442
 1593              		.loc 1 1835 15 is_stmt 0 view .LVU443
 1594 0142 2B58     		ldr	r3, [r5, r0]
 1595              		.loc 1 1835 12 view .LVU444
 1596 0144 002B     		cmp	r3, #0
 1597 0146 40F00A81 		bne	.L117
1836:Drivers/STM32G4xx_HAL_Driver/Src/stm32g4xx_hal_pcd.c ****         {
1837:Drivers/STM32G4xx_HAL_Driver/Src/stm32g4xx_hal_pcd.c ****           /* TX COMPLETE */
1838:Drivers/STM32G4xx_HAL_Driver/Src/stm32g4xx_hal_pcd.c **** #if (USE_HAL_PCD_REGISTER_CALLBACKS == 1U)
1839:Drivers/STM32G4xx_HAL_Driver/Src/stm32g4xx_hal_pcd.c ****           hpcd->DataInStageCallback(hpcd, ep->num);
1840:Drivers/STM32G4xx_HAL_Driver/Src/stm32g4xx_hal_pcd.c **** #else
1841:Drivers/STM32G4xx_HAL_Driver/Src/stm32g4xx_hal_pcd.c ****           HAL_PCD_DataInStageCallback(hpcd, ep->num);
 1598              		.loc 1 1841 11 is_stmt 1 view .LVU445
 1599 014a 91F82810 		ldrb	r1, [r1, #40]	@ zero_extendqisi2
 1600 014e 2846     		mov	r0, r5
 1601 0150 FFF7FEFF 		bl	HAL_PCD_DataInStageCallback
 1602              	.LVL140:
 1603              	.L99:
1668:Drivers/STM32G4xx_HAL_Driver/Src/stm32g4xx_hal_pcd.c ****   {
 1604              		.loc 1 1668 9 view .LVU446
1668:Drivers/STM32G4xx_HAL_Driver/Src/stm32g4xx_hal_pcd.c ****   {
 1605              		.loc 1 1668 15 is_stmt 0 view .LVU447
 1606 0154 2868     		ldr	r0, [r5]
1668:Drivers/STM32G4xx_HAL_Driver/Src/stm32g4xx_hal_pcd.c ****   {
 1607              		.loc 1 1668 25 view .LVU448
 1608 0156 B0F84430 		ldrh	r3, [r0, #68]
1668:Drivers/STM32G4xx_HAL_Driver/Src/stm32g4xx_hal_pcd.c ****   {
 1609              		.loc 1 1668 9 view .LVU449
 1610 015a 13F4004F 		tst	r3, #32768
 1611 015e 00F00681 		beq	.L121
1670:Drivers/STM32G4xx_HAL_Driver/Src/stm32g4xx_hal_pcd.c ****     /* extract highest priority endpoint number */
 1612              		.loc 1 1670 5 is_stmt 1 view .LVU450
ARM GAS  /tmp/ccXi6E5C.s 			page 63


1670:Drivers/STM32G4xx_HAL_Driver/Src/stm32g4xx_hal_pcd.c ****     /* extract highest priority endpoint number */
 1613              		.loc 1 1670 11 is_stmt 0 view .LVU451
 1614 0162 B0F84440 		ldrh	r4, [r0, #68]
 1615 0166 A3B2     		uxth	r3, r4
 1616              	.LVL141:
1672:Drivers/STM32G4xx_HAL_Driver/Src/stm32g4xx_hal_pcd.c **** 
 1617              		.loc 1 1672 5 is_stmt 1 view .LVU452
1674:Drivers/STM32G4xx_HAL_Driver/Src/stm32g4xx_hal_pcd.c ****     {
 1618              		.loc 1 1674 5 view .LVU453
1674:Drivers/STM32G4xx_HAL_Driver/Src/stm32g4xx_hal_pcd.c ****     {
 1619              		.loc 1 1674 8 is_stmt 0 view .LVU454
 1620 0168 14F00F04 		ands	r4, r4, #15
 1621              	.LVL142:
1674:Drivers/STM32G4xx_HAL_Driver/Src/stm32g4xx_hal_pcd.c ****     {
 1622              		.loc 1 1674 8 view .LVU455
 1623 016c B9D1     		bne	.L100
1679:Drivers/STM32G4xx_HAL_Driver/Src/stm32g4xx_hal_pcd.c ****       {
 1624              		.loc 1 1679 7 is_stmt 1 view .LVU456
1679:Drivers/STM32G4xx_HAL_Driver/Src/stm32g4xx_hal_pcd.c ****       {
 1625              		.loc 1 1679 10 is_stmt 0 view .LVU457
 1626 016e 13F0100F 		tst	r3, #16
 1627 0172 3FF448AF 		beq	.L122
1710:Drivers/STM32G4xx_HAL_Driver/Src/stm32g4xx_hal_pcd.c ****         wEPVal = PCD_GET_ENDPOINT(hpcd->Instance, PCD_ENDP0);
 1628              		.loc 1 1710 9 is_stmt 1 view .LVU458
 1629              	.LVL143:
1711:Drivers/STM32G4xx_HAL_Driver/Src/stm32g4xx_hal_pcd.c **** 
 1630              		.loc 1 1711 9 view .LVU459
1711:Drivers/STM32G4xx_HAL_Driver/Src/stm32g4xx_hal_pcd.c **** 
 1631              		.loc 1 1711 16 is_stmt 0 view .LVU460
 1632 0176 0388     		ldrh	r3, [r0]
 1633              	.LVL144:
1711:Drivers/STM32G4xx_HAL_Driver/Src/stm32g4xx_hal_pcd.c **** 
 1634              		.loc 1 1711 16 view .LVU461
 1635 0178 9AB2     		uxth	r2, r3
 1636              	.LVL145:
1713:Drivers/STM32G4xx_HAL_Driver/Src/stm32g4xx_hal_pcd.c ****         {
 1637              		.loc 1 1713 9 is_stmt 1 view .LVU462
1713:Drivers/STM32G4xx_HAL_Driver/Src/stm32g4xx_hal_pcd.c ****         {
 1638              		.loc 1 1713 12 is_stmt 0 view .LVU463
 1639 017a 13F4006F 		tst	r3, #2048
 1640 017e 7FF476AF 		bne	.L123
1732:Drivers/STM32G4xx_HAL_Driver/Src/stm32g4xx_hal_pcd.c ****         {
 1641              		.loc 1 1732 14 is_stmt 1 view .LVU464
1732:Drivers/STM32G4xx_HAL_Driver/Src/stm32g4xx_hal_pcd.c ****         {
 1642              		.loc 1 1732 17 is_stmt 0 view .LVU465
 1643 0182 12F4004F 		tst	r2, #32768
 1644 0186 E5D0     		beq	.L99
1734:Drivers/STM32G4xx_HAL_Driver/Src/stm32g4xx_hal_pcd.c **** 
 1645              		.loc 1 1734 11 is_stmt 1 view .LVU466
 1646              	.LBB8:
1734:Drivers/STM32G4xx_HAL_Driver/Src/stm32g4xx_hal_pcd.c **** 
 1647              		.loc 1 1734 11 view .LVU467
1734:Drivers/STM32G4xx_HAL_Driver/Src/stm32g4xx_hal_pcd.c **** 
 1648              		.loc 1 1734 11 view .LVU468
 1649 0188 0388     		ldrh	r3, [r0]
 1650 018a 23F07003 		bic	r3, r3, #112
 1651 018e 1B05     		lsls	r3, r3, #20
ARM GAS  /tmp/ccXi6E5C.s 			page 64


 1652 0190 1B0D     		lsrs	r3, r3, #20
 1653              	.LVL146:
1734:Drivers/STM32G4xx_HAL_Driver/Src/stm32g4xx_hal_pcd.c **** 
 1654              		.loc 1 1734 11 view .LVU469
 1655 0192 43F08003 		orr	r3, r3, #128
 1656              	.LVL147:
1734:Drivers/STM32G4xx_HAL_Driver/Src/stm32g4xx_hal_pcd.c **** 
 1657              		.loc 1 1734 11 is_stmt 0 view .LVU470
 1658 0196 0380     		strh	r3, [r0]	@ movhi
 1659              	.LBE8:
1734:Drivers/STM32G4xx_HAL_Driver/Src/stm32g4xx_hal_pcd.c **** 
 1660              		.loc 1 1734 11 is_stmt 1 view .LVU471
1737:Drivers/STM32G4xx_HAL_Driver/Src/stm32g4xx_hal_pcd.c **** 
 1661              		.loc 1 1737 11 view .LVU472
1737:Drivers/STM32G4xx_HAL_Driver/Src/stm32g4xx_hal_pcd.c **** 
 1662              		.loc 1 1737 28 is_stmt 0 view .LVU473
 1663 0198 2868     		ldr	r0, [r5]
 1664 019a B0F85030 		ldrh	r3, [r0, #80]
 1665 019e 95F82821 		ldrb	r2, [r5, #296]	@ zero_extendqisi2
 1666              	.LVL148:
1737:Drivers/STM32G4xx_HAL_Driver/Src/stm32g4xx_hal_pcd.c **** 
 1667              		.loc 1 1737 28 view .LVU474
 1668 01a2 D200     		lsls	r2, r2, #3
 1669 01a4 12FA83F3 		uxtah	r3, r2, r3
 1670 01a8 0344     		add	r3, r3, r0
 1671 01aa B3F80634 		ldrh	r3, [r3, #1030]
 1672 01ae C3F30903 		ubfx	r3, r3, #0, #10
1737:Drivers/STM32G4xx_HAL_Driver/Src/stm32g4xx_hal_pcd.c **** 
 1673              		.loc 1 1737 26 view .LVU475
 1674 01b2 C5F84431 		str	r3, [r5, #324]
1739:Drivers/STM32G4xx_HAL_Driver/Src/stm32g4xx_hal_pcd.c ****           {
 1675              		.loc 1 1739 11 is_stmt 1 view .LVU476
1739:Drivers/STM32G4xx_HAL_Driver/Src/stm32g4xx_hal_pcd.c ****           {
 1676              		.loc 1 1739 14 is_stmt 0 view .LVU477
 1677 01b6 8BB1     		cbz	r3, .L104
1739:Drivers/STM32G4xx_HAL_Driver/Src/stm32g4xx_hal_pcd.c ****           {
 1678              		.loc 1 1739 44 discriminator 1 view .LVU478
 1679 01b8 D5F83C11 		ldr	r1, [r5, #316]
1739:Drivers/STM32G4xx_HAL_Driver/Src/stm32g4xx_hal_pcd.c ****           {
 1680              		.loc 1 1739 38 discriminator 1 view .LVU479
 1681 01bc 71B1     		cbz	r1, .L104
1741:Drivers/STM32G4xx_HAL_Driver/Src/stm32g4xx_hal_pcd.c ****                         ep->pmaadress, (uint16_t)ep->xfer_count);
 1682              		.loc 1 1741 13 is_stmt 1 view .LVU480
 1683 01be B5F82E21 		ldrh	r2, [r5, #302]
 1684 01c2 FFF7FEFF 		bl	USB_ReadPMA
 1685              	.LVL149:
1744:Drivers/STM32G4xx_HAL_Driver/Src/stm32g4xx_hal_pcd.c **** 
 1686              		.loc 1 1744 13 view .LVU481
1744:Drivers/STM32G4xx_HAL_Driver/Src/stm32g4xx_hal_pcd.c **** 
 1687              		.loc 1 1744 32 is_stmt 0 view .LVU482
 1688 01c6 D5F84421 		ldr	r2, [r5, #324]
1744:Drivers/STM32G4xx_HAL_Driver/Src/stm32g4xx_hal_pcd.c **** 
 1689              		.loc 1 1744 27 view .LVU483
 1690 01ca D5F83C31 		ldr	r3, [r5, #316]
 1691 01ce 1344     		add	r3, r3, r2
 1692 01d0 C5F83C31 		str	r3, [r5, #316]
1750:Drivers/STM32G4xx_HAL_Driver/Src/stm32g4xx_hal_pcd.c **** #endif /* USE_HAL_PCD_REGISTER_CALLBACKS */
ARM GAS  /tmp/ccXi6E5C.s 			page 65


 1693              		.loc 1 1750 13 is_stmt 1 view .LVU484
 1694 01d4 0021     		movs	r1, #0
 1695 01d6 2846     		mov	r0, r5
 1696 01d8 FFF7FEFF 		bl	HAL_PCD_DataOutStageCallback
 1697              	.LVL150:
 1698              	.L104:
1754:Drivers/STM32G4xx_HAL_Driver/Src/stm32g4xx_hal_pcd.c ****           PCD_SET_EP_RX_STATUS(hpcd->Instance, PCD_ENDP0, USB_EP_RX_VALID);
 1699              		.loc 1 1754 11 view .LVU485
 1700              	.LBB9:
1754:Drivers/STM32G4xx_HAL_Driver/Src/stm32g4xx_hal_pcd.c ****           PCD_SET_EP_RX_STATUS(hpcd->Instance, PCD_ENDP0, USB_EP_RX_VALID);
 1701              		.loc 1 1754 11 view .LVU486
 1702 01dc 2B68     		ldr	r3, [r5]
 1703              	.LVL151:
1754:Drivers/STM32G4xx_HAL_Driver/Src/stm32g4xx_hal_pcd.c ****           PCD_SET_EP_RX_STATUS(hpcd->Instance, PCD_ENDP0, USB_EP_RX_VALID);
 1704              		.loc 1 1754 11 view .LVU487
1754:Drivers/STM32G4xx_HAL_Driver/Src/stm32g4xx_hal_pcd.c ****           PCD_SET_EP_RX_STATUS(hpcd->Instance, PCD_ENDP0, USB_EP_RX_VALID);
 1705              		.loc 1 1754 11 view .LVU488
 1706 01de B3F85020 		ldrh	r2, [r3, #80]
 1707 01e2 13FA82F3 		uxtah	r3, r3, r2
 1708              	.LVL152:
1754:Drivers/STM32G4xx_HAL_Driver/Src/stm32g4xx_hal_pcd.c ****           PCD_SET_EP_RX_STATUS(hpcd->Instance, PCD_ENDP0, USB_EP_RX_VALID);
