ARM GAS  /tmp/ccEoBVya.s 			page 1


   1              		.cpu cortex-m4
   2              		.eabi_attribute 27, 1
   3              		.eabi_attribute 28, 1
   4              		.eabi_attribute 20, 1
   5              		.eabi_attribute 21, 1
   6              		.eabi_attribute 23, 3
   7              		.eabi_attribute 24, 1
   8              		.eabi_attribute 25, 1
   9              		.eabi_attribute 26, 1
  10              		.eabi_attribute 30, 1
  11              		.eabi_attribute 34, 1
  12              		.eabi_attribute 18, 4
  13              		.file	"stm32g4xx_hal_dac_ex.c"
  14              		.text
  15              	.Ltext0:
  16              		.cfi_sections	.debug_frame
  17              		.section	.text.HAL_DACEx_DualStart,"ax",%progbits
  18              		.align	1
  19              		.global	HAL_DACEx_DualStart
  20              		.arch armv7e-m
  21              		.syntax unified
  22              		.thumb
  23              		.thumb_func
  24              		.fpu fpv4-sp-d16
  26              	HAL_DACEx_DualStart:
  27              	.LVL0:
  28              	.LFB162:
  29              		.file 1 "Drivers/STM32G4xx_HAL_Driver/Src/stm32g4xx_hal_dac_ex.c"
   1:Drivers/STM32G4xx_HAL_Driver/Src/stm32g4xx_hal_dac_ex.c **** /**
   2:Drivers/STM32G4xx_HAL_Driver/Src/stm32g4xx_hal_dac_ex.c ****   ******************************************************************************
   3:Drivers/STM32G4xx_HAL_Driver/Src/stm32g4xx_hal_dac_ex.c ****   * @file    stm32g4xx_hal_dac_ex.c
   4:Drivers/STM32G4xx_HAL_Driver/Src/stm32g4xx_hal_dac_ex.c ****   * @author  MCD Application Team
   5:Drivers/STM32G4xx_HAL_Driver/Src/stm32g4xx_hal_dac_ex.c ****   * @brief   DAC HAL module driver.
   6:Drivers/STM32G4xx_HAL_Driver/Src/stm32g4xx_hal_dac_ex.c ****   *          This file provides firmware functions to manage the extended
   7:Drivers/STM32G4xx_HAL_Driver/Src/stm32g4xx_hal_dac_ex.c ****   *          functionalities of the DAC peripheral.
   8:Drivers/STM32G4xx_HAL_Driver/Src/stm32g4xx_hal_dac_ex.c ****   *
   9:Drivers/STM32G4xx_HAL_Driver/Src/stm32g4xx_hal_dac_ex.c ****   *
  10:Drivers/STM32G4xx_HAL_Driver/Src/stm32g4xx_hal_dac_ex.c ****   @verbatim
  11:Drivers/STM32G4xx_HAL_Driver/Src/stm32g4xx_hal_dac_ex.c ****   ==============================================================================
  12:Drivers/STM32G4xx_HAL_Driver/Src/stm32g4xx_hal_dac_ex.c ****                       ##### How to use this driver #####
  13:Drivers/STM32G4xx_HAL_Driver/Src/stm32g4xx_hal_dac_ex.c ****   ==============================================================================
  14:Drivers/STM32G4xx_HAL_Driver/Src/stm32g4xx_hal_dac_ex.c ****     [..]
  15:Drivers/STM32G4xx_HAL_Driver/Src/stm32g4xx_hal_dac_ex.c ****      *** Dual mode IO operation ***
  16:Drivers/STM32G4xx_HAL_Driver/Src/stm32g4xx_hal_dac_ex.c ****      ==============================
  17:Drivers/STM32G4xx_HAL_Driver/Src/stm32g4xx_hal_dac_ex.c ****       (+) Use HAL_DACEx_DualStart() to enable both channel and start conversion
  18:Drivers/STM32G4xx_HAL_Driver/Src/stm32g4xx_hal_dac_ex.c ****           for dual mode operation.
  19:Drivers/STM32G4xx_HAL_Driver/Src/stm32g4xx_hal_dac_ex.c ****           If software trigger is selected, using HAL_DACEx_DualStart() will start
  20:Drivers/STM32G4xx_HAL_Driver/Src/stm32g4xx_hal_dac_ex.c ****           the conversion of the value previously set by HAL_DACEx_DualSetValue().
  21:Drivers/STM32G4xx_HAL_Driver/Src/stm32g4xx_hal_dac_ex.c ****       (+) Use HAL_DACEx_DualStop() to disable both channel and stop conversion
  22:Drivers/STM32G4xx_HAL_Driver/Src/stm32g4xx_hal_dac_ex.c ****           for dual mode operation.
  23:Drivers/STM32G4xx_HAL_Driver/Src/stm32g4xx_hal_dac_ex.c ****       (+) Use HAL_DACEx_DualStart_DMA() to enable both channel and start conversion
  24:Drivers/STM32G4xx_HAL_Driver/Src/stm32g4xx_hal_dac_ex.c ****           for dual mode operation using DMA to feed DAC converters.
  25:Drivers/STM32G4xx_HAL_Driver/Src/stm32g4xx_hal_dac_ex.c ****           First issued trigger will start the conversion of the value previously
  26:Drivers/STM32G4xx_HAL_Driver/Src/stm32g4xx_hal_dac_ex.c ****           set by HAL_DACEx_DualSetValue().
  27:Drivers/STM32G4xx_HAL_Driver/Src/stm32g4xx_hal_dac_ex.c ****           The same callbacks that are used in single mode are called in dual mode to notify
  28:Drivers/STM32G4xx_HAL_Driver/Src/stm32g4xx_hal_dac_ex.c ****           transfer completion (half complete or complete), errors or underrun.
  29:Drivers/STM32G4xx_HAL_Driver/Src/stm32g4xx_hal_dac_ex.c ****       (+) Use HAL_DACEx_DualStop_DMA() to disable both channel and stop conversion
ARM GAS  /tmp/ccEoBVya.s 			page 2


  30:Drivers/STM32G4xx_HAL_Driver/Src/stm32g4xx_hal_dac_ex.c ****           for dual mode operation using DMA to feed DAC converters.
  31:Drivers/STM32G4xx_HAL_Driver/Src/stm32g4xx_hal_dac_ex.c ****       (+) When Dual mode is enabled (i.e. DAC Channel1 and Channel2 are used simultaneously) :
  32:Drivers/STM32G4xx_HAL_Driver/Src/stm32g4xx_hal_dac_ex.c ****           Use HAL_DACEx_DualGetValue() to get digital data to be converted and use
  33:Drivers/STM32G4xx_HAL_Driver/Src/stm32g4xx_hal_dac_ex.c ****           HAL_DACEx_DualSetValue() to set digital value to converted simultaneously in
  34:Drivers/STM32G4xx_HAL_Driver/Src/stm32g4xx_hal_dac_ex.c ****           Channel 1 and Channel 2.
  35:Drivers/STM32G4xx_HAL_Driver/Src/stm32g4xx_hal_dac_ex.c **** 
  36:Drivers/STM32G4xx_HAL_Driver/Src/stm32g4xx_hal_dac_ex.c ****      *** Signal generation operation ***
  37:Drivers/STM32G4xx_HAL_Driver/Src/stm32g4xx_hal_dac_ex.c ****      ===================================
  38:Drivers/STM32G4xx_HAL_Driver/Src/stm32g4xx_hal_dac_ex.c ****       (+) Use HAL_DACEx_TriangleWaveGenerate() to generate Triangle signal.
  39:Drivers/STM32G4xx_HAL_Driver/Src/stm32g4xx_hal_dac_ex.c ****       (+) Use HAL_DACEx_NoiseWaveGenerate() to generate Noise signal.
  40:Drivers/STM32G4xx_HAL_Driver/Src/stm32g4xx_hal_dac_ex.c **** 
  41:Drivers/STM32G4xx_HAL_Driver/Src/stm32g4xx_hal_dac_ex.c ****       (+) Use HAL_DACEx_SawtoothWaveGenerate() to generate sawtooth signal.
  42:Drivers/STM32G4xx_HAL_Driver/Src/stm32g4xx_hal_dac_ex.c ****       (+) Use HAL_DACEx_SawtoothWaveDataReset() to reset sawtooth wave.
  43:Drivers/STM32G4xx_HAL_Driver/Src/stm32g4xx_hal_dac_ex.c ****       (+) Use HAL_DACEx_SawtoothWaveDataStep() to step sawtooth wave.
  44:Drivers/STM32G4xx_HAL_Driver/Src/stm32g4xx_hal_dac_ex.c **** 
  45:Drivers/STM32G4xx_HAL_Driver/Src/stm32g4xx_hal_dac_ex.c ****       (+) HAL_DACEx_SelfCalibrate to calibrate one DAC channel.
  46:Drivers/STM32G4xx_HAL_Driver/Src/stm32g4xx_hal_dac_ex.c ****       (+) HAL_DACEx_SetUserTrimming to set user trimming value.
  47:Drivers/STM32G4xx_HAL_Driver/Src/stm32g4xx_hal_dac_ex.c ****       (+) HAL_DACEx_GetTrimOffset to retrieve trimming value (factory setting
  48:Drivers/STM32G4xx_HAL_Driver/Src/stm32g4xx_hal_dac_ex.c ****           after reset, user setting if HAL_DACEx_SetUserTrimming have been used
  49:Drivers/STM32G4xx_HAL_Driver/Src/stm32g4xx_hal_dac_ex.c ****           at least one time after reset).
  50:Drivers/STM32G4xx_HAL_Driver/Src/stm32g4xx_hal_dac_ex.c **** 
  51:Drivers/STM32G4xx_HAL_Driver/Src/stm32g4xx_hal_dac_ex.c ****  @endverbatim
  52:Drivers/STM32G4xx_HAL_Driver/Src/stm32g4xx_hal_dac_ex.c ****   ******************************************************************************
  53:Drivers/STM32G4xx_HAL_Driver/Src/stm32g4xx_hal_dac_ex.c ****   * @attention
  54:Drivers/STM32G4xx_HAL_Driver/Src/stm32g4xx_hal_dac_ex.c ****   *
  55:Drivers/STM32G4xx_HAL_Driver/Src/stm32g4xx_hal_dac_ex.c ****   * <h2><center>&copy; Copyright (c) 2019 STMicroelectronics.
  56:Drivers/STM32G4xx_HAL_Driver/Src/stm32g4xx_hal_dac_ex.c ****   * All rights reserved.</center></h2>
  57:Drivers/STM32G4xx_HAL_Driver/Src/stm32g4xx_hal_dac_ex.c ****   *
  58:Drivers/STM32G4xx_HAL_Driver/Src/stm32g4xx_hal_dac_ex.c ****   * This software component is licensed by ST under BSD 3-Clause license,
  59:Drivers/STM32G4xx_HAL_Driver/Src/stm32g4xx_hal_dac_ex.c ****   * the "License"; You may not use this file except in compliance with the
  60:Drivers/STM32G4xx_HAL_Driver/Src/stm32g4xx_hal_dac_ex.c ****   * License. You may obtain a copy of the License at:
  61:Drivers/STM32G4xx_HAL_Driver/Src/stm32g4xx_hal_dac_ex.c ****   *                        opensource.org/licenses/BSD-3-Clause
  62:Drivers/STM32G4xx_HAL_Driver/Src/stm32g4xx_hal_dac_ex.c ****   *
  63:Drivers/STM32G4xx_HAL_Driver/Src/stm32g4xx_hal_dac_ex.c ****   ******************************************************************************
  64:Drivers/STM32G4xx_HAL_Driver/Src/stm32g4xx_hal_dac_ex.c ****   */
  65:Drivers/STM32G4xx_HAL_Driver/Src/stm32g4xx_hal_dac_ex.c **** 
  66:Drivers/STM32G4xx_HAL_Driver/Src/stm32g4xx_hal_dac_ex.c **** 
  67:Drivers/STM32G4xx_HAL_Driver/Src/stm32g4xx_hal_dac_ex.c **** /* Includes ------------------------------------------------------------------*/
  68:Drivers/STM32G4xx_HAL_Driver/Src/stm32g4xx_hal_dac_ex.c **** #include "stm32g4xx_hal.h"
  69:Drivers/STM32G4xx_HAL_Driver/Src/stm32g4xx_hal_dac_ex.c **** 
  70:Drivers/STM32G4xx_HAL_Driver/Src/stm32g4xx_hal_dac_ex.c **** /** @addtogroup STM32G4xx_HAL_Driver
  71:Drivers/STM32G4xx_HAL_Driver/Src/stm32g4xx_hal_dac_ex.c ****   * @{
  72:Drivers/STM32G4xx_HAL_Driver/Src/stm32g4xx_hal_dac_ex.c ****   */
  73:Drivers/STM32G4xx_HAL_Driver/Src/stm32g4xx_hal_dac_ex.c **** 
  74:Drivers/STM32G4xx_HAL_Driver/Src/stm32g4xx_hal_dac_ex.c **** #ifdef HAL_DAC_MODULE_ENABLED
  75:Drivers/STM32G4xx_HAL_Driver/Src/stm32g4xx_hal_dac_ex.c **** 
  76:Drivers/STM32G4xx_HAL_Driver/Src/stm32g4xx_hal_dac_ex.c **** #if defined(DAC1) || defined(DAC2) || defined(DAC3) ||defined (DAC4)
  77:Drivers/STM32G4xx_HAL_Driver/Src/stm32g4xx_hal_dac_ex.c **** 
  78:Drivers/STM32G4xx_HAL_Driver/Src/stm32g4xx_hal_dac_ex.c **** /** @defgroup DACEx DACEx
  79:Drivers/STM32G4xx_HAL_Driver/Src/stm32g4xx_hal_dac_ex.c ****   * @brief DAC Extended HAL module driver
  80:Drivers/STM32G4xx_HAL_Driver/Src/stm32g4xx_hal_dac_ex.c ****   * @{
  81:Drivers/STM32G4xx_HAL_Driver/Src/stm32g4xx_hal_dac_ex.c ****   */
  82:Drivers/STM32G4xx_HAL_Driver/Src/stm32g4xx_hal_dac_ex.c **** 
  83:Drivers/STM32G4xx_HAL_Driver/Src/stm32g4xx_hal_dac_ex.c **** /* Private typedef -----------------------------------------------------------*/
  84:Drivers/STM32G4xx_HAL_Driver/Src/stm32g4xx_hal_dac_ex.c **** /* Private define ------------------------------------------------------------*/
  85:Drivers/STM32G4xx_HAL_Driver/Src/stm32g4xx_hal_dac_ex.c **** /* Private macro -------------------------------------------------------------*/
  86:Drivers/STM32G4xx_HAL_Driver/Src/stm32g4xx_hal_dac_ex.c **** /* Private variables ---------------------------------------------------------*/
ARM GAS  /tmp/ccEoBVya.s 			page 3


  87:Drivers/STM32G4xx_HAL_Driver/Src/stm32g4xx_hal_dac_ex.c **** /* Private function prototypes -----------------------------------------------*/
  88:Drivers/STM32G4xx_HAL_Driver/Src/stm32g4xx_hal_dac_ex.c **** /* Exported functions --------------------------------------------------------*/
  89:Drivers/STM32G4xx_HAL_Driver/Src/stm32g4xx_hal_dac_ex.c **** 
  90:Drivers/STM32G4xx_HAL_Driver/Src/stm32g4xx_hal_dac_ex.c **** /** @defgroup DACEx_Exported_Functions DACEx Exported Functions
  91:Drivers/STM32G4xx_HAL_Driver/Src/stm32g4xx_hal_dac_ex.c ****   * @{
  92:Drivers/STM32G4xx_HAL_Driver/Src/stm32g4xx_hal_dac_ex.c ****   */
  93:Drivers/STM32G4xx_HAL_Driver/Src/stm32g4xx_hal_dac_ex.c **** 
  94:Drivers/STM32G4xx_HAL_Driver/Src/stm32g4xx_hal_dac_ex.c **** /** @defgroup DACEx_Exported_Functions_Group2 IO operation functions
  95:Drivers/STM32G4xx_HAL_Driver/Src/stm32g4xx_hal_dac_ex.c ****   *  @brief    Extended IO operation functions
  96:Drivers/STM32G4xx_HAL_Driver/Src/stm32g4xx_hal_dac_ex.c ****   *
  97:Drivers/STM32G4xx_HAL_Driver/Src/stm32g4xx_hal_dac_ex.c **** @verbatim
  98:Drivers/STM32G4xx_HAL_Driver/Src/stm32g4xx_hal_dac_ex.c ****   ==============================================================================
  99:Drivers/STM32G4xx_HAL_Driver/Src/stm32g4xx_hal_dac_ex.c ****                  ##### Extended features functions #####
 100:Drivers/STM32G4xx_HAL_Driver/Src/stm32g4xx_hal_dac_ex.c ****   ==============================================================================
 101:Drivers/STM32G4xx_HAL_Driver/Src/stm32g4xx_hal_dac_ex.c ****     [..]  This section provides functions allowing to:
 102:Drivers/STM32G4xx_HAL_Driver/Src/stm32g4xx_hal_dac_ex.c ****       (+) Start conversion.
 103:Drivers/STM32G4xx_HAL_Driver/Src/stm32g4xx_hal_dac_ex.c ****       (+) Stop conversion.
 104:Drivers/STM32G4xx_HAL_Driver/Src/stm32g4xx_hal_dac_ex.c ****       (+) Start conversion and enable DMA transfer.
 105:Drivers/STM32G4xx_HAL_Driver/Src/stm32g4xx_hal_dac_ex.c ****       (+) Stop conversion and disable DMA transfer.
 106:Drivers/STM32G4xx_HAL_Driver/Src/stm32g4xx_hal_dac_ex.c ****       (+) Get result of conversion.
 107:Drivers/STM32G4xx_HAL_Driver/Src/stm32g4xx_hal_dac_ex.c ****       (+) Get result of dual mode conversion.
 108:Drivers/STM32G4xx_HAL_Driver/Src/stm32g4xx_hal_dac_ex.c **** 
 109:Drivers/STM32G4xx_HAL_Driver/Src/stm32g4xx_hal_dac_ex.c **** @endverbatim
 110:Drivers/STM32G4xx_HAL_Driver/Src/stm32g4xx_hal_dac_ex.c ****   * @{
 111:Drivers/STM32G4xx_HAL_Driver/Src/stm32g4xx_hal_dac_ex.c ****   */
 112:Drivers/STM32G4xx_HAL_Driver/Src/stm32g4xx_hal_dac_ex.c **** 
 113:Drivers/STM32G4xx_HAL_Driver/Src/stm32g4xx_hal_dac_ex.c **** /**
 114:Drivers/STM32G4xx_HAL_Driver/Src/stm32g4xx_hal_dac_ex.c ****   * @brief  Enables DAC and starts conversion of both channels.
 115:Drivers/STM32G4xx_HAL_Driver/Src/stm32g4xx_hal_dac_ex.c ****   * @param  hdac pointer to a DAC_HandleTypeDef structure that contains
 116:Drivers/STM32G4xx_HAL_Driver/Src/stm32g4xx_hal_dac_ex.c ****   *         the configuration information for the specified DAC.
 117:Drivers/STM32G4xx_HAL_Driver/Src/stm32g4xx_hal_dac_ex.c ****   * @retval HAL status
 118:Drivers/STM32G4xx_HAL_Driver/Src/stm32g4xx_hal_dac_ex.c ****   */
 119:Drivers/STM32G4xx_HAL_Driver/Src/stm32g4xx_hal_dac_ex.c **** HAL_StatusTypeDef HAL_DACEx_DualStart(DAC_HandleTypeDef *hdac)
 120:Drivers/STM32G4xx_HAL_Driver/Src/stm32g4xx_hal_dac_ex.c **** {
  30              		.loc 1 120 1 view -0
  31              		.cfi_startproc
  32              		@ args = 0, pretend = 0, frame = 0
  33              		@ frame_needed = 0, uses_anonymous_args = 0
 121:Drivers/STM32G4xx_HAL_Driver/Src/stm32g4xx_hal_dac_ex.c ****   uint32_t tmp_swtrig = 0UL;
  34              		.loc 1 121 3 view .LVU1
 122:Drivers/STM32G4xx_HAL_Driver/Src/stm32g4xx_hal_dac_ex.c **** 
 123:Drivers/STM32G4xx_HAL_Driver/Src/stm32g4xx_hal_dac_ex.c ****   /* Check the parameters */
 124:Drivers/STM32G4xx_HAL_Driver/Src/stm32g4xx_hal_dac_ex.c ****   assert_param(IS_DAC_CHANNEL(hdac->Instance, DAC_CHANNEL_2));
  35              		.loc 1 124 3 view .LVU2
 125:Drivers/STM32G4xx_HAL_Driver/Src/stm32g4xx_hal_dac_ex.c **** 
 126:Drivers/STM32G4xx_HAL_Driver/Src/stm32g4xx_hal_dac_ex.c ****   /* Process locked */
 127:Drivers/STM32G4xx_HAL_Driver/Src/stm32g4xx_hal_dac_ex.c ****   __HAL_LOCK(hdac);
  36              		.loc 1 127 3 view .LVU3
  37              		.loc 1 127 3 view .LVU4
  38 0000 4379     		ldrb	r3, [r0, #5]	@ zero_extendqisi2
  39 0002 012B     		cmp	r3, #1
  40 0004 2AD0     		beq	.L5
 120:Drivers/STM32G4xx_HAL_Driver/Src/stm32g4xx_hal_dac_ex.c ****   uint32_t tmp_swtrig = 0UL;
  41              		.loc 1 120 1 is_stmt 0 discriminator 2 view .LVU5
  42 0006 10B5     		push	{r4, lr}
  43              	.LCFI0:
  44              		.cfi_def_cfa_offset 8
ARM GAS  /tmp/ccEoBVya.s 			page 4


  45              		.cfi_offset 4, -8
  46              		.cfi_offset 14, -4
  47 0008 0446     		mov	r4, r0
  48              		.loc 1 127 3 is_stmt 1 discriminator 2 view .LVU6
  49 000a 0120     		movs	r0, #1
  50              	.LVL1:
  51              		.loc 1 127 3 is_stmt 0 discriminator 2 view .LVU7
  52 000c 6071     		strb	r0, [r4, #5]
  53              		.loc 1 127 3 is_stmt 1 discriminator 2 view .LVU8
 128:Drivers/STM32G4xx_HAL_Driver/Src/stm32g4xx_hal_dac_ex.c **** 
 129:Drivers/STM32G4xx_HAL_Driver/Src/stm32g4xx_hal_dac_ex.c ****   /* Change DAC state */
 130:Drivers/STM32G4xx_HAL_Driver/Src/stm32g4xx_hal_dac_ex.c ****   hdac->State = HAL_DAC_STATE_BUSY;
  54              		.loc 1 130 3 discriminator 2 view .LVU9
  55              		.loc 1 130 15 is_stmt 0 discriminator 2 view .LVU10
  56 000e 0223     		movs	r3, #2
  57 0010 2371     		strb	r3, [r4, #4]
 131:Drivers/STM32G4xx_HAL_Driver/Src/stm32g4xx_hal_dac_ex.c **** 
 132:Drivers/STM32G4xx_HAL_Driver/Src/stm32g4xx_hal_dac_ex.c ****   /* Enable the Peripheral */
 133:Drivers/STM32G4xx_HAL_Driver/Src/stm32g4xx_hal_dac_ex.c ****   __HAL_DAC_ENABLE(hdac, DAC_CHANNEL_1);
  58              		.loc 1 133 3 is_stmt 1 discriminator 2 view .LVU11
  59 0012 2268     		ldr	r2, [r4]
  60 0014 1368     		ldr	r3, [r2]
  61 0016 0343     		orrs	r3, r3, r0
  62 0018 1360     		str	r3, [r2]
 134:Drivers/STM32G4xx_HAL_Driver/Src/stm32g4xx_hal_dac_ex.c ****   __HAL_DAC_ENABLE(hdac, DAC_CHANNEL_2);
  63              		.loc 1 134 3 discriminator 2 view .LVU12
  64 001a 2268     		ldr	r2, [r4]
  65 001c 1368     		ldr	r3, [r2]
  66 001e 43F48033 		orr	r3, r3, #65536
  67 0022 1360     		str	r3, [r2]
 135:Drivers/STM32G4xx_HAL_Driver/Src/stm32g4xx_hal_dac_ex.c ****   /* Ensure minimum wait before using peripheral after enabling it */
 136:Drivers/STM32G4xx_HAL_Driver/Src/stm32g4xx_hal_dac_ex.c ****   HAL_Delay(1);
  68              		.loc 1 136 3 discriminator 2 view .LVU13
  69 0024 FFF7FEFF 		bl	HAL_Delay
  70              	.LVL2:
 137:Drivers/STM32G4xx_HAL_Driver/Src/stm32g4xx_hal_dac_ex.c **** 
 138:Drivers/STM32G4xx_HAL_Driver/Src/stm32g4xx_hal_dac_ex.c ****   /* Check if software trigger enabled */
 139:Drivers/STM32G4xx_HAL_Driver/Src/stm32g4xx_hal_dac_ex.c ****   if ((hdac->Instance->CR & (DAC_CR_TEN1 | DAC_CR_TSEL1)) == DAC_CR_TEN1)
  71              		.loc 1 139 3 discriminator 2 view .LVU14
  72              		.loc 1 139 12 is_stmt 0 discriminator 2 view .LVU15
  73 0028 2368     		ldr	r3, [r4]
  74              		.loc 1 139 22 discriminator 2 view .LVU16
  75 002a 1A68     		ldr	r2, [r3]
  76              		.loc 1 139 27 discriminator 2 view .LVU17
  77 002c 02F03E02 		and	r2, r2, #62
  78              		.loc 1 139 6 discriminator 2 view .LVU18
  79 0030 022A     		cmp	r2, #2
  80 0032 0ED0     		beq	.L6
 121:Drivers/STM32G4xx_HAL_Driver/Src/stm32g4xx_hal_dac_ex.c **** 
  81              		.loc 1 121 12 view .LVU19
  82 0034 0020     		movs	r0, #0
  83              	.L3:
  84              	.LVL3:
 140:Drivers/STM32G4xx_HAL_Driver/Src/stm32g4xx_hal_dac_ex.c ****   {
 141:Drivers/STM32G4xx_HAL_Driver/Src/stm32g4xx_hal_dac_ex.c ****     tmp_swtrig |= DAC_SWTRIGR_SWTRIG1;
 142:Drivers/STM32G4xx_HAL_Driver/Src/stm32g4xx_hal_dac_ex.c ****   }
 143:Drivers/STM32G4xx_HAL_Driver/Src/stm32g4xx_hal_dac_ex.c ****   if ((hdac->Instance->CR & (DAC_CR_TEN2 | DAC_CR_TSEL2)) == DAC_CR_TEN2)
ARM GAS  /tmp/ccEoBVya.s 			page 5


  85              		.loc 1 143 3 is_stmt 1 view .LVU20
  86              		.loc 1 143 22 is_stmt 0 view .LVU21
  87 0036 1968     		ldr	r1, [r3]
  88              		.loc 1 143 27 view .LVU22
  89 0038 01F47811 		and	r1, r1, #4063232
  90              		.loc 1 143 6 view .LVU23
  91 003c B1F5003F 		cmp	r1, #131072
  92 0040 09D0     		beq	.L11
  93              	.L4:
 144:Drivers/STM32G4xx_HAL_Driver/Src/stm32g4xx_hal_dac_ex.c ****   {
 145:Drivers/STM32G4xx_HAL_Driver/Src/stm32g4xx_hal_dac_ex.c ****     tmp_swtrig |= DAC_SWTRIGR_SWTRIG2;
 146:Drivers/STM32G4xx_HAL_Driver/Src/stm32g4xx_hal_dac_ex.c ****   }
 147:Drivers/STM32G4xx_HAL_Driver/Src/stm32g4xx_hal_dac_ex.c ****   /* Enable the selected DAC software conversion*/
 148:Drivers/STM32G4xx_HAL_Driver/Src/stm32g4xx_hal_dac_ex.c ****   SET_BIT(hdac->Instance->SWTRIGR, tmp_swtrig);
  94              		.loc 1 148 3 is_stmt 1 view .LVU24
  95 0042 5A68     		ldr	r2, [r3, #4]
  96 0044 0243     		orrs	r2, r2, r0
  97 0046 5A60     		str	r2, [r3, #4]
 149:Drivers/STM32G4xx_HAL_Driver/Src/stm32g4xx_hal_dac_ex.c **** 
 150:Drivers/STM32G4xx_HAL_Driver/Src/stm32g4xx_hal_dac_ex.c ****   /* Change DAC state */
 151:Drivers/STM32G4xx_HAL_Driver/Src/stm32g4xx_hal_dac_ex.c ****   hdac->State = HAL_DAC_STATE_READY;
  98              		.loc 1 151 3 view .LVU25
  99              		.loc 1 151 15 is_stmt 0 view .LVU26
 100 0048 0123     		movs	r3, #1
 101 004a 2371     		strb	r3, [r4, #4]
 152:Drivers/STM32G4xx_HAL_Driver/Src/stm32g4xx_hal_dac_ex.c **** 
 153:Drivers/STM32G4xx_HAL_Driver/Src/stm32g4xx_hal_dac_ex.c ****   /* Process unlocked */
 154:Drivers/STM32G4xx_HAL_Driver/Src/stm32g4xx_hal_dac_ex.c ****   __HAL_UNLOCK(hdac);
 102              		.loc 1 154 3 is_stmt 1 view .LVU27
 103              		.loc 1 154 3 view .LVU28
 104 004c 0020     		movs	r0, #0
 105              	.LVL4:
 106              		.loc 1 154 3 is_stmt 0 view .LVU29
 107 004e 6071     		strb	r0, [r4, #5]
 108              		.loc 1 154 3 is_stmt 1 view .LVU30
 155:Drivers/STM32G4xx_HAL_Driver/Src/stm32g4xx_hal_dac_ex.c **** 
 156:Drivers/STM32G4xx_HAL_Driver/Src/stm32g4xx_hal_dac_ex.c ****   /* Return function status */
 157:Drivers/STM32G4xx_HAL_Driver/Src/stm32g4xx_hal_dac_ex.c ****   return HAL_OK;
 109              		.loc 1 157 3 view .LVU31
 158:Drivers/STM32G4xx_HAL_Driver/Src/stm32g4xx_hal_dac_ex.c **** }
 110              		.loc 1 158 1 is_stmt 0 view .LVU32
 111 0050 10BD     		pop	{r4, pc}
 112              	.LVL5:
 113              	.L6:
 141:Drivers/STM32G4xx_HAL_Driver/Src/stm32g4xx_hal_dac_ex.c ****   }
 114              		.loc 1 141 16 view .LVU33
 115 0052 0120     		movs	r0, #1
 116 0054 EFE7     		b	.L3
 117              	.LVL6:
 118              	.L11:
 145:Drivers/STM32G4xx_HAL_Driver/Src/stm32g4xx_hal_dac_ex.c ****   }
 119              		.loc 1 145 5 is_stmt 1 view .LVU34
 145:Drivers/STM32G4xx_HAL_Driver/Src/stm32g4xx_hal_dac_ex.c ****   }
 120              		.loc 1 145 16 is_stmt 0 view .LVU35
 121 0056 40F00200 		orr	r0, r0, #2
 122              	.LVL7:
 145:Drivers/STM32G4xx_HAL_Driver/Src/stm32g4xx_hal_dac_ex.c ****   }
ARM GAS  /tmp/ccEoBVya.s 			page 6


 123              		.loc 1 145 16 view .LVU36
 124 005a F2E7     		b	.L4
 125              	.LVL8:
 126              	.L5:
 127              	.LCFI1:
 128              		.cfi_def_cfa_offset 0
 129              		.cfi_restore 4
 130              		.cfi_restore 14
 127:Drivers/STM32G4xx_HAL_Driver/Src/stm32g4xx_hal_dac_ex.c **** 
 131              		.loc 1 127 3 view .LVU37
 132 005c 0220     		movs	r0, #2
 133              	.LVL9:
 134              		.loc 1 158 1 view .LVU38
 135 005e 7047     		bx	lr
 136              		.cfi_endproc
 137              	.LFE162:
 139              		.section	.text.HAL_DACEx_DualStop,"ax",%progbits
 140              		.align	1
 141              		.global	HAL_DACEx_DualStop
 142              		.syntax unified
 143              		.thumb
 144              		.thumb_func
 145              		.fpu fpv4-sp-d16
 147              	HAL_DACEx_DualStop:
 148              	.LVL10:
 149              	.LFB163:
 159:Drivers/STM32G4xx_HAL_Driver/Src/stm32g4xx_hal_dac_ex.c **** 
 160:Drivers/STM32G4xx_HAL_Driver/Src/stm32g4xx_hal_dac_ex.c **** /**
 161:Drivers/STM32G4xx_HAL_Driver/Src/stm32g4xx_hal_dac_ex.c ****   * @brief  Disables DAC and stop conversion of both channels.
 162:Drivers/STM32G4xx_HAL_Driver/Src/stm32g4xx_hal_dac_ex.c ****   * @param  hdac pointer to a DAC_HandleTypeDef structure that contains
 163:Drivers/STM32G4xx_HAL_Driver/Src/stm32g4xx_hal_dac_ex.c ****   *         the configuration information for the specified DAC.
 164:Drivers/STM32G4xx_HAL_Driver/Src/stm32g4xx_hal_dac_ex.c ****   * @retval HAL status
 165:Drivers/STM32G4xx_HAL_Driver/Src/stm32g4xx_hal_dac_ex.c ****   */
 166:Drivers/STM32G4xx_HAL_Driver/Src/stm32g4xx_hal_dac_ex.c **** HAL_StatusTypeDef HAL_DACEx_DualStop(DAC_HandleTypeDef *hdac)
 167:Drivers/STM32G4xx_HAL_Driver/Src/stm32g4xx_hal_dac_ex.c **** {
 150              		.loc 1 167 1 is_stmt 1 view -0
 151              		.cfi_startproc
 152              		@ args = 0, pretend = 0, frame = 0
 153              		@ frame_needed = 0, uses_anonymous_args = 0
 154              		.loc 1 167 1 is_stmt 0 view .LVU40
 155 0000 10B5     		push	{r4, lr}
 156              	.LCFI2:
 157              		.cfi_def_cfa_offset 8
 158              		.cfi_offset 4, -8
 159              		.cfi_offset 14, -4
 160 0002 0446     		mov	r4, r0
 168:Drivers/STM32G4xx_HAL_Driver/Src/stm32g4xx_hal_dac_ex.c ****   /* Check the parameters */
 169:Drivers/STM32G4xx_HAL_Driver/Src/stm32g4xx_hal_dac_ex.c ****   assert_param(IS_DAC_CHANNEL(hdac->Instance, DAC_CHANNEL_2));
 161              		.loc 1 169 3 is_stmt 1 view .LVU41
 170:Drivers/STM32G4xx_HAL_Driver/Src/stm32g4xx_hal_dac_ex.c **** 
 171:Drivers/STM32G4xx_HAL_Driver/Src/stm32g4xx_hal_dac_ex.c ****   /* Disable the Peripheral */
 172:Drivers/STM32G4xx_HAL_Driver/Src/stm32g4xx_hal_dac_ex.c ****   __HAL_DAC_DISABLE(hdac, DAC_CHANNEL_1);
 162              		.loc 1 172 3 view .LVU42
 163 0004 0268     		ldr	r2, [r0]
 164 0006 1368     		ldr	r3, [r2]
 165 0008 23F00103 		bic	r3, r3, #1
 166 000c 1360     		str	r3, [r2]
ARM GAS  /tmp/ccEoBVya.s 			page 7


 173:Drivers/STM32G4xx_HAL_Driver/Src/stm32g4xx_hal_dac_ex.c ****   __HAL_DAC_DISABLE(hdac, DAC_CHANNEL_2);
 167              		.loc 1 173 3 view .LVU43
 168 000e 0268     		ldr	r2, [r0]
 169 0010 1368     		ldr	r3, [r2]
 170 0012 23F48033 		bic	r3, r3, #65536
 171 0016 1360     		str	r3, [r2]
 174:Drivers/STM32G4xx_HAL_Driver/Src/stm32g4xx_hal_dac_ex.c ****   /* Ensure minimum wait before enabling peripheral after disabling it */
 175:Drivers/STM32G4xx_HAL_Driver/Src/stm32g4xx_hal_dac_ex.c ****   HAL_Delay(1);
 172              		.loc 1 175 3 view .LVU44
 173 0018 0120     		movs	r0, #1
 174              	.LVL11:
 175              		.loc 1 175 3 is_stmt 0 view .LVU45
 176 001a FFF7FEFF 		bl	HAL_Delay
 177              	.LVL12:
 176:Drivers/STM32G4xx_HAL_Driver/Src/stm32g4xx_hal_dac_ex.c **** 
 177:Drivers/STM32G4xx_HAL_Driver/Src/stm32g4xx_hal_dac_ex.c ****   /* Change DAC state */
 178:Drivers/STM32G4xx_HAL_Driver/Src/stm32g4xx_hal_dac_ex.c ****   hdac->State = HAL_DAC_STATE_READY;
 178              		.loc 1 178 3 is_stmt 1 view .LVU46
 179              		.loc 1 178 15 is_stmt 0 view .LVU47
 180 001e 0123     		movs	r3, #1
 181 0020 2371     		strb	r3, [r4, #4]
 179:Drivers/STM32G4xx_HAL_Driver/Src/stm32g4xx_hal_dac_ex.c **** 
 180:Drivers/STM32G4xx_HAL_Driver/Src/stm32g4xx_hal_dac_ex.c ****   /* Return function status */
 181:Drivers/STM32G4xx_HAL_Driver/Src/stm32g4xx_hal_dac_ex.c ****   return HAL_OK;
 182              		.loc 1 181 3 is_stmt 1 view .LVU48
 182:Drivers/STM32G4xx_HAL_Driver/Src/stm32g4xx_hal_dac_ex.c **** }
 183              		.loc 1 182 1 is_stmt 0 view .LVU49
 184 0022 0020     		movs	r0, #0
 185 0024 10BD     		pop	{r4, pc}
 186              		.loc 1 182 1 view .LVU50
 187              		.cfi_endproc
 188              	.LFE163:
 190              		.section	.text.HAL_DACEx_DualStart_DMA,"ax",%progbits
 191              		.align	1
 192              		.global	HAL_DACEx_DualStart_DMA
 193              		.syntax unified
 194              		.thumb
 195              		.thumb_func
 196              		.fpu fpv4-sp-d16
 198              	HAL_DACEx_DualStart_DMA:
 199              	.LVL13:
 200              	.LFB164:
 183:Drivers/STM32G4xx_HAL_Driver/Src/stm32g4xx_hal_dac_ex.c **** 
 184:Drivers/STM32G4xx_HAL_Driver/Src/stm32g4xx_hal_dac_ex.c **** /**
 185:Drivers/STM32G4xx_HAL_Driver/Src/stm32g4xx_hal_dac_ex.c ****   * @brief  Enables DAC and starts conversion of both channel 1 and 2 of the same DAC.
 186:Drivers/STM32G4xx_HAL_Driver/Src/stm32g4xx_hal_dac_ex.c ****   * @param  hdac pointer to a DAC_HandleTypeDef structure that contains
 187:Drivers/STM32G4xx_HAL_Driver/Src/stm32g4xx_hal_dac_ex.c ****   *         the configuration information for the specified DAC.
 188:Drivers/STM32G4xx_HAL_Driver/Src/stm32g4xx_hal_dac_ex.c ****   * @param  Channel The DAC channel that will request data from DMA.
 189:Drivers/STM32G4xx_HAL_Driver/Src/stm32g4xx_hal_dac_ex.c ****   *          This parameter can be one of the following values:
 190:Drivers/STM32G4xx_HAL_Driver/Src/stm32g4xx_hal_dac_ex.c ****   *            @arg DAC_CHANNEL_1: DAC Channel1 selected
 191:Drivers/STM32G4xx_HAL_Driver/Src/stm32g4xx_hal_dac_ex.c ****   *            @arg DAC_CHANNEL_2: DAC Channel2 selected
 192:Drivers/STM32G4xx_HAL_Driver/Src/stm32g4xx_hal_dac_ex.c ****   * @param  pData The destination peripheral Buffer address.
 193:Drivers/STM32G4xx_HAL_Driver/Src/stm32g4xx_hal_dac_ex.c ****   * @param  Length The length of data to be transferred from memory to DAC peripheral
 194:Drivers/STM32G4xx_HAL_Driver/Src/stm32g4xx_hal_dac_ex.c ****   * @param  Alignment Specifies the data alignment for DAC channel.
 195:Drivers/STM32G4xx_HAL_Driver/Src/stm32g4xx_hal_dac_ex.c ****   *          This parameter can be one of the following values:
 196:Drivers/STM32G4xx_HAL_Driver/Src/stm32g4xx_hal_dac_ex.c ****   *            @arg DAC_ALIGN_8B_R: 8bit right data alignment selected
 197:Drivers/STM32G4xx_HAL_Driver/Src/stm32g4xx_hal_dac_ex.c ****   *            @arg DAC_ALIGN_12B_L: 12bit left data alignment selected
ARM GAS  /tmp/ccEoBVya.s 			page 8


 198:Drivers/STM32G4xx_HAL_Driver/Src/stm32g4xx_hal_dac_ex.c ****   *            @arg DAC_ALIGN_12B_R: 12bit right data alignment selected
 199:Drivers/STM32G4xx_HAL_Driver/Src/stm32g4xx_hal_dac_ex.c ****   * @retval HAL status
 200:Drivers/STM32G4xx_HAL_Driver/Src/stm32g4xx_hal_dac_ex.c ****   */
 201:Drivers/STM32G4xx_HAL_Driver/Src/stm32g4xx_hal_dac_ex.c **** HAL_StatusTypeDef HAL_DACEx_DualStart_DMA(DAC_HandleTypeDef *hdac, uint32_t Channel, uint32_t *pDat
 202:Drivers/STM32G4xx_HAL_Driver/Src/stm32g4xx_hal_dac_ex.c ****                                           uint32_t Alignment)
 203:Drivers/STM32G4xx_HAL_Driver/Src/stm32g4xx_hal_dac_ex.c **** {
 201              		.loc 1 203 1 is_stmt 1 view -0
 202              		.cfi_startproc
 203              		@ args = 4, pretend = 0, frame = 0
 204              		@ frame_needed = 0, uses_anonymous_args = 0
 205              		.loc 1 203 1 is_stmt 0 view .LVU52
 206 0000 70B5     		push	{r4, r5, r6, lr}
 207              	.LCFI3:
 208              		.cfi_def_cfa_offset 16
 209              		.cfi_offset 4, -16
 210              		.cfi_offset 5, -12
 211              		.cfi_offset 6, -8
 212              		.cfi_offset 14, -4
 213 0002 0446     		mov	r4, r0
 214 0004 049D     		ldr	r5, [sp, #16]
 204:Drivers/STM32G4xx_HAL_Driver/Src/stm32g4xx_hal_dac_ex.c ****   HAL_StatusTypeDef status;
 215              		.loc 1 204 3 is_stmt 1 view .LVU53
 205:Drivers/STM32G4xx_HAL_Driver/Src/stm32g4xx_hal_dac_ex.c ****   uint32_t tmpreg = 0U;
 216              		.loc 1 205 3 view .LVU54
 217              	.LVL14:
 206:Drivers/STM32G4xx_HAL_Driver/Src/stm32g4xx_hal_dac_ex.c **** 
 207:Drivers/STM32G4xx_HAL_Driver/Src/stm32g4xx_hal_dac_ex.c ****   /* Check the parameters */
 208:Drivers/STM32G4xx_HAL_Driver/Src/stm32g4xx_hal_dac_ex.c ****   assert_param(IS_DAC_CHANNEL(hdac->Instance, Channel));
 218              		.loc 1 208 3 view .LVU55
 209:Drivers/STM32G4xx_HAL_Driver/Src/stm32g4xx_hal_dac_ex.c ****   /* Ensure Channel 2 exists for this particular DAC instance */
 210:Drivers/STM32G4xx_HAL_Driver/Src/stm32g4xx_hal_dac_ex.c ****   assert_param(IS_DAC_CHANNEL(hdac->Instance, DAC_CHANNEL_2));
 219              		.loc 1 210 3 view .LVU56
 211:Drivers/STM32G4xx_HAL_Driver/Src/stm32g4xx_hal_dac_ex.c ****   assert_param(IS_DAC_ALIGN(Alignment));
 220              		.loc 1 211 3 view .LVU57
 212:Drivers/STM32G4xx_HAL_Driver/Src/stm32g4xx_hal_dac_ex.c **** 
 213:Drivers/STM32G4xx_HAL_Driver/Src/stm32g4xx_hal_dac_ex.c ****   /* Process locked */
 214:Drivers/STM32G4xx_HAL_Driver/Src/stm32g4xx_hal_dac_ex.c ****   __HAL_LOCK(hdac);
 221              		.loc 1 214 3 view .LVU58
 222              		.loc 1 214 3 view .LVU59
 223 0006 4679     		ldrb	r6, [r0, #5]	@ zero_extendqisi2
 224 0008 012E     		cmp	r6, #1
 225 000a 61D0     		beq	.L24
 226 000c 0846     		mov	r0, r1
 227              	.LVL15:
 228              		.loc 1 214 3 is_stmt 0 view .LVU60
 229 000e 1146     		mov	r1, r2
 230              	.LVL16:
 231              		.loc 1 214 3 is_stmt 1 discriminator 2 view .LVU61
 232 0010 0122     		movs	r2, #1
 233              	.LVL17:
 234              		.loc 1 214 3 is_stmt 0 discriminator 2 view .LVU62
 235 0012 6271     		strb	r2, [r4, #5]
 236              		.loc 1 214 3 is_stmt 1 discriminator 2 view .LVU63
 215:Drivers/STM32G4xx_HAL_Driver/Src/stm32g4xx_hal_dac_ex.c **** 
 216:Drivers/STM32G4xx_HAL_Driver/Src/stm32g4xx_hal_dac_ex.c ****   /* Change DAC state */
 217:Drivers/STM32G4xx_HAL_Driver/Src/stm32g4xx_hal_dac_ex.c ****   hdac->State = HAL_DAC_STATE_BUSY;
 237              		.loc 1 217 3 discriminator 2 view .LVU64
ARM GAS  /tmp/ccEoBVya.s 			page 9


 238              		.loc 1 217 15 is_stmt 0 discriminator 2 view .LVU65
 239 0014 0222     		movs	r2, #2
 240 0016 2271     		strb	r2, [r4, #4]
 218:Drivers/STM32G4xx_HAL_Driver/Src/stm32g4xx_hal_dac_ex.c **** 
 219:Drivers/STM32G4xx_HAL_Driver/Src/stm32g4xx_hal_dac_ex.c ****   if (Channel == DAC_CHANNEL_1)
 241              		.loc 1 219 3 is_stmt 1 discriminator 2 view .LVU66
 242              		.loc 1 219 6 is_stmt 0 discriminator 2 view .LVU67
 243 0018 38BB     		cbnz	r0, .L16
 220:Drivers/STM32G4xx_HAL_Driver/Src/stm32g4xx_hal_dac_ex.c ****   {
 221:Drivers/STM32G4xx_HAL_Driver/Src/stm32g4xx_hal_dac_ex.c ****     /* Set the DMA transfer complete callback for channel1 */
 222:Drivers/STM32G4xx_HAL_Driver/Src/stm32g4xx_hal_dac_ex.c ****     hdac->DMA_Handle1->XferCpltCallback = DAC_DMAConvCpltCh1;
 244              		.loc 1 222 5 is_stmt 1 view .LVU68
 245              		.loc 1 222 9 is_stmt 0 view .LVU69
 246 001a A268     		ldr	r2, [r4, #8]
 247              		.loc 1 222 41 view .LVU70
 248 001c 2D4E     		ldr	r6, .L29
 249 001e D662     		str	r6, [r2, #44]
 223:Drivers/STM32G4xx_HAL_Driver/Src/stm32g4xx_hal_dac_ex.c **** 
 224:Drivers/STM32G4xx_HAL_Driver/Src/stm32g4xx_hal_dac_ex.c ****     /* Set the DMA half transfer complete callback for channel1 */
 225:Drivers/STM32G4xx_HAL_Driver/Src/stm32g4xx_hal_dac_ex.c ****     hdac->DMA_Handle1->XferHalfCpltCallback = DAC_DMAHalfConvCpltCh1;
 250              		.loc 1 225 5 is_stmt 1 view .LVU71
 251              		.loc 1 225 9 is_stmt 0 view .LVU72
 252 0020 A268     		ldr	r2, [r4, #8]
 253              		.loc 1 225 45 view .LVU73
 254 0022 2D4E     		ldr	r6, .L29+4
 255 0024 1663     		str	r6, [r2, #48]
 226:Drivers/STM32G4xx_HAL_Driver/Src/stm32g4xx_hal_dac_ex.c **** 
 227:Drivers/STM32G4xx_HAL_Driver/Src/stm32g4xx_hal_dac_ex.c ****     /* Set the DMA error callback for channel1 */
 228:Drivers/STM32G4xx_HAL_Driver/Src/stm32g4xx_hal_dac_ex.c ****     hdac->DMA_Handle1->XferErrorCallback = DAC_DMAErrorCh1;
 256              		.loc 1 228 5 is_stmt 1 view .LVU74
 257              		.loc 1 228 9 is_stmt 0 view .LVU75
 258 0026 A268     		ldr	r2, [r4, #8]
 259              		.loc 1 228 42 view .LVU76
 260 0028 2C4E     		ldr	r6, .L29+8
 261 002a 5663     		str	r6, [r2, #52]
 229:Drivers/STM32G4xx_HAL_Driver/Src/stm32g4xx_hal_dac_ex.c **** 
 230:Drivers/STM32G4xx_HAL_Driver/Src/stm32g4xx_hal_dac_ex.c ****     /* Enable the selected DAC channel1 DMA request */
 231:Drivers/STM32G4xx_HAL_Driver/Src/stm32g4xx_hal_dac_ex.c ****     SET_BIT(hdac->Instance->CR, DAC_CR_DMAEN1);
 262              		.loc 1 231 5 is_stmt 1 view .LVU77
 263 002c 2668     		ldr	r6, [r4]
 264 002e 3268     		ldr	r2, [r6]
 265 0030 42F48052 		orr	r2, r2, #4096
 266 0034 3260     		str	r2, [r6]
 267              	.L17:
 232:Drivers/STM32G4xx_HAL_Driver/Src/stm32g4xx_hal_dac_ex.c ****   }
 233:Drivers/STM32G4xx_HAL_Driver/Src/stm32g4xx_hal_dac_ex.c ****   else
 234:Drivers/STM32G4xx_HAL_Driver/Src/stm32g4xx_hal_dac_ex.c ****   {
 235:Drivers/STM32G4xx_HAL_Driver/Src/stm32g4xx_hal_dac_ex.c ****     /* Set the DMA transfer complete callback for channel2 */
 236:Drivers/STM32G4xx_HAL_Driver/Src/stm32g4xx_hal_dac_ex.c ****     hdac->DMA_Handle2->XferCpltCallback = DAC_DMAConvCpltCh2;
 237:Drivers/STM32G4xx_HAL_Driver/Src/stm32g4xx_hal_dac_ex.c **** 
 238:Drivers/STM32G4xx_HAL_Driver/Src/stm32g4xx_hal_dac_ex.c ****     /* Set the DMA half transfer complete callback for channel2 */
 239:Drivers/STM32G4xx_HAL_Driver/Src/stm32g4xx_hal_dac_ex.c ****     hdac->DMA_Handle2->XferHalfCpltCallback = DAC_DMAHalfConvCpltCh2;
 240:Drivers/STM32G4xx_HAL_Driver/Src/stm32g4xx_hal_dac_ex.c **** 
 241:Drivers/STM32G4xx_HAL_Driver/Src/stm32g4xx_hal_dac_ex.c ****     /* Set the DMA error callback for channel2 */
 242:Drivers/STM32G4xx_HAL_Driver/Src/stm32g4xx_hal_dac_ex.c ****     hdac->DMA_Handle2->XferErrorCallback = DAC_DMAErrorCh2;
 243:Drivers/STM32G4xx_HAL_Driver/Src/stm32g4xx_hal_dac_ex.c **** 
 244:Drivers/STM32G4xx_HAL_Driver/Src/stm32g4xx_hal_dac_ex.c ****     /* Enable the selected DAC channel2 DMA request */
ARM GAS  /tmp/ccEoBVya.s 			page 10


 245:Drivers/STM32G4xx_HAL_Driver/Src/stm32g4xx_hal_dac_ex.c ****     SET_BIT(hdac->Instance->CR, DAC_CR_DMAEN2);
 246:Drivers/STM32G4xx_HAL_Driver/Src/stm32g4xx_hal_dac_ex.c ****   }
 247:Drivers/STM32G4xx_HAL_Driver/Src/stm32g4xx_hal_dac_ex.c **** 
 248:Drivers/STM32G4xx_HAL_Driver/Src/stm32g4xx_hal_dac_ex.c ****   switch (Alignment)
 268              		.loc 1 248 3 view .LVU78
 269 0036 042D     		cmp	r5, #4
 270 0038 2AD0     		beq	.L18
 271 003a 082D     		cmp	r5, #8
 272 003c 2CD0     		beq	.L19
 273 003e 1DB3     		cbz	r5, .L27
 274 0040 0022     		movs	r2, #0
 275              	.LVL18:
 276              	.L20:
 249:Drivers/STM32G4xx_HAL_Driver/Src/stm32g4xx_hal_dac_ex.c ****   {
 250:Drivers/STM32G4xx_HAL_Driver/Src/stm32g4xx_hal_dac_ex.c ****     case DAC_ALIGN_12B_R:
 251:Drivers/STM32G4xx_HAL_Driver/Src/stm32g4xx_hal_dac_ex.c ****       /* Get DHR12R1 address */
 252:Drivers/STM32G4xx_HAL_Driver/Src/stm32g4xx_hal_dac_ex.c ****       tmpreg = (uint32_t)&hdac->Instance->DHR12RD;
 253:Drivers/STM32G4xx_HAL_Driver/Src/stm32g4xx_hal_dac_ex.c ****       break;
 254:Drivers/STM32G4xx_HAL_Driver/Src/stm32g4xx_hal_dac_ex.c ****     case DAC_ALIGN_12B_L:
 255:Drivers/STM32G4xx_HAL_Driver/Src/stm32g4xx_hal_dac_ex.c ****       /* Get DHR12L1 address */
 256:Drivers/STM32G4xx_HAL_Driver/Src/stm32g4xx_hal_dac_ex.c ****       tmpreg = (uint32_t)&hdac->Instance->DHR12LD;
 257:Drivers/STM32G4xx_HAL_Driver/Src/stm32g4xx_hal_dac_ex.c ****       break;
 258:Drivers/STM32G4xx_HAL_Driver/Src/stm32g4xx_hal_dac_ex.c ****     case DAC_ALIGN_8B_R:
 259:Drivers/STM32G4xx_HAL_Driver/Src/stm32g4xx_hal_dac_ex.c ****       /* Get DHR8R1 address */
 260:Drivers/STM32G4xx_HAL_Driver/Src/stm32g4xx_hal_dac_ex.c ****       tmpreg = (uint32_t)&hdac->Instance->DHR8RD;
 261:Drivers/STM32G4xx_HAL_Driver/Src/stm32g4xx_hal_dac_ex.c ****       break;
 262:Drivers/STM32G4xx_HAL_Driver/Src/stm32g4xx_hal_dac_ex.c ****     default:
 263:Drivers/STM32G4xx_HAL_Driver/Src/stm32g4xx_hal_dac_ex.c ****       break;
 264:Drivers/STM32G4xx_HAL_Driver/Src/stm32g4xx_hal_dac_ex.c ****   }
 265:Drivers/STM32G4xx_HAL_Driver/Src/stm32g4xx_hal_dac_ex.c **** 
 266:Drivers/STM32G4xx_HAL_Driver/Src/stm32g4xx_hal_dac_ex.c ****   /* Enable the DMA channel */
 267:Drivers/STM32G4xx_HAL_Driver/Src/stm32g4xx_hal_dac_ex.c ****   if (Channel == DAC_CHANNEL_1)
 277              		.loc 1 267 3 view .LVU79
 278              		.loc 1 267 6 is_stmt 0 view .LVU80
 279 0042 0028     		cmp	r0, #0
 280 0044 2CD1     		bne	.L21
 268:Drivers/STM32G4xx_HAL_Driver/Src/stm32g4xx_hal_dac_ex.c ****   {
 269:Drivers/STM32G4xx_HAL_Driver/Src/stm32g4xx_hal_dac_ex.c ****     /* Enable the DAC DMA underrun interrupt */
 270:Drivers/STM32G4xx_HAL_Driver/Src/stm32g4xx_hal_dac_ex.c ****     __HAL_DAC_ENABLE_IT(hdac, DAC_IT_DMAUDR1);
 281              		.loc 1 270 5 is_stmt 1 view .LVU81
 282 0046 2568     		ldr	r5, [r4]
 283 0048 2868     		ldr	r0, [r5]
 284              	.LVL19:
 285              		.loc 1 270 5 is_stmt 0 view .LVU82
 286 004a 40F40050 		orr	r0, r0, #8192
 287 004e 2860     		str	r0, [r5]
 271:Drivers/STM32G4xx_HAL_Driver/Src/stm32g4xx_hal_dac_ex.c **** 
 272:Drivers/STM32G4xx_HAL_Driver/Src/stm32g4xx_hal_dac_ex.c ****     /* Enable the DMA channel */
 273:Drivers/STM32G4xx_HAL_Driver/Src/stm32g4xx_hal_dac_ex.c ****     status = HAL_DMA_Start_IT(hdac->DMA_Handle1, (uint32_t)pData, tmpreg, Length);
 288              		.loc 1 273 5 is_stmt 1 view .LVU83
 289              		.loc 1 273 14 is_stmt 0 view .LVU84
 290 0050 A068     		ldr	r0, [r4, #8]
 291 0052 FFF7FEFF 		bl	HAL_DMA_Start_IT
 292              	.LVL20:
 293              		.loc 1 273 14 view .LVU85
 294 0056 0546     		mov	r5, r0
 295              	.LVL21:
ARM GAS  /tmp/ccEoBVya.s 			page 11


 296              	.L22:
 274:Drivers/STM32G4xx_HAL_Driver/Src/stm32g4xx_hal_dac_ex.c ****   }
 275:Drivers/STM32G4xx_HAL_Driver/Src/stm32g4xx_hal_dac_ex.c ****   else
 276:Drivers/STM32G4xx_HAL_Driver/Src/stm32g4xx_hal_dac_ex.c ****   {
 277:Drivers/STM32G4xx_HAL_Driver/Src/stm32g4xx_hal_dac_ex.c ****     /* Enable the DAC DMA underrun interrupt */
 278:Drivers/STM32G4xx_HAL_Driver/Src/stm32g4xx_hal_dac_ex.c ****     __HAL_DAC_ENABLE_IT(hdac, DAC_IT_DMAUDR2);
 279:Drivers/STM32G4xx_HAL_Driver/Src/stm32g4xx_hal_dac_ex.c **** 
 280:Drivers/STM32G4xx_HAL_Driver/Src/stm32g4xx_hal_dac_ex.c ****     /* Enable the DMA channel */
 281:Drivers/STM32G4xx_HAL_Driver/Src/stm32g4xx_hal_dac_ex.c ****     status = HAL_DMA_Start_IT(hdac->DMA_Handle2, (uint32_t)pData, tmpreg, Length);
 282:Drivers/STM32G4xx_HAL_Driver/Src/stm32g4xx_hal_dac_ex.c ****   }
 283:Drivers/STM32G4xx_HAL_Driver/Src/stm32g4xx_hal_dac_ex.c **** 
 284:Drivers/STM32G4xx_HAL_Driver/Src/stm32g4xx_hal_dac_ex.c ****   /* Process Unlocked */
 285:Drivers/STM32G4xx_HAL_Driver/Src/stm32g4xx_hal_dac_ex.c ****   __HAL_UNLOCK(hdac);
 297              		.loc 1 285 3 is_stmt 1 view .LVU86
 298              		.loc 1 285 3 view .LVU87
 299 0058 0023     		movs	r3, #0
 300 005a 6371     		strb	r3, [r4, #5]
 301              		.loc 1 285 3 view .LVU88
 286:Drivers/STM32G4xx_HAL_Driver/Src/stm32g4xx_hal_dac_ex.c **** 
 287:Drivers/STM32G4xx_HAL_Driver/Src/stm32g4xx_hal_dac_ex.c ****   if (status == HAL_OK)
 302              		.loc 1 287 3 view .LVU89
 303              		.loc 1 287 6 is_stmt 0 view .LVU90
 304 005c 55B3     		cbz	r5, .L28
 288:Drivers/STM32G4xx_HAL_Driver/Src/stm32g4xx_hal_dac_ex.c ****   {
 289:Drivers/STM32G4xx_HAL_Driver/Src/stm32g4xx_hal_dac_ex.c ****     /* Enable the Peripheral */
 290:Drivers/STM32G4xx_HAL_Driver/Src/stm32g4xx_hal_dac_ex.c ****     __HAL_DAC_ENABLE(hdac, DAC_CHANNEL_1);
 291:Drivers/STM32G4xx_HAL_Driver/Src/stm32g4xx_hal_dac_ex.c ****     __HAL_DAC_ENABLE(hdac, DAC_CHANNEL_2);
 292:Drivers/STM32G4xx_HAL_Driver/Src/stm32g4xx_hal_dac_ex.c ****     /* Ensure minimum wait before using peripheral after enabling it */
 293:Drivers/STM32G4xx_HAL_Driver/Src/stm32g4xx_hal_dac_ex.c ****     HAL_Delay(1);
 294:Drivers/STM32G4xx_HAL_Driver/Src/stm32g4xx_hal_dac_ex.c ****   }
 295:Drivers/STM32G4xx_HAL_Driver/Src/stm32g4xx_hal_dac_ex.c ****   else
 296:Drivers/STM32G4xx_HAL_Driver/Src/stm32g4xx_hal_dac_ex.c ****   {
 297:Drivers/STM32G4xx_HAL_Driver/Src/stm32g4xx_hal_dac_ex.c ****     hdac->ErrorCode |= HAL_DAC_ERROR_DMA;
 305              		.loc 1 297 5 is_stmt 1 view .LVU91
 306              		.loc 1 297 21 is_stmt 0 view .LVU92
 307 005e 2369     		ldr	r3, [r4, #16]
 308 0060 43F00403 		orr	r3, r3, #4
 309 0064 2361     		str	r3, [r4, #16]
 310              	.LVL22:
 311              	.L15:
 298:Drivers/STM32G4xx_HAL_Driver/Src/stm32g4xx_hal_dac_ex.c ****   }
 299:Drivers/STM32G4xx_HAL_Driver/Src/stm32g4xx_hal_dac_ex.c **** 
 300:Drivers/STM32G4xx_HAL_Driver/Src/stm32g4xx_hal_dac_ex.c ****   /* Return function status */
 301:Drivers/STM32G4xx_HAL_Driver/Src/stm32g4xx_hal_dac_ex.c ****   return status;
 302:Drivers/STM32G4xx_HAL_Driver/Src/stm32g4xx_hal_dac_ex.c **** }
 312              		.loc 1 302 1 view .LVU93
 313 0066 2846     		mov	r0, r5
 314 0068 70BD     		pop	{r4, r5, r6, pc}
 315              	.LVL23:
 316              	.L16:
 236:Drivers/STM32G4xx_HAL_Driver/Src/stm32g4xx_hal_dac_ex.c **** 
 317              		.loc 1 236 5 is_stmt 1 view .LVU94
 236:Drivers/STM32G4xx_HAL_Driver/Src/stm32g4xx_hal_dac_ex.c **** 
 318              		.loc 1 236 9 is_stmt 0 view .LVU95
 319 006a E268     		ldr	r2, [r4, #12]
 236:Drivers/STM32G4xx_HAL_Driver/Src/stm32g4xx_hal_dac_ex.c **** 
 320              		.loc 1 236 41 view .LVU96
ARM GAS  /tmp/ccEoBVya.s 			page 12


 321 006c 1C4E     		ldr	r6, .L29+12
 322 006e D662     		str	r6, [r2, #44]
 239:Drivers/STM32G4xx_HAL_Driver/Src/stm32g4xx_hal_dac_ex.c **** 
 323              		.loc 1 239 5 is_stmt 1 view .LVU97
 239:Drivers/STM32G4xx_HAL_Driver/Src/stm32g4xx_hal_dac_ex.c **** 
 324              		.loc 1 239 9 is_stmt 0 view .LVU98
 325 0070 E268     		ldr	r2, [r4, #12]
 239:Drivers/STM32G4xx_HAL_Driver/Src/stm32g4xx_hal_dac_ex.c **** 
 326              		.loc 1 239 45 view .LVU99
 327 0072 1C4E     		ldr	r6, .L29+16
 328 0074 1663     		str	r6, [r2, #48]
 242:Drivers/STM32G4xx_HAL_Driver/Src/stm32g4xx_hal_dac_ex.c **** 
 329              		.loc 1 242 5 is_stmt 1 view .LVU100
 242:Drivers/STM32G4xx_HAL_Driver/Src/stm32g4xx_hal_dac_ex.c **** 
 330              		.loc 1 242 9 is_stmt 0 view .LVU101
 331 0076 E268     		ldr	r2, [r4, #12]
 242:Drivers/STM32G4xx_HAL_Driver/Src/stm32g4xx_hal_dac_ex.c **** 
 332              		.loc 1 242 42 view .LVU102
 333 0078 1B4E     		ldr	r6, .L29+20
 334 007a 5663     		str	r6, [r2, #52]
 245:Drivers/STM32G4xx_HAL_Driver/Src/stm32g4xx_hal_dac_ex.c ****   }
 335              		.loc 1 245 5 is_stmt 1 view .LVU103
 336 007c 2668     		ldr	r6, [r4]
 337 007e 3268     		ldr	r2, [r6]
 338 0080 42F08052 		orr	r2, r2, #268435456
 339 0084 3260     		str	r2, [r6]
 340 0086 D6E7     		b	.L17
 341              	.L27:
 252:Drivers/STM32G4xx_HAL_Driver/Src/stm32g4xx_hal_dac_ex.c ****       break;
 342              		.loc 1 252 7 view .LVU104
 252:Drivers/STM32G4xx_HAL_Driver/Src/stm32g4xx_hal_dac_ex.c ****       break;
 343              		.loc 1 252 31 is_stmt 0 view .LVU105
 344 0088 2568     		ldr	r5, [r4]
 252:Drivers/STM32G4xx_HAL_Driver/Src/stm32g4xx_hal_dac_ex.c ****       break;
 345              		.loc 1 252 26 view .LVU106
 346 008a 05F12002 		add	r2, r5, #32
 347              	.LVL24:
 253:Drivers/STM32G4xx_HAL_Driver/Src/stm32g4xx_hal_dac_ex.c ****     case DAC_ALIGN_12B_L:
 348              		.loc 1 253 7 is_stmt 1 view .LVU107
 349 008e D8E7     		b	.L20
 350              	.LVL25:
 351              	.L18:
 256:Drivers/STM32G4xx_HAL_Driver/Src/stm32g4xx_hal_dac_ex.c ****       break;
 352              		.loc 1 256 7 view .LVU108
 256:Drivers/STM32G4xx_HAL_Driver/Src/stm32g4xx_hal_dac_ex.c ****       break;
 353              		.loc 1 256 31 is_stmt 0 view .LVU109
 354 0090 2568     		ldr	r5, [r4]
 256:Drivers/STM32G4xx_HAL_Driver/Src/stm32g4xx_hal_dac_ex.c ****       break;
 355              		.loc 1 256 26 view .LVU110
 356 0092 05F12402 		add	r2, r5, #36
 357              	.LVL26:
 257:Drivers/STM32G4xx_HAL_Driver/Src/stm32g4xx_hal_dac_ex.c ****     case DAC_ALIGN_8B_R:
 358              		.loc 1 257 7 is_stmt 1 view .LVU111
 359 0096 D4E7     		b	.L20
 360              	.LVL27:
 361              	.L19:
 260:Drivers/STM32G4xx_HAL_Driver/Src/stm32g4xx_hal_dac_ex.c ****       break;
ARM GAS  /tmp/ccEoBVya.s 			page 13


 362              		.loc 1 260 7 view .LVU112
 260:Drivers/STM32G4xx_HAL_Driver/Src/stm32g4xx_hal_dac_ex.c ****       break;
 363              		.loc 1 260 31 is_stmt 0 view .LVU113
 364 0098 2568     		ldr	r5, [r4]
 260:Drivers/STM32G4xx_HAL_Driver/Src/stm32g4xx_hal_dac_ex.c ****       break;
 365              		.loc 1 260 26 view .LVU114
 366 009a 05F12802 		add	r2, r5, #40
 367              	.LVL28:
 261:Drivers/STM32G4xx_HAL_Driver/Src/stm32g4xx_hal_dac_ex.c ****     default:
 368              		.loc 1 261 7 is_stmt 1 view .LVU115
 369 009e D0E7     		b	.L20
 370              	.L21:
 278:Drivers/STM32G4xx_HAL_Driver/Src/stm32g4xx_hal_dac_ex.c **** 
 371              		.loc 1 278 5 view .LVU116
 372 00a0 2568     		ldr	r5, [r4]
 373 00a2 2868     		ldr	r0, [r5]
 374              	.LVL29:
 278:Drivers/STM32G4xx_HAL_Driver/Src/stm32g4xx_hal_dac_ex.c **** 
 375              		.loc 1 278 5 is_stmt 0 view .LVU117
 376 00a4 40F00050 		orr	r0, r0, #536870912
 377 00a8 2860     		str	r0, [r5]
 281:Drivers/STM32G4xx_HAL_Driver/Src/stm32g4xx_hal_dac_ex.c ****   }
 378              		.loc 1 281 5 is_stmt 1 view .LVU118
 281:Drivers/STM32G4xx_HAL_Driver/Src/stm32g4xx_hal_dac_ex.c ****   }
 379              		.loc 1 281 14 is_stmt 0 view .LVU119
 380 00aa E068     		ldr	r0, [r4, #12]
 381 00ac FFF7FEFF 		bl	HAL_DMA_Start_IT
 382              	.LVL30:
 281:Drivers/STM32G4xx_HAL_Driver/Src/stm32g4xx_hal_dac_ex.c ****   }
 383              		.loc 1 281 14 view .LVU120
 384 00b0 0546     		mov	r5, r0
 385              	.LVL31:
 281:Drivers/STM32G4xx_HAL_Driver/Src/stm32g4xx_hal_dac_ex.c ****   }
 386              		.loc 1 281 14 view .LVU121
 387 00b2 D1E7     		b	.L22
 388              	.L28:
 290:Drivers/STM32G4xx_HAL_Driver/Src/stm32g4xx_hal_dac_ex.c ****     __HAL_DAC_ENABLE(hdac, DAC_CHANNEL_2);
 389              		.loc 1 290 5 is_stmt 1 view .LVU122
 390 00b4 2268     		ldr	r2, [r4]
 391 00b6 1368     		ldr	r3, [r2]
 392 00b8 43F00103 		orr	r3, r3, #1
 393 00bc 1360     		str	r3, [r2]
 291:Drivers/STM32G4xx_HAL_Driver/Src/stm32g4xx_hal_dac_ex.c ****     /* Ensure minimum wait before using peripheral after enabling it */
 394              		.loc 1 291 5 view .LVU123
 395 00be 2268     		ldr	r2, [r4]
 396 00c0 1368     		ldr	r3, [r2]
 397 00c2 43F48033 		orr	r3, r3, #65536
 398 00c6 1360     		str	r3, [r2]
 293:Drivers/STM32G4xx_HAL_Driver/Src/stm32g4xx_hal_dac_ex.c ****   }
 399              		.loc 1 293 5 view .LVU124
 400 00c8 0120     		movs	r0, #1
 401 00ca FFF7FEFF 		bl	HAL_Delay
 402              	.LVL32:
 403 00ce CAE7     		b	.L15
 404              	.LVL33:
 405              	.L24:
 214:Drivers/STM32G4xx_HAL_Driver/Src/stm32g4xx_hal_dac_ex.c **** 
ARM GAS  /tmp/ccEoBVya.s 			page 14


 406              		.loc 1 214 3 is_stmt 0 view .LVU125
 407 00d0 0225     		movs	r5, #2
 408 00d2 C8E7     		b	.L15
 409              	.L30:
 410              		.align	2
 411              	.L29:
 412 00d4 00000000 		.word	DAC_DMAConvCpltCh1
 413 00d8 00000000 		.word	DAC_DMAHalfConvCpltCh1
 414 00dc 00000000 		.word	DAC_DMAErrorCh1
 415 00e0 00000000 		.word	DAC_DMAConvCpltCh2
 416 00e4 00000000 		.word	DAC_DMAHalfConvCpltCh2
 417 00e8 00000000 		.word	DAC_DMAErrorCh2
 418              		.cfi_endproc
 419              	.LFE164:
 421              		.section	.text.HAL_DACEx_DualStop_DMA,"ax",%progbits
 422              		.align	1
 423              		.global	HAL_DACEx_DualStop_DMA
 424              		.syntax unified
 425              		.thumb
 426              		.thumb_func
 427              		.fpu fpv4-sp-d16
 429              	HAL_DACEx_DualStop_DMA:
 430              	.LVL34:
 431              	.LFB165:
 303:Drivers/STM32G4xx_HAL_Driver/Src/stm32g4xx_hal_dac_ex.c **** 
 304:Drivers/STM32G4xx_HAL_Driver/Src/stm32g4xx_hal_dac_ex.c **** /**
 305:Drivers/STM32G4xx_HAL_Driver/Src/stm32g4xx_hal_dac_ex.c ****   * @brief  Disables DAC and stop conversion both channel.
 306:Drivers/STM32G4xx_HAL_Driver/Src/stm32g4xx_hal_dac_ex.c ****   * @param  hdac pointer to a DAC_HandleTypeDef structure that contains
 307:Drivers/STM32G4xx_HAL_Driver/Src/stm32g4xx_hal_dac_ex.c ****   *         the configuration information for the specified DAC.
 308:Drivers/STM32G4xx_HAL_Driver/Src/stm32g4xx_hal_dac_ex.c ****   * @param  Channel The DAC channel that requests data from DMA.
 309:Drivers/STM32G4xx_HAL_Driver/Src/stm32g4xx_hal_dac_ex.c ****   *          This parameter can be one of the following values:
 310:Drivers/STM32G4xx_HAL_Driver/Src/stm32g4xx_hal_dac_ex.c ****   *            @arg DAC_CHANNEL_1: DAC Channel1 selected
 311:Drivers/STM32G4xx_HAL_Driver/Src/stm32g4xx_hal_dac_ex.c ****   *            @arg DAC_CHANNEL_2: DAC Channel2 selected
 312:Drivers/STM32G4xx_HAL_Driver/Src/stm32g4xx_hal_dac_ex.c ****   * @retval HAL status
 313:Drivers/STM32G4xx_HAL_Driver/Src/stm32g4xx_hal_dac_ex.c ****   */
 314:Drivers/STM32G4xx_HAL_Driver/Src/stm32g4xx_hal_dac_ex.c **** HAL_StatusTypeDef HAL_DACEx_DualStop_DMA(DAC_HandleTypeDef *hdac, uint32_t Channel)
 315:Drivers/STM32G4xx_HAL_Driver/Src/stm32g4xx_hal_dac_ex.c **** {
 432              		.loc 1 315 1 is_stmt 1 view -0
 433              		.cfi_startproc
 434              		@ args = 0, pretend = 0, frame = 0
 435              		@ frame_needed = 0, uses_anonymous_args = 0
 436              		.loc 1 315 1 is_stmt 0 view .LVU127
 437 0000 38B5     		push	{r3, r4, r5, lr}
 438              	.LCFI4:
 439              		.cfi_def_cfa_offset 16
 440              		.cfi_offset 3, -16
 441              		.cfi_offset 4, -12
 442              		.cfi_offset 5, -8
 443              		.cfi_offset 14, -4
 444 0002 0446     		mov	r4, r0
 445 0004 0D46     		mov	r5, r1
 316:Drivers/STM32G4xx_HAL_Driver/Src/stm32g4xx_hal_dac_ex.c ****   HAL_StatusTypeDef status;
 446              		.loc 1 316 3 is_stmt 1 view .LVU128
 317:Drivers/STM32G4xx_HAL_Driver/Src/stm32g4xx_hal_dac_ex.c **** 
 318:Drivers/STM32G4xx_HAL_Driver/Src/stm32g4xx_hal_dac_ex.c ****   /* Ensure Channel 2 exists for this particular DAC instance */
 319:Drivers/STM32G4xx_HAL_Driver/Src/stm32g4xx_hal_dac_ex.c ****   assert_param(IS_DAC_CHANNEL(hdac->Instance, DAC_CHANNEL_2));
 447              		.loc 1 319 3 view .LVU129
ARM GAS  /tmp/ccEoBVya.s 			page 15


 320:Drivers/STM32G4xx_HAL_Driver/Src/stm32g4xx_hal_dac_ex.c **** 
 321:Drivers/STM32G4xx_HAL_Driver/Src/stm32g4xx_hal_dac_ex.c ****   /* Disable the selected DAC channel DMA request */
 322:Drivers/STM32G4xx_HAL_Driver/Src/stm32g4xx_hal_dac_ex.c ****   CLEAR_BIT(hdac->Instance->CR, DAC_CR_DMAEN2 | DAC_CR_DMAEN1);
 448              		.loc 1 322 3 view .LVU130
 449 0006 0268     		ldr	r2, [r0]
 450 0008 1368     		ldr	r3, [r2]
 451 000a 23F01023 		bic	r3, r3, #268439552
 452 000e 1360     		str	r3, [r2]
 323:Drivers/STM32G4xx_HAL_Driver/Src/stm32g4xx_hal_dac_ex.c **** 
 324:Drivers/STM32G4xx_HAL_Driver/Src/stm32g4xx_hal_dac_ex.c ****   /* Disable the Peripheral */
 325:Drivers/STM32G4xx_HAL_Driver/Src/stm32g4xx_hal_dac_ex.c ****   __HAL_DAC_DISABLE(hdac, DAC_CHANNEL_1);
 453              		.loc 1 325 3 view .LVU131
 454 0010 0268     		ldr	r2, [r0]
 455 0012 1368     		ldr	r3, [r2]
 456 0014 23F00103 		bic	r3, r3, #1
 457 0018 1360     		str	r3, [r2]
 326:Drivers/STM32G4xx_HAL_Driver/Src/stm32g4xx_hal_dac_ex.c ****   __HAL_DAC_DISABLE(hdac, DAC_CHANNEL_2);
 458              		.loc 1 326 3 view .LVU132
 459 001a 0268     		ldr	r2, [r0]
 460 001c 1368     		ldr	r3, [r2]
 461 001e 23F48033 		bic	r3, r3, #65536
 462 0022 1360     		str	r3, [r2]
 327:Drivers/STM32G4xx_HAL_Driver/Src/stm32g4xx_hal_dac_ex.c ****   /* Ensure minimum wait before enabling peripheral after disabling it */
 328:Drivers/STM32G4xx_HAL_Driver/Src/stm32g4xx_hal_dac_ex.c ****   HAL_Delay(1);
 463              		.loc 1 328 3 view .LVU133
 464 0024 0120     		movs	r0, #1
 465              	.LVL35:
 466              		.loc 1 328 3 is_stmt 0 view .LVU134
 467 0026 FFF7FEFF 		bl	HAL_Delay
 468              	.LVL36:
 329:Drivers/STM32G4xx_HAL_Driver/Src/stm32g4xx_hal_dac_ex.c **** 
 330:Drivers/STM32G4xx_HAL_Driver/Src/stm32g4xx_hal_dac_ex.c ****   /* Disable the DMA channel */
 331:Drivers/STM32G4xx_HAL_Driver/Src/stm32g4xx_hal_dac_ex.c **** 
 332:Drivers/STM32G4xx_HAL_Driver/Src/stm32g4xx_hal_dac_ex.c ****   /* Channel1 is used */
 333:Drivers/STM32G4xx_HAL_Driver/Src/stm32g4xx_hal_dac_ex.c ****   if (Channel == DAC_CHANNEL_1)
 469              		.loc 1 333 3 is_stmt 1 view .LVU135
 470              		.loc 1 333 6 is_stmt 0 view .LVU136
 471 002a 5DB9     		cbnz	r5, .L32
 334:Drivers/STM32G4xx_HAL_Driver/Src/stm32g4xx_hal_dac_ex.c ****   {
 335:Drivers/STM32G4xx_HAL_Driver/Src/stm32g4xx_hal_dac_ex.c ****     /* Disable the DMA channel */
 336:Drivers/STM32G4xx_HAL_Driver/Src/stm32g4xx_hal_dac_ex.c ****     status = HAL_DMA_Abort(hdac->DMA_Handle1);
 472              		.loc 1 336 5 is_stmt 1 view .LVU137
 473              		.loc 1 336 14 is_stmt 0 view .LVU138
 474 002c A068     		ldr	r0, [r4, #8]
 475 002e FFF7FEFF 		bl	HAL_DMA_Abort
 476              	.LVL37:
 337:Drivers/STM32G4xx_HAL_Driver/Src/stm32g4xx_hal_dac_ex.c **** 
 338:Drivers/STM32G4xx_HAL_Driver/Src/stm32g4xx_hal_dac_ex.c ****     /* Disable the DAC DMA underrun interrupt */
 339:Drivers/STM32G4xx_HAL_Driver/Src/stm32g4xx_hal_dac_ex.c ****     __HAL_DAC_DISABLE_IT(hdac, DAC_IT_DMAUDR1);
 477              		.loc 1 339 5 is_stmt 1 view .LVU139
 478 0032 2268     		ldr	r2, [r4]
 479 0034 1368     		ldr	r3, [r2]
 480 0036 23F40053 		bic	r3, r3, #8192
 481 003a 1360     		str	r3, [r2]
 482              	.L33:
 340:Drivers/STM32G4xx_HAL_Driver/Src/stm32g4xx_hal_dac_ex.c ****   }
 341:Drivers/STM32G4xx_HAL_Driver/Src/stm32g4xx_hal_dac_ex.c ****   else
ARM GAS  /tmp/ccEoBVya.s 			page 16


 342:Drivers/STM32G4xx_HAL_Driver/Src/stm32g4xx_hal_dac_ex.c ****   {
 343:Drivers/STM32G4xx_HAL_Driver/Src/stm32g4xx_hal_dac_ex.c ****     /* Disable the DMA channel */
 344:Drivers/STM32G4xx_HAL_Driver/Src/stm32g4xx_hal_dac_ex.c ****     status = HAL_DMA_Abort(hdac->DMA_Handle2);
 345:Drivers/STM32G4xx_HAL_Driver/Src/stm32g4xx_hal_dac_ex.c **** 
 346:Drivers/STM32G4xx_HAL_Driver/Src/stm32g4xx_hal_dac_ex.c ****     /* Disable the DAC DMA underrun interrupt */
 347:Drivers/STM32G4xx_HAL_Driver/Src/stm32g4xx_hal_dac_ex.c ****     __HAL_DAC_DISABLE_IT(hdac, DAC_IT_DMAUDR2);
 348:Drivers/STM32G4xx_HAL_Driver/Src/stm32g4xx_hal_dac_ex.c ****   }
 349:Drivers/STM32G4xx_HAL_Driver/Src/stm32g4xx_hal_dac_ex.c **** 
 350:Drivers/STM32G4xx_HAL_Driver/Src/stm32g4xx_hal_dac_ex.c ****   /* Check if DMA Channel effectively disabled */
 351:Drivers/STM32G4xx_HAL_Driver/Src/stm32g4xx_hal_dac_ex.c ****   if (status != HAL_OK)
 483              		.loc 1 351 3 view .LVU140
 484              		.loc 1 351 6 is_stmt 0 view .LVU141
 485 003c 58B1     		cbz	r0, .L34
 352:Drivers/STM32G4xx_HAL_Driver/Src/stm32g4xx_hal_dac_ex.c ****   {
 353:Drivers/STM32G4xx_HAL_Driver/Src/stm32g4xx_hal_dac_ex.c ****     /* Update DAC state machine to error */
 354:Drivers/STM32G4xx_HAL_Driver/Src/stm32g4xx_hal_dac_ex.c ****     hdac->State = HAL_DAC_STATE_ERROR;
 486              		.loc 1 354 5 is_stmt 1 view .LVU142
 487              		.loc 1 354 17 is_stmt 0 view .LVU143
 488 003e 0423     		movs	r3, #4
 489 0040 2371     		strb	r3, [r4, #4]
 490              	.L35:
 355:Drivers/STM32G4xx_HAL_Driver/Src/stm32g4xx_hal_dac_ex.c ****   }
 356:Drivers/STM32G4xx_HAL_Driver/Src/stm32g4xx_hal_dac_ex.c ****   else
 357:Drivers/STM32G4xx_HAL_Driver/Src/stm32g4xx_hal_dac_ex.c ****   {
 358:Drivers/STM32G4xx_HAL_Driver/Src/stm32g4xx_hal_dac_ex.c ****     /* Change DAC state */
 359:Drivers/STM32G4xx_HAL_Driver/Src/stm32g4xx_hal_dac_ex.c ****     hdac->State = HAL_DAC_STATE_READY;
 360:Drivers/STM32G4xx_HAL_Driver/Src/stm32g4xx_hal_dac_ex.c ****   }
 361:Drivers/STM32G4xx_HAL_Driver/Src/stm32g4xx_hal_dac_ex.c **** 
 362:Drivers/STM32G4xx_HAL_Driver/Src/stm32g4xx_hal_dac_ex.c ****   /* Return function status */
 363:Drivers/STM32G4xx_HAL_Driver/Src/stm32g4xx_hal_dac_ex.c ****   return status;
 491              		.loc 1 363 3 is_stmt 1 view .LVU144
 364:Drivers/STM32G4xx_HAL_Driver/Src/stm32g4xx_hal_dac_ex.c **** }
 492              		.loc 1 364 1 is_stmt 0 view .LVU145
 493 0042 38BD     		pop	{r3, r4, r5, pc}
 494              	.LVL38:
 495              	.L32:
 344:Drivers/STM32G4xx_HAL_Driver/Src/stm32g4xx_hal_dac_ex.c **** 
 496              		.loc 1 344 5 is_stmt 1 view .LVU146
 344:Drivers/STM32G4xx_HAL_Driver/Src/stm32g4xx_hal_dac_ex.c **** 
 497              		.loc 1 344 14 is_stmt 0 view .LVU147
 498 0044 E068     		ldr	r0, [r4, #12]
 499 0046 FFF7FEFF 		bl	HAL_DMA_Abort
 500              	.LVL39:
 347:Drivers/STM32G4xx_HAL_Driver/Src/stm32g4xx_hal_dac_ex.c ****   }
 501              		.loc 1 347 5 is_stmt 1 view .LVU148
 502 004a 2268     		ldr	r2, [r4]
 503 004c 1368     		ldr	r3, [r2]
 504 004e 23F00053 		bic	r3, r3, #536870912
 505 0052 1360     		str	r3, [r2]
 506 0054 F2E7     		b	.L33
 507              	.L34:
 359:Drivers/STM32G4xx_HAL_Driver/Src/stm32g4xx_hal_dac_ex.c ****   }
 508              		.loc 1 359 5 view .LVU149
 359:Drivers/STM32G4xx_HAL_Driver/Src/stm32g4xx_hal_dac_ex.c ****   }
 509              		.loc 1 359 17 is_stmt 0 view .LVU150
 510 0056 0123     		movs	r3, #1
 511 0058 2371     		strb	r3, [r4, #4]
ARM GAS  /tmp/ccEoBVya.s 			page 17


 512 005a F2E7     		b	.L35
 513              		.cfi_endproc
 514              	.LFE165:
 516              		.section	.text.HAL_DACEx_TriangleWaveGenerate,"ax",%progbits
 517              		.align	1
 518              		.global	HAL_DACEx_TriangleWaveGenerate
 519              		.syntax unified
 520              		.thumb
 521              		.thumb_func
 522              		.fpu fpv4-sp-d16
 524              	HAL_DACEx_TriangleWaveGenerate:
 525              	.LVL40:
 526              	.LFB166:
 365:Drivers/STM32G4xx_HAL_Driver/Src/stm32g4xx_hal_dac_ex.c **** 
 366:Drivers/STM32G4xx_HAL_Driver/Src/stm32g4xx_hal_dac_ex.c **** /**
 367:Drivers/STM32G4xx_HAL_Driver/Src/stm32g4xx_hal_dac_ex.c ****   * @brief  Enable or disable the selected DAC channel wave generation.
 368:Drivers/STM32G4xx_HAL_Driver/Src/stm32g4xx_hal_dac_ex.c ****   * @param  hdac pointer to a DAC_HandleTypeDef structure that contains
 369:Drivers/STM32G4xx_HAL_Driver/Src/stm32g4xx_hal_dac_ex.c ****   *         the configuration information for the specified DAC.
 370:Drivers/STM32G4xx_HAL_Driver/Src/stm32g4xx_hal_dac_ex.c ****   * @param  Channel The selected DAC channel.
 371:Drivers/STM32G4xx_HAL_Driver/Src/stm32g4xx_hal_dac_ex.c ****   *          This parameter can be one of the following values:
 372:Drivers/STM32G4xx_HAL_Driver/Src/stm32g4xx_hal_dac_ex.c ****   *            @arg DAC_CHANNEL_1: DAC Channel1 selected
 373:Drivers/STM32G4xx_HAL_Driver/Src/stm32g4xx_hal_dac_ex.c ****   *            @arg DAC_CHANNEL_2: DAC Channel2 selected (1)
 374:Drivers/STM32G4xx_HAL_Driver/Src/stm32g4xx_hal_dac_ex.c ****   *
 375:Drivers/STM32G4xx_HAL_Driver/Src/stm32g4xx_hal_dac_ex.c ****   *         (1) On this STM32 serie, parameter not available on all instances.
 376:Drivers/STM32G4xx_HAL_Driver/Src/stm32g4xx_hal_dac_ex.c ****   *             Refer to device datasheet for channels availability.
 377:Drivers/STM32G4xx_HAL_Driver/Src/stm32g4xx_hal_dac_ex.c ****   * @param  Amplitude Select max triangle amplitude.
 378:Drivers/STM32G4xx_HAL_Driver/Src/stm32g4xx_hal_dac_ex.c ****   *          This parameter can be one of the following values:
 379:Drivers/STM32G4xx_HAL_Driver/Src/stm32g4xx_hal_dac_ex.c ****   *            @arg DAC_TRIANGLEAMPLITUDE_1: Select max triangle amplitude of 1
 380:Drivers/STM32G4xx_HAL_Driver/Src/stm32g4xx_hal_dac_ex.c ****   *            @arg DAC_TRIANGLEAMPLITUDE_3: Select max triangle amplitude of 3
 381:Drivers/STM32G4xx_HAL_Driver/Src/stm32g4xx_hal_dac_ex.c ****   *            @arg DAC_TRIANGLEAMPLITUDE_7: Select max triangle amplitude of 7
 382:Drivers/STM32G4xx_HAL_Driver/Src/stm32g4xx_hal_dac_ex.c ****   *            @arg DAC_TRIANGLEAMPLITUDE_15: Select max triangle amplitude of 15
 383:Drivers/STM32G4xx_HAL_Driver/Src/stm32g4xx_hal_dac_ex.c ****   *            @arg DAC_TRIANGLEAMPLITUDE_31: Select max triangle amplitude of 31
 384:Drivers/STM32G4xx_HAL_Driver/Src/stm32g4xx_hal_dac_ex.c ****   *            @arg DAC_TRIANGLEAMPLITUDE_63: Select max triangle amplitude of 63
 385:Drivers/STM32G4xx_HAL_Driver/Src/stm32g4xx_hal_dac_ex.c ****   *            @arg DAC_TRIANGLEAMPLITUDE_127: Select max triangle amplitude of 127
 386:Drivers/STM32G4xx_HAL_Driver/Src/stm32g4xx_hal_dac_ex.c ****   *            @arg DAC_TRIANGLEAMPLITUDE_255: Select max triangle amplitude of 255
 387:Drivers/STM32G4xx_HAL_Driver/Src/stm32g4xx_hal_dac_ex.c ****   *            @arg DAC_TRIANGLEAMPLITUDE_511: Select max triangle amplitude of 511
 388:Drivers/STM32G4xx_HAL_Driver/Src/stm32g4xx_hal_dac_ex.c ****   *            @arg DAC_TRIANGLEAMPLITUDE_1023: Select max triangle amplitude of 1023
 389:Drivers/STM32G4xx_HAL_Driver/Src/stm32g4xx_hal_dac_ex.c ****   *            @arg DAC_TRIANGLEAMPLITUDE_2047: Select max triangle amplitude of 2047
 390:Drivers/STM32G4xx_HAL_Driver/Src/stm32g4xx_hal_dac_ex.c ****   *            @arg DAC_TRIANGLEAMPLITUDE_4095: Select max triangle amplitude of 4095
 391:Drivers/STM32G4xx_HAL_Driver/Src/stm32g4xx_hal_dac_ex.c ****   * @retval HAL status
 392:Drivers/STM32G4xx_HAL_Driver/Src/stm32g4xx_hal_dac_ex.c ****   */
 393:Drivers/STM32G4xx_HAL_Driver/Src/stm32g4xx_hal_dac_ex.c **** HAL_StatusTypeDef HAL_DACEx_TriangleWaveGenerate(DAC_HandleTypeDef *hdac, uint32_t Channel, uint32_
 394:Drivers/STM32G4xx_HAL_Driver/Src/stm32g4xx_hal_dac_ex.c **** {
 527              		.loc 1 394 1 is_stmt 1 view -0
 528              		.cfi_startproc
 529              		@ args = 0, pretend = 0, frame = 0
 530              		@ frame_needed = 0, uses_anonymous_args = 0
 531              		@ link register save eliminated.
 395:Drivers/STM32G4xx_HAL_Driver/Src/stm32g4xx_hal_dac_ex.c ****   /* Check the parameters */
 396:Drivers/STM32G4xx_HAL_Driver/Src/stm32g4xx_hal_dac_ex.c ****   assert_param(IS_DAC_CHANNEL(hdac->Instance, Channel));
 532              		.loc 1 396 3 view .LVU152
 397:Drivers/STM32G4xx_HAL_Driver/Src/stm32g4xx_hal_dac_ex.c ****   assert_param(IS_DAC_LFSR_UNMASK_TRIANGLE_AMPLITUDE(Amplitude));
 533              		.loc 1 397 3 view .LVU153
 398:Drivers/STM32G4xx_HAL_Driver/Src/stm32g4xx_hal_dac_ex.c **** 
 399:Drivers/STM32G4xx_HAL_Driver/Src/stm32g4xx_hal_dac_ex.c ****   /* Process locked */
 400:Drivers/STM32G4xx_HAL_Driver/Src/stm32g4xx_hal_dac_ex.c ****   __HAL_LOCK(hdac);
 534              		.loc 1 400 3 view .LVU154
ARM GAS  /tmp/ccEoBVya.s 			page 18


 535              		.loc 1 400 3 view .LVU155
 536 0000 4379     		ldrb	r3, [r0, #5]	@ zero_extendqisi2
 537 0002 012B     		cmp	r3, #1
 538 0004 18D0     		beq	.L39
 394:Drivers/STM32G4xx_HAL_Driver/Src/stm32g4xx_hal_dac_ex.c ****   /* Check the parameters */
 539              		.loc 1 394 1 is_stmt 0 discriminator 2 view .LVU156
 540 0006 70B4     		push	{r4, r5, r6}
 541              	.LCFI5:
 542              		.cfi_def_cfa_offset 12
 543              		.cfi_offset 4, -12
 544              		.cfi_offset 5, -8
 545              		.cfi_offset 6, -4
 546              		.loc 1 400 3 is_stmt 1 discriminator 2 view .LVU157
 547 0008 0125     		movs	r5, #1
 548 000a 4571     		strb	r5, [r0, #5]
 549              		.loc 1 400 3 discriminator 2 view .LVU158
 401:Drivers/STM32G4xx_HAL_Driver/Src/stm32g4xx_hal_dac_ex.c **** 
 402:Drivers/STM32G4xx_HAL_Driver/Src/stm32g4xx_hal_dac_ex.c ****   /* Change DAC state */
 403:Drivers/STM32G4xx_HAL_Driver/Src/stm32g4xx_hal_dac_ex.c ****   hdac->State = HAL_DAC_STATE_BUSY;
 550              		.loc 1 403 3 discriminator 2 view .LVU159
 551              		.loc 1 403 15 is_stmt 0 discriminator 2 view .LVU160
 552 000c 0223     		movs	r3, #2
 553 000e 0371     		strb	r3, [r0, #4]
 404:Drivers/STM32G4xx_HAL_Driver/Src/stm32g4xx_hal_dac_ex.c **** 
 405:Drivers/STM32G4xx_HAL_Driver/Src/stm32g4xx_hal_dac_ex.c ****   /* Enable the triangle wave generation for the selected DAC channel */
 406:Drivers/STM32G4xx_HAL_Driver/Src/stm32g4xx_hal_dac_ex.c ****   MODIFY_REG(hdac->Instance->CR, ((DAC_CR_WAVE1) | (DAC_CR_MAMP1)) << (Channel & 0x10UL), (DAC_CR_W
 554              		.loc 1 406 3 is_stmt 1 discriminator 2 view .LVU161
 555 0010 0668     		ldr	r6, [r0]
 556 0012 3368     		ldr	r3, [r6]
 557 0014 01F01001 		and	r1, r1, #16
 558              	.LVL41:
 559              		.loc 1 406 3 is_stmt 0 discriminator 2 view .LVU162
 560 0018 4FF47C64 		mov	r4, #4032
 561 001c 8C40     		lsls	r4, r4, r1
 562 001e 23EA0403 		bic	r3, r3, r4
 563 0022 42F08002 		orr	r2, r2, #128
 564              	.LVL42:
 565              		.loc 1 406 3 discriminator 2 view .LVU163
 566 0026 8A40     		lsls	r2, r2, r1
 567 0028 1A43     		orrs	r2, r2, r3
 568 002a 3260     		str	r2, [r6]
 407:Drivers/STM32G4xx_HAL_Driver/Src/stm32g4xx_hal_dac_ex.c **** 
 408:Drivers/STM32G4xx_HAL_Driver/Src/stm32g4xx_hal_dac_ex.c ****   /* Change DAC state */
 409:Drivers/STM32G4xx_HAL_Driver/Src/stm32g4xx_hal_dac_ex.c ****   hdac->State = HAL_DAC_STATE_READY;
 569              		.loc 1 409 3 is_stmt 1 discriminator 2 view .LVU164
 570              		.loc 1 409 15 is_stmt 0 discriminator 2 view .LVU165
 571 002c 0571     		strb	r5, [r0, #4]
 410:Drivers/STM32G4xx_HAL_Driver/Src/stm32g4xx_hal_dac_ex.c **** 
 411:Drivers/STM32G4xx_HAL_Driver/Src/stm32g4xx_hal_dac_ex.c ****   /* Process unlocked */
 412:Drivers/STM32G4xx_HAL_Driver/Src/stm32g4xx_hal_dac_ex.c ****   __HAL_UNLOCK(hdac);
 572              		.loc 1 412 3 is_stmt 1 discriminator 2 view .LVU166
 573              		.loc 1 412 3 discriminator 2 view .LVU167
 574 002e 0023     		movs	r3, #0
 575 0030 4371     		strb	r3, [r0, #5]
 576              		.loc 1 412 3 discriminator 2 view .LVU168
 413:Drivers/STM32G4xx_HAL_Driver/Src/stm32g4xx_hal_dac_ex.c **** 
 414:Drivers/STM32G4xx_HAL_Driver/Src/stm32g4xx_hal_dac_ex.c ****   /* Return function status */
ARM GAS  /tmp/ccEoBVya.s 			page 19


 415:Drivers/STM32G4xx_HAL_Driver/Src/stm32g4xx_hal_dac_ex.c ****   return HAL_OK;
 577              		.loc 1 415 3 discriminator 2 view .LVU169
 578              		.loc 1 415 10 is_stmt 0 discriminator 2 view .LVU170
 579 0032 1846     		mov	r0, r3
 580              	.LVL43:
 416:Drivers/STM32G4xx_HAL_Driver/Src/stm32g4xx_hal_dac_ex.c **** }
 581              		.loc 1 416 1 discriminator 2 view .LVU171
 582 0034 70BC     		pop	{r4, r5, r6}
 583              	.LCFI6:
 584              		.cfi_restore 6
 585              		.cfi_restore 5
 586              		.cfi_restore 4
 587              		.cfi_def_cfa_offset 0
 588 0036 7047     		bx	lr
 589              	.LVL44:
 590              	.L39:
 400:Drivers/STM32G4xx_HAL_Driver/Src/stm32g4xx_hal_dac_ex.c **** 
 591              		.loc 1 400 3 view .LVU172
 592 0038 0220     		movs	r0, #2
 593              	.LVL45:
 594              		.loc 1 416 1 view .LVU173
 595 003a 7047     		bx	lr
 596              		.cfi_endproc
 597              	.LFE166:
 599              		.section	.text.HAL_DACEx_NoiseWaveGenerate,"ax",%progbits
 600              		.align	1
 601              		.global	HAL_DACEx_NoiseWaveGenerate
 602              		.syntax unified
 603              		.thumb
 604              		.thumb_func
 605              		.fpu fpv4-sp-d16
 607              	HAL_DACEx_NoiseWaveGenerate:
 608              	.LVL46:
 609              	.LFB167:
 417:Drivers/STM32G4xx_HAL_Driver/Src/stm32g4xx_hal_dac_ex.c **** 
 418:Drivers/STM32G4xx_HAL_Driver/Src/stm32g4xx_hal_dac_ex.c **** /**
 419:Drivers/STM32G4xx_HAL_Driver/Src/stm32g4xx_hal_dac_ex.c ****   * @brief  Enable or disable the selected DAC channel wave generation.
 420:Drivers/STM32G4xx_HAL_Driver/Src/stm32g4xx_hal_dac_ex.c ****   * @param  hdac pointer to a DAC_HandleTypeDef structure that contains
 421:Drivers/STM32G4xx_HAL_Driver/Src/stm32g4xx_hal_dac_ex.c ****   *         the configuration information for the specified DAC.
 422:Drivers/STM32G4xx_HAL_Driver/Src/stm32g4xx_hal_dac_ex.c ****   * @param  Channel The selected DAC channel.
 423:Drivers/STM32G4xx_HAL_Driver/Src/stm32g4xx_hal_dac_ex.c ****   *          This parameter can be one of the following values:
 424:Drivers/STM32G4xx_HAL_Driver/Src/stm32g4xx_hal_dac_ex.c ****   *            @arg DAC_CHANNEL_1: DAC Channel1 selected
 425:Drivers/STM32G4xx_HAL_Driver/Src/stm32g4xx_hal_dac_ex.c ****   *            @arg DAC_CHANNEL_2: DAC Channel2 selected (1)
 426:Drivers/STM32G4xx_HAL_Driver/Src/stm32g4xx_hal_dac_ex.c ****   *
 427:Drivers/STM32G4xx_HAL_Driver/Src/stm32g4xx_hal_dac_ex.c ****   *         (1) On this STM32 serie, parameter not available on all instances.
 428:Drivers/STM32G4xx_HAL_Driver/Src/stm32g4xx_hal_dac_ex.c ****   *             Refer to device datasheet for channels availability.
 429:Drivers/STM32G4xx_HAL_Driver/Src/stm32g4xx_hal_dac_ex.c ****   * @param  Amplitude Unmask DAC channel LFSR for noise wave generation.
 430:Drivers/STM32G4xx_HAL_Driver/Src/stm32g4xx_hal_dac_ex.c ****   *          This parameter can be one of the following values:
 431:Drivers/STM32G4xx_HAL_Driver/Src/stm32g4xx_hal_dac_ex.c ****   *            @arg DAC_LFSRUNMASK_BIT0: Unmask DAC channel LFSR bit0 for noise wave generation
 432:Drivers/STM32G4xx_HAL_Driver/Src/stm32g4xx_hal_dac_ex.c ****   *            @arg DAC_LFSRUNMASK_BITS1_0: Unmask DAC channel LFSR bit[1:0] for noise wave generat
 433:Drivers/STM32G4xx_HAL_Driver/Src/stm32g4xx_hal_dac_ex.c ****   *            @arg DAC_LFSRUNMASK_BITS2_0: Unmask DAC channel LFSR bit[2:0] for noise wave generat
 434:Drivers/STM32G4xx_HAL_Driver/Src/stm32g4xx_hal_dac_ex.c ****   *            @arg DAC_LFSRUNMASK_BITS3_0: Unmask DAC channel LFSR bit[3:0] for noise wave generat
 435:Drivers/STM32G4xx_HAL_Driver/Src/stm32g4xx_hal_dac_ex.c ****   *            @arg DAC_LFSRUNMASK_BITS4_0: Unmask DAC channel LFSR bit[4:0] for noise wave generat
 436:Drivers/STM32G4xx_HAL_Driver/Src/stm32g4xx_hal_dac_ex.c ****   *            @arg DAC_LFSRUNMASK_BITS5_0: Unmask DAC channel LFSR bit[5:0] for noise wave generat
 437:Drivers/STM32G4xx_HAL_Driver/Src/stm32g4xx_hal_dac_ex.c ****   *            @arg DAC_LFSRUNMASK_BITS6_0: Unmask DAC channel LFSR bit[6:0] for noise wave generat
 438:Drivers/STM32G4xx_HAL_Driver/Src/stm32g4xx_hal_dac_ex.c ****   *            @arg DAC_LFSRUNMASK_BITS7_0: Unmask DAC channel LFSR bit[7:0] for noise wave generat
 439:Drivers/STM32G4xx_HAL_Driver/Src/stm32g4xx_hal_dac_ex.c ****   *            @arg DAC_LFSRUNMASK_BITS8_0: Unmask DAC channel LFSR bit[8:0] for noise wave generat
ARM GAS  /tmp/ccEoBVya.s 			page 20


 440:Drivers/STM32G4xx_HAL_Driver/Src/stm32g4xx_hal_dac_ex.c ****   *            @arg DAC_LFSRUNMASK_BITS9_0: Unmask DAC channel LFSR bit[9:0] for noise wave generat
 441:Drivers/STM32G4xx_HAL_Driver/Src/stm32g4xx_hal_dac_ex.c ****   *            @arg DAC_LFSRUNMASK_BITS10_0: Unmask DAC channel LFSR bit[10:0] for noise wave gener
 442:Drivers/STM32G4xx_HAL_Driver/Src/stm32g4xx_hal_dac_ex.c ****   *            @arg DAC_LFSRUNMASK_BITS11_0: Unmask DAC channel LFSR bit[11:0] for noise wave gener
 443:Drivers/STM32G4xx_HAL_Driver/Src/stm32g4xx_hal_dac_ex.c ****   * @retval HAL status
 444:Drivers/STM32G4xx_HAL_Driver/Src/stm32g4xx_hal_dac_ex.c ****   */
 445:Drivers/STM32G4xx_HAL_Driver/Src/stm32g4xx_hal_dac_ex.c **** HAL_StatusTypeDef HAL_DACEx_NoiseWaveGenerate(DAC_HandleTypeDef *hdac, uint32_t Channel, uint32_t A
 446:Drivers/STM32G4xx_HAL_Driver/Src/stm32g4xx_hal_dac_ex.c **** {
 610              		.loc 1 446 1 is_stmt 1 view -0
 611              		.cfi_startproc
 612              		@ args = 0, pretend = 0, frame = 0
 613              		@ frame_needed = 0, uses_anonymous_args = 0
 614              		@ link register save eliminated.
 447:Drivers/STM32G4xx_HAL_Driver/Src/stm32g4xx_hal_dac_ex.c ****   /* Check the parameters */
 448:Drivers/STM32G4xx_HAL_Driver/Src/stm32g4xx_hal_dac_ex.c ****   assert_param(IS_DAC_CHANNEL(hdac->Instance, Channel));
 615              		.loc 1 448 3 view .LVU175
 449:Drivers/STM32G4xx_HAL_Driver/Src/stm32g4xx_hal_dac_ex.c ****   assert_param(IS_DAC_LFSR_UNMASK_TRIANGLE_AMPLITUDE(Amplitude));
 616              		.loc 1 449 3 view .LVU176
 450:Drivers/STM32G4xx_HAL_Driver/Src/stm32g4xx_hal_dac_ex.c **** 
 451:Drivers/STM32G4xx_HAL_Driver/Src/stm32g4xx_hal_dac_ex.c ****   /* Process locked */
 452:Drivers/STM32G4xx_HAL_Driver/Src/stm32g4xx_hal_dac_ex.c ****   __HAL_LOCK(hdac);
 617              		.loc 1 452 3 view .LVU177
 618              		.loc 1 452 3 view .LVU178
 619 0000 4379     		ldrb	r3, [r0, #5]	@ zero_extendqisi2
 620 0002 012B     		cmp	r3, #1
 621 0004 18D0     		beq	.L46
 446:Drivers/STM32G4xx_HAL_Driver/Src/stm32g4xx_hal_dac_ex.c ****   /* Check the parameters */
 622              		.loc 1 446 1 is_stmt 0 discriminator 2 view .LVU179
 623 0006 70B4     		push	{r4, r5, r6}
 624              	.LCFI7:
 625              		.cfi_def_cfa_offset 12
 626              		.cfi_offset 4, -12
 627              		.cfi_offset 5, -8
 628              		.cfi_offset 6, -4
 629              		.loc 1 452 3 is_stmt 1 discriminator 2 view .LVU180
 630 0008 0125     		movs	r5, #1
 631 000a 4571     		strb	r5, [r0, #5]
 632              		.loc 1 452 3 discriminator 2 view .LVU181
 453:Drivers/STM32G4xx_HAL_Driver/Src/stm32g4xx_hal_dac_ex.c **** 
 454:Drivers/STM32G4xx_HAL_Driver/Src/stm32g4xx_hal_dac_ex.c ****   /* Change DAC state */
 455:Drivers/STM32G4xx_HAL_Driver/Src/stm32g4xx_hal_dac_ex.c ****   hdac->State = HAL_DAC_STATE_BUSY;
 633              		.loc 1 455 3 discriminator 2 view .LVU182
 634              		.loc 1 455 15 is_stmt 0 discriminator 2 view .LVU183
 635 000c 0223     		movs	r3, #2
 636 000e 0371     		strb	r3, [r0, #4]
 456:Drivers/STM32G4xx_HAL_Driver/Src/stm32g4xx_hal_dac_ex.c **** 
 457:Drivers/STM32G4xx_HAL_Driver/Src/stm32g4xx_hal_dac_ex.c ****   /* Enable the noise wave generation for the selected DAC channel */
 458:Drivers/STM32G4xx_HAL_Driver/Src/stm32g4xx_hal_dac_ex.c ****   MODIFY_REG(hdac->Instance->CR, ((DAC_CR_WAVE1) | (DAC_CR_MAMP1)) << (Channel & 0x10UL), (DAC_CR_W
 637              		.loc 1 458 3 is_stmt 1 discriminator 2 view .LVU184
 638 0010 0668     		ldr	r6, [r0]
 639 0012 3368     		ldr	r3, [r6]
 640 0014 01F01001 		and	r1, r1, #16
 641              	.LVL47:
 642              		.loc 1 458 3 is_stmt 0 discriminator 2 view .LVU185
 643 0018 4FF47C64 		mov	r4, #4032
 644 001c 8C40     		lsls	r4, r4, r1
 645 001e 23EA0403 		bic	r3, r3, r4
 646 0022 42F04002 		orr	r2, r2, #64
ARM GAS  /tmp/ccEoBVya.s 			page 21


 647              	.LVL48:
 648              		.loc 1 458 3 discriminator 2 view .LVU186
 649 0026 8A40     		lsls	r2, r2, r1
 650 0028 1A43     		orrs	r2, r2, r3
 651 002a 3260     		str	r2, [r6]
 459:Drivers/STM32G4xx_HAL_Driver/Src/stm32g4xx_hal_dac_ex.c **** 
 460:Drivers/STM32G4xx_HAL_Driver/Src/stm32g4xx_hal_dac_ex.c ****   /* Change DAC state */
 461:Drivers/STM32G4xx_HAL_Driver/Src/stm32g4xx_hal_dac_ex.c ****   hdac->State = HAL_DAC_STATE_READY;
 652              		.loc 1 461 3 is_stmt 1 discriminator 2 view .LVU187
 653              		.loc 1 461 15 is_stmt 0 discriminator 2 view .LVU188
 654 002c 0571     		strb	r5, [r0, #4]
 462:Drivers/STM32G4xx_HAL_Driver/Src/stm32g4xx_hal_dac_ex.c **** 
 463:Drivers/STM32G4xx_HAL_Driver/Src/stm32g4xx_hal_dac_ex.c ****   /* Process unlocked */
 464:Drivers/STM32G4xx_HAL_Driver/Src/stm32g4xx_hal_dac_ex.c ****   __HAL_UNLOCK(hdac);
 655              		.loc 1 464 3 is_stmt 1 discriminator 2 view .LVU189
 656              		.loc 1 464 3 discriminator 2 view .LVU190
 657 002e 0023     		movs	r3, #0
 658 0030 4371     		strb	r3, [r0, #5]
 659              		.loc 1 464 3 discriminator 2 view .LVU191
 465:Drivers/STM32G4xx_HAL_Driver/Src/stm32g4xx_hal_dac_ex.c **** 
 466:Drivers/STM32G4xx_HAL_Driver/Src/stm32g4xx_hal_dac_ex.c ****   /* Return function status */
 467:Drivers/STM32G4xx_HAL_Driver/Src/stm32g4xx_hal_dac_ex.c ****   return HAL_OK;
 660              		.loc 1 467 3 discriminator 2 view .LVU192
 661              		.loc 1 467 10 is_stmt 0 discriminator 2 view .LVU193
 662 0032 1846     		mov	r0, r3
 663              	.LVL49:
 468:Drivers/STM32G4xx_HAL_Driver/Src/stm32g4xx_hal_dac_ex.c **** }
 664              		.loc 1 468 1 discriminator 2 view .LVU194
 665 0034 70BC     		pop	{r4, r5, r6}
 666              	.LCFI8:
 667              		.cfi_restore 6
 668              		.cfi_restore 5
 669              		.cfi_restore 4
 670              		.cfi_def_cfa_offset 0
 671 0036 7047     		bx	lr
 672              	.LVL50:
 673              	.L46:
 452:Drivers/STM32G4xx_HAL_Driver/Src/stm32g4xx_hal_dac_ex.c **** 
 674              		.loc 1 452 3 view .LVU195
 675 0038 0220     		movs	r0, #2
 676              	.LVL51:
 677              		.loc 1 468 1 view .LVU196
 678 003a 7047     		bx	lr
 679              		.cfi_endproc
 680              	.LFE167:
 682              		.section	.text.HAL_DACEx_SawtoothWaveGenerate,"ax",%progbits
 683              		.align	1
 684              		.global	HAL_DACEx_SawtoothWaveGenerate
 685              		.syntax unified
 686              		.thumb
 687              		.thumb_func
 688              		.fpu fpv4-sp-d16
 690              	HAL_DACEx_SawtoothWaveGenerate:
 691              	.LVL52:
 692              	.LFB168:
 469:Drivers/STM32G4xx_HAL_Driver/Src/stm32g4xx_hal_dac_ex.c **** 
 470:Drivers/STM32G4xx_HAL_Driver/Src/stm32g4xx_hal_dac_ex.c **** /**
ARM GAS  /tmp/ccEoBVya.s 			page 22


 471:Drivers/STM32G4xx_HAL_Driver/Src/stm32g4xx_hal_dac_ex.c ****   * @brief  Enable or disable the selected DAC channel sawtooth wave generation.
 472:Drivers/STM32G4xx_HAL_Driver/Src/stm32g4xx_hal_dac_ex.c ****   * @param  hdac pointer to a DAC_HandleTypeDef structure that contains
 473:Drivers/STM32G4xx_HAL_Driver/Src/stm32g4xx_hal_dac_ex.c ****   *         the configuration information for the specified DAC.
 474:Drivers/STM32G4xx_HAL_Driver/Src/stm32g4xx_hal_dac_ex.c ****   * @param  Channel The selected DAC channel.
 475:Drivers/STM32G4xx_HAL_Driver/Src/stm32g4xx_hal_dac_ex.c ****   *          This parameter can be one of the following values:
 476:Drivers/STM32G4xx_HAL_Driver/Src/stm32g4xx_hal_dac_ex.c ****   *            @arg DAC_CHANNEL_1: DAC Channel1 selected
 477:Drivers/STM32G4xx_HAL_Driver/Src/stm32g4xx_hal_dac_ex.c ****   *            @arg DAC_CHANNEL_2: DAC Channel2 selected (1)
 478:Drivers/STM32G4xx_HAL_Driver/Src/stm32g4xx_hal_dac_ex.c ****   *
 479:Drivers/STM32G4xx_HAL_Driver/Src/stm32g4xx_hal_dac_ex.c ****   *         (1) On this STM32 serie, parameter not available on all instances.
 480:Drivers/STM32G4xx_HAL_Driver/Src/stm32g4xx_hal_dac_ex.c ****   *             Refer to device datasheet for channels availability.
 481:Drivers/STM32G4xx_HAL_Driver/Src/stm32g4xx_hal_dac_ex.c ****   * @param  Polarity polarity to be used for wave generation.
 482:Drivers/STM32G4xx_HAL_Driver/Src/stm32g4xx_hal_dac_ex.c ****   *          This parameter can be one of the following values:
 483:Drivers/STM32G4xx_HAL_Driver/Src/stm32g4xx_hal_dac_ex.c ****   *            @arg DAC_SAWTOOTH_POLARITY_DECREMENT
 484:Drivers/STM32G4xx_HAL_Driver/Src/stm32g4xx_hal_dac_ex.c ****   *            @arg DAC_SAWTOOTH_POLARITY_INCREMENT
 485:Drivers/STM32G4xx_HAL_Driver/Src/stm32g4xx_hal_dac_ex.c ****   * @param  ResetData Sawtooth wave reset value.
 486:Drivers/STM32G4xx_HAL_Driver/Src/stm32g4xx_hal_dac_ex.c ****   *          Range is from 0 to DAC full range 4095 (0xFFF)
 487:Drivers/STM32G4xx_HAL_Driver/Src/stm32g4xx_hal_dac_ex.c ****   * @param  StepData Sawtooth wave step value.
 488:Drivers/STM32G4xx_HAL_Driver/Src/stm32g4xx_hal_dac_ex.c ****   *          12.4 bit format, unsigned: 12 bits exponent / 4 bits mantissa
 489:Drivers/STM32G4xx_HAL_Driver/Src/stm32g4xx_hal_dac_ex.c ****   *          Step value step is 1/16 = 0.0625
 490:Drivers/STM32G4xx_HAL_Driver/Src/stm32g4xx_hal_dac_ex.c ****   *          Step value range is 0.0000 to 4095.9375 (0xFFF.F)
 491:Drivers/STM32G4xx_HAL_Driver/Src/stm32g4xx_hal_dac_ex.c ****   * @note    Sawtooth reset and step triggers are configured by calling @ref HAL_DAC_ConfigChannel
 492:Drivers/STM32G4xx_HAL_Driver/Src/stm32g4xx_hal_dac_ex.c ****   * @retval HAL status
 493:Drivers/STM32G4xx_HAL_Driver/Src/stm32g4xx_hal_dac_ex.c ****   */
 494:Drivers/STM32G4xx_HAL_Driver/Src/stm32g4xx_hal_dac_ex.c **** HAL_StatusTypeDef HAL_DACEx_SawtoothWaveGenerate(DAC_HandleTypeDef *hdac, uint32_t Channel, uint32_
 495:Drivers/STM32G4xx_HAL_Driver/Src/stm32g4xx_hal_dac_ex.c ****                                                  uint32_t ResetData, uint32_t StepData)
 496:Drivers/STM32G4xx_HAL_Driver/Src/stm32g4xx_hal_dac_ex.c **** {
 693              		.loc 1 496 1 is_stmt 1 view -0
 694              		.cfi_startproc
 695              		@ args = 4, pretend = 0, frame = 0
 696              		@ frame_needed = 0, uses_anonymous_args = 0
 697              		@ link register save eliminated.
 698              		.loc 1 496 1 is_stmt 0 view .LVU198
 699 0000 70B4     		push	{r4, r5, r6}
 700              	.LCFI9:
 701              		.cfi_def_cfa_offset 12
 702              		.cfi_offset 4, -12
 703              		.cfi_offset 5, -8
 704              		.cfi_offset 6, -4
 497:Drivers/STM32G4xx_HAL_Driver/Src/stm32g4xx_hal_dac_ex.c ****   /* Check the parameters */
 498:Drivers/STM32G4xx_HAL_Driver/Src/stm32g4xx_hal_dac_ex.c ****   assert_param(IS_DAC_CHANNEL(hdac->Instance, Channel));
 705              		.loc 1 498 3 is_stmt 1 view .LVU199
 499:Drivers/STM32G4xx_HAL_Driver/Src/stm32g4xx_hal_dac_ex.c ****   assert_param(IS_DAC_SAWTOOTH_POLARITY(Polarity));
 706              		.loc 1 499 3 view .LVU200
 500:Drivers/STM32G4xx_HAL_Driver/Src/stm32g4xx_hal_dac_ex.c ****   assert_param(IS_DAC_RESET_DATA(ResetData));
 707              		.loc 1 500 3 view .LVU201
 501:Drivers/STM32G4xx_HAL_Driver/Src/stm32g4xx_hal_dac_ex.c ****   assert_param(IS_DAC_STEP_DATA(StepData));
 708              		.loc 1 501 3 view .LVU202
 502:Drivers/STM32G4xx_HAL_Driver/Src/stm32g4xx_hal_dac_ex.c **** 
 503:Drivers/STM32G4xx_HAL_Driver/Src/stm32g4xx_hal_dac_ex.c ****   /* Process locked */
 504:Drivers/STM32G4xx_HAL_Driver/Src/stm32g4xx_hal_dac_ex.c ****   __HAL_LOCK(hdac);
 709              		.loc 1 504 3 view .LVU203
 710              		.loc 1 504 3 view .LVU204
 711 0002 4479     		ldrb	r4, [r0, #5]	@ zero_extendqisi2
 712 0004 012C     		cmp	r4, #1
 713 0006 28D0     		beq	.L55
 714              		.loc 1 504 3 discriminator 2 view .LVU205
 715 0008 0124     		movs	r4, #1
ARM GAS  /tmp/ccEoBVya.s 			page 23


 716 000a 4471     		strb	r4, [r0, #5]
 717              		.loc 1 504 3 discriminator 2 view .LVU206
 505:Drivers/STM32G4xx_HAL_Driver/Src/stm32g4xx_hal_dac_ex.c **** 
 506:Drivers/STM32G4xx_HAL_Driver/Src/stm32g4xx_hal_dac_ex.c ****   /* Change DAC state */
 507:Drivers/STM32G4xx_HAL_Driver/Src/stm32g4xx_hal_dac_ex.c ****   hdac->State = HAL_DAC_STATE_BUSY;
 718              		.loc 1 507 3 discriminator 2 view .LVU207
 719              		.loc 1 507 15 is_stmt 0 discriminator 2 view .LVU208
 720 000c 0224     		movs	r4, #2
 721 000e 0471     		strb	r4, [r0, #4]
 508:Drivers/STM32G4xx_HAL_Driver/Src/stm32g4xx_hal_dac_ex.c **** 
 509:Drivers/STM32G4xx_HAL_Driver/Src/stm32g4xx_hal_dac_ex.c ****   if (Channel == DAC_CHANNEL_1)
 722              		.loc 1 509 3 is_stmt 1 discriminator 2 view .LVU209
 723              		.loc 1 509 6 is_stmt 0 discriminator 2 view .LVU210
 724 0010 C1B9     		cbnz	r1, .L53
 510:Drivers/STM32G4xx_HAL_Driver/Src/stm32g4xx_hal_dac_ex.c ****   {
 511:Drivers/STM32G4xx_HAL_Driver/Src/stm32g4xx_hal_dac_ex.c ****     /* Configure the sawtooth wave generation data parameters */
 512:Drivers/STM32G4xx_HAL_Driver/Src/stm32g4xx_hal_dac_ex.c ****     MODIFY_REG(hdac->Instance->STR1,
 725              		.loc 1 512 5 is_stmt 1 view .LVU211
 726 0012 0568     		ldr	r5, [r0]
 727 0014 AC6D     		ldr	r4, [r5, #88]
 728 0016 04F46044 		and	r4, r4, #57344
 729 001a 039E     		ldr	r6, [sp, #12]
 730 001c 42EA0642 		orr	r2, r2, r6, lsl #16
 731              	.LVL53:
 732              		.loc 1 512 5 is_stmt 0 view .LVU212
 733 0020 1A43     		orrs	r2, r2, r3
 734 0022 2243     		orrs	r2, r2, r4
 735 0024 AA65     		str	r2, [r5, #88]
 736              	.L54:
 513:Drivers/STM32G4xx_HAL_Driver/Src/stm32g4xx_hal_dac_ex.c ****                DAC_STR1_STINCDATA1 | DAC_STR1_STDIR1 | DAC_STR1_STRSTDATA1,
 514:Drivers/STM32G4xx_HAL_Driver/Src/stm32g4xx_hal_dac_ex.c ****                (StepData << DAC_STR1_STINCDATA1_Pos)
 515:Drivers/STM32G4xx_HAL_Driver/Src/stm32g4xx_hal_dac_ex.c ****                | Polarity
 516:Drivers/STM32G4xx_HAL_Driver/Src/stm32g4xx_hal_dac_ex.c ****                | (ResetData << DAC_STR1_STRSTDATA1_Pos));
 517:Drivers/STM32G4xx_HAL_Driver/Src/stm32g4xx_hal_dac_ex.c ****   }
 518:Drivers/STM32G4xx_HAL_Driver/Src/stm32g4xx_hal_dac_ex.c ****   else
 519:Drivers/STM32G4xx_HAL_Driver/Src/stm32g4xx_hal_dac_ex.c ****   {
 520:Drivers/STM32G4xx_HAL_Driver/Src/stm32g4xx_hal_dac_ex.c ****     /* Configure the sawtooth wave generation data parameters */
 521:Drivers/STM32G4xx_HAL_Driver/Src/stm32g4xx_hal_dac_ex.c ****     MODIFY_REG(hdac->Instance->STR2,
 522:Drivers/STM32G4xx_HAL_Driver/Src/stm32g4xx_hal_dac_ex.c ****                DAC_STR2_STINCDATA2 | DAC_STR2_STDIR2 | DAC_STR2_STRSTDATA2,
 523:Drivers/STM32G4xx_HAL_Driver/Src/stm32g4xx_hal_dac_ex.c ****                (StepData << DAC_STR2_STINCDATA2_Pos)
 524:Drivers/STM32G4xx_HAL_Driver/Src/stm32g4xx_hal_dac_ex.c ****                | Polarity
 525:Drivers/STM32G4xx_HAL_Driver/Src/stm32g4xx_hal_dac_ex.c ****                | (ResetData << DAC_STR2_STRSTDATA2_Pos));
 526:Drivers/STM32G4xx_HAL_Driver/Src/stm32g4xx_hal_dac_ex.c ****   }
 527:Drivers/STM32G4xx_HAL_Driver/Src/stm32g4xx_hal_dac_ex.c **** 
 528:Drivers/STM32G4xx_HAL_Driver/Src/stm32g4xx_hal_dac_ex.c ****   /* Enable the sawtooth wave generation for the selected DAC channel */
 529:Drivers/STM32G4xx_HAL_Driver/Src/stm32g4xx_hal_dac_ex.c ****   MODIFY_REG(hdac->Instance->CR, (DAC_CR_WAVE1) << (Channel & 0x10UL), (uint32_t)(DAC_CR_WAVE1_1 | 
 737              		.loc 1 529 3 is_stmt 1 view .LVU213
 738 0026 01F01001 		and	r1, r1, #16
 739              	.LVL54:
 740              		.loc 1 529 3 is_stmt 0 view .LVU214
 741 002a C023     		movs	r3, #192
 742              	.LVL55:
 743              		.loc 1 529 3 view .LVU215
 744 002c 8B40     		lsls	r3, r3, r1
 745 002e 0268     		ldr	r2, [r0]
 746 0030 1168     		ldr	r1, [r2]
 747 0032 0B43     		orrs	r3, r3, r1
ARM GAS  /tmp/ccEoBVya.s 			page 24


 748 0034 1360     		str	r3, [r2]
 530:Drivers/STM32G4xx_HAL_Driver/Src/stm32g4xx_hal_dac_ex.c **** 
 531:Drivers/STM32G4xx_HAL_Driver/Src/stm32g4xx_hal_dac_ex.c ****   /* Change DAC state */
 532:Drivers/STM32G4xx_HAL_Driver/Src/stm32g4xx_hal_dac_ex.c ****   hdac->State = HAL_DAC_STATE_READY;
 749              		.loc 1 532 3 is_stmt 1 view .LVU216
 750              		.loc 1 532 15 is_stmt 0 view .LVU217
 751 0036 0123     		movs	r3, #1
 752 0038 0371     		strb	r3, [r0, #4]
 533:Drivers/STM32G4xx_HAL_Driver/Src/stm32g4xx_hal_dac_ex.c **** 
 534:Drivers/STM32G4xx_HAL_Driver/Src/stm32g4xx_hal_dac_ex.c ****   /* Process unlocked */
 535:Drivers/STM32G4xx_HAL_Driver/Src/stm32g4xx_hal_dac_ex.c ****   __HAL_UNLOCK(hdac);
 753              		.loc 1 535 3 is_stmt 1 view .LVU218
 754              		.loc 1 535 3 view .LVU219
 755 003a 0023     		movs	r3, #0
 756 003c 4371     		strb	r3, [r0, #5]
 757              		.loc 1 535 3 view .LVU220
 536:Drivers/STM32G4xx_HAL_Driver/Src/stm32g4xx_hal_dac_ex.c **** 
 537:Drivers/STM32G4xx_HAL_Driver/Src/stm32g4xx_hal_dac_ex.c ****   /* Return function status */
 538:Drivers/STM32G4xx_HAL_Driver/Src/stm32g4xx_hal_dac_ex.c ****   return HAL_OK;
 758              		.loc 1 538 3 view .LVU221
 759              		.loc 1 538 10 is_stmt 0 view .LVU222
 760 003e 1846     		mov	r0, r3
 761              	.LVL56:
 762              	.L52:
 539:Drivers/STM32G4xx_HAL_Driver/Src/stm32g4xx_hal_dac_ex.c **** }
 763              		.loc 1 539 1 view .LVU223
 764 0040 70BC     		pop	{r4, r5, r6}
 765              	.LCFI10:
 766              		.cfi_remember_state
 767              		.cfi_restore 6
 768              		.cfi_restore 5
 769              		.cfi_restore 4
 770              		.cfi_def_cfa_offset 0
 771              	.LVL57:
 772              		.loc 1 539 1 view .LVU224
 773 0042 7047     		bx	lr
 774              	.LVL58:
 775              	.L53:
 776              	.LCFI11:
 777              		.cfi_restore_state
 521:Drivers/STM32G4xx_HAL_Driver/Src/stm32g4xx_hal_dac_ex.c ****                DAC_STR2_STINCDATA2 | DAC_STR2_STDIR2 | DAC_STR2_STRSTDATA2,
 778              		.loc 1 521 5 is_stmt 1 view .LVU225
 779 0044 0568     		ldr	r5, [r0]
 780 0046 EC6D     		ldr	r4, [r5, #92]
 781 0048 04F46044 		and	r4, r4, #57344
 782 004c 039E     		ldr	r6, [sp, #12]
 783 004e 42EA0642 		orr	r2, r2, r6, lsl #16
 784              	.LVL59:
 521:Drivers/STM32G4xx_HAL_Driver/Src/stm32g4xx_hal_dac_ex.c ****                DAC_STR2_STINCDATA2 | DAC_STR2_STDIR2 | DAC_STR2_STRSTDATA2,
 785              		.loc 1 521 5 is_stmt 0 view .LVU226
 786 0052 1A43     		orrs	r2, r2, r3
 787 0054 2243     		orrs	r2, r2, r4
 788 0056 EA65     		str	r2, [r5, #92]
 789 0058 E5E7     		b	.L54
 790              	.LVL60:
 791              	.L55:
 504:Drivers/STM32G4xx_HAL_Driver/Src/stm32g4xx_hal_dac_ex.c **** 
ARM GAS  /tmp/ccEoBVya.s 			page 25


 792              		.loc 1 504 3 view .LVU227
 793 005a 0220     		movs	r0, #2
 794              	.LVL61:
 504:Drivers/STM32G4xx_HAL_Driver/Src/stm32g4xx_hal_dac_ex.c **** 
 795              		.loc 1 504 3 view .LVU228
 796 005c F0E7     		b	.L52
 797              		.cfi_endproc
 798              	.LFE168:
 800              		.section	.text.HAL_DACEx_SawtoothWaveDataReset,"ax",%progbits
 801              		.align	1
 802              		.global	HAL_DACEx_SawtoothWaveDataReset
 803              		.syntax unified
 804              		.thumb
 805              		.thumb_func
 806              		.fpu fpv4-sp-d16
 808              	HAL_DACEx_SawtoothWaveDataReset:
 809              	.LVL62:
 810              	.LFB169:
 540:Drivers/STM32G4xx_HAL_Driver/Src/stm32g4xx_hal_dac_ex.c **** 
 541:Drivers/STM32G4xx_HAL_Driver/Src/stm32g4xx_hal_dac_ex.c **** /**
 542:Drivers/STM32G4xx_HAL_Driver/Src/stm32g4xx_hal_dac_ex.c ****   * @brief  Trig sawtooth wave reset
 543:Drivers/STM32G4xx_HAL_Driver/Src/stm32g4xx_hal_dac_ex.c ****   * @note   This function allows to reset sawtooth wave in case of SW trigger
 544:Drivers/STM32G4xx_HAL_Driver/Src/stm32g4xx_hal_dac_ex.c ****   *         has been configured for this usage.
 545:Drivers/STM32G4xx_HAL_Driver/Src/stm32g4xx_hal_dac_ex.c ****   * @param  hdac pointer to a DAC_HandleTypeDef structure that contains
 546:Drivers/STM32G4xx_HAL_Driver/Src/stm32g4xx_hal_dac_ex.c ****   *         the configuration information for the specified DAC.
 547:Drivers/STM32G4xx_HAL_Driver/Src/stm32g4xx_hal_dac_ex.c ****   * @param  Channel The selected DAC channel.
 548:Drivers/STM32G4xx_HAL_Driver/Src/stm32g4xx_hal_dac_ex.c ****   *          This parameter can be one of the following values:
 549:Drivers/STM32G4xx_HAL_Driver/Src/stm32g4xx_hal_dac_ex.c ****   *            @arg DAC_CHANNEL_1: DAC Channel1 selected
 550:Drivers/STM32G4xx_HAL_Driver/Src/stm32g4xx_hal_dac_ex.c ****   *            @arg DAC_CHANNEL_2: DAC Channel2 selected (1)
 551:Drivers/STM32G4xx_HAL_Driver/Src/stm32g4xx_hal_dac_ex.c ****   *
 552:Drivers/STM32G4xx_HAL_Driver/Src/stm32g4xx_hal_dac_ex.c ****   *         (1) On this STM32 serie, parameter not available on all instances.
 553:Drivers/STM32G4xx_HAL_Driver/Src/stm32g4xx_hal_dac_ex.c ****   *             Refer to device datasheet for channels availability.
 554:Drivers/STM32G4xx_HAL_Driver/Src/stm32g4xx_hal_dac_ex.c ****   * @retval HAL status
 555:Drivers/STM32G4xx_HAL_Driver/Src/stm32g4xx_hal_dac_ex.c ****   */
 556:Drivers/STM32G4xx_HAL_Driver/Src/stm32g4xx_hal_dac_ex.c **** HAL_StatusTypeDef HAL_DACEx_SawtoothWaveDataReset(DAC_HandleTypeDef *hdac, uint32_t Channel)
 557:Drivers/STM32G4xx_HAL_Driver/Src/stm32g4xx_hal_dac_ex.c **** {
 811              		.loc 1 557 1 is_stmt 1 view -0
 812              		.cfi_startproc
 813              		@ args = 0, pretend = 0, frame = 0
 814              		@ frame_needed = 0, uses_anonymous_args = 0
 815              		@ link register save eliminated.
 558:Drivers/STM32G4xx_HAL_Driver/Src/stm32g4xx_hal_dac_ex.c ****   HAL_StatusTypeDef status = HAL_OK;
 816              		.loc 1 558 3 view .LVU230
 559:Drivers/STM32G4xx_HAL_Driver/Src/stm32g4xx_hal_dac_ex.c **** 
 560:Drivers/STM32G4xx_HAL_Driver/Src/stm32g4xx_hal_dac_ex.c ****   /* Check the parameters */
 561:Drivers/STM32G4xx_HAL_Driver/Src/stm32g4xx_hal_dac_ex.c ****   assert_param(IS_DAC_CHANNEL(hdac->Instance, Channel));
 817              		.loc 1 561 3 view .LVU231
 562:Drivers/STM32G4xx_HAL_Driver/Src/stm32g4xx_hal_dac_ex.c **** 
 563:Drivers/STM32G4xx_HAL_Driver/Src/stm32g4xx_hal_dac_ex.c ****   /* Process locked */
 564:Drivers/STM32G4xx_HAL_Driver/Src/stm32g4xx_hal_dac_ex.c ****   __HAL_LOCK(hdac);
 818              		.loc 1 564 3 view .LVU232
 819              		.loc 1 564 3 view .LVU233
 820 0000 4279     		ldrb	r2, [r0, #5]	@ zero_extendqisi2
 821 0002 012A     		cmp	r2, #1
 822 0004 21D0     		beq	.L62
 557:Drivers/STM32G4xx_HAL_Driver/Src/stm32g4xx_hal_dac_ex.c ****   HAL_StatusTypeDef status = HAL_OK;
 823              		.loc 1 557 1 is_stmt 0 discriminator 2 view .LVU234
ARM GAS  /tmp/ccEoBVya.s 			page 26


 824 0006 10B4     		push	{r4}
 825              	.LCFI12:
 826              		.cfi_def_cfa_offset 4
 827              		.cfi_offset 4, -4
 828 0008 0346     		mov	r3, r0
 829              		.loc 1 564 3 is_stmt 1 discriminator 2 view .LVU235
 830 000a 0122     		movs	r2, #1
 831 000c 4271     		strb	r2, [r0, #5]
 832              		.loc 1 564 3 discriminator 2 view .LVU236
 565:Drivers/STM32G4xx_HAL_Driver/Src/stm32g4xx_hal_dac_ex.c **** 
 566:Drivers/STM32G4xx_HAL_Driver/Src/stm32g4xx_hal_dac_ex.c ****   if (((hdac->Instance->STMODR >> (Channel & 0x10UL)) & DAC_STMODR_STRSTTRIGSEL1) == 0U /* SW TRIGG
 833              		.loc 1 566 3 discriminator 2 view .LVU237
 834              		.loc 1 566 13 is_stmt 0 discriminator 2 view .LVU238
 835 000e 0068     		ldr	r0, [r0]
 836              	.LVL63:
 837              		.loc 1 566 23 discriminator 2 view .LVU239
 838 0010 026E     		ldr	r2, [r0, #96]
 839              		.loc 1 566 44 discriminator 2 view .LVU240
 840 0012 01F01004 		and	r4, r1, #16
 841              		.loc 1 566 32 discriminator 2 view .LVU241
 842 0016 E240     		lsrs	r2, r2, r4
 843              		.loc 1 566 6 discriminator 2 view .LVU242
 844 0018 12F00F0F 		tst	r2, #15
 845 001c 0FD1     		bne	.L63
 567:Drivers/STM32G4xx_HAL_Driver/Src/stm32g4xx_hal_dac_ex.c ****   {
 568:Drivers/STM32G4xx_HAL_Driver/Src/stm32g4xx_hal_dac_ex.c ****     /* Change DAC state */
 569:Drivers/STM32G4xx_HAL_Driver/Src/stm32g4xx_hal_dac_ex.c ****     hdac->State = HAL_DAC_STATE_BUSY;
 846              		.loc 1 569 5 is_stmt 1 view .LVU243
 847              		.loc 1 569 17 is_stmt 0 view .LVU244
 848 001e 0222     		movs	r2, #2
 849 0020 1A71     		strb	r2, [r3, #4]
 570:Drivers/STM32G4xx_HAL_Driver/Src/stm32g4xx_hal_dac_ex.c **** 
 571:Drivers/STM32G4xx_HAL_Driver/Src/stm32g4xx_hal_dac_ex.c ****     if (Channel == DAC_CHANNEL_1)
 850              		.loc 1 571 5 is_stmt 1 view .LVU245
 851              		.loc 1 571 8 is_stmt 0 view .LVU246
 852 0022 39B9     		cbnz	r1, .L60
 572:Drivers/STM32G4xx_HAL_Driver/Src/stm32g4xx_hal_dac_ex.c ****     {
 573:Drivers/STM32G4xx_HAL_Driver/Src/stm32g4xx_hal_dac_ex.c ****       /* Enable the selected DAC software conversion */
 574:Drivers/STM32G4xx_HAL_Driver/Src/stm32g4xx_hal_dac_ex.c ****       SET_BIT(hdac->Instance->SWTRIGR, DAC_SWTRIGR_SWTRIG1);
 853              		.loc 1 574 7 is_stmt 1 view .LVU247
 854 0024 4268     		ldr	r2, [r0, #4]
 855 0026 42F00102 		orr	r2, r2, #1
 856 002a 4260     		str	r2, [r0, #4]
 857              	.L61:
 575:Drivers/STM32G4xx_HAL_Driver/Src/stm32g4xx_hal_dac_ex.c ****     }
 576:Drivers/STM32G4xx_HAL_Driver/Src/stm32g4xx_hal_dac_ex.c ****     else
 577:Drivers/STM32G4xx_HAL_Driver/Src/stm32g4xx_hal_dac_ex.c ****     {
 578:Drivers/STM32G4xx_HAL_Driver/Src/stm32g4xx_hal_dac_ex.c ****       /* Enable the selected DAC software conversion */
 579:Drivers/STM32G4xx_HAL_Driver/Src/stm32g4xx_hal_dac_ex.c ****       SET_BIT(hdac->Instance->SWTRIGR, DAC_SWTRIGR_SWTRIG2);
 580:Drivers/STM32G4xx_HAL_Driver/Src/stm32g4xx_hal_dac_ex.c ****     }
 581:Drivers/STM32G4xx_HAL_Driver/Src/stm32g4xx_hal_dac_ex.c **** 
 582:Drivers/STM32G4xx_HAL_Driver/Src/stm32g4xx_hal_dac_ex.c ****     /* Change DAC state */
 583:Drivers/STM32G4xx_HAL_Driver/Src/stm32g4xx_hal_dac_ex.c ****     hdac->State = HAL_DAC_STATE_READY;
 858              		.loc 1 583 5 view .LVU248
 859              		.loc 1 583 17 is_stmt 0 view .LVU249
 860 002c 0122     		movs	r2, #1
 861 002e 1A71     		strb	r2, [r3, #4]
ARM GAS  /tmp/ccEoBVya.s 			page 27


 558:Drivers/STM32G4xx_HAL_Driver/Src/stm32g4xx_hal_dac_ex.c **** 
 862              		.loc 1 558 21 view .LVU250
 863 0030 0020     		movs	r0, #0
 864 0032 05E0     		b	.L59
 865              	.L60:
 579:Drivers/STM32G4xx_HAL_Driver/Src/stm32g4xx_hal_dac_ex.c ****     }
 866              		.loc 1 579 7 is_stmt 1 view .LVU251
 867 0034 4268     		ldr	r2, [r0, #4]
 868 0036 42F00202 		orr	r2, r2, #2
 869 003a 4260     		str	r2, [r0, #4]
 870 003c F6E7     		b	.L61
 871              	.L63:
 584:Drivers/STM32G4xx_HAL_Driver/Src/stm32g4xx_hal_dac_ex.c ****   }
 585:Drivers/STM32G4xx_HAL_Driver/Src/stm32g4xx_hal_dac_ex.c ****   else
 586:Drivers/STM32G4xx_HAL_Driver/Src/stm32g4xx_hal_dac_ex.c ****   {
 587:Drivers/STM32G4xx_HAL_Driver/Src/stm32g4xx_hal_dac_ex.c ****     status = HAL_ERROR;
 872              		.loc 1 587 12 is_stmt 0 view .LVU252
 873 003e 0120     		movs	r0, #1
 874              	.L59:
 875              	.LVL64:
 588:Drivers/STM32G4xx_HAL_Driver/Src/stm32g4xx_hal_dac_ex.c ****   }
 589:Drivers/STM32G4xx_HAL_Driver/Src/stm32g4xx_hal_dac_ex.c **** 
 590:Drivers/STM32G4xx_HAL_Driver/Src/stm32g4xx_hal_dac_ex.c ****   /* Process unlocked */
 591:Drivers/STM32G4xx_HAL_Driver/Src/stm32g4xx_hal_dac_ex.c ****   __HAL_UNLOCK(hdac);
 876              		.loc 1 591 3 is_stmt 1 view .LVU253
 877              		.loc 1 591 3 view .LVU254
 878 0040 0022     		movs	r2, #0
 879 0042 5A71     		strb	r2, [r3, #5]
 880              		.loc 1 591 3 view .LVU255
 592:Drivers/STM32G4xx_HAL_Driver/Src/stm32g4xx_hal_dac_ex.c **** 
 593:Drivers/STM32G4xx_HAL_Driver/Src/stm32g4xx_hal_dac_ex.c ****   /* Return function status */
 594:Drivers/STM32G4xx_HAL_Driver/Src/stm32g4xx_hal_dac_ex.c ****   return status;
 881              		.loc 1 594 3 view .LVU256
 595:Drivers/STM32G4xx_HAL_Driver/Src/stm32g4xx_hal_dac_ex.c **** }
 882              		.loc 1 595 1 is_stmt 0 view .LVU257
 883 0044 5DF8044B 		ldr	r4, [sp], #4
 884              	.LCFI13:
 885              		.cfi_restore 4
 886              		.cfi_def_cfa_offset 0
 887 0048 7047     		bx	lr
 888              	.LVL65:
 889              	.L62:
 564:Drivers/STM32G4xx_HAL_Driver/Src/stm32g4xx_hal_dac_ex.c **** 
 890              		.loc 1 564 3 view .LVU258
 891 004a 0220     		movs	r0, #2
 892              	.LVL66:
 893              		.loc 1 595 1 view .LVU259
 894 004c 7047     		bx	lr
 895              		.cfi_endproc
 896              	.LFE169:
 898              		.section	.text.HAL_DACEx_SawtoothWaveDataStep,"ax",%progbits
 899              		.align	1
 900              		.global	HAL_DACEx_SawtoothWaveDataStep
 901              		.syntax unified
 902              		.thumb
 903              		.thumb_func
 904              		.fpu fpv4-sp-d16
ARM GAS  /tmp/ccEoBVya.s 			page 28


 906              	HAL_DACEx_SawtoothWaveDataStep:
 907              	.LVL67:
 908              	.LFB170:
 596:Drivers/STM32G4xx_HAL_Driver/Src/stm32g4xx_hal_dac_ex.c **** 
 597:Drivers/STM32G4xx_HAL_Driver/Src/stm32g4xx_hal_dac_ex.c **** /**
 598:Drivers/STM32G4xx_HAL_Driver/Src/stm32g4xx_hal_dac_ex.c ****   * @brief  Trig sawtooth wave step
 599:Drivers/STM32G4xx_HAL_Driver/Src/stm32g4xx_hal_dac_ex.c ****   * @note   This function allows to generate step  in sawtooth wave in case of
 600:Drivers/STM32G4xx_HAL_Driver/Src/stm32g4xx_hal_dac_ex.c ****   *         SW trigger has been configured for this usage.
 601:Drivers/STM32G4xx_HAL_Driver/Src/stm32g4xx_hal_dac_ex.c ****   * @param  hdac pointer to a DAC_HandleTypeDef structure that contains
 602:Drivers/STM32G4xx_HAL_Driver/Src/stm32g4xx_hal_dac_ex.c ****   *         the configuration information for the specified DAC.
 603:Drivers/STM32G4xx_HAL_Driver/Src/stm32g4xx_hal_dac_ex.c ****   * @param  Channel The selected DAC channel.
 604:Drivers/STM32G4xx_HAL_Driver/Src/stm32g4xx_hal_dac_ex.c ****   *          This parameter can be one of the following values:
 605:Drivers/STM32G4xx_HAL_Driver/Src/stm32g4xx_hal_dac_ex.c ****   *            @arg DAC_CHANNEL_1: DAC Channel1 selected
 606:Drivers/STM32G4xx_HAL_Driver/Src/stm32g4xx_hal_dac_ex.c ****   *            @arg DAC_CHANNEL_2: DAC Channel2 selected (1)
 607:Drivers/STM32G4xx_HAL_Driver/Src/stm32g4xx_hal_dac_ex.c ****   *
 608:Drivers/STM32G4xx_HAL_Driver/Src/stm32g4xx_hal_dac_ex.c ****   *         (1) On this STM32 serie, parameter not available on all instances.
 609:Drivers/STM32G4xx_HAL_Driver/Src/stm32g4xx_hal_dac_ex.c ****   *             Refer to device datasheet for channels availability.
 610:Drivers/STM32G4xx_HAL_Driver/Src/stm32g4xx_hal_dac_ex.c ****   * @retval HAL status
 611:Drivers/STM32G4xx_HAL_Driver/Src/stm32g4xx_hal_dac_ex.c ****   */
 612:Drivers/STM32G4xx_HAL_Driver/Src/stm32g4xx_hal_dac_ex.c **** HAL_StatusTypeDef HAL_DACEx_SawtoothWaveDataStep(DAC_HandleTypeDef *hdac, uint32_t Channel)
 613:Drivers/STM32G4xx_HAL_Driver/Src/stm32g4xx_hal_dac_ex.c **** {
 909              		.loc 1 613 1 is_stmt 1 view -0
 910              		.cfi_startproc
 911              		@ args = 0, pretend = 0, frame = 0
 912              		@ frame_needed = 0, uses_anonymous_args = 0
 913              		@ link register save eliminated.
 614:Drivers/STM32G4xx_HAL_Driver/Src/stm32g4xx_hal_dac_ex.c ****   HAL_StatusTypeDef status = HAL_OK;
 914              		.loc 1 614 3 view .LVU261
 615:Drivers/STM32G4xx_HAL_Driver/Src/stm32g4xx_hal_dac_ex.c **** 
 616:Drivers/STM32G4xx_HAL_Driver/Src/stm32g4xx_hal_dac_ex.c ****   /* Check the parameters */
 617:Drivers/STM32G4xx_HAL_Driver/Src/stm32g4xx_hal_dac_ex.c ****   assert_param(IS_DAC_CHANNEL(hdac->Instance, Channel));
 915              		.loc 1 617 3 view .LVU262
 618:Drivers/STM32G4xx_HAL_Driver/Src/stm32g4xx_hal_dac_ex.c **** 
 619:Drivers/STM32G4xx_HAL_Driver/Src/stm32g4xx_hal_dac_ex.c ****   /* Process locked */
 620:Drivers/STM32G4xx_HAL_Driver/Src/stm32g4xx_hal_dac_ex.c ****   __HAL_LOCK(hdac);
 916              		.loc 1 620 3 view .LVU263
 917              		.loc 1 620 3 view .LVU264
 918 0000 4279     		ldrb	r2, [r0, #5]	@ zero_extendqisi2
 919 0002 012A     		cmp	r2, #1
 920 0004 21D0     		beq	.L73
 613:Drivers/STM32G4xx_HAL_Driver/Src/stm32g4xx_hal_dac_ex.c ****   HAL_StatusTypeDef status = HAL_OK;
 921              		.loc 1 613 1 is_stmt 0 discriminator 2 view .LVU265
 922 0006 10B4     		push	{r4}
 923              	.LCFI14:
 924              		.cfi_def_cfa_offset 4
 925              		.cfi_offset 4, -4
 926 0008 0346     		mov	r3, r0
 927              		.loc 1 620 3 is_stmt 1 discriminator 2 view .LVU266
 928 000a 0122     		movs	r2, #1
 929 000c 4271     		strb	r2, [r0, #5]
 930              		.loc 1 620 3 discriminator 2 view .LVU267
 621:Drivers/STM32G4xx_HAL_Driver/Src/stm32g4xx_hal_dac_ex.c **** 
 622:Drivers/STM32G4xx_HAL_Driver/Src/stm32g4xx_hal_dac_ex.c ****   if (((hdac->Instance->STMODR >> (Channel & 0x10UL)) & DAC_STMODR_STINCTRIGSEL1) == 0U /* SW TRIGG
 931              		.loc 1 622 3 discriminator 2 view .LVU268
 932              		.loc 1 622 13 is_stmt 0 discriminator 2 view .LVU269
 933 000e 0068     		ldr	r0, [r0]
 934              	.LVL68:
ARM GAS  /tmp/ccEoBVya.s 			page 29


 935              		.loc 1 622 23 discriminator 2 view .LVU270
 936 0010 026E     		ldr	r2, [r0, #96]
 937              		.loc 1 622 44 discriminator 2 view .LVU271
 938 0012 01F01004 		and	r4, r1, #16
 939              		.loc 1 622 32 discriminator 2 view .LVU272
 940 0016 E240     		lsrs	r2, r2, r4
 941              		.loc 1 622 6 discriminator 2 view .LVU273
 942 0018 12F4706F 		tst	r2, #3840
 943 001c 0FD1     		bne	.L74
 623:Drivers/STM32G4xx_HAL_Driver/Src/stm32g4xx_hal_dac_ex.c ****   {
 624:Drivers/STM32G4xx_HAL_Driver/Src/stm32g4xx_hal_dac_ex.c ****     /* Change DAC state */
 625:Drivers/STM32G4xx_HAL_Driver/Src/stm32g4xx_hal_dac_ex.c ****     hdac->State = HAL_DAC_STATE_BUSY;
 944              		.loc 1 625 5 is_stmt 1 view .LVU274
 945              		.loc 1 625 17 is_stmt 0 view .LVU275
 946 001e 0222     		movs	r2, #2
 947 0020 1A71     		strb	r2, [r3, #4]
 626:Drivers/STM32G4xx_HAL_Driver/Src/stm32g4xx_hal_dac_ex.c **** 
 627:Drivers/STM32G4xx_HAL_Driver/Src/stm32g4xx_hal_dac_ex.c ****     if (Channel == DAC_CHANNEL_1)
 948              		.loc 1 627 5 is_stmt 1 view .LVU276
 949              		.loc 1 627 8 is_stmt 0 view .LVU277
 950 0022 39B9     		cbnz	r1, .L71
 628:Drivers/STM32G4xx_HAL_Driver/Src/stm32g4xx_hal_dac_ex.c ****     {
 629:Drivers/STM32G4xx_HAL_Driver/Src/stm32g4xx_hal_dac_ex.c ****       /* Enable the selected DAC software conversion */
 630:Drivers/STM32G4xx_HAL_Driver/Src/stm32g4xx_hal_dac_ex.c ****       SET_BIT(hdac->Instance->SWTRIGR, DAC_SWTRIGR_SWTRIGB1);
 951              		.loc 1 630 7 is_stmt 1 view .LVU278
 952 0024 4268     		ldr	r2, [r0, #4]
 953 0026 42F48032 		orr	r2, r2, #65536
 954 002a 4260     		str	r2, [r0, #4]
 955              	.L72:
 631:Drivers/STM32G4xx_HAL_Driver/Src/stm32g4xx_hal_dac_ex.c ****     }
 632:Drivers/STM32G4xx_HAL_Driver/Src/stm32g4xx_hal_dac_ex.c ****     else
 633:Drivers/STM32G4xx_HAL_Driver/Src/stm32g4xx_hal_dac_ex.c ****     {
 634:Drivers/STM32G4xx_HAL_Driver/Src/stm32g4xx_hal_dac_ex.c ****       /* Enable the selected DAC software conversion */
 635:Drivers/STM32G4xx_HAL_Driver/Src/stm32g4xx_hal_dac_ex.c ****       SET_BIT(hdac->Instance->SWTRIGR, DAC_SWTRIGR_SWTRIGB2);
 636:Drivers/STM32G4xx_HAL_Driver/Src/stm32g4xx_hal_dac_ex.c ****     }
 637:Drivers/STM32G4xx_HAL_Driver/Src/stm32g4xx_hal_dac_ex.c **** 
 638:Drivers/STM32G4xx_HAL_Driver/Src/stm32g4xx_hal_dac_ex.c ****     /* Change DAC state */
 639:Drivers/STM32G4xx_HAL_Driver/Src/stm32g4xx_hal_dac_ex.c ****     hdac->State = HAL_DAC_STATE_READY;
 956              		.loc 1 639 5 view .LVU279
 957              		.loc 1 639 17 is_stmt 0 view .LVU280
 958 002c 0122     		movs	r2, #1
 959 002e 1A71     		strb	r2, [r3, #4]
 614:Drivers/STM32G4xx_HAL_Driver/Src/stm32g4xx_hal_dac_ex.c **** 
 960              		.loc 1 614 21 view .LVU281
 961 0030 0020     		movs	r0, #0
 962 0032 05E0     		b	.L70
 963              	.L71:
 635:Drivers/STM32G4xx_HAL_Driver/Src/stm32g4xx_hal_dac_ex.c ****     }
 964              		.loc 1 635 7 is_stmt 1 view .LVU282
 965 0034 4268     		ldr	r2, [r0, #4]
 966 0036 42F40032 		orr	r2, r2, #131072
 967 003a 4260     		str	r2, [r0, #4]
 968 003c F6E7     		b	.L72
 969              	.L74:
 640:Drivers/STM32G4xx_HAL_Driver/Src/stm32g4xx_hal_dac_ex.c ****   }
 641:Drivers/STM32G4xx_HAL_Driver/Src/stm32g4xx_hal_dac_ex.c ****   else
 642:Drivers/STM32G4xx_HAL_Driver/Src/stm32g4xx_hal_dac_ex.c ****   {
ARM GAS  /tmp/ccEoBVya.s 			page 30


 643:Drivers/STM32G4xx_HAL_Driver/Src/stm32g4xx_hal_dac_ex.c ****     status = HAL_ERROR;
 970              		.loc 1 643 12 is_stmt 0 view .LVU283
 971 003e 0120     		movs	r0, #1
 972              	.L70:
 973              	.LVL69:
 644:Drivers/STM32G4xx_HAL_Driver/Src/stm32g4xx_hal_dac_ex.c ****   }
 645:Drivers/STM32G4xx_HAL_Driver/Src/stm32g4xx_hal_dac_ex.c **** 
 646:Drivers/STM32G4xx_HAL_Driver/Src/stm32g4xx_hal_dac_ex.c ****   /* Process unlocked */
 647:Drivers/STM32G4xx_HAL_Driver/Src/stm32g4xx_hal_dac_ex.c ****   __HAL_UNLOCK(hdac);
 974              		.loc 1 647 3 is_stmt 1 view .LVU284
 975              		.loc 1 647 3 view .LVU285
 976 0040 0022     		movs	r2, #0
 977 0042 5A71     		strb	r2, [r3, #5]
 978              		.loc 1 647 3 view .LVU286
 648:Drivers/STM32G4xx_HAL_Driver/Src/stm32g4xx_hal_dac_ex.c **** 
 649:Drivers/STM32G4xx_HAL_Driver/Src/stm32g4xx_hal_dac_ex.c ****   /* Return function status */
 650:Drivers/STM32G4xx_HAL_Driver/Src/stm32g4xx_hal_dac_ex.c ****   return status;
 979              		.loc 1 650 3 view .LVU287
 651:Drivers/STM32G4xx_HAL_Driver/Src/stm32g4xx_hal_dac_ex.c **** }
 980              		.loc 1 651 1 is_stmt 0 view .LVU288
 981 0044 5DF8044B 		ldr	r4, [sp], #4
 982              	.LCFI15:
 983              		.cfi_restore 4
 984              		.cfi_def_cfa_offset 0
 985 0048 7047     		bx	lr
 986              	.LVL70:
 987              	.L73:
 620:Drivers/STM32G4xx_HAL_Driver/Src/stm32g4xx_hal_dac_ex.c **** 
 988              		.loc 1 620 3 view .LVU289
 989 004a 0220     		movs	r0, #2
 990              	.LVL71:
 991              		.loc 1 651 1 view .LVU290
 992 004c 7047     		bx	lr
 993              		.cfi_endproc
 994              	.LFE170:
 996              		.section	.text.HAL_DACEx_DualSetValue,"ax",%progbits
 997              		.align	1
 998              		.global	HAL_DACEx_DualSetValue
 999              		.syntax unified
 1000              		.thumb
 1001              		.thumb_func
 1002              		.fpu fpv4-sp-d16
 1004              	HAL_DACEx_DualSetValue:
 1005              	.LVL72:
 1006              	.LFB171:
 652:Drivers/STM32G4xx_HAL_Driver/Src/stm32g4xx_hal_dac_ex.c **** 
 653:Drivers/STM32G4xx_HAL_Driver/Src/stm32g4xx_hal_dac_ex.c **** /**
 654:Drivers/STM32G4xx_HAL_Driver/Src/stm32g4xx_hal_dac_ex.c ****   * @brief  Set the specified data holding register value for dual DAC channel.
 655:Drivers/STM32G4xx_HAL_Driver/Src/stm32g4xx_hal_dac_ex.c ****   * @param  hdac pointer to a DAC_HandleTypeDef structure that contains
 656:Drivers/STM32G4xx_HAL_Driver/Src/stm32g4xx_hal_dac_ex.c ****   *               the configuration information for the specified DAC.
 657:Drivers/STM32G4xx_HAL_Driver/Src/stm32g4xx_hal_dac_ex.c ****   * @param  Alignment Specifies the data alignment for dual channel DAC.
 658:Drivers/STM32G4xx_HAL_Driver/Src/stm32g4xx_hal_dac_ex.c ****   *          This parameter can be one of the following values:
 659:Drivers/STM32G4xx_HAL_Driver/Src/stm32g4xx_hal_dac_ex.c ****   *            DAC_ALIGN_8B_R: 8bit right data alignment selected
 660:Drivers/STM32G4xx_HAL_Driver/Src/stm32g4xx_hal_dac_ex.c ****   *            DAC_ALIGN_12B_L: 12bit left data alignment selected
 661:Drivers/STM32G4xx_HAL_Driver/Src/stm32g4xx_hal_dac_ex.c ****   *            DAC_ALIGN_12B_R: 12bit right data alignment selected
 662:Drivers/STM32G4xx_HAL_Driver/Src/stm32g4xx_hal_dac_ex.c ****   * @param  Data1 Data for DAC Channel1 to be loaded in the selected data holding register.
 663:Drivers/STM32G4xx_HAL_Driver/Src/stm32g4xx_hal_dac_ex.c ****   * @param  Data2 Data for DAC Channel2 to be loaded in the selected data  holding register.
ARM GAS  /tmp/ccEoBVya.s 			page 31


 664:Drivers/STM32G4xx_HAL_Driver/Src/stm32g4xx_hal_dac_ex.c ****   * @note   In dual mode, a unique register access is required to write in both
 665:Drivers/STM32G4xx_HAL_Driver/Src/stm32g4xx_hal_dac_ex.c ****   *          DAC channels at the same time.
 666:Drivers/STM32G4xx_HAL_Driver/Src/stm32g4xx_hal_dac_ex.c ****   * @retval HAL status
 667:Drivers/STM32G4xx_HAL_Driver/Src/stm32g4xx_hal_dac_ex.c ****   */
 668:Drivers/STM32G4xx_HAL_Driver/Src/stm32g4xx_hal_dac_ex.c **** HAL_StatusTypeDef HAL_DACEx_DualSetValue(DAC_HandleTypeDef *hdac, uint32_t Alignment, uint32_t Data
 669:Drivers/STM32G4xx_HAL_Driver/Src/stm32g4xx_hal_dac_ex.c **** {
 1007              		.loc 1 669 1 is_stmt 1 view -0
 1008              		.cfi_startproc
 1009              		@ args = 0, pretend = 0, frame = 0
 1010              		@ frame_needed = 0, uses_anonymous_args = 0
 1011              		@ link register save eliminated.
 670:Drivers/STM32G4xx_HAL_Driver/Src/stm32g4xx_hal_dac_ex.c ****   uint32_t data;
 1012              		.loc 1 670 3 view .LVU292
 671:Drivers/STM32G4xx_HAL_Driver/Src/stm32g4xx_hal_dac_ex.c ****   uint32_t tmp;
 1013              		.loc 1 671 3 view .LVU293
 672:Drivers/STM32G4xx_HAL_Driver/Src/stm32g4xx_hal_dac_ex.c **** 
 673:Drivers/STM32G4xx_HAL_Driver/Src/stm32g4xx_hal_dac_ex.c ****   /* Check the parameters */
 674:Drivers/STM32G4xx_HAL_Driver/Src/stm32g4xx_hal_dac_ex.c ****   assert_param(IS_DAC_ALIGN(Alignment));
 1014              		.loc 1 674 3 view .LVU294
 675:Drivers/STM32G4xx_HAL_Driver/Src/stm32g4xx_hal_dac_ex.c ****   assert_param(IS_DAC_DATA(Data1));
 1015              		.loc 1 675 3 view .LVU295
 676:Drivers/STM32G4xx_HAL_Driver/Src/stm32g4xx_hal_dac_ex.c ****   assert_param(IS_DAC_DATA(Data2));
 1016              		.loc 1 676 3 view .LVU296
 677:Drivers/STM32G4xx_HAL_Driver/Src/stm32g4xx_hal_dac_ex.c **** 
 678:Drivers/STM32G4xx_HAL_Driver/Src/stm32g4xx_hal_dac_ex.c ****   /* Calculate and set dual DAC data holding register value */
 679:Drivers/STM32G4xx_HAL_Driver/Src/stm32g4xx_hal_dac_ex.c ****   if (Alignment == DAC_ALIGN_8B_R)
 1017              		.loc 1 679 3 view .LVU297
 1018              		.loc 1 679 6 is_stmt 0 view .LVU298
 1019 0000 0829     		cmp	r1, #8
 1020 0002 06D0     		beq	.L82
 680:Drivers/STM32G4xx_HAL_Driver/Src/stm32g4xx_hal_dac_ex.c ****   {
 681:Drivers/STM32G4xx_HAL_Driver/Src/stm32g4xx_hal_dac_ex.c ****     data = ((uint32_t)Data2 << 8U) | Data1;
 682:Drivers/STM32G4xx_HAL_Driver/Src/stm32g4xx_hal_dac_ex.c ****   }
 683:Drivers/STM32G4xx_HAL_Driver/Src/stm32g4xx_hal_dac_ex.c ****   else
 684:Drivers/STM32G4xx_HAL_Driver/Src/stm32g4xx_hal_dac_ex.c ****   {
 685:Drivers/STM32G4xx_HAL_Driver/Src/stm32g4xx_hal_dac_ex.c ****     data = ((uint32_t)Data2 << 16U) | Data1;
 1021              		.loc 1 685 5 is_stmt 1 view .LVU299
 1022              		.loc 1 685 10 is_stmt 0 view .LVU300
 1023 0004 42EA0342 		orr	r2, r2, r3, lsl #16
 1024              	.LVL73:
 1025              	.L81:
 686:Drivers/STM32G4xx_HAL_Driver/Src/stm32g4xx_hal_dac_ex.c ****   }
 687:Drivers/STM32G4xx_HAL_Driver/Src/stm32g4xx_hal_dac_ex.c **** 
 688:Drivers/STM32G4xx_HAL_Driver/Src/stm32g4xx_hal_dac_ex.c ****   tmp = (uint32_t)hdac->Instance;
 1026              		.loc 1 688 3 is_stmt 1 view .LVU301
 1027              		.loc 1 688 23 is_stmt 0 view .LVU302
 1028 0008 0368     		ldr	r3, [r0]
 1029              	.LVL74:
 689:Drivers/STM32G4xx_HAL_Driver/Src/stm32g4xx_hal_dac_ex.c ****   tmp += DAC_DHR12RD_ALIGNMENT(Alignment);
 1030              		.loc 1 689 3 is_stmt 1 view .LVU303
 1031              		.loc 1 689 7 is_stmt 0 view .LVU304
 1032 000a 1944     		add	r1, r1, r3
 1033              	.LVL75:
 690:Drivers/STM32G4xx_HAL_Driver/Src/stm32g4xx_hal_dac_ex.c **** 
 691:Drivers/STM32G4xx_HAL_Driver/Src/stm32g4xx_hal_dac_ex.c ****   /* Set the dual DAC selected data holding register */
 692:Drivers/STM32G4xx_HAL_Driver/Src/stm32g4xx_hal_dac_ex.c ****   *(__IO uint32_t *)tmp = data;
 1034              		.loc 1 692 3 is_stmt 1 view .LVU305
ARM GAS  /tmp/ccEoBVya.s 			page 32


 1035              		.loc 1 692 25 is_stmt 0 view .LVU306
 1036 000c 0A62     		str	r2, [r1, #32]
 693:Drivers/STM32G4xx_HAL_Driver/Src/stm32g4xx_hal_dac_ex.c **** 
 694:Drivers/STM32G4xx_HAL_Driver/Src/stm32g4xx_hal_dac_ex.c ****   /* Return function status */
 695:Drivers/STM32G4xx_HAL_Driver/Src/stm32g4xx_hal_dac_ex.c ****   return HAL_OK;
 1037              		.loc 1 695 3 is_stmt 1 view .LVU307
 696:Drivers/STM32G4xx_HAL_Driver/Src/stm32g4xx_hal_dac_ex.c **** }
 1038              		.loc 1 696 1 is_stmt 0 view .LVU308
 1039 000e 0020     		movs	r0, #0
 1040              	.LVL76:
 1041              		.loc 1 696 1 view .LVU309
 1042 0010 7047     		bx	lr
 1043              	.LVL77:
 1044              	.L82:
 681:Drivers/STM32G4xx_HAL_Driver/Src/stm32g4xx_hal_dac_ex.c ****   }
 1045              		.loc 1 681 5 is_stmt 1 view .LVU310
 681:Drivers/STM32G4xx_HAL_Driver/Src/stm32g4xx_hal_dac_ex.c ****   }
 1046              		.loc 1 681 10 is_stmt 0 view .LVU311
 1047 0012 42EA0322 		orr	r2, r2, r3, lsl #8
 1048              	.LVL78:
 681:Drivers/STM32G4xx_HAL_Driver/Src/stm32g4xx_hal_dac_ex.c ****   }
 1049              		.loc 1 681 10 view .LVU312
 1050 0016 F7E7     		b	.L81
 1051              		.cfi_endproc
 1052              	.LFE171:
 1054              		.section	.text.HAL_DACEx_ConvCpltCallbackCh2,"ax",%progbits
 1055              		.align	1
 1056              		.weak	HAL_DACEx_ConvCpltCallbackCh2
 1057              		.syntax unified
 1058              		.thumb
 1059              		.thumb_func
 1060              		.fpu fpv4-sp-d16
 1062              	HAL_DACEx_ConvCpltCallbackCh2:
 1063              	.LVL79:
 1064              	.LFB172:
 697:Drivers/STM32G4xx_HAL_Driver/Src/stm32g4xx_hal_dac_ex.c **** 
 698:Drivers/STM32G4xx_HAL_Driver/Src/stm32g4xx_hal_dac_ex.c **** /**
 699:Drivers/STM32G4xx_HAL_Driver/Src/stm32g4xx_hal_dac_ex.c ****   * @brief  Conversion complete callback in non-blocking mode for Channel2.
 700:Drivers/STM32G4xx_HAL_Driver/Src/stm32g4xx_hal_dac_ex.c ****   * @param  hdac pointer to a DAC_HandleTypeDef structure that contains
 701:Drivers/STM32G4xx_HAL_Driver/Src/stm32g4xx_hal_dac_ex.c ****   *         the configuration information for the specified DAC.
 702:Drivers/STM32G4xx_HAL_Driver/Src/stm32g4xx_hal_dac_ex.c ****   * @retval None
 703:Drivers/STM32G4xx_HAL_Driver/Src/stm32g4xx_hal_dac_ex.c ****   */
 704:Drivers/STM32G4xx_HAL_Driver/Src/stm32g4xx_hal_dac_ex.c **** __weak void HAL_DACEx_ConvCpltCallbackCh2(DAC_HandleTypeDef *hdac)
 705:Drivers/STM32G4xx_HAL_Driver/Src/stm32g4xx_hal_dac_ex.c **** {
 1065              		.loc 1 705 1 is_stmt 1 view -0
 1066              		.cfi_startproc
 1067              		@ args = 0, pretend = 0, frame = 0
 1068              		@ frame_needed = 0, uses_anonymous_args = 0
 1069              		@ link register save eliminated.
 706:Drivers/STM32G4xx_HAL_Driver/Src/stm32g4xx_hal_dac_ex.c ****   /* Prevent unused argument(s) compilation warning */
 707:Drivers/STM32G4xx_HAL_Driver/Src/stm32g4xx_hal_dac_ex.c ****   UNUSED(hdac);
 1070              		.loc 1 707 3 view .LVU314
 708:Drivers/STM32G4xx_HAL_Driver/Src/stm32g4xx_hal_dac_ex.c **** 
 709:Drivers/STM32G4xx_HAL_Driver/Src/stm32g4xx_hal_dac_ex.c ****   /* NOTE : This function should not be modified, when the callback is needed,
 710:Drivers/STM32G4xx_HAL_Driver/Src/stm32g4xx_hal_dac_ex.c ****             the HAL_DACEx_ConvCpltCallbackCh2 could be implemented in the user file
 711:Drivers/STM32G4xx_HAL_Driver/Src/stm32g4xx_hal_dac_ex.c ****    */
 712:Drivers/STM32G4xx_HAL_Driver/Src/stm32g4xx_hal_dac_ex.c **** }
ARM GAS  /tmp/ccEoBVya.s 			page 33


 1071              		.loc 1 712 1 is_stmt 0 view .LVU315
 1072 0000 7047     		bx	lr
 1073              		.cfi_endproc
 1074              	.LFE172:
 1076              		.section	.text.DAC_DMAConvCpltCh2,"ax",%progbits
 1077              		.align	1
 1078              		.global	DAC_DMAConvCpltCh2
 1079              		.syntax unified
 1080              		.thumb
 1081              		.thumb_func
 1082              		.fpu fpv4-sp-d16
 1084              	DAC_DMAConvCpltCh2:
 1085              	.LVL80:
 1086              	.LFB180:
 713:Drivers/STM32G4xx_HAL_Driver/Src/stm32g4xx_hal_dac_ex.c **** 
 714:Drivers/STM32G4xx_HAL_Driver/Src/stm32g4xx_hal_dac_ex.c **** /**
 715:Drivers/STM32G4xx_HAL_Driver/Src/stm32g4xx_hal_dac_ex.c ****   * @brief  Conversion half DMA transfer callback in non-blocking mode for Channel2.
 716:Drivers/STM32G4xx_HAL_Driver/Src/stm32g4xx_hal_dac_ex.c ****   * @param  hdac pointer to a DAC_HandleTypeDef structure that contains
 717:Drivers/STM32G4xx_HAL_Driver/Src/stm32g4xx_hal_dac_ex.c ****   *         the configuration information for the specified DAC.
 718:Drivers/STM32G4xx_HAL_Driver/Src/stm32g4xx_hal_dac_ex.c ****   * @retval None
 719:Drivers/STM32G4xx_HAL_Driver/Src/stm32g4xx_hal_dac_ex.c ****   */
 720:Drivers/STM32G4xx_HAL_Driver/Src/stm32g4xx_hal_dac_ex.c **** __weak void HAL_DACEx_ConvHalfCpltCallbackCh2(DAC_HandleTypeDef *hdac)
 721:Drivers/STM32G4xx_HAL_Driver/Src/stm32g4xx_hal_dac_ex.c **** {
 722:Drivers/STM32G4xx_HAL_Driver/Src/stm32g4xx_hal_dac_ex.c ****   /* Prevent unused argument(s) compilation warning */
 723:Drivers/STM32G4xx_HAL_Driver/Src/stm32g4xx_hal_dac_ex.c ****   UNUSED(hdac);
 724:Drivers/STM32G4xx_HAL_Driver/Src/stm32g4xx_hal_dac_ex.c **** 
 725:Drivers/STM32G4xx_HAL_Driver/Src/stm32g4xx_hal_dac_ex.c ****   /* NOTE : This function should not be modified, when the callback is needed,
 726:Drivers/STM32G4xx_HAL_Driver/Src/stm32g4xx_hal_dac_ex.c ****             the HAL_DACEx_ConvHalfCpltCallbackCh2 could be implemented in the user file
 727:Drivers/STM32G4xx_HAL_Driver/Src/stm32g4xx_hal_dac_ex.c ****    */
 728:Drivers/STM32G4xx_HAL_Driver/Src/stm32g4xx_hal_dac_ex.c **** }
 729:Drivers/STM32G4xx_HAL_Driver/Src/stm32g4xx_hal_dac_ex.c **** 
 730:Drivers/STM32G4xx_HAL_Driver/Src/stm32g4xx_hal_dac_ex.c **** /**
 731:Drivers/STM32G4xx_HAL_Driver/Src/stm32g4xx_hal_dac_ex.c ****   * @brief  Error DAC callback for Channel2.
 732:Drivers/STM32G4xx_HAL_Driver/Src/stm32g4xx_hal_dac_ex.c ****   * @param  hdac pointer to a DAC_HandleTypeDef structure that contains
 733:Drivers/STM32G4xx_HAL_Driver/Src/stm32g4xx_hal_dac_ex.c ****   *         the configuration information for the specified DAC.
 734:Drivers/STM32G4xx_HAL_Driver/Src/stm32g4xx_hal_dac_ex.c ****   * @retval None
 735:Drivers/STM32G4xx_HAL_Driver/Src/stm32g4xx_hal_dac_ex.c ****   */
 736:Drivers/STM32G4xx_HAL_Driver/Src/stm32g4xx_hal_dac_ex.c **** __weak void HAL_DACEx_ErrorCallbackCh2(DAC_HandleTypeDef *hdac)
 737:Drivers/STM32G4xx_HAL_Driver/Src/stm32g4xx_hal_dac_ex.c **** {
 738:Drivers/STM32G4xx_HAL_Driver/Src/stm32g4xx_hal_dac_ex.c ****   /* Prevent unused argument(s) compilation warning */
 739:Drivers/STM32G4xx_HAL_Driver/Src/stm32g4xx_hal_dac_ex.c ****   UNUSED(hdac);
 740:Drivers/STM32G4xx_HAL_Driver/Src/stm32g4xx_hal_dac_ex.c **** 
 741:Drivers/STM32G4xx_HAL_Driver/Src/stm32g4xx_hal_dac_ex.c ****   /* NOTE : This function should not be modified, when the callback is needed,
 742:Drivers/STM32G4xx_HAL_Driver/Src/stm32g4xx_hal_dac_ex.c ****             the HAL_DACEx_ErrorCallbackCh2 could be implemented in the user file
 743:Drivers/STM32G4xx_HAL_Driver/Src/stm32g4xx_hal_dac_ex.c ****    */
 744:Drivers/STM32G4xx_HAL_Driver/Src/stm32g4xx_hal_dac_ex.c **** }
 745:Drivers/STM32G4xx_HAL_Driver/Src/stm32g4xx_hal_dac_ex.c **** 
 746:Drivers/STM32G4xx_HAL_Driver/Src/stm32g4xx_hal_dac_ex.c **** /**
 747:Drivers/STM32G4xx_HAL_Driver/Src/stm32g4xx_hal_dac_ex.c ****   * @brief  DMA underrun DAC callback for Channel2.
 748:Drivers/STM32G4xx_HAL_Driver/Src/stm32g4xx_hal_dac_ex.c ****   * @param  hdac pointer to a DAC_HandleTypeDef structure that contains
 749:Drivers/STM32G4xx_HAL_Driver/Src/stm32g4xx_hal_dac_ex.c ****   *         the configuration information for the specified DAC.
 750:Drivers/STM32G4xx_HAL_Driver/Src/stm32g4xx_hal_dac_ex.c ****   * @retval None
 751:Drivers/STM32G4xx_HAL_Driver/Src/stm32g4xx_hal_dac_ex.c ****   */
 752:Drivers/STM32G4xx_HAL_Driver/Src/stm32g4xx_hal_dac_ex.c **** __weak void HAL_DACEx_DMAUnderrunCallbackCh2(DAC_HandleTypeDef *hdac)
 753:Drivers/STM32G4xx_HAL_Driver/Src/stm32g4xx_hal_dac_ex.c **** {
 754:Drivers/STM32G4xx_HAL_Driver/Src/stm32g4xx_hal_dac_ex.c ****   /* Prevent unused argument(s) compilation warning */
 755:Drivers/STM32G4xx_HAL_Driver/Src/stm32g4xx_hal_dac_ex.c ****   UNUSED(hdac);
ARM GAS  /tmp/ccEoBVya.s 			page 34


 756:Drivers/STM32G4xx_HAL_Driver/Src/stm32g4xx_hal_dac_ex.c **** 
 757:Drivers/STM32G4xx_HAL_Driver/Src/stm32g4xx_hal_dac_ex.c ****   /* NOTE : This function should not be modified, when the callback is needed,
 758:Drivers/STM32G4xx_HAL_Driver/Src/stm32g4xx_hal_dac_ex.c ****             the HAL_DACEx_DMAUnderrunCallbackCh2 could be implemented in the user file
 759:Drivers/STM32G4xx_HAL_Driver/Src/stm32g4xx_hal_dac_ex.c ****    */
 760:Drivers/STM32G4xx_HAL_Driver/Src/stm32g4xx_hal_dac_ex.c **** }
 761:Drivers/STM32G4xx_HAL_Driver/Src/stm32g4xx_hal_dac_ex.c **** 
 762:Drivers/STM32G4xx_HAL_Driver/Src/stm32g4xx_hal_dac_ex.c **** /**
 763:Drivers/STM32G4xx_HAL_Driver/Src/stm32g4xx_hal_dac_ex.c ****   * @brief  Run the self calibration of one DAC channel.
 764:Drivers/STM32G4xx_HAL_Driver/Src/stm32g4xx_hal_dac_ex.c ****   * @param  hdac pointer to a DAC_HandleTypeDef structure that contains
 765:Drivers/STM32G4xx_HAL_Driver/Src/stm32g4xx_hal_dac_ex.c ****   *         the configuration information for the specified DAC.
 766:Drivers/STM32G4xx_HAL_Driver/Src/stm32g4xx_hal_dac_ex.c ****   * @param  sConfig DAC channel configuration structure.
 767:Drivers/STM32G4xx_HAL_Driver/Src/stm32g4xx_hal_dac_ex.c ****   * @param  Channel The selected DAC channel.
 768:Drivers/STM32G4xx_HAL_Driver/Src/stm32g4xx_hal_dac_ex.c ****   *          This parameter can be one of the following values:
 769:Drivers/STM32G4xx_HAL_Driver/Src/stm32g4xx_hal_dac_ex.c ****   *            @arg DAC_CHANNEL_1: DAC Channel1 selected
 770:Drivers/STM32G4xx_HAL_Driver/Src/stm32g4xx_hal_dac_ex.c ****   *            @arg DAC_CHANNEL_2: DAC Channel2 selected (1)
 771:Drivers/STM32G4xx_HAL_Driver/Src/stm32g4xx_hal_dac_ex.c ****   *
 772:Drivers/STM32G4xx_HAL_Driver/Src/stm32g4xx_hal_dac_ex.c ****   *         (1) On this STM32 serie, parameter not available on all instances.
 773:Drivers/STM32G4xx_HAL_Driver/Src/stm32g4xx_hal_dac_ex.c ****   *             Refer to device datasheet for channels availability.
 774:Drivers/STM32G4xx_HAL_Driver/Src/stm32g4xx_hal_dac_ex.c ****   * @retval Updates DAC_TrimmingValue. , DAC_UserTrimming set to DAC_UserTrimming
 775:Drivers/STM32G4xx_HAL_Driver/Src/stm32g4xx_hal_dac_ex.c ****   * @retval HAL status
 776:Drivers/STM32G4xx_HAL_Driver/Src/stm32g4xx_hal_dac_ex.c ****   * @note   Calibration runs about 7 ms.
 777:Drivers/STM32G4xx_HAL_Driver/Src/stm32g4xx_hal_dac_ex.c ****   */
 778:Drivers/STM32G4xx_HAL_Driver/Src/stm32g4xx_hal_dac_ex.c **** 
 779:Drivers/STM32G4xx_HAL_Driver/Src/stm32g4xx_hal_dac_ex.c **** HAL_StatusTypeDef HAL_DACEx_SelfCalibrate(DAC_HandleTypeDef *hdac, DAC_ChannelConfTypeDef *sConfig,
 780:Drivers/STM32G4xx_HAL_Driver/Src/stm32g4xx_hal_dac_ex.c **** {
 781:Drivers/STM32G4xx_HAL_Driver/Src/stm32g4xx_hal_dac_ex.c ****   HAL_StatusTypeDef status = HAL_OK;
 782:Drivers/STM32G4xx_HAL_Driver/Src/stm32g4xx_hal_dac_ex.c **** 
 783:Drivers/STM32G4xx_HAL_Driver/Src/stm32g4xx_hal_dac_ex.c ****   __IO uint32_t tmp;
 784:Drivers/STM32G4xx_HAL_Driver/Src/stm32g4xx_hal_dac_ex.c ****   uint32_t trimmingvalue;
 785:Drivers/STM32G4xx_HAL_Driver/Src/stm32g4xx_hal_dac_ex.c ****   uint32_t delta;
 786:Drivers/STM32G4xx_HAL_Driver/Src/stm32g4xx_hal_dac_ex.c **** 
 787:Drivers/STM32G4xx_HAL_Driver/Src/stm32g4xx_hal_dac_ex.c ****   /* store/restore channel configuration structure purpose */
 788:Drivers/STM32G4xx_HAL_Driver/Src/stm32g4xx_hal_dac_ex.c ****   uint32_t oldmodeconfiguration;
 789:Drivers/STM32G4xx_HAL_Driver/Src/stm32g4xx_hal_dac_ex.c **** 
 790:Drivers/STM32G4xx_HAL_Driver/Src/stm32g4xx_hal_dac_ex.c ****   /* Check the parameters */
 791:Drivers/STM32G4xx_HAL_Driver/Src/stm32g4xx_hal_dac_ex.c ****   assert_param(IS_DAC_CHANNEL(hdac->Instance, Channel));
 792:Drivers/STM32G4xx_HAL_Driver/Src/stm32g4xx_hal_dac_ex.c **** 
 793:Drivers/STM32G4xx_HAL_Driver/Src/stm32g4xx_hal_dac_ex.c ****   /* Check the DAC handle allocation */
 794:Drivers/STM32G4xx_HAL_Driver/Src/stm32g4xx_hal_dac_ex.c ****   /* Check if DAC running */
 795:Drivers/STM32G4xx_HAL_Driver/Src/stm32g4xx_hal_dac_ex.c ****   if (hdac == NULL)
 796:Drivers/STM32G4xx_HAL_Driver/Src/stm32g4xx_hal_dac_ex.c ****   {
 797:Drivers/STM32G4xx_HAL_Driver/Src/stm32g4xx_hal_dac_ex.c ****     status = HAL_ERROR;
 798:Drivers/STM32G4xx_HAL_Driver/Src/stm32g4xx_hal_dac_ex.c ****   }
 799:Drivers/STM32G4xx_HAL_Driver/Src/stm32g4xx_hal_dac_ex.c ****   else if (hdac->State == HAL_DAC_STATE_BUSY)
 800:Drivers/STM32G4xx_HAL_Driver/Src/stm32g4xx_hal_dac_ex.c ****   {
 801:Drivers/STM32G4xx_HAL_Driver/Src/stm32g4xx_hal_dac_ex.c ****     status = HAL_ERROR;
 802:Drivers/STM32G4xx_HAL_Driver/Src/stm32g4xx_hal_dac_ex.c ****   }
 803:Drivers/STM32G4xx_HAL_Driver/Src/stm32g4xx_hal_dac_ex.c ****   else
 804:Drivers/STM32G4xx_HAL_Driver/Src/stm32g4xx_hal_dac_ex.c ****   {
 805:Drivers/STM32G4xx_HAL_Driver/Src/stm32g4xx_hal_dac_ex.c ****     /* Process locked */
 806:Drivers/STM32G4xx_HAL_Driver/Src/stm32g4xx_hal_dac_ex.c ****     __HAL_LOCK(hdac);
 807:Drivers/STM32G4xx_HAL_Driver/Src/stm32g4xx_hal_dac_ex.c **** 
 808:Drivers/STM32G4xx_HAL_Driver/Src/stm32g4xx_hal_dac_ex.c ****     /* Store configuration */
 809:Drivers/STM32G4xx_HAL_Driver/Src/stm32g4xx_hal_dac_ex.c ****     oldmodeconfiguration = (hdac->Instance->MCR & (DAC_MCR_MODE1 << (Channel & 0x10UL)));
 810:Drivers/STM32G4xx_HAL_Driver/Src/stm32g4xx_hal_dac_ex.c **** 
 811:Drivers/STM32G4xx_HAL_Driver/Src/stm32g4xx_hal_dac_ex.c ****     /* Disable the selected DAC channel */
 812:Drivers/STM32G4xx_HAL_Driver/Src/stm32g4xx_hal_dac_ex.c ****     CLEAR_BIT((hdac->Instance->CR), (DAC_CR_EN1 << (Channel & 0x10UL)));
ARM GAS  /tmp/ccEoBVya.s 			page 35


 813:Drivers/STM32G4xx_HAL_Driver/Src/stm32g4xx_hal_dac_ex.c ****     /* Wait for ready bit to be de-asserted */
 814:Drivers/STM32G4xx_HAL_Driver/Src/stm32g4xx_hal_dac_ex.c ****     HAL_Delay(1);
 815:Drivers/STM32G4xx_HAL_Driver/Src/stm32g4xx_hal_dac_ex.c **** 
 816:Drivers/STM32G4xx_HAL_Driver/Src/stm32g4xx_hal_dac_ex.c ****     /* Set mode in MCR  for calibration */
 817:Drivers/STM32G4xx_HAL_Driver/Src/stm32g4xx_hal_dac_ex.c ****     MODIFY_REG(hdac->Instance->MCR, (DAC_MCR_MODE1 << (Channel & 0x10UL)), 0U);
 818:Drivers/STM32G4xx_HAL_Driver/Src/stm32g4xx_hal_dac_ex.c **** 
 819:Drivers/STM32G4xx_HAL_Driver/Src/stm32g4xx_hal_dac_ex.c ****     /* Set DAC Channel1 DHR register to the middle value */
 820:Drivers/STM32G4xx_HAL_Driver/Src/stm32g4xx_hal_dac_ex.c ****     tmp = (uint32_t)hdac->Instance;
 821:Drivers/STM32G4xx_HAL_Driver/Src/stm32g4xx_hal_dac_ex.c **** 
 822:Drivers/STM32G4xx_HAL_Driver/Src/stm32g4xx_hal_dac_ex.c ****     if (Channel == DAC_CHANNEL_1)
 823:Drivers/STM32G4xx_HAL_Driver/Src/stm32g4xx_hal_dac_ex.c ****     {
 824:Drivers/STM32G4xx_HAL_Driver/Src/stm32g4xx_hal_dac_ex.c ****       tmp += DAC_DHR12R1_ALIGNMENT(DAC_ALIGN_12B_R);
 825:Drivers/STM32G4xx_HAL_Driver/Src/stm32g4xx_hal_dac_ex.c ****     }
 826:Drivers/STM32G4xx_HAL_Driver/Src/stm32g4xx_hal_dac_ex.c ****     else
 827:Drivers/STM32G4xx_HAL_Driver/Src/stm32g4xx_hal_dac_ex.c ****     {
 828:Drivers/STM32G4xx_HAL_Driver/Src/stm32g4xx_hal_dac_ex.c ****       tmp += DAC_DHR12R2_ALIGNMENT(DAC_ALIGN_12B_R);
 829:Drivers/STM32G4xx_HAL_Driver/Src/stm32g4xx_hal_dac_ex.c ****     }
 830:Drivers/STM32G4xx_HAL_Driver/Src/stm32g4xx_hal_dac_ex.c **** 
 831:Drivers/STM32G4xx_HAL_Driver/Src/stm32g4xx_hal_dac_ex.c ****     *(__IO uint32_t *) tmp = 0x0800U;
 832:Drivers/STM32G4xx_HAL_Driver/Src/stm32g4xx_hal_dac_ex.c **** 
 833:Drivers/STM32G4xx_HAL_Driver/Src/stm32g4xx_hal_dac_ex.c ****     /* Enable the selected DAC channel calibration */
 834:Drivers/STM32G4xx_HAL_Driver/Src/stm32g4xx_hal_dac_ex.c ****     /* i.e. set DAC_CR_CENx bit */
 835:Drivers/STM32G4xx_HAL_Driver/Src/stm32g4xx_hal_dac_ex.c ****     SET_BIT((hdac->Instance->CR), (DAC_CR_CEN1 << (Channel & 0x10UL)));
 836:Drivers/STM32G4xx_HAL_Driver/Src/stm32g4xx_hal_dac_ex.c **** 
 837:Drivers/STM32G4xx_HAL_Driver/Src/stm32g4xx_hal_dac_ex.c ****     /* Init trimming counter */
 838:Drivers/STM32G4xx_HAL_Driver/Src/stm32g4xx_hal_dac_ex.c ****     /* Medium value */
 839:Drivers/STM32G4xx_HAL_Driver/Src/stm32g4xx_hal_dac_ex.c ****     trimmingvalue = 16U;
 840:Drivers/STM32G4xx_HAL_Driver/Src/stm32g4xx_hal_dac_ex.c ****     delta = 8U;
 841:Drivers/STM32G4xx_HAL_Driver/Src/stm32g4xx_hal_dac_ex.c ****     while (delta != 0U)
 842:Drivers/STM32G4xx_HAL_Driver/Src/stm32g4xx_hal_dac_ex.c ****     {
 843:Drivers/STM32G4xx_HAL_Driver/Src/stm32g4xx_hal_dac_ex.c ****       /* Set candidate trimming */
 844:Drivers/STM32G4xx_HAL_Driver/Src/stm32g4xx_hal_dac_ex.c ****       MODIFY_REG(hdac->Instance->CCR, (DAC_CCR_OTRIM1 << (Channel & 0x10UL)), (trimmingvalue << (Ch
 845:Drivers/STM32G4xx_HAL_Driver/Src/stm32g4xx_hal_dac_ex.c **** 
 846:Drivers/STM32G4xx_HAL_Driver/Src/stm32g4xx_hal_dac_ex.c ****       /* tOFFTRIMmax delay x ms as per datasheet (electrical characteristics */
 847:Drivers/STM32G4xx_HAL_Driver/Src/stm32g4xx_hal_dac_ex.c ****       /* i.e. minimum time needed between two calibration steps */
 848:Drivers/STM32G4xx_HAL_Driver/Src/stm32g4xx_hal_dac_ex.c ****       HAL_Delay(1);
 849:Drivers/STM32G4xx_HAL_Driver/Src/stm32g4xx_hal_dac_ex.c **** 
 850:Drivers/STM32G4xx_HAL_Driver/Src/stm32g4xx_hal_dac_ex.c ****       if ((hdac->Instance->SR & (DAC_SR_CAL_FLAG1 << (Channel & 0x10UL))) == (DAC_SR_CAL_FLAG1 << (
 851:Drivers/STM32G4xx_HAL_Driver/Src/stm32g4xx_hal_dac_ex.c ****       {
 852:Drivers/STM32G4xx_HAL_Driver/Src/stm32g4xx_hal_dac_ex.c ****         /* DAC_SR_CAL_FLAGx is HIGH try higher trimming */
 853:Drivers/STM32G4xx_HAL_Driver/Src/stm32g4xx_hal_dac_ex.c ****         trimmingvalue -= delta;
 854:Drivers/STM32G4xx_HAL_Driver/Src/stm32g4xx_hal_dac_ex.c ****       }
 855:Drivers/STM32G4xx_HAL_Driver/Src/stm32g4xx_hal_dac_ex.c ****       else
 856:Drivers/STM32G4xx_HAL_Driver/Src/stm32g4xx_hal_dac_ex.c ****       {
 857:Drivers/STM32G4xx_HAL_Driver/Src/stm32g4xx_hal_dac_ex.c ****         /* DAC_SR_CAL_FLAGx is LOW try lower trimming */
 858:Drivers/STM32G4xx_HAL_Driver/Src/stm32g4xx_hal_dac_ex.c ****         trimmingvalue += delta;
 859:Drivers/STM32G4xx_HAL_Driver/Src/stm32g4xx_hal_dac_ex.c ****       }
 860:Drivers/STM32G4xx_HAL_Driver/Src/stm32g4xx_hal_dac_ex.c ****       delta >>= 1U;
 861:Drivers/STM32G4xx_HAL_Driver/Src/stm32g4xx_hal_dac_ex.c ****     }
 862:Drivers/STM32G4xx_HAL_Driver/Src/stm32g4xx_hal_dac_ex.c **** 
 863:Drivers/STM32G4xx_HAL_Driver/Src/stm32g4xx_hal_dac_ex.c ****     /* Still need to check if right calibration is current value or one step below */
 864:Drivers/STM32G4xx_HAL_Driver/Src/stm32g4xx_hal_dac_ex.c ****     /* Indeed the first value that causes the DAC_SR_CAL_FLAGx bit to change from 0 to 1  */
 865:Drivers/STM32G4xx_HAL_Driver/Src/stm32g4xx_hal_dac_ex.c ****     /* Set candidate trimming */
 866:Drivers/STM32G4xx_HAL_Driver/Src/stm32g4xx_hal_dac_ex.c ****     MODIFY_REG(hdac->Instance->CCR, (DAC_CCR_OTRIM1 << (Channel & 0x10UL)), (trimmingvalue << (Chan
 867:Drivers/STM32G4xx_HAL_Driver/Src/stm32g4xx_hal_dac_ex.c **** 
 868:Drivers/STM32G4xx_HAL_Driver/Src/stm32g4xx_hal_dac_ex.c ****     /* tOFFTRIMmax delay x ms as per datasheet (electrical characteristics */
 869:Drivers/STM32G4xx_HAL_Driver/Src/stm32g4xx_hal_dac_ex.c ****     /* i.e. minimum time needed between two calibration steps */
ARM GAS  /tmp/ccEoBVya.s 			page 36


 870:Drivers/STM32G4xx_HAL_Driver/Src/stm32g4xx_hal_dac_ex.c ****     HAL_Delay(1U);
 871:Drivers/STM32G4xx_HAL_Driver/Src/stm32g4xx_hal_dac_ex.c **** 
 872:Drivers/STM32G4xx_HAL_Driver/Src/stm32g4xx_hal_dac_ex.c ****     if ((hdac->Instance->SR & (DAC_SR_CAL_FLAG1 << (Channel & 0x10UL))) == 0UL)
 873:Drivers/STM32G4xx_HAL_Driver/Src/stm32g4xx_hal_dac_ex.c ****     {
 874:Drivers/STM32G4xx_HAL_Driver/Src/stm32g4xx_hal_dac_ex.c ****       /* OPAMP_CSR_OUTCAL is actually one value more */
 875:Drivers/STM32G4xx_HAL_Driver/Src/stm32g4xx_hal_dac_ex.c ****       trimmingvalue++;
 876:Drivers/STM32G4xx_HAL_Driver/Src/stm32g4xx_hal_dac_ex.c ****       /* Set right trimming */
 877:Drivers/STM32G4xx_HAL_Driver/Src/stm32g4xx_hal_dac_ex.c ****       MODIFY_REG(hdac->Instance->CCR, (DAC_CCR_OTRIM1 << (Channel & 0x10UL)), (trimmingvalue << (Ch
 878:Drivers/STM32G4xx_HAL_Driver/Src/stm32g4xx_hal_dac_ex.c ****     }
 879:Drivers/STM32G4xx_HAL_Driver/Src/stm32g4xx_hal_dac_ex.c **** 
 880:Drivers/STM32G4xx_HAL_Driver/Src/stm32g4xx_hal_dac_ex.c ****     /* Disable the selected DAC channel calibration */
 881:Drivers/STM32G4xx_HAL_Driver/Src/stm32g4xx_hal_dac_ex.c ****     /* i.e. clear DAC_CR_CENx bit */
 882:Drivers/STM32G4xx_HAL_Driver/Src/stm32g4xx_hal_dac_ex.c ****     CLEAR_BIT((hdac->Instance->CR), (DAC_CR_CEN1 << (Channel & 0x10UL)));
 883:Drivers/STM32G4xx_HAL_Driver/Src/stm32g4xx_hal_dac_ex.c **** 
 884:Drivers/STM32G4xx_HAL_Driver/Src/stm32g4xx_hal_dac_ex.c ****     sConfig->DAC_TrimmingValue = trimmingvalue;
 885:Drivers/STM32G4xx_HAL_Driver/Src/stm32g4xx_hal_dac_ex.c ****     sConfig->DAC_UserTrimming = DAC_TRIMMING_USER;
 886:Drivers/STM32G4xx_HAL_Driver/Src/stm32g4xx_hal_dac_ex.c **** 
 887:Drivers/STM32G4xx_HAL_Driver/Src/stm32g4xx_hal_dac_ex.c ****     /* Restore configuration */
 888:Drivers/STM32G4xx_HAL_Driver/Src/stm32g4xx_hal_dac_ex.c ****     MODIFY_REG(hdac->Instance->MCR, (DAC_MCR_MODE1 << (Channel & 0x10UL)), oldmodeconfiguration);
 889:Drivers/STM32G4xx_HAL_Driver/Src/stm32g4xx_hal_dac_ex.c **** 
 890:Drivers/STM32G4xx_HAL_Driver/Src/stm32g4xx_hal_dac_ex.c ****     /* Process unlocked */
 891:Drivers/STM32G4xx_HAL_Driver/Src/stm32g4xx_hal_dac_ex.c ****     __HAL_UNLOCK(hdac);
 892:Drivers/STM32G4xx_HAL_Driver/Src/stm32g4xx_hal_dac_ex.c ****   }
 893:Drivers/STM32G4xx_HAL_Driver/Src/stm32g4xx_hal_dac_ex.c **** 
 894:Drivers/STM32G4xx_HAL_Driver/Src/stm32g4xx_hal_dac_ex.c ****   return status;
 895:Drivers/STM32G4xx_HAL_Driver/Src/stm32g4xx_hal_dac_ex.c **** }
 896:Drivers/STM32G4xx_HAL_Driver/Src/stm32g4xx_hal_dac_ex.c **** 
 897:Drivers/STM32G4xx_HAL_Driver/Src/stm32g4xx_hal_dac_ex.c **** /**
 898:Drivers/STM32G4xx_HAL_Driver/Src/stm32g4xx_hal_dac_ex.c ****   * @brief  Set the trimming mode and trimming value (user trimming mode applied).
 899:Drivers/STM32G4xx_HAL_Driver/Src/stm32g4xx_hal_dac_ex.c ****   * @param  hdac pointer to a DAC_HandleTypeDef structure that contains
 900:Drivers/STM32G4xx_HAL_Driver/Src/stm32g4xx_hal_dac_ex.c ****   *         the configuration information for the specified DAC.
 901:Drivers/STM32G4xx_HAL_Driver/Src/stm32g4xx_hal_dac_ex.c ****   * @param  sConfig DAC configuration structure updated with new DAC trimming value.
 902:Drivers/STM32G4xx_HAL_Driver/Src/stm32g4xx_hal_dac_ex.c ****   * @param  Channel The selected DAC channel.
 903:Drivers/STM32G4xx_HAL_Driver/Src/stm32g4xx_hal_dac_ex.c ****   *          This parameter can be one of the following values:
 904:Drivers/STM32G4xx_HAL_Driver/Src/stm32g4xx_hal_dac_ex.c ****   *            @arg DAC_CHANNEL_1: DAC Channel1 selected
 905:Drivers/STM32G4xx_HAL_Driver/Src/stm32g4xx_hal_dac_ex.c ****   *            @arg DAC_CHANNEL_2: DAC Channel2 selected (1)
 906:Drivers/STM32G4xx_HAL_Driver/Src/stm32g4xx_hal_dac_ex.c ****   *
 907:Drivers/STM32G4xx_HAL_Driver/Src/stm32g4xx_hal_dac_ex.c ****   *         (1) On this STM32 serie, parameter not available on all instances.
 908:Drivers/STM32G4xx_HAL_Driver/Src/stm32g4xx_hal_dac_ex.c ****   *             Refer to device datasheet for channels availability.
 909:Drivers/STM32G4xx_HAL_Driver/Src/stm32g4xx_hal_dac_ex.c ****   * @param  NewTrimmingValue DAC new trimming value
 910:Drivers/STM32G4xx_HAL_Driver/Src/stm32g4xx_hal_dac_ex.c ****   * @retval HAL status
 911:Drivers/STM32G4xx_HAL_Driver/Src/stm32g4xx_hal_dac_ex.c ****   */
 912:Drivers/STM32G4xx_HAL_Driver/Src/stm32g4xx_hal_dac_ex.c **** 
 913:Drivers/STM32G4xx_HAL_Driver/Src/stm32g4xx_hal_dac_ex.c **** HAL_StatusTypeDef HAL_DACEx_SetUserTrimming(DAC_HandleTypeDef *hdac, DAC_ChannelConfTypeDef *sConfi
 914:Drivers/STM32G4xx_HAL_Driver/Src/stm32g4xx_hal_dac_ex.c ****                                             uint32_t NewTrimmingValue)
 915:Drivers/STM32G4xx_HAL_Driver/Src/stm32g4xx_hal_dac_ex.c **** {
 916:Drivers/STM32G4xx_HAL_Driver/Src/stm32g4xx_hal_dac_ex.c ****   HAL_StatusTypeDef status = HAL_OK;
 917:Drivers/STM32G4xx_HAL_Driver/Src/stm32g4xx_hal_dac_ex.c **** 
 918:Drivers/STM32G4xx_HAL_Driver/Src/stm32g4xx_hal_dac_ex.c ****   /* Check the parameters */
 919:Drivers/STM32G4xx_HAL_Driver/Src/stm32g4xx_hal_dac_ex.c ****   assert_param(IS_DAC_CHANNEL(hdac->Instance, Channel));
 920:Drivers/STM32G4xx_HAL_Driver/Src/stm32g4xx_hal_dac_ex.c ****   assert_param(IS_DAC_NEWTRIMMINGVALUE(NewTrimmingValue));
 921:Drivers/STM32G4xx_HAL_Driver/Src/stm32g4xx_hal_dac_ex.c **** 
 922:Drivers/STM32G4xx_HAL_Driver/Src/stm32g4xx_hal_dac_ex.c ****   /* Check the DAC handle allocation */
 923:Drivers/STM32G4xx_HAL_Driver/Src/stm32g4xx_hal_dac_ex.c ****   if (hdac == NULL)
 924:Drivers/STM32G4xx_HAL_Driver/Src/stm32g4xx_hal_dac_ex.c ****   {
 925:Drivers/STM32G4xx_HAL_Driver/Src/stm32g4xx_hal_dac_ex.c ****     status = HAL_ERROR;
 926:Drivers/STM32G4xx_HAL_Driver/Src/stm32g4xx_hal_dac_ex.c ****   }
ARM GAS  /tmp/ccEoBVya.s 			page 37


 927:Drivers/STM32G4xx_HAL_Driver/Src/stm32g4xx_hal_dac_ex.c ****   else
 928:Drivers/STM32G4xx_HAL_Driver/Src/stm32g4xx_hal_dac_ex.c ****   {
 929:Drivers/STM32G4xx_HAL_Driver/Src/stm32g4xx_hal_dac_ex.c ****     /* Process locked */
 930:Drivers/STM32G4xx_HAL_Driver/Src/stm32g4xx_hal_dac_ex.c ****     __HAL_LOCK(hdac);
 931:Drivers/STM32G4xx_HAL_Driver/Src/stm32g4xx_hal_dac_ex.c **** 
 932:Drivers/STM32G4xx_HAL_Driver/Src/stm32g4xx_hal_dac_ex.c ****     /* Set new trimming */
 933:Drivers/STM32G4xx_HAL_Driver/Src/stm32g4xx_hal_dac_ex.c ****     MODIFY_REG(hdac->Instance->CCR, (DAC_CCR_OTRIM1 << (Channel & 0x10UL)), (NewTrimmingValue << (C
 934:Drivers/STM32G4xx_HAL_Driver/Src/stm32g4xx_hal_dac_ex.c **** 
 935:Drivers/STM32G4xx_HAL_Driver/Src/stm32g4xx_hal_dac_ex.c ****     /* Update trimming mode */
 936:Drivers/STM32G4xx_HAL_Driver/Src/stm32g4xx_hal_dac_ex.c ****     sConfig->DAC_UserTrimming = DAC_TRIMMING_USER;
 937:Drivers/STM32G4xx_HAL_Driver/Src/stm32g4xx_hal_dac_ex.c ****     sConfig->DAC_TrimmingValue = NewTrimmingValue;
 938:Drivers/STM32G4xx_HAL_Driver/Src/stm32g4xx_hal_dac_ex.c **** 
 939:Drivers/STM32G4xx_HAL_Driver/Src/stm32g4xx_hal_dac_ex.c ****     /* Process unlocked */
 940:Drivers/STM32G4xx_HAL_Driver/Src/stm32g4xx_hal_dac_ex.c ****     __HAL_UNLOCK(hdac);
 941:Drivers/STM32G4xx_HAL_Driver/Src/stm32g4xx_hal_dac_ex.c ****   }
 942:Drivers/STM32G4xx_HAL_Driver/Src/stm32g4xx_hal_dac_ex.c ****   return status;
 943:Drivers/STM32G4xx_HAL_Driver/Src/stm32g4xx_hal_dac_ex.c **** }
 944:Drivers/STM32G4xx_HAL_Driver/Src/stm32g4xx_hal_dac_ex.c **** 
 945:Drivers/STM32G4xx_HAL_Driver/Src/stm32g4xx_hal_dac_ex.c **** /**
 946:Drivers/STM32G4xx_HAL_Driver/Src/stm32g4xx_hal_dac_ex.c ****   * @brief  Return the DAC trimming value.
 947:Drivers/STM32G4xx_HAL_Driver/Src/stm32g4xx_hal_dac_ex.c ****   * @param  hdac DAC handle
 948:Drivers/STM32G4xx_HAL_Driver/Src/stm32g4xx_hal_dac_ex.c ****   * @param  Channel The selected DAC channel.
 949:Drivers/STM32G4xx_HAL_Driver/Src/stm32g4xx_hal_dac_ex.c ****   *          This parameter can be one of the following values:
 950:Drivers/STM32G4xx_HAL_Driver/Src/stm32g4xx_hal_dac_ex.c ****   *            @arg DAC_CHANNEL_1: DAC Channel1 selected
 951:Drivers/STM32G4xx_HAL_Driver/Src/stm32g4xx_hal_dac_ex.c ****   *            @arg DAC_CHANNEL_2: DAC Channel2 selected (1)
 952:Drivers/STM32G4xx_HAL_Driver/Src/stm32g4xx_hal_dac_ex.c ****   *
 953:Drivers/STM32G4xx_HAL_Driver/Src/stm32g4xx_hal_dac_ex.c ****   *         (1) On this STM32 serie, parameter not available on all instances.
 954:Drivers/STM32G4xx_HAL_Driver/Src/stm32g4xx_hal_dac_ex.c ****   *             Refer to device datasheet for channels availability.
 955:Drivers/STM32G4xx_HAL_Driver/Src/stm32g4xx_hal_dac_ex.c ****   * @retval Trimming value : range: 0->31
 956:Drivers/STM32G4xx_HAL_Driver/Src/stm32g4xx_hal_dac_ex.c ****   *
 957:Drivers/STM32G4xx_HAL_Driver/Src/stm32g4xx_hal_dac_ex.c ****  */
 958:Drivers/STM32G4xx_HAL_Driver/Src/stm32g4xx_hal_dac_ex.c **** 
 959:Drivers/STM32G4xx_HAL_Driver/Src/stm32g4xx_hal_dac_ex.c **** uint32_t HAL_DACEx_GetTrimOffset(DAC_HandleTypeDef *hdac, uint32_t Channel)
 960:Drivers/STM32G4xx_HAL_Driver/Src/stm32g4xx_hal_dac_ex.c **** {
 961:Drivers/STM32G4xx_HAL_Driver/Src/stm32g4xx_hal_dac_ex.c ****   /* Check the parameter */
 962:Drivers/STM32G4xx_HAL_Driver/Src/stm32g4xx_hal_dac_ex.c ****   assert_param(IS_DAC_CHANNEL(hdac->Instance, Channel));
 963:Drivers/STM32G4xx_HAL_Driver/Src/stm32g4xx_hal_dac_ex.c **** 
 964:Drivers/STM32G4xx_HAL_Driver/Src/stm32g4xx_hal_dac_ex.c ****   /* Retrieve trimming  */
 965:Drivers/STM32G4xx_HAL_Driver/Src/stm32g4xx_hal_dac_ex.c ****   return ((hdac->Instance->CCR & (DAC_CCR_OTRIM1 << (Channel & 0x10UL))) >> (Channel & 0x10UL));
 966:Drivers/STM32G4xx_HAL_Driver/Src/stm32g4xx_hal_dac_ex.c **** }
 967:Drivers/STM32G4xx_HAL_Driver/Src/stm32g4xx_hal_dac_ex.c **** 
 968:Drivers/STM32G4xx_HAL_Driver/Src/stm32g4xx_hal_dac_ex.c **** /**
 969:Drivers/STM32G4xx_HAL_Driver/Src/stm32g4xx_hal_dac_ex.c ****   * @}
 970:Drivers/STM32G4xx_HAL_Driver/Src/stm32g4xx_hal_dac_ex.c ****   */
 971:Drivers/STM32G4xx_HAL_Driver/Src/stm32g4xx_hal_dac_ex.c **** 
 972:Drivers/STM32G4xx_HAL_Driver/Src/stm32g4xx_hal_dac_ex.c **** /** @defgroup DACEx_Exported_Functions_Group3 Peripheral Control functions
 973:Drivers/STM32G4xx_HAL_Driver/Src/stm32g4xx_hal_dac_ex.c ****   *  @brief    Extended Peripheral Control functions
 974:Drivers/STM32G4xx_HAL_Driver/Src/stm32g4xx_hal_dac_ex.c ****   *
 975:Drivers/STM32G4xx_HAL_Driver/Src/stm32g4xx_hal_dac_ex.c **** @verbatim
 976:Drivers/STM32G4xx_HAL_Driver/Src/stm32g4xx_hal_dac_ex.c ****   ==============================================================================
 977:Drivers/STM32G4xx_HAL_Driver/Src/stm32g4xx_hal_dac_ex.c ****              ##### Peripheral Control functions #####
 978:Drivers/STM32G4xx_HAL_Driver/Src/stm32g4xx_hal_dac_ex.c ****   ==============================================================================
 979:Drivers/STM32G4xx_HAL_Driver/Src/stm32g4xx_hal_dac_ex.c ****     [..]  This section provides functions allowing to:
 980:Drivers/STM32G4xx_HAL_Driver/Src/stm32g4xx_hal_dac_ex.c ****       (+) Set the specified data holding register value for DAC channel.
 981:Drivers/STM32G4xx_HAL_Driver/Src/stm32g4xx_hal_dac_ex.c **** 
 982:Drivers/STM32G4xx_HAL_Driver/Src/stm32g4xx_hal_dac_ex.c **** @endverbatim
 983:Drivers/STM32G4xx_HAL_Driver/Src/stm32g4xx_hal_dac_ex.c ****   * @{
ARM GAS  /tmp/ccEoBVya.s 			page 38


 984:Drivers/STM32G4xx_HAL_Driver/Src/stm32g4xx_hal_dac_ex.c ****   */
 985:Drivers/STM32G4xx_HAL_Driver/Src/stm32g4xx_hal_dac_ex.c **** 
 986:Drivers/STM32G4xx_HAL_Driver/Src/stm32g4xx_hal_dac_ex.c **** /**
 987:Drivers/STM32G4xx_HAL_Driver/Src/stm32g4xx_hal_dac_ex.c ****   * @brief  Return the last data output value of the selected DAC channel.
 988:Drivers/STM32G4xx_HAL_Driver/Src/stm32g4xx_hal_dac_ex.c ****   * @param  hdac pointer to a DAC_HandleTypeDef structure that contains
 989:Drivers/STM32G4xx_HAL_Driver/Src/stm32g4xx_hal_dac_ex.c ****   *         the configuration information for the specified DAC.
 990:Drivers/STM32G4xx_HAL_Driver/Src/stm32g4xx_hal_dac_ex.c ****   * @retval The selected DAC channel data output value.
 991:Drivers/STM32G4xx_HAL_Driver/Src/stm32g4xx_hal_dac_ex.c ****   */
 992:Drivers/STM32G4xx_HAL_Driver/Src/stm32g4xx_hal_dac_ex.c **** uint32_t HAL_DACEx_DualGetValue(DAC_HandleTypeDef *hdac)
 993:Drivers/STM32G4xx_HAL_Driver/Src/stm32g4xx_hal_dac_ex.c **** {
 994:Drivers/STM32G4xx_HAL_Driver/Src/stm32g4xx_hal_dac_ex.c ****   uint32_t tmp = 0U;
 995:Drivers/STM32G4xx_HAL_Driver/Src/stm32g4xx_hal_dac_ex.c **** 
 996:Drivers/STM32G4xx_HAL_Driver/Src/stm32g4xx_hal_dac_ex.c ****   tmp |= hdac->Instance->DOR1;
 997:Drivers/STM32G4xx_HAL_Driver/Src/stm32g4xx_hal_dac_ex.c **** 
 998:Drivers/STM32G4xx_HAL_Driver/Src/stm32g4xx_hal_dac_ex.c ****   tmp |= hdac->Instance->DOR2 << 16U;
 999:Drivers/STM32G4xx_HAL_Driver/Src/stm32g4xx_hal_dac_ex.c **** 
1000:Drivers/STM32G4xx_HAL_Driver/Src/stm32g4xx_hal_dac_ex.c ****   /* Returns the DAC channel data output register value */
1001:Drivers/STM32G4xx_HAL_Driver/Src/stm32g4xx_hal_dac_ex.c ****   return tmp;
1002:Drivers/STM32G4xx_HAL_Driver/Src/stm32g4xx_hal_dac_ex.c **** }
1003:Drivers/STM32G4xx_HAL_Driver/Src/stm32g4xx_hal_dac_ex.c **** 
1004:Drivers/STM32G4xx_HAL_Driver/Src/stm32g4xx_hal_dac_ex.c **** /**
1005:Drivers/STM32G4xx_HAL_Driver/Src/stm32g4xx_hal_dac_ex.c ****   * @}
1006:Drivers/STM32G4xx_HAL_Driver/Src/stm32g4xx_hal_dac_ex.c ****   */
1007:Drivers/STM32G4xx_HAL_Driver/Src/stm32g4xx_hal_dac_ex.c **** 
1008:Drivers/STM32G4xx_HAL_Driver/Src/stm32g4xx_hal_dac_ex.c **** /**
1009:Drivers/STM32G4xx_HAL_Driver/Src/stm32g4xx_hal_dac_ex.c ****   * @}
1010:Drivers/STM32G4xx_HAL_Driver/Src/stm32g4xx_hal_dac_ex.c ****   */
1011:Drivers/STM32G4xx_HAL_Driver/Src/stm32g4xx_hal_dac_ex.c **** 
1012:Drivers/STM32G4xx_HAL_Driver/Src/stm32g4xx_hal_dac_ex.c **** /* Private functions ---------------------------------------------------------*/
1013:Drivers/STM32G4xx_HAL_Driver/Src/stm32g4xx_hal_dac_ex.c **** /** @defgroup DACEx_Private_Functions DACEx private functions
1014:Drivers/STM32G4xx_HAL_Driver/Src/stm32g4xx_hal_dac_ex.c ****   *  @brief    Extended private functions
1015:Drivers/STM32G4xx_HAL_Driver/Src/stm32g4xx_hal_dac_ex.c ****    * @{
1016:Drivers/STM32G4xx_HAL_Driver/Src/stm32g4xx_hal_dac_ex.c ****   */
1017:Drivers/STM32G4xx_HAL_Driver/Src/stm32g4xx_hal_dac_ex.c **** 
1018:Drivers/STM32G4xx_HAL_Driver/Src/stm32g4xx_hal_dac_ex.c **** /**
1019:Drivers/STM32G4xx_HAL_Driver/Src/stm32g4xx_hal_dac_ex.c ****   * @brief  DMA conversion complete callback.
1020:Drivers/STM32G4xx_HAL_Driver/Src/stm32g4xx_hal_dac_ex.c ****   * @param  hdma pointer to a DMA_HandleTypeDef structure that contains
1021:Drivers/STM32G4xx_HAL_Driver/Src/stm32g4xx_hal_dac_ex.c ****   *                the configuration information for the specified DMA module.
1022:Drivers/STM32G4xx_HAL_Driver/Src/stm32g4xx_hal_dac_ex.c ****   * @retval None
1023:Drivers/STM32G4xx_HAL_Driver/Src/stm32g4xx_hal_dac_ex.c ****   */
1024:Drivers/STM32G4xx_HAL_Driver/Src/stm32g4xx_hal_dac_ex.c **** void DAC_DMAConvCpltCh2(DMA_HandleTypeDef *hdma)
1025:Drivers/STM32G4xx_HAL_Driver/Src/stm32g4xx_hal_dac_ex.c **** {
 1087              		.loc 1 1025 1 is_stmt 1 view -0
 1088              		.cfi_startproc
 1089              		@ args = 0, pretend = 0, frame = 0
 1090              		@ frame_needed = 0, uses_anonymous_args = 0
 1091              		.loc 1 1025 1 is_stmt 0 view .LVU317
 1092 0000 10B5     		push	{r4, lr}
 1093              	.LCFI16:
 1094              		.cfi_def_cfa_offset 8
 1095              		.cfi_offset 4, -8
 1096              		.cfi_offset 14, -4
1026:Drivers/STM32G4xx_HAL_Driver/Src/stm32g4xx_hal_dac_ex.c ****   DAC_HandleTypeDef *hdac = (DAC_HandleTypeDef *)((DMA_HandleTypeDef *)hdma)->Parent;
 1097              		.loc 1 1026 3 is_stmt 1 view .LVU318
 1098              		.loc 1 1026 22 is_stmt 0 view .LVU319
 1099 0002 846A     		ldr	r4, [r0, #40]
 1100              	.LVL81:
ARM GAS  /tmp/ccEoBVya.s 			page 39


1027:Drivers/STM32G4xx_HAL_Driver/Src/stm32g4xx_hal_dac_ex.c **** 
1028:Drivers/STM32G4xx_HAL_Driver/Src/stm32g4xx_hal_dac_ex.c **** #if (USE_HAL_DAC_REGISTER_CALLBACKS == 1)
1029:Drivers/STM32G4xx_HAL_Driver/Src/stm32g4xx_hal_dac_ex.c ****   hdac->ConvCpltCallbackCh2(hdac);
1030:Drivers/STM32G4xx_HAL_Driver/Src/stm32g4xx_hal_dac_ex.c **** #else
1031:Drivers/STM32G4xx_HAL_Driver/Src/stm32g4xx_hal_dac_ex.c ****   HAL_DACEx_ConvCpltCallbackCh2(hdac);
 1101              		.loc 1 1031 3 is_stmt 1 view .LVU320
 1102 0004 2046     		mov	r0, r4
 1103              	.LVL82:
 1104              		.loc 1 1031 3 is_stmt 0 view .LVU321
 1105 0006 FFF7FEFF 		bl	HAL_DACEx_ConvCpltCallbackCh2
 1106              	.LVL83:
1032:Drivers/STM32G4xx_HAL_Driver/Src/stm32g4xx_hal_dac_ex.c **** #endif /* USE_HAL_DAC_REGISTER_CALLBACKS */
1033:Drivers/STM32G4xx_HAL_Driver/Src/stm32g4xx_hal_dac_ex.c **** 
1034:Drivers/STM32G4xx_HAL_Driver/Src/stm32g4xx_hal_dac_ex.c ****   hdac->State = HAL_DAC_STATE_READY;
 1107              		.loc 1 1034 3 is_stmt 1 view .LVU322
 1108              		.loc 1 1034 15 is_stmt 0 view .LVU323
 1109 000a 0123     		movs	r3, #1
 1110 000c 2371     		strb	r3, [r4, #4]
1035:Drivers/STM32G4xx_HAL_Driver/Src/stm32g4xx_hal_dac_ex.c **** }
 1111              		.loc 1 1035 1 view .LVU324
 1112 000e 10BD     		pop	{r4, pc}
 1113              		.loc 1 1035 1 view .LVU325
 1114              		.cfi_endproc
 1115              	.LFE180:
 1117              		.section	.text.HAL_DACEx_ConvHalfCpltCallbackCh2,"ax",%progbits
 1118              		.align	1
 1119              		.weak	HAL_DACEx_ConvHalfCpltCallbackCh2
 1120              		.syntax unified
 1121              		.thumb
 1122              		.thumb_func
 1123              		.fpu fpv4-sp-d16
 1125              	HAL_DACEx_ConvHalfCpltCallbackCh2:
 1126              	.LVL84:
 1127              	.LFB173:
 721:Drivers/STM32G4xx_HAL_Driver/Src/stm32g4xx_hal_dac_ex.c ****   /* Prevent unused argument(s) compilation warning */
 1128              		.loc 1 721 1 is_stmt 1 view -0
 1129              		.cfi_startproc
 1130              		@ args = 0, pretend = 0, frame = 0
 1131              		@ frame_needed = 0, uses_anonymous_args = 0
 1132              		@ link register save eliminated.
 723:Drivers/STM32G4xx_HAL_Driver/Src/stm32g4xx_hal_dac_ex.c **** 
 1133              		.loc 1 723 3 view .LVU327
 728:Drivers/STM32G4xx_HAL_Driver/Src/stm32g4xx_hal_dac_ex.c **** 
 1134              		.loc 1 728 1 is_stmt 0 view .LVU328
 1135 0000 7047     		bx	lr
 1136              		.cfi_endproc
 1137              	.LFE173:
 1139              		.section	.text.DAC_DMAHalfConvCpltCh2,"ax",%progbits
 1140              		.align	1
 1141              		.global	DAC_DMAHalfConvCpltCh2
 1142              		.syntax unified
 1143              		.thumb
 1144              		.thumb_func
 1145              		.fpu fpv4-sp-d16
 1147              	DAC_DMAHalfConvCpltCh2:
 1148              	.LVL85:
 1149              	.LFB181:
ARM GAS  /tmp/ccEoBVya.s 			page 40


1036:Drivers/STM32G4xx_HAL_Driver/Src/stm32g4xx_hal_dac_ex.c **** 
1037:Drivers/STM32G4xx_HAL_Driver/Src/stm32g4xx_hal_dac_ex.c **** /**
1038:Drivers/STM32G4xx_HAL_Driver/Src/stm32g4xx_hal_dac_ex.c ****   * @brief  DMA half transfer complete callback.
1039:Drivers/STM32G4xx_HAL_Driver/Src/stm32g4xx_hal_dac_ex.c ****   * @param  hdma pointer to a DMA_HandleTypeDef structure that contains
1040:Drivers/STM32G4xx_HAL_Driver/Src/stm32g4xx_hal_dac_ex.c ****   *                the configuration information for the specified DMA module.
1041:Drivers/STM32G4xx_HAL_Driver/Src/stm32g4xx_hal_dac_ex.c ****   * @retval None
1042:Drivers/STM32G4xx_HAL_Driver/Src/stm32g4xx_hal_dac_ex.c ****   */
1043:Drivers/STM32G4xx_HAL_Driver/Src/stm32g4xx_hal_dac_ex.c **** void DAC_DMAHalfConvCpltCh2(DMA_HandleTypeDef *hdma)
1044:Drivers/STM32G4xx_HAL_Driver/Src/stm32g4xx_hal_dac_ex.c **** {
 1150              		.loc 1 1044 1 is_stmt 1 view -0
 1151              		.cfi_startproc
 1152              		@ args = 0, pretend = 0, frame = 0
 1153              		@ frame_needed = 0, uses_anonymous_args = 0
 1154              		.loc 1 1044 1 is_stmt 0 view .LVU330
 1155 0000 08B5     		push	{r3, lr}
 1156              	.LCFI17:
 1157              		.cfi_def_cfa_offset 8
 1158              		.cfi_offset 3, -8
 1159              		.cfi_offset 14, -4
1045:Drivers/STM32G4xx_HAL_Driver/Src/stm32g4xx_hal_dac_ex.c ****   DAC_HandleTypeDef *hdac = (DAC_HandleTypeDef *)((DMA_HandleTypeDef *)hdma)->Parent;
 1160              		.loc 1 1045 3 is_stmt 1 view .LVU331
 1161              	.LVL86:
1046:Drivers/STM32G4xx_HAL_Driver/Src/stm32g4xx_hal_dac_ex.c ****   /* Conversion complete callback */
1047:Drivers/STM32G4xx_HAL_Driver/Src/stm32g4xx_hal_dac_ex.c **** #if (USE_HAL_DAC_REGISTER_CALLBACKS == 1)
1048:Drivers/STM32G4xx_HAL_Driver/Src/stm32g4xx_hal_dac_ex.c ****   hdac->ConvHalfCpltCallbackCh2(hdac);
1049:Drivers/STM32G4xx_HAL_Driver/Src/stm32g4xx_hal_dac_ex.c **** #else
1050:Drivers/STM32G4xx_HAL_Driver/Src/stm32g4xx_hal_dac_ex.c ****   HAL_DACEx_ConvHalfCpltCallbackCh2(hdac);
 1162              		.loc 1 1050 3 view .LVU332
 1163 0002 806A     		ldr	r0, [r0, #40]
 1164              	.LVL87:
 1165              		.loc 1 1050 3 is_stmt 0 view .LVU333
 1166 0004 FFF7FEFF 		bl	HAL_DACEx_ConvHalfCpltCallbackCh2
 1167              	.LVL88:
1051:Drivers/STM32G4xx_HAL_Driver/Src/stm32g4xx_hal_dac_ex.c **** #endif /* USE_HAL_DAC_REGISTER_CALLBACKS */
1052:Drivers/STM32G4xx_HAL_Driver/Src/stm32g4xx_hal_dac_ex.c **** }
 1168              		.loc 1 1052 1 view .LVU334
 1169 0008 08BD     		pop	{r3, pc}
 1170              		.cfi_endproc
 1171              	.LFE181:
 1173              		.section	.text.HAL_DACEx_ErrorCallbackCh2,"ax",%progbits
 1174              		.align	1
 1175              		.weak	HAL_DACEx_ErrorCallbackCh2
 1176              		.syntax unified
 1177              		.thumb
 1178              		.thumb_func
 1179              		.fpu fpv4-sp-d16
 1181              	HAL_DACEx_ErrorCallbackCh2:
 1182              	.LVL89:
 1183              	.LFB174:
 737:Drivers/STM32G4xx_HAL_Driver/Src/stm32g4xx_hal_dac_ex.c ****   /* Prevent unused argument(s) compilation warning */
 1184              		.loc 1 737 1 is_stmt 1 view -0
 1185              		.cfi_startproc
 1186              		@ args = 0, pretend = 0, frame = 0
 1187              		@ frame_needed = 0, uses_anonymous_args = 0
 1188              		@ link register save eliminated.
 739:Drivers/STM32G4xx_HAL_Driver/Src/stm32g4xx_hal_dac_ex.c **** 
 1189              		.loc 1 739 3 view .LVU336
ARM GAS  /tmp/ccEoBVya.s 			page 41


 744:Drivers/STM32G4xx_HAL_Driver/Src/stm32g4xx_hal_dac_ex.c **** 
 1190              		.loc 1 744 1 is_stmt 0 view .LVU337
 1191 0000 7047     		bx	lr
 1192              		.cfi_endproc
 1193              	.LFE174:
 1195              		.section	.text.DAC_DMAErrorCh2,"ax",%progbits
 1196              		.align	1
 1197              		.global	DAC_DMAErrorCh2
 1198              		.syntax unified
 1199              		.thumb
 1200              		.thumb_func
 1201              		.fpu fpv4-sp-d16
 1203              	DAC_DMAErrorCh2:
 1204              	.LVL90:
 1205              	.LFB182:
1053:Drivers/STM32G4xx_HAL_Driver/Src/stm32g4xx_hal_dac_ex.c **** 
1054:Drivers/STM32G4xx_HAL_Driver/Src/stm32g4xx_hal_dac_ex.c **** /**
1055:Drivers/STM32G4xx_HAL_Driver/Src/stm32g4xx_hal_dac_ex.c ****   * @brief  DMA error callback.
1056:Drivers/STM32G4xx_HAL_Driver/Src/stm32g4xx_hal_dac_ex.c ****   * @param  hdma pointer to a DMA_HandleTypeDef structure that contains
1057:Drivers/STM32G4xx_HAL_Driver/Src/stm32g4xx_hal_dac_ex.c ****   *                the configuration information for the specified DMA module.
1058:Drivers/STM32G4xx_HAL_Driver/Src/stm32g4xx_hal_dac_ex.c ****   * @retval None
1059:Drivers/STM32G4xx_HAL_Driver/Src/stm32g4xx_hal_dac_ex.c ****   */
1060:Drivers/STM32G4xx_HAL_Driver/Src/stm32g4xx_hal_dac_ex.c **** void DAC_DMAErrorCh2(DMA_HandleTypeDef *hdma)
1061:Drivers/STM32G4xx_HAL_Driver/Src/stm32g4xx_hal_dac_ex.c **** {
 1206              		.loc 1 1061 1 is_stmt 1 view -0
 1207              		.cfi_startproc
 1208              		@ args = 0, pretend = 0, frame = 0
 1209              		@ frame_needed = 0, uses_anonymous_args = 0
 1210              		.loc 1 1061 1 is_stmt 0 view .LVU339
 1211 0000 10B5     		push	{r4, lr}
 1212              	.LCFI18:
 1213              		.cfi_def_cfa_offset 8
 1214              		.cfi_offset 4, -8
 1215              		.cfi_offset 14, -4
1062:Drivers/STM32G4xx_HAL_Driver/Src/stm32g4xx_hal_dac_ex.c ****   DAC_HandleTypeDef *hdac = (DAC_HandleTypeDef *)((DMA_HandleTypeDef *)hdma)->Parent;
 1216              		.loc 1 1062 3 is_stmt 1 view .LVU340
 1217              		.loc 1 1062 22 is_stmt 0 view .LVU341
 1218 0002 846A     		ldr	r4, [r0, #40]
 1219              	.LVL91:
1063:Drivers/STM32G4xx_HAL_Driver/Src/stm32g4xx_hal_dac_ex.c **** 
1064:Drivers/STM32G4xx_HAL_Driver/Src/stm32g4xx_hal_dac_ex.c ****   /* Set DAC error code to DMA error */
1065:Drivers/STM32G4xx_HAL_Driver/Src/stm32g4xx_hal_dac_ex.c ****   hdac->ErrorCode |= HAL_DAC_ERROR_DMA;
 1220              		.loc 1 1065 3 is_stmt 1 view .LVU342
 1221              		.loc 1 1065 19 is_stmt 0 view .LVU343
 1222 0004 2369     		ldr	r3, [r4, #16]
 1223 0006 43F00403 		orr	r3, r3, #4
 1224 000a 2361     		str	r3, [r4, #16]
1066:Drivers/STM32G4xx_HAL_Driver/Src/stm32g4xx_hal_dac_ex.c **** 
1067:Drivers/STM32G4xx_HAL_Driver/Src/stm32g4xx_hal_dac_ex.c **** #if (USE_HAL_DAC_REGISTER_CALLBACKS == 1)
1068:Drivers/STM32G4xx_HAL_Driver/Src/stm32g4xx_hal_dac_ex.c ****   hdac->ErrorCallbackCh2(hdac);
1069:Drivers/STM32G4xx_HAL_Driver/Src/stm32g4xx_hal_dac_ex.c **** #else
1070:Drivers/STM32G4xx_HAL_Driver/Src/stm32g4xx_hal_dac_ex.c ****   HAL_DACEx_ErrorCallbackCh2(hdac);
 1225              		.loc 1 1070 3 is_stmt 1 view .LVU344
 1226 000c 2046     		mov	r0, r4
 1227              	.LVL92:
 1228              		.loc 1 1070 3 is_stmt 0 view .LVU345
 1229 000e FFF7FEFF 		bl	HAL_DACEx_ErrorCallbackCh2
ARM GAS  /tmp/ccEoBVya.s 			page 42


 1230              	.LVL93:
1071:Drivers/STM32G4xx_HAL_Driver/Src/stm32g4xx_hal_dac_ex.c **** #endif /* USE_HAL_DAC_REGISTER_CALLBACKS */
1072:Drivers/STM32G4xx_HAL_Driver/Src/stm32g4xx_hal_dac_ex.c **** 
1073:Drivers/STM32G4xx_HAL_Driver/Src/stm32g4xx_hal_dac_ex.c ****   hdac->State = HAL_DAC_STATE_READY;
 1231              		.loc 1 1073 3 is_stmt 1 view .LVU346
 1232              		.loc 1 1073 15 is_stmt 0 view .LVU347
 1233 0012 0123     		movs	r3, #1
 1234 0014 2371     		strb	r3, [r4, #4]
1074:Drivers/STM32G4xx_HAL_Driver/Src/stm32g4xx_hal_dac_ex.c **** }
 1235              		.loc 1 1074 1 view .LVU348
 1236 0016 10BD     		pop	{r4, pc}
 1237              		.loc 1 1074 1 view .LVU349
 1238              		.cfi_endproc
 1239              	.LFE182:
 1241              		.section	.text.HAL_DACEx_DMAUnderrunCallbackCh2,"ax",%progbits
 1242              		.align	1
 1243              		.weak	HAL_DACEx_DMAUnderrunCallbackCh2
 1244              		.syntax unified
 1245              		.thumb
 1246              		.thumb_func
 1247              		.fpu fpv4-sp-d16
 1249              	HAL_DACEx_DMAUnderrunCallbackCh2:
 1250              	.LVL94:
 1251              	.LFB175:
 753:Drivers/STM32G4xx_HAL_Driver/Src/stm32g4xx_hal_dac_ex.c ****   /* Prevent unused argument(s) compilation warning */
 1252              		.loc 1 753 1 is_stmt 1 view -0
 1253              		.cfi_startproc
 1254              		@ args = 0, pretend = 0, frame = 0
 1255              		@ frame_needed = 0, uses_anonymous_args = 0
 1256              		@ link register save eliminated.
 755:Drivers/STM32G4xx_HAL_Driver/Src/stm32g4xx_hal_dac_ex.c **** 
 1257              		.loc 1 755 3 view .LVU351
 760:Drivers/STM32G4xx_HAL_Driver/Src/stm32g4xx_hal_dac_ex.c **** 
 1258              		.loc 1 760 1 is_stmt 0 view .LVU352
 1259 0000 7047     		bx	lr
 1260              		.cfi_endproc
 1261              	.LFE175:
 1263              		.section	.text.HAL_DACEx_SelfCalibrate,"ax",%progbits
 1264              		.align	1
 1265              		.global	HAL_DACEx_SelfCalibrate
 1266              		.syntax unified
 1267              		.thumb
 1268              		.thumb_func
 1269              		.fpu fpv4-sp-d16
 1271              	HAL_DACEx_SelfCalibrate:
 1272              	.LVL95:
 1273              	.LFB176:
 780:Drivers/STM32G4xx_HAL_Driver/Src/stm32g4xx_hal_dac_ex.c ****   HAL_StatusTypeDef status = HAL_OK;
 1274              		.loc 1 780 1 is_stmt 1 view -0
 1275              		.cfi_startproc
 1276              		@ args = 0, pretend = 0, frame = 8
 1277              		@ frame_needed = 0, uses_anonymous_args = 0
 781:Drivers/STM32G4xx_HAL_Driver/Src/stm32g4xx_hal_dac_ex.c **** 
 1278              		.loc 1 781 3 view .LVU354
 783:Drivers/STM32G4xx_HAL_Driver/Src/stm32g4xx_hal_dac_ex.c ****   uint32_t trimmingvalue;
 1279              		.loc 1 783 3 view .LVU355
 784:Drivers/STM32G4xx_HAL_Driver/Src/stm32g4xx_hal_dac_ex.c ****   uint32_t delta;
ARM GAS  /tmp/ccEoBVya.s 			page 43


 1280              		.loc 1 784 3 view .LVU356
 785:Drivers/STM32G4xx_HAL_Driver/Src/stm32g4xx_hal_dac_ex.c **** 
 1281              		.loc 1 785 3 view .LVU357
 788:Drivers/STM32G4xx_HAL_Driver/Src/stm32g4xx_hal_dac_ex.c **** 
 1282              		.loc 1 788 3 view .LVU358
 791:Drivers/STM32G4xx_HAL_Driver/Src/stm32g4xx_hal_dac_ex.c **** 
 1283              		.loc 1 791 3 view .LVU359
 795:Drivers/STM32G4xx_HAL_Driver/Src/stm32g4xx_hal_dac_ex.c ****   {
 1284              		.loc 1 795 3 view .LVU360
 795:Drivers/STM32G4xx_HAL_Driver/Src/stm32g4xx_hal_dac_ex.c ****   {
 1285              		.loc 1 795 6 is_stmt 0 view .LVU361
 1286 0000 0028     		cmp	r0, #0
 1287 0002 00F08780 		beq	.L102
 780:Drivers/STM32G4xx_HAL_Driver/Src/stm32g4xx_hal_dac_ex.c ****   HAL_StatusTypeDef status = HAL_OK;
 1288              		.loc 1 780 1 view .LVU362
 1289 0006 2DE9F04F 		push	{r4, r5, r6, r7, r8, r9, r10, fp, lr}
 1290              	.LCFI19:
 1291              		.cfi_def_cfa_offset 36
 1292              		.cfi_offset 4, -36
 1293              		.cfi_offset 5, -32
 1294              		.cfi_offset 6, -28
 1295              		.cfi_offset 7, -24
 1296              		.cfi_offset 8, -20
 1297              		.cfi_offset 9, -16
 1298              		.cfi_offset 10, -12
 1299              		.cfi_offset 11, -8
 1300              		.cfi_offset 14, -4
 1301 000a 83B0     		sub	sp, sp, #12
 1302              	.LCFI20:
 1303              		.cfi_def_cfa_offset 48
 1304 000c 8846     		mov	r8, r1
 1305 000e 1546     		mov	r5, r2
 1306 0010 0446     		mov	r4, r0
 799:Drivers/STM32G4xx_HAL_Driver/Src/stm32g4xx_hal_dac_ex.c ****   {
 1307              		.loc 1 799 8 is_stmt 1 view .LVU363
 799:Drivers/STM32G4xx_HAL_Driver/Src/stm32g4xx_hal_dac_ex.c ****   {
 1308              		.loc 1 799 16 is_stmt 0 view .LVU364
 1309 0012 0379     		ldrb	r3, [r0, #4]	@ zero_extendqisi2
 1310 0014 DBB2     		uxtb	r3, r3
 799:Drivers/STM32G4xx_HAL_Driver/Src/stm32g4xx_hal_dac_ex.c ****   {
 1311              		.loc 1 799 11 view .LVU365
 1312 0016 022B     		cmp	r3, #2
 1313 0018 7ED0     		beq	.L103
 806:Drivers/STM32G4xx_HAL_Driver/Src/stm32g4xx_hal_dac_ex.c **** 
 1314              		.loc 1 806 5 is_stmt 1 view .LVU366
 806:Drivers/STM32G4xx_HAL_Driver/Src/stm32g4xx_hal_dac_ex.c **** 
 1315              		.loc 1 806 5 view .LVU367
 1316 001a 4379     		ldrb	r3, [r0, #5]	@ zero_extendqisi2
 1317 001c 012B     		cmp	r3, #1
 1318 001e 7DD0     		beq	.L104
 806:Drivers/STM32G4xx_HAL_Driver/Src/stm32g4xx_hal_dac_ex.c **** 
 1319              		.loc 1 806 5 discriminator 2 view .LVU368
 1320 0020 0120     		movs	r0, #1
 1321              	.LVL96:
 806:Drivers/STM32G4xx_HAL_Driver/Src/stm32g4xx_hal_dac_ex.c **** 
 1322              		.loc 1 806 5 is_stmt 0 discriminator 2 view .LVU369
 1323 0022 6071     		strb	r0, [r4, #5]
ARM GAS  /tmp/ccEoBVya.s 			page 44


 806:Drivers/STM32G4xx_HAL_Driver/Src/stm32g4xx_hal_dac_ex.c **** 
 1324              		.loc 1 806 5 is_stmt 1 discriminator 2 view .LVU370
 809:Drivers/STM32G4xx_HAL_Driver/Src/stm32g4xx_hal_dac_ex.c **** 
 1325              		.loc 1 809 5 discriminator 2 view .LVU371
 809:Drivers/STM32G4xx_HAL_Driver/Src/stm32g4xx_hal_dac_ex.c **** 
 1326              		.loc 1 809 33 is_stmt 0 discriminator 2 view .LVU372
 1327 0024 2368     		ldr	r3, [r4]
 809:Drivers/STM32G4xx_HAL_Driver/Src/stm32g4xx_hal_dac_ex.c **** 
 1328              		.loc 1 809 43 discriminator 2 view .LVU373
 1329 0026 DA6B     		ldr	r2, [r3, #60]
 1330              	.LVL97:
 809:Drivers/STM32G4xx_HAL_Driver/Src/stm32g4xx_hal_dac_ex.c **** 
 1331              		.loc 1 809 78 discriminator 2 view .LVU374
 1332 0028 05F01007 		and	r7, r5, #16
 809:Drivers/STM32G4xx_HAL_Driver/Src/stm32g4xx_hal_dac_ex.c **** 
 1333              		.loc 1 809 66 discriminator 2 view .LVU375
 1334 002c 0726     		movs	r6, #7
 1335 002e BE40     		lsls	r6, r6, r7
 809:Drivers/STM32G4xx_HAL_Driver/Src/stm32g4xx_hal_dac_ex.c **** 
 1336              		.loc 1 809 26 discriminator 2 view .LVU376
 1337 0030 02EA060B 		and	fp, r2, r6
 1338              	.LVL98:
 812:Drivers/STM32G4xx_HAL_Driver/Src/stm32g4xx_hal_dac_ex.c ****     /* Wait for ready bit to be de-asserted */
 1339              		.loc 1 812 5 is_stmt 1 discriminator 2 view .LVU377
 1340 0034 1A68     		ldr	r2, [r3]
 1341 0036 00FA07F1 		lsl	r1, r0, r7
 1342              	.LVL99:
 812:Drivers/STM32G4xx_HAL_Driver/Src/stm32g4xx_hal_dac_ex.c ****     /* Wait for ready bit to be de-asserted */
 1343              		.loc 1 812 5 is_stmt 0 discriminator 2 view .LVU378
 1344 003a 22EA0102 		bic	r2, r2, r1
 1345 003e 1A60     		str	r2, [r3]
 814:Drivers/STM32G4xx_HAL_Driver/Src/stm32g4xx_hal_dac_ex.c **** 
 1346              		.loc 1 814 5 is_stmt 1 discriminator 2 view .LVU379
 1347 0040 FFF7FEFF 		bl	HAL_Delay
 1348              	.LVL100:
 817:Drivers/STM32G4xx_HAL_Driver/Src/stm32g4xx_hal_dac_ex.c **** 
 1349              		.loc 1 817 5 discriminator 2 view .LVU380
 1350 0044 2268     		ldr	r2, [r4]
 1351 0046 D36B     		ldr	r3, [r2, #60]
 1352 0048 6FEA060A 		mvn	r10, r6
 1353 004c 23EA0606 		bic	r6, r3, r6
 1354 0050 D663     		str	r6, [r2, #60]
 820:Drivers/STM32G4xx_HAL_Driver/Src/stm32g4xx_hal_dac_ex.c **** 
 1355              		.loc 1 820 5 discriminator 2 view .LVU381
 820:Drivers/STM32G4xx_HAL_Driver/Src/stm32g4xx_hal_dac_ex.c **** 
 1356              		.loc 1 820 25 is_stmt 0 discriminator 2 view .LVU382
 1357 0052 2368     		ldr	r3, [r4]
 820:Drivers/STM32G4xx_HAL_Driver/Src/stm32g4xx_hal_dac_ex.c **** 
 1358              		.loc 1 820 9 discriminator 2 view .LVU383
 1359 0054 0193     		str	r3, [sp, #4]
 822:Drivers/STM32G4xx_HAL_Driver/Src/stm32g4xx_hal_dac_ex.c ****     {
 1360              		.loc 1 822 5 is_stmt 1 discriminator 2 view .LVU384
 822:Drivers/STM32G4xx_HAL_Driver/Src/stm32g4xx_hal_dac_ex.c ****     {
 1361              		.loc 1 822 8 is_stmt 0 discriminator 2 view .LVU385
 1362 0056 95B9     		cbnz	r5, .L95
 824:Drivers/STM32G4xx_HAL_Driver/Src/stm32g4xx_hal_dac_ex.c ****     }
 1363              		.loc 1 824 7 is_stmt 1 view .LVU386
ARM GAS  /tmp/ccEoBVya.s 			page 45


 824:Drivers/STM32G4xx_HAL_Driver/Src/stm32g4xx_hal_dac_ex.c ****     }
 1364              		.loc 1 824 11 is_stmt 0 view .LVU387
 1365 0058 019B     		ldr	r3, [sp, #4]
 1366 005a 0833     		adds	r3, r3, #8
 1367 005c 0193     		str	r3, [sp, #4]
 1368              	.L96:
 831:Drivers/STM32G4xx_HAL_Driver/Src/stm32g4xx_hal_dac_ex.c **** 
 1369              		.loc 1 831 5 is_stmt 1 view .LVU388
 831:Drivers/STM32G4xx_HAL_Driver/Src/stm32g4xx_hal_dac_ex.c **** 
 1370              		.loc 1 831 6 is_stmt 0 view .LVU389
 1371 005e 019B     		ldr	r3, [sp, #4]
 831:Drivers/STM32G4xx_HAL_Driver/Src/stm32g4xx_hal_dac_ex.c **** 
 1372              		.loc 1 831 28 view .LVU390
 1373 0060 4FF40062 		mov	r2, #2048
 1374 0064 1A60     		str	r2, [r3]
 835:Drivers/STM32G4xx_HAL_Driver/Src/stm32g4xx_hal_dac_ex.c **** 
 1375              		.loc 1 835 5 is_stmt 1 view .LVU391
 1376 0066 2268     		ldr	r2, [r4]
 1377 0068 1368     		ldr	r3, [r2]
 1378 006a 4FF48049 		mov	r9, #16384
 1379 006e 09FA07F9 		lsl	r9, r9, r7
 1380 0072 43EA0903 		orr	r3, r3, r9
 1381 0076 1360     		str	r3, [r2]
 839:Drivers/STM32G4xx_HAL_Driver/Src/stm32g4xx_hal_dac_ex.c ****     delta = 8U;
 1382              		.loc 1 839 5 view .LVU392
 1383              	.LVL101:
 840:Drivers/STM32G4xx_HAL_Driver/Src/stm32g4xx_hal_dac_ex.c ****     while (delta != 0U)
 1384              		.loc 1 840 5 view .LVU393
 841:Drivers/STM32G4xx_HAL_Driver/Src/stm32g4xx_hal_dac_ex.c ****     {
 1385              		.loc 1 841 5 view .LVU394
 840:Drivers/STM32G4xx_HAL_Driver/Src/stm32g4xx_hal_dac_ex.c ****     while (delta != 0U)
 1386              		.loc 1 840 11 is_stmt 0 view .LVU395
 1387 0078 0825     		movs	r5, #8
 1388              	.LVL102:
 839:Drivers/STM32G4xx_HAL_Driver/Src/stm32g4xx_hal_dac_ex.c ****     delta = 8U;
 1389              		.loc 1 839 19 view .LVU396
 1390 007a 1026     		movs	r6, #16
 841:Drivers/STM32G4xx_HAL_Driver/Src/stm32g4xx_hal_dac_ex.c ****     {
 1391              		.loc 1 841 11 view .LVU397
 1392 007c 05E0     		b	.L97
 1393              	.LVL103:
 1394              	.L95:
 828:Drivers/STM32G4xx_HAL_Driver/Src/stm32g4xx_hal_dac_ex.c ****     }
 1395              		.loc 1 828 7 is_stmt 1 view .LVU398
 828:Drivers/STM32G4xx_HAL_Driver/Src/stm32g4xx_hal_dac_ex.c ****     }
 1396              		.loc 1 828 11 is_stmt 0 view .LVU399
 1397 007e 019B     		ldr	r3, [sp, #4]
 1398 0080 1433     		adds	r3, r3, #20
 1399 0082 0193     		str	r3, [sp, #4]
 1400 0084 EBE7     		b	.L96
 1401              	.LVL104:
 1402              	.L98:
 858:Drivers/STM32G4xx_HAL_Driver/Src/stm32g4xx_hal_dac_ex.c ****       }
 1403              		.loc 1 858 9 is_stmt 1 view .LVU400
 858:Drivers/STM32G4xx_HAL_Driver/Src/stm32g4xx_hal_dac_ex.c ****       }
 1404              		.loc 1 858 23 is_stmt 0 view .LVU401
 1405 0086 2E44     		add	r6, r6, r5
ARM GAS  /tmp/ccEoBVya.s 			page 46


 1406              	.LVL105:
 1407              	.L99:
 860:Drivers/STM32G4xx_HAL_Driver/Src/stm32g4xx_hal_dac_ex.c ****     }
 1408              		.loc 1 860 7 is_stmt 1 view .LVU402
 860:Drivers/STM32G4xx_HAL_Driver/Src/stm32g4xx_hal_dac_ex.c ****     }
 1409              		.loc 1 860 13 is_stmt 0 view .LVU403
 1410 0088 6D08     		lsrs	r5, r5, #1
 1411              	.LVL106:
 1412              	.L97:
 841:Drivers/STM32G4xx_HAL_Driver/Src/stm32g4xx_hal_dac_ex.c ****     {
 1413              		.loc 1 841 11 is_stmt 1 view .LVU404
 1414 008a 9DB1     		cbz	r5, .L109
 844:Drivers/STM32G4xx_HAL_Driver/Src/stm32g4xx_hal_dac_ex.c **** 
 1415              		.loc 1 844 7 view .LVU405
 1416 008c 2168     		ldr	r1, [r4]
 1417 008e 8B6B     		ldr	r3, [r1, #56]
 1418 0090 1F22     		movs	r2, #31
 1419 0092 BA40     		lsls	r2, r2, r7
 1420 0094 23EA0203 		bic	r3, r3, r2
 1421 0098 06FA07F2 		lsl	r2, r6, r7
 1422 009c 1343     		orrs	r3, r3, r2
 1423 009e 8B63     		str	r3, [r1, #56]
 848:Drivers/STM32G4xx_HAL_Driver/Src/stm32g4xx_hal_dac_ex.c **** 
 1424              		.loc 1 848 7 view .LVU406
 1425 00a0 0120     		movs	r0, #1
 1426 00a2 FFF7FEFF 		bl	HAL_Delay
 1427              	.LVL107:
 850:Drivers/STM32G4xx_HAL_Driver/Src/stm32g4xx_hal_dac_ex.c ****       {
 1428              		.loc 1 850 7 view .LVU407
 850:Drivers/STM32G4xx_HAL_Driver/Src/stm32g4xx_hal_dac_ex.c ****       {
 1429              		.loc 1 850 16 is_stmt 0 view .LVU408
 1430 00a6 2368     		ldr	r3, [r4]
 850:Drivers/STM32G4xx_HAL_Driver/Src/stm32g4xx_hal_dac_ex.c ****       {
 1431              		.loc 1 850 26 view .LVU409
 1432 00a8 5B6B     		ldr	r3, [r3, #52]
 850:Drivers/STM32G4xx_HAL_Driver/Src/stm32g4xx_hal_dac_ex.c ****       {
 1433              		.loc 1 850 10 view .LVU410
 1434 00aa 39EA0303 		bics	r3, r9, r3
 1435 00ae EAD1     		bne	.L98
 853:Drivers/STM32G4xx_HAL_Driver/Src/stm32g4xx_hal_dac_ex.c ****       }
 1436              		.loc 1 853 9 is_stmt 1 view .LVU411
 853:Drivers/STM32G4xx_HAL_Driver/Src/stm32g4xx_hal_dac_ex.c ****       }
 1437              		.loc 1 853 23 is_stmt 0 view .LVU412
 1438 00b0 761B     		subs	r6, r6, r5
 1439              	.LVL108:
 853:Drivers/STM32G4xx_HAL_Driver/Src/stm32g4xx_hal_dac_ex.c ****       }
 1440              		.loc 1 853 23 view .LVU413
 1441 00b2 E9E7     		b	.L99
 1442              	.L109:
 866:Drivers/STM32G4xx_HAL_Driver/Src/stm32g4xx_hal_dac_ex.c **** 
 1443              		.loc 1 866 5 is_stmt 1 view .LVU414
 1444 00b4 2168     		ldr	r1, [r4]
 1445 00b6 8B6B     		ldr	r3, [r1, #56]
 1446 00b8 1F22     		movs	r2, #31
 1447 00ba BA40     		lsls	r2, r2, r7
 1448 00bc D543     		mvns	r5, r2
 1449              	.LVL109:
ARM GAS  /tmp/ccEoBVya.s 			page 47


 866:Drivers/STM32G4xx_HAL_Driver/Src/stm32g4xx_hal_dac_ex.c **** 
 1450              		.loc 1 866 5 is_stmt 0 view .LVU415
 1451 00be 23EA0203 		bic	r3, r3, r2
 1452 00c2 06FA07F2 		lsl	r2, r6, r7
 1453 00c6 1343     		orrs	r3, r3, r2
 1454 00c8 8B63     		str	r3, [r1, #56]
 870:Drivers/STM32G4xx_HAL_Driver/Src/stm32g4xx_hal_dac_ex.c **** 
 1455              		.loc 1 870 5 is_stmt 1 view .LVU416
 1456 00ca 0120     		movs	r0, #1
 1457 00cc FFF7FEFF 		bl	HAL_Delay
 1458              	.LVL110:
 872:Drivers/STM32G4xx_HAL_Driver/Src/stm32g4xx_hal_dac_ex.c ****     {
 1459              		.loc 1 872 5 view .LVU417
 872:Drivers/STM32G4xx_HAL_Driver/Src/stm32g4xx_hal_dac_ex.c ****     {
 1460              		.loc 1 872 14 is_stmt 0 view .LVU418
 1461 00d0 2368     		ldr	r3, [r4]
 872:Drivers/STM32G4xx_HAL_Driver/Src/stm32g4xx_hal_dac_ex.c ****     {
 1462              		.loc 1 872 24 view .LVU419
 1463 00d2 5A6B     		ldr	r2, [r3, #52]
 872:Drivers/STM32G4xx_HAL_Driver/Src/stm32g4xx_hal_dac_ex.c ****     {
 1464              		.loc 1 872 8 view .LVU420
 1465 00d4 19EA020F 		tst	r9, r2
 1466 00d8 06D1     		bne	.L101
 875:Drivers/STM32G4xx_HAL_Driver/Src/stm32g4xx_hal_dac_ex.c ****       /* Set right trimming */
 1467              		.loc 1 875 7 is_stmt 1 view .LVU421
 875:Drivers/STM32G4xx_HAL_Driver/Src/stm32g4xx_hal_dac_ex.c ****       /* Set right trimming */
 1468              		.loc 1 875 20 is_stmt 0 view .LVU422
 1469 00da 0136     		adds	r6, r6, #1
 1470              	.LVL111:
 877:Drivers/STM32G4xx_HAL_Driver/Src/stm32g4xx_hal_dac_ex.c ****     }
 1471              		.loc 1 877 7 is_stmt 1 view .LVU423
 1472 00dc 9A6B     		ldr	r2, [r3, #56]
 1473 00de 1540     		ands	r5, r5, r2
 1474 00e0 06FA07F7 		lsl	r7, r6, r7
 1475 00e4 2F43     		orrs	r7, r7, r5
 1476 00e6 9F63     		str	r7, [r3, #56]
 1477              	.L101:
 882:Drivers/STM32G4xx_HAL_Driver/Src/stm32g4xx_hal_dac_ex.c **** 
 1478              		.loc 1 882 5 view .LVU424
 1479 00e8 2268     		ldr	r2, [r4]
 1480 00ea 1368     		ldr	r3, [r2]
 1481 00ec 23EA0903 		bic	r3, r3, r9
 1482 00f0 1360     		str	r3, [r2]
 884:Drivers/STM32G4xx_HAL_Driver/Src/stm32g4xx_hal_dac_ex.c ****     sConfig->DAC_UserTrimming = DAC_TRIMMING_USER;
 1483              		.loc 1 884 5 view .LVU425
 884:Drivers/STM32G4xx_HAL_Driver/Src/stm32g4xx_hal_dac_ex.c ****     sConfig->DAC_UserTrimming = DAC_TRIMMING_USER;
 1484              		.loc 1 884 32 is_stmt 0 view .LVU426
 1485 00f2 C8F82060 		str	r6, [r8, #32]
 885:Drivers/STM32G4xx_HAL_Driver/Src/stm32g4xx_hal_dac_ex.c **** 
 1486              		.loc 1 885 5 is_stmt 1 view .LVU427
 885:Drivers/STM32G4xx_HAL_Driver/Src/stm32g4xx_hal_dac_ex.c **** 
 1487              		.loc 1 885 31 is_stmt 0 view .LVU428
 1488 00f6 0123     		movs	r3, #1
 1489 00f8 C8F81C30 		str	r3, [r8, #28]
 888:Drivers/STM32G4xx_HAL_Driver/Src/stm32g4xx_hal_dac_ex.c **** 
 1490              		.loc 1 888 5 is_stmt 1 view .LVU429
 1491 00fc 2268     		ldr	r2, [r4]
ARM GAS  /tmp/ccEoBVya.s 			page 48


 1492 00fe D36B     		ldr	r3, [r2, #60]
 1493 0100 0AEA030A 		and	r10, r10, r3
 1494 0104 4AEA0B03 		orr	r3, r10, fp
 1495 0108 D363     		str	r3, [r2, #60]
 891:Drivers/STM32G4xx_HAL_Driver/Src/stm32g4xx_hal_dac_ex.c ****   }
 1496              		.loc 1 891 5 view .LVU430
 891:Drivers/STM32G4xx_HAL_Driver/Src/stm32g4xx_hal_dac_ex.c ****   }
 1497              		.loc 1 891 5 view .LVU431
 1498 010a 0020     		movs	r0, #0
 1499 010c 6071     		strb	r0, [r4, #5]
 1500              	.LVL112:
 1501              	.L94:
 895:Drivers/STM32G4xx_HAL_Driver/Src/stm32g4xx_hal_dac_ex.c **** 
 1502              		.loc 1 895 1 is_stmt 0 view .LVU432
 1503 010e 03B0     		add	sp, sp, #12
 1504              	.LCFI21:
 1505              		.cfi_def_cfa_offset 36
 1506              		@ sp needed
 1507 0110 BDE8F08F 		pop	{r4, r5, r6, r7, r8, r9, r10, fp, pc}
 1508              	.LVL113:
 1509              	.L102:
 1510              	.LCFI22:
 1511              		.cfi_def_cfa_offset 0
 1512              		.cfi_restore 4
 1513              		.cfi_restore 5
 1514              		.cfi_restore 6
 1515              		.cfi_restore 7
 1516              		.cfi_restore 8
 1517              		.cfi_restore 9
 1518              		.cfi_restore 10
 1519              		.cfi_restore 11
 1520              		.cfi_restore 14
 797:Drivers/STM32G4xx_HAL_Driver/Src/stm32g4xx_hal_dac_ex.c ****   }
 1521              		.loc 1 797 12 view .LVU433
 1522 0114 0120     		movs	r0, #1
 1523              	.LVL114:
 895:Drivers/STM32G4xx_HAL_Driver/Src/stm32g4xx_hal_dac_ex.c **** 
 1524              		.loc 1 895 1 view .LVU434
 1525 0116 7047     		bx	lr
 1526              	.LVL115:
 1527              	.L103:
 1528              	.LCFI23:
 1529              		.cfi_def_cfa_offset 48
 1530              		.cfi_offset 4, -36
 1531              		.cfi_offset 5, -32
 1532              		.cfi_offset 6, -28
 1533              		.cfi_offset 7, -24
 1534              		.cfi_offset 8, -20
 1535              		.cfi_offset 9, -16
 1536              		.cfi_offset 10, -12
 1537              		.cfi_offset 11, -8
 1538              		.cfi_offset 14, -4
 801:Drivers/STM32G4xx_HAL_Driver/Src/stm32g4xx_hal_dac_ex.c ****   }
 1539              		.loc 1 801 12 view .LVU435
 1540 0118 0120     		movs	r0, #1
 1541              	.LVL116:
 801:Drivers/STM32G4xx_HAL_Driver/Src/stm32g4xx_hal_dac_ex.c ****   }
ARM GAS  /tmp/ccEoBVya.s 			page 49


 1542              		.loc 1 801 12 view .LVU436
 1543 011a F8E7     		b	.L94
 1544              	.LVL117:
 1545              	.L104:
 806:Drivers/STM32G4xx_HAL_Driver/Src/stm32g4xx_hal_dac_ex.c **** 
 1546              		.loc 1 806 5 view .LVU437
 1547 011c 0220     		movs	r0, #2
 1548              	.LVL118:
 806:Drivers/STM32G4xx_HAL_Driver/Src/stm32g4xx_hal_dac_ex.c **** 
 1549              		.loc 1 806 5 view .LVU438
 1550 011e F6E7     		b	.L94
 1551              		.cfi_endproc
 1552              	.LFE176:
 1554              		.section	.text.HAL_DACEx_SetUserTrimming,"ax",%progbits
 1555              		.align	1
 1556              		.global	HAL_DACEx_SetUserTrimming
 1557              		.syntax unified
 1558              		.thumb
 1559              		.thumb_func
 1560              		.fpu fpv4-sp-d16
 1562              	HAL_DACEx_SetUserTrimming:
 1563              	.LVL119:
 1564              	.LFB177:
 915:Drivers/STM32G4xx_HAL_Driver/Src/stm32g4xx_hal_dac_ex.c ****   HAL_StatusTypeDef status = HAL_OK;
 1565              		.loc 1 915 1 is_stmt 1 view -0
 1566              		.cfi_startproc
 1567              		@ args = 0, pretend = 0, frame = 0
 1568              		@ frame_needed = 0, uses_anonymous_args = 0
 1569              		@ link register save eliminated.
 916:Drivers/STM32G4xx_HAL_Driver/Src/stm32g4xx_hal_dac_ex.c **** 
 1570              		.loc 1 916 3 view .LVU440
 919:Drivers/STM32G4xx_HAL_Driver/Src/stm32g4xx_hal_dac_ex.c ****   assert_param(IS_DAC_NEWTRIMMINGVALUE(NewTrimmingValue));
 1571              		.loc 1 919 3 view .LVU441
 920:Drivers/STM32G4xx_HAL_Driver/Src/stm32g4xx_hal_dac_ex.c **** 
 1572              		.loc 1 920 3 view .LVU442
 923:Drivers/STM32G4xx_HAL_Driver/Src/stm32g4xx_hal_dac_ex.c ****   {
 1573              		.loc 1 923 3 view .LVU443
 923:Drivers/STM32G4xx_HAL_Driver/Src/stm32g4xx_hal_dac_ex.c ****   {
 1574              		.loc 1 923 6 is_stmt 0 view .LVU444
 1575 0000 C0B1     		cbz	r0, .L112
 915:Drivers/STM32G4xx_HAL_Driver/Src/stm32g4xx_hal_dac_ex.c ****   HAL_StatusTypeDef status = HAL_OK;
 1576              		.loc 1 915 1 view .LVU445
 1577 0002 F0B4     		push	{r4, r5, r6, r7}
 1578              	.LCFI24:
 1579              		.cfi_def_cfa_offset 16
 1580              		.cfi_offset 4, -16
 1581              		.cfi_offset 5, -12
 1582              		.cfi_offset 6, -8
 1583              		.cfi_offset 7, -4
 1584 0004 0546     		mov	r5, r0
 930:Drivers/STM32G4xx_HAL_Driver/Src/stm32g4xx_hal_dac_ex.c **** 
 1585              		.loc 1 930 5 is_stmt 1 view .LVU446
 930:Drivers/STM32G4xx_HAL_Driver/Src/stm32g4xx_hal_dac_ex.c **** 
 1586              		.loc 1 930 5 view .LVU447
 1587 0006 4079     		ldrb	r0, [r0, #5]	@ zero_extendqisi2
 1588              	.LVL120:
 930:Drivers/STM32G4xx_HAL_Driver/Src/stm32g4xx_hal_dac_ex.c **** 
ARM GAS  /tmp/ccEoBVya.s 			page 50


 1589              		.loc 1 930 5 is_stmt 0 view .LVU448
 1590 0008 0128     		cmp	r0, #1
 1591 000a 15D0     		beq	.L113
 930:Drivers/STM32G4xx_HAL_Driver/Src/stm32g4xx_hal_dac_ex.c **** 
 1592              		.loc 1 930 5 is_stmt 1 discriminator 2 view .LVU449
 1593 000c 0126     		movs	r6, #1
 1594 000e 6E71     		strb	r6, [r5, #5]
 930:Drivers/STM32G4xx_HAL_Driver/Src/stm32g4xx_hal_dac_ex.c **** 
 1595              		.loc 1 930 5 discriminator 2 view .LVU450
 933:Drivers/STM32G4xx_HAL_Driver/Src/stm32g4xx_hal_dac_ex.c **** 
 1596              		.loc 1 933 5 discriminator 2 view .LVU451
 1597 0010 2F68     		ldr	r7, [r5]
 1598 0012 B86B     		ldr	r0, [r7, #56]
 1599 0014 02F01002 		and	r2, r2, #16
 1600              	.LVL121:
 933:Drivers/STM32G4xx_HAL_Driver/Src/stm32g4xx_hal_dac_ex.c **** 
 1601              		.loc 1 933 5 is_stmt 0 discriminator 2 view .LVU452
 1602 0018 1F24     		movs	r4, #31
 1603 001a 9440     		lsls	r4, r4, r2
 1604 001c 20EA0400 		bic	r0, r0, r4
 1605 0020 03FA02F2 		lsl	r2, r3, r2
 1606 0024 0243     		orrs	r2, r2, r0
 1607 0026 BA63     		str	r2, [r7, #56]
 936:Drivers/STM32G4xx_HAL_Driver/Src/stm32g4xx_hal_dac_ex.c ****     sConfig->DAC_TrimmingValue = NewTrimmingValue;
 1608              		.loc 1 936 5 is_stmt 1 discriminator 2 view .LVU453
 936:Drivers/STM32G4xx_HAL_Driver/Src/stm32g4xx_hal_dac_ex.c ****     sConfig->DAC_TrimmingValue = NewTrimmingValue;
 1609              		.loc 1 936 31 is_stmt 0 discriminator 2 view .LVU454
 1610 0028 CE61     		str	r6, [r1, #28]
 937:Drivers/STM32G4xx_HAL_Driver/Src/stm32g4xx_hal_dac_ex.c **** 
 1611              		.loc 1 937 5 is_stmt 1 discriminator 2 view .LVU455
 937:Drivers/STM32G4xx_HAL_Driver/Src/stm32g4xx_hal_dac_ex.c **** 
 1612              		.loc 1 937 32 is_stmt 0 discriminator 2 view .LVU456
 1613 002a 0B62     		str	r3, [r1, #32]
 940:Drivers/STM32G4xx_HAL_Driver/Src/stm32g4xx_hal_dac_ex.c ****   }
 1614              		.loc 1 940 5 is_stmt 1 discriminator 2 view .LVU457
 940:Drivers/STM32G4xx_HAL_Driver/Src/stm32g4xx_hal_dac_ex.c ****   }
 1615              		.loc 1 940 5 discriminator 2 view .LVU458
 1616 002c 0020     		movs	r0, #0
 1617 002e 6871     		strb	r0, [r5, #5]
 1618              	.L111:
 1619              	.LVL122:
 943:Drivers/STM32G4xx_HAL_Driver/Src/stm32g4xx_hal_dac_ex.c **** 
 1620              		.loc 1 943 1 is_stmt 0 view .LVU459
 1621 0030 F0BC     		pop	{r4, r5, r6, r7}
 1622              	.LCFI25:
 1623              		.cfi_restore 7
 1624              		.cfi_restore 6
 1625              		.cfi_restore 5
 1626              		.cfi_restore 4
 1627              		.cfi_def_cfa_offset 0
 1628              	.LVL123:
 943:Drivers/STM32G4xx_HAL_Driver/Src/stm32g4xx_hal_dac_ex.c **** 
 1629              		.loc 1 943 1 view .LVU460
 1630 0032 7047     		bx	lr
 1631              	.LVL124:
 1632              	.L112:
 925:Drivers/STM32G4xx_HAL_Driver/Src/stm32g4xx_hal_dac_ex.c ****   }
ARM GAS  /tmp/ccEoBVya.s 			page 51


 1633              		.loc 1 925 12 view .LVU461
 1634 0034 0120     		movs	r0, #1
 1635              	.LVL125:
 943:Drivers/STM32G4xx_HAL_Driver/Src/stm32g4xx_hal_dac_ex.c **** 
 1636              		.loc 1 943 1 view .LVU462
 1637 0036 7047     		bx	lr
 1638              	.LVL126:
 1639              	.L113:
 1640              	.LCFI26:
 1641              		.cfi_def_cfa_offset 16
 1642              		.cfi_offset 4, -16
 1643              		.cfi_offset 5, -12
 1644              		.cfi_offset 6, -8
 1645              		.cfi_offset 7, -4
 930:Drivers/STM32G4xx_HAL_Driver/Src/stm32g4xx_hal_dac_ex.c **** 
 1646              		.loc 1 930 5 view .LVU463
 1647 0038 0220     		movs	r0, #2
 1648 003a F9E7     		b	.L111
 1649              		.cfi_endproc
 1650              	.LFE177:
 1652              		.section	.text.HAL_DACEx_GetTrimOffset,"ax",%progbits
 1653              		.align	1
 1654              		.global	HAL_DACEx_GetTrimOffset
 1655              		.syntax unified
 1656              		.thumb
 1657              		.thumb_func
 1658              		.fpu fpv4-sp-d16
 1660              	HAL_DACEx_GetTrimOffset:
 1661              	.LVL127:
 1662              	.LFB178:
 960:Drivers/STM32G4xx_HAL_Driver/Src/stm32g4xx_hal_dac_ex.c ****   /* Check the parameter */
 1663              		.loc 1 960 1 is_stmt 1 view -0
 1664              		.cfi_startproc
 1665              		@ args = 0, pretend = 0, frame = 0
 1666              		@ frame_needed = 0, uses_anonymous_args = 0
 1667              		@ link register save eliminated.
 962:Drivers/STM32G4xx_HAL_Driver/Src/stm32g4xx_hal_dac_ex.c **** 
 1668              		.loc 1 962 3 view .LVU465
 965:Drivers/STM32G4xx_HAL_Driver/Src/stm32g4xx_hal_dac_ex.c **** }
 1669              		.loc 1 965 3 view .LVU466
 965:Drivers/STM32G4xx_HAL_Driver/Src/stm32g4xx_hal_dac_ex.c **** }
 1670              		.loc 1 965 16 is_stmt 0 view .LVU467
 1671 0000 0368     		ldr	r3, [r0]
 965:Drivers/STM32G4xx_HAL_Driver/Src/stm32g4xx_hal_dac_ex.c **** }
 1672              		.loc 1 965 26 view .LVU468
 1673 0002 986B     		ldr	r0, [r3, #56]
 1674              	.LVL128:
 965:Drivers/STM32G4xx_HAL_Driver/Src/stm32g4xx_hal_dac_ex.c **** }
 1675              		.loc 1 965 62 view .LVU469
 1676 0004 01F01001 		and	r1, r1, #16
 1677              	.LVL129:
 965:Drivers/STM32G4xx_HAL_Driver/Src/stm32g4xx_hal_dac_ex.c **** }
 1678              		.loc 1 965 50 view .LVU470
 1679 0008 1F23     		movs	r3, #31
 1680 000a 8B40     		lsls	r3, r3, r1
 965:Drivers/STM32G4xx_HAL_Driver/Src/stm32g4xx_hal_dac_ex.c **** }
 1681              		.loc 1 965 32 view .LVU471
ARM GAS  /tmp/ccEoBVya.s 			page 52


 1682 000c 1840     		ands	r0, r0, r3
 966:Drivers/STM32G4xx_HAL_Driver/Src/stm32g4xx_hal_dac_ex.c **** 
 1683              		.loc 1 966 1 view .LVU472
 1684 000e C840     		lsrs	r0, r0, r1
 1685 0010 7047     		bx	lr
 1686              		.cfi_endproc
 1687              	.LFE178:
 1689              		.section	.text.HAL_DACEx_DualGetValue,"ax",%progbits
 1690              		.align	1
 1691              		.global	HAL_DACEx_DualGetValue
 1692              		.syntax unified
 1693              		.thumb
 1694              		.thumb_func
 1695              		.fpu fpv4-sp-d16
 1697              	HAL_DACEx_DualGetValue:
 1698              	.LVL130:
 1699              	.LFB179:
 993:Drivers/STM32G4xx_HAL_Driver/Src/stm32g4xx_hal_dac_ex.c ****   uint32_t tmp = 0U;
 1700              		.loc 1 993 1 is_stmt 1 view -0
 1701              		.cfi_startproc
 1702              		@ args = 0, pretend = 0, frame = 0
 1703              		@ frame_needed = 0, uses_anonymous_args = 0
 1704              		@ link register save eliminated.
 994:Drivers/STM32G4xx_HAL_Driver/Src/stm32g4xx_hal_dac_ex.c **** 
 1705              		.loc 1 994 3 view .LVU474
 996:Drivers/STM32G4xx_HAL_Driver/Src/stm32g4xx_hal_dac_ex.c **** 
 1706              		.loc 1 996 3 view .LVU475
 996:Drivers/STM32G4xx_HAL_Driver/Src/stm32g4xx_hal_dac_ex.c **** 
 1707              		.loc 1 996 14 is_stmt 0 view .LVU476
 1708 0000 0368     		ldr	r3, [r0]
 996:Drivers/STM32G4xx_HAL_Driver/Src/stm32g4xx_hal_dac_ex.c **** 
 1709              		.loc 1 996 24 view .LVU477
 1710 0002 DA6A     		ldr	r2, [r3, #44]
 1711              	.LVL131:
 998:Drivers/STM32G4xx_HAL_Driver/Src/stm32g4xx_hal_dac_ex.c **** 
 1712              		.loc 1 998 3 is_stmt 1 view .LVU478
 998:Drivers/STM32G4xx_HAL_Driver/Src/stm32g4xx_hal_dac_ex.c **** 
 1713              		.loc 1 998 24 is_stmt 0 view .LVU479
 1714 0004 186B     		ldr	r0, [r3, #48]
 1715              	.LVL132:
1001:Drivers/STM32G4xx_HAL_Driver/Src/stm32g4xx_hal_dac_ex.c **** }
 1716              		.loc 1 1001 3 is_stmt 1 view .LVU480
1002:Drivers/STM32G4xx_HAL_Driver/Src/stm32g4xx_hal_dac_ex.c **** 
 1717              		.loc 1 1002 1 is_stmt 0 view .LVU481
 1718 0006 42EA0040 		orr	r0, r2, r0, lsl #16
 1719              	.LVL133:
1002:Drivers/STM32G4xx_HAL_Driver/Src/stm32g4xx_hal_dac_ex.c **** 
 1720              		.loc 1 1002 1 view .LVU482
 1721 000a 7047     		bx	lr
 1722              		.cfi_endproc
 1723              	.LFE179:
 1725              		.text
 1726              	.Letext0:
 1727              		.file 2 "/usr/lib/gcc/arm-none-eabi/9.2.1/include/stdint.h"
 1728              		.file 3 "Drivers/CMSIS/Include/core_cm4.h"
 1729              		.file 4 "Drivers/CMSIS/Device/ST/STM32G4xx/Include/system_stm32g4xx.h"
 1730              		.file 5 "Drivers/CMSIS/Device/ST/STM32G4xx/Include/stm32g474xx.h"
ARM GAS  /tmp/ccEoBVya.s 			page 53


 1731              		.file 6 "Drivers/CMSIS/Device/ST/STM32G4xx/Include/stm32g4xx.h"
 1732              		.file 7 "Drivers/STM32G4xx_HAL_Driver/Inc/stm32g4xx_hal_def.h"
 1733              		.file 8 "Drivers/STM32G4xx_HAL_Driver/Inc/stm32g4xx_hal_dma.h"
 1734              		.file 9 "Drivers/STM32G4xx_HAL_Driver/Inc/stm32g4xx_hal_dac.h"
 1735              		.file 10 "Drivers/STM32G4xx_HAL_Driver/Inc/stm32g4xx_hal_flash.h"
 1736              		.file 11 "Drivers/STM32G4xx_HAL_Driver/Inc/stm32g4xx_hal.h"
ARM GAS  /tmp/ccEoBVya.s 			page 54

