ARM GAS  /tmp/ccWGtOKe.s 			page 1


   1              		.cpu cortex-m4
   2              		.eabi_attribute 27, 1
   3              		.eabi_attribute 28, 1
   4              		.eabi_attribute 20, 1
   5              		.eabi_attribute 21, 1
   6              		.eabi_attribute 23, 3
   7              		.eabi_attribute 24, 1
   8              		.eabi_attribute 25, 1
   9              		.eabi_attribute 26, 1
  10              		.eabi_attribute 30, 1
  11              		.eabi_attribute 34, 1
  12              		.eabi_attribute 18, 4
  13              		.file	"stm32g4xx_hal_pwr_ex.c"
  14              		.text
  15              	.Ltext0:
  16              		.cfi_sections	.debug_frame
  17              		.section	.text.HAL_PWREx_GetVoltageRange,"ax",%progbits
  18              		.align	1
  19              		.global	HAL_PWREx_GetVoltageRange
  20              		.arch armv7e-m
  21              		.syntax unified
  22              		.thumb
  23              		.thumb_func
  24              		.fpu fpv4-sp-d16
  26              	HAL_PWREx_GetVoltageRange:
  27              	.LFB162:
  28              		.file 1 "Drivers/STM32G4xx_HAL_Driver/Src/stm32g4xx_hal_pwr_ex.c"
   1:Drivers/STM32G4xx_HAL_Driver/Src/stm32g4xx_hal_pwr_ex.c **** /**
   2:Drivers/STM32G4xx_HAL_Driver/Src/stm32g4xx_hal_pwr_ex.c ****   ******************************************************************************
   3:Drivers/STM32G4xx_HAL_Driver/Src/stm32g4xx_hal_pwr_ex.c ****   * @file    stm32g4xx_hal_pwr_ex.c
   4:Drivers/STM32G4xx_HAL_Driver/Src/stm32g4xx_hal_pwr_ex.c ****   * @author  MCD Application Team
   5:Drivers/STM32G4xx_HAL_Driver/Src/stm32g4xx_hal_pwr_ex.c ****   * @brief   Extended PWR HAL module driver.
   6:Drivers/STM32G4xx_HAL_Driver/Src/stm32g4xx_hal_pwr_ex.c ****   *          This file provides firmware functions to manage the following
   7:Drivers/STM32G4xx_HAL_Driver/Src/stm32g4xx_hal_pwr_ex.c ****   *          functionalities of the Power Controller (PWR) peripheral:
   8:Drivers/STM32G4xx_HAL_Driver/Src/stm32g4xx_hal_pwr_ex.c ****   *           + Extended Initialization and de-initialization functions
   9:Drivers/STM32G4xx_HAL_Driver/Src/stm32g4xx_hal_pwr_ex.c ****   *           + Extended Peripheral Control functions
  10:Drivers/STM32G4xx_HAL_Driver/Src/stm32g4xx_hal_pwr_ex.c ****   *
  11:Drivers/STM32G4xx_HAL_Driver/Src/stm32g4xx_hal_pwr_ex.c ****   ******************************************************************************
  12:Drivers/STM32G4xx_HAL_Driver/Src/stm32g4xx_hal_pwr_ex.c ****   * @attention
  13:Drivers/STM32G4xx_HAL_Driver/Src/stm32g4xx_hal_pwr_ex.c ****   *
  14:Drivers/STM32G4xx_HAL_Driver/Src/stm32g4xx_hal_pwr_ex.c ****   * <h2><center>&copy; Copyright (c) 2019 STMicroelectronics.
  15:Drivers/STM32G4xx_HAL_Driver/Src/stm32g4xx_hal_pwr_ex.c ****   * All rights reserved.</center></h2>
  16:Drivers/STM32G4xx_HAL_Driver/Src/stm32g4xx_hal_pwr_ex.c ****   *
  17:Drivers/STM32G4xx_HAL_Driver/Src/stm32g4xx_hal_pwr_ex.c ****   * This software component is licensed by ST under BSD 3-Clause license,
  18:Drivers/STM32G4xx_HAL_Driver/Src/stm32g4xx_hal_pwr_ex.c ****   * the "License"; You may not use this file except in compliance with the
  19:Drivers/STM32G4xx_HAL_Driver/Src/stm32g4xx_hal_pwr_ex.c ****   * License. You may obtain a copy of the License at:
  20:Drivers/STM32G4xx_HAL_Driver/Src/stm32g4xx_hal_pwr_ex.c ****   *                        opensource.org/licenses/BSD-3-Clause
  21:Drivers/STM32G4xx_HAL_Driver/Src/stm32g4xx_hal_pwr_ex.c ****   *
  22:Drivers/STM32G4xx_HAL_Driver/Src/stm32g4xx_hal_pwr_ex.c ****   ******************************************************************************
  23:Drivers/STM32G4xx_HAL_Driver/Src/stm32g4xx_hal_pwr_ex.c ****   */
  24:Drivers/STM32G4xx_HAL_Driver/Src/stm32g4xx_hal_pwr_ex.c **** 
  25:Drivers/STM32G4xx_HAL_Driver/Src/stm32g4xx_hal_pwr_ex.c **** /* Includes ------------------------------------------------------------------*/
  26:Drivers/STM32G4xx_HAL_Driver/Src/stm32g4xx_hal_pwr_ex.c **** #include "stm32g4xx_hal.h"
  27:Drivers/STM32G4xx_HAL_Driver/Src/stm32g4xx_hal_pwr_ex.c **** 
  28:Drivers/STM32G4xx_HAL_Driver/Src/stm32g4xx_hal_pwr_ex.c **** /** @addtogroup STM32G4xx_HAL_Driver
  29:Drivers/STM32G4xx_HAL_Driver/Src/stm32g4xx_hal_pwr_ex.c ****   * @{
  30:Drivers/STM32G4xx_HAL_Driver/Src/stm32g4xx_hal_pwr_ex.c ****   */
ARM GAS  /tmp/ccWGtOKe.s 			page 2


  31:Drivers/STM32G4xx_HAL_Driver/Src/stm32g4xx_hal_pwr_ex.c **** 
  32:Drivers/STM32G4xx_HAL_Driver/Src/stm32g4xx_hal_pwr_ex.c **** /** @defgroup PWREx PWREx
  33:Drivers/STM32G4xx_HAL_Driver/Src/stm32g4xx_hal_pwr_ex.c ****   * @brief PWR Extended HAL module driver
  34:Drivers/STM32G4xx_HAL_Driver/Src/stm32g4xx_hal_pwr_ex.c ****   * @{
  35:Drivers/STM32G4xx_HAL_Driver/Src/stm32g4xx_hal_pwr_ex.c ****   */
  36:Drivers/STM32G4xx_HAL_Driver/Src/stm32g4xx_hal_pwr_ex.c **** 
  37:Drivers/STM32G4xx_HAL_Driver/Src/stm32g4xx_hal_pwr_ex.c **** #ifdef HAL_PWR_MODULE_ENABLED
  38:Drivers/STM32G4xx_HAL_Driver/Src/stm32g4xx_hal_pwr_ex.c **** 
  39:Drivers/STM32G4xx_HAL_Driver/Src/stm32g4xx_hal_pwr_ex.c **** /* Private typedef -----------------------------------------------------------*/
  40:Drivers/STM32G4xx_HAL_Driver/Src/stm32g4xx_hal_pwr_ex.c **** /* Private define ------------------------------------------------------------*/
  41:Drivers/STM32G4xx_HAL_Driver/Src/stm32g4xx_hal_pwr_ex.c **** 
  42:Drivers/STM32G4xx_HAL_Driver/Src/stm32g4xx_hal_pwr_ex.c **** 
  43:Drivers/STM32G4xx_HAL_Driver/Src/stm32g4xx_hal_pwr_ex.c **** #if defined (STM32G471xx) || defined (STM32G473xx) || defined (STM32G474xx) || defined (STM32G483xx
  44:Drivers/STM32G4xx_HAL_Driver/Src/stm32g4xx_hal_pwr_ex.c **** #define PWR_PORTF_AVAILABLE_PINS   0x0000FFFFU /* PF0..PF15 */
  45:Drivers/STM32G4xx_HAL_Driver/Src/stm32g4xx_hal_pwr_ex.c **** #define PWR_PORTG_AVAILABLE_PINS   0x000007FFU /* PG0..PG10 */
  46:Drivers/STM32G4xx_HAL_Driver/Src/stm32g4xx_hal_pwr_ex.c **** #elif defined (STM32G431xx) || defined (STM32G441xx) || defined (STM32GBK1CB)
  47:Drivers/STM32G4xx_HAL_Driver/Src/stm32g4xx_hal_pwr_ex.c **** #define PWR_PORTF_AVAILABLE_PINS   0x00000607U /* PF0..PF2 and PF9 and PF10 */
  48:Drivers/STM32G4xx_HAL_Driver/Src/stm32g4xx_hal_pwr_ex.c **** #define PWR_PORTG_AVAILABLE_PINS   0x00000400U /* PG10 */
  49:Drivers/STM32G4xx_HAL_Driver/Src/stm32g4xx_hal_pwr_ex.c **** #endif
  50:Drivers/STM32G4xx_HAL_Driver/Src/stm32g4xx_hal_pwr_ex.c **** 
  51:Drivers/STM32G4xx_HAL_Driver/Src/stm32g4xx_hal_pwr_ex.c **** /** @defgroup PWR_Extended_Private_Defines PWR Extended Private Defines
  52:Drivers/STM32G4xx_HAL_Driver/Src/stm32g4xx_hal_pwr_ex.c ****   * @{
  53:Drivers/STM32G4xx_HAL_Driver/Src/stm32g4xx_hal_pwr_ex.c ****   */
  54:Drivers/STM32G4xx_HAL_Driver/Src/stm32g4xx_hal_pwr_ex.c **** 
  55:Drivers/STM32G4xx_HAL_Driver/Src/stm32g4xx_hal_pwr_ex.c **** /** @defgroup PWREx_PVM_Mode_Mask PWR PVM Mode Mask
  56:Drivers/STM32G4xx_HAL_Driver/Src/stm32g4xx_hal_pwr_ex.c ****   * @{
  57:Drivers/STM32G4xx_HAL_Driver/Src/stm32g4xx_hal_pwr_ex.c ****   */
  58:Drivers/STM32G4xx_HAL_Driver/Src/stm32g4xx_hal_pwr_ex.c **** #define PVM_MODE_IT               0x00010000U    /*!< Mask for interruption yielded by PVM threshol
  59:Drivers/STM32G4xx_HAL_Driver/Src/stm32g4xx_hal_pwr_ex.c **** #define PVM_MODE_EVT              0x00020000U    /*!< Mask for event yielded by PVM threshold cross
  60:Drivers/STM32G4xx_HAL_Driver/Src/stm32g4xx_hal_pwr_ex.c **** #define PVM_RISING_EDGE           0x00000001U    /*!< Mask for rising edge set as PVM trigger      
  61:Drivers/STM32G4xx_HAL_Driver/Src/stm32g4xx_hal_pwr_ex.c **** #define PVM_FALLING_EDGE          0x00000002U    /*!< Mask for falling edge set as PVM trigger     
  62:Drivers/STM32G4xx_HAL_Driver/Src/stm32g4xx_hal_pwr_ex.c **** /**
  63:Drivers/STM32G4xx_HAL_Driver/Src/stm32g4xx_hal_pwr_ex.c ****   * @}
  64:Drivers/STM32G4xx_HAL_Driver/Src/stm32g4xx_hal_pwr_ex.c ****   */
  65:Drivers/STM32G4xx_HAL_Driver/Src/stm32g4xx_hal_pwr_ex.c **** 
  66:Drivers/STM32G4xx_HAL_Driver/Src/stm32g4xx_hal_pwr_ex.c **** /** @defgroup PWREx_TimeOut_Value PWR Extended Flag Setting Time Out Value
  67:Drivers/STM32G4xx_HAL_Driver/Src/stm32g4xx_hal_pwr_ex.c ****   * @{
  68:Drivers/STM32G4xx_HAL_Driver/Src/stm32g4xx_hal_pwr_ex.c ****   */
  69:Drivers/STM32G4xx_HAL_Driver/Src/stm32g4xx_hal_pwr_ex.c **** #define PWR_FLAG_SETTING_DELAY_US                      50UL   /*!< Time out value for REGLPF and VO
  70:Drivers/STM32G4xx_HAL_Driver/Src/stm32g4xx_hal_pwr_ex.c **** /**
  71:Drivers/STM32G4xx_HAL_Driver/Src/stm32g4xx_hal_pwr_ex.c ****   * @}
  72:Drivers/STM32G4xx_HAL_Driver/Src/stm32g4xx_hal_pwr_ex.c ****   */
  73:Drivers/STM32G4xx_HAL_Driver/Src/stm32g4xx_hal_pwr_ex.c **** 
  74:Drivers/STM32G4xx_HAL_Driver/Src/stm32g4xx_hal_pwr_ex.c **** 
  75:Drivers/STM32G4xx_HAL_Driver/Src/stm32g4xx_hal_pwr_ex.c **** 
  76:Drivers/STM32G4xx_HAL_Driver/Src/stm32g4xx_hal_pwr_ex.c **** /**
  77:Drivers/STM32G4xx_HAL_Driver/Src/stm32g4xx_hal_pwr_ex.c ****   * @}
  78:Drivers/STM32G4xx_HAL_Driver/Src/stm32g4xx_hal_pwr_ex.c ****   */
  79:Drivers/STM32G4xx_HAL_Driver/Src/stm32g4xx_hal_pwr_ex.c **** 
  80:Drivers/STM32G4xx_HAL_Driver/Src/stm32g4xx_hal_pwr_ex.c **** 
  81:Drivers/STM32G4xx_HAL_Driver/Src/stm32g4xx_hal_pwr_ex.c **** 
  82:Drivers/STM32G4xx_HAL_Driver/Src/stm32g4xx_hal_pwr_ex.c **** /* Private macro -------------------------------------------------------------*/
  83:Drivers/STM32G4xx_HAL_Driver/Src/stm32g4xx_hal_pwr_ex.c **** /* Private variables ---------------------------------------------------------*/
  84:Drivers/STM32G4xx_HAL_Driver/Src/stm32g4xx_hal_pwr_ex.c **** /* Private function prototypes -----------------------------------------------*/
  85:Drivers/STM32G4xx_HAL_Driver/Src/stm32g4xx_hal_pwr_ex.c **** /* Exported functions --------------------------------------------------------*/
  86:Drivers/STM32G4xx_HAL_Driver/Src/stm32g4xx_hal_pwr_ex.c **** 
  87:Drivers/STM32G4xx_HAL_Driver/Src/stm32g4xx_hal_pwr_ex.c **** /** @defgroup PWREx_Exported_Functions PWR Extended Exported Functions
ARM GAS  /tmp/ccWGtOKe.s 			page 3


  88:Drivers/STM32G4xx_HAL_Driver/Src/stm32g4xx_hal_pwr_ex.c ****   * @{
  89:Drivers/STM32G4xx_HAL_Driver/Src/stm32g4xx_hal_pwr_ex.c ****   */
  90:Drivers/STM32G4xx_HAL_Driver/Src/stm32g4xx_hal_pwr_ex.c **** 
  91:Drivers/STM32G4xx_HAL_Driver/Src/stm32g4xx_hal_pwr_ex.c **** /** @defgroup PWREx_Exported_Functions_Group1 Extended Peripheral Control functions
  92:Drivers/STM32G4xx_HAL_Driver/Src/stm32g4xx_hal_pwr_ex.c ****   *  @brief   Extended Peripheral Control functions
  93:Drivers/STM32G4xx_HAL_Driver/Src/stm32g4xx_hal_pwr_ex.c ****   *
  94:Drivers/STM32G4xx_HAL_Driver/Src/stm32g4xx_hal_pwr_ex.c **** @verbatim
  95:Drivers/STM32G4xx_HAL_Driver/Src/stm32g4xx_hal_pwr_ex.c ****  ===============================================================================
  96:Drivers/STM32G4xx_HAL_Driver/Src/stm32g4xx_hal_pwr_ex.c ****               ##### Extended Peripheral Initialization and de-initialization functions #####
  97:Drivers/STM32G4xx_HAL_Driver/Src/stm32g4xx_hal_pwr_ex.c ****  ===============================================================================
  98:Drivers/STM32G4xx_HAL_Driver/Src/stm32g4xx_hal_pwr_ex.c ****     [..]
  99:Drivers/STM32G4xx_HAL_Driver/Src/stm32g4xx_hal_pwr_ex.c **** 
 100:Drivers/STM32G4xx_HAL_Driver/Src/stm32g4xx_hal_pwr_ex.c **** @endverbatim
 101:Drivers/STM32G4xx_HAL_Driver/Src/stm32g4xx_hal_pwr_ex.c ****   * @{
 102:Drivers/STM32G4xx_HAL_Driver/Src/stm32g4xx_hal_pwr_ex.c ****   */
 103:Drivers/STM32G4xx_HAL_Driver/Src/stm32g4xx_hal_pwr_ex.c **** 
 104:Drivers/STM32G4xx_HAL_Driver/Src/stm32g4xx_hal_pwr_ex.c **** 
 105:Drivers/STM32G4xx_HAL_Driver/Src/stm32g4xx_hal_pwr_ex.c **** /**
 106:Drivers/STM32G4xx_HAL_Driver/Src/stm32g4xx_hal_pwr_ex.c ****   * @brief Return Voltage Scaling Range.
 107:Drivers/STM32G4xx_HAL_Driver/Src/stm32g4xx_hal_pwr_ex.c ****   * @retval VOS bit field (PWR_REGULATOR_VOLTAGE_SCALE1 or PWR_REGULATOR_VOLTAGE_SCALE2
 108:Drivers/STM32G4xx_HAL_Driver/Src/stm32g4xx_hal_pwr_ex.c ****   *         or PWR_REGULATOR_VOLTAGE_SCALE1_BOOST when applicable)
 109:Drivers/STM32G4xx_HAL_Driver/Src/stm32g4xx_hal_pwr_ex.c ****   */
 110:Drivers/STM32G4xx_HAL_Driver/Src/stm32g4xx_hal_pwr_ex.c **** uint32_t HAL_PWREx_GetVoltageRange(void)
 111:Drivers/STM32G4xx_HAL_Driver/Src/stm32g4xx_hal_pwr_ex.c **** {
  29              		.loc 1 111 1 view -0
  30              		.cfi_startproc
  31              		@ args = 0, pretend = 0, frame = 0
  32              		@ frame_needed = 0, uses_anonymous_args = 0
  33              		@ link register save eliminated.
 112:Drivers/STM32G4xx_HAL_Driver/Src/stm32g4xx_hal_pwr_ex.c ****   if (READ_BIT(PWR->CR1, PWR_CR1_VOS) == PWR_REGULATOR_VOLTAGE_SCALE2)
  34              		.loc 1 112 3 view .LVU1
  35              		.loc 1 112 7 is_stmt 0 view .LVU2
  36 0000 074B     		ldr	r3, .L4
  37 0002 1868     		ldr	r0, [r3]
  38 0004 00F4C060 		and	r0, r0, #1536
  39              		.loc 1 112 6 view .LVU3
  40 0008 B0F5806F 		cmp	r0, #1024
  41 000c 04D0     		beq	.L1
 113:Drivers/STM32G4xx_HAL_Driver/Src/stm32g4xx_hal_pwr_ex.c ****   {
 114:Drivers/STM32G4xx_HAL_Driver/Src/stm32g4xx_hal_pwr_ex.c ****     return PWR_REGULATOR_VOLTAGE_SCALE2;
 115:Drivers/STM32G4xx_HAL_Driver/Src/stm32g4xx_hal_pwr_ex.c ****   }
 116:Drivers/STM32G4xx_HAL_Driver/Src/stm32g4xx_hal_pwr_ex.c ****   else if (READ_BIT(PWR->CR5, PWR_CR5_R1MODE) == PWR_CR5_R1MODE)
  42              		.loc 1 116 8 is_stmt 1 view .LVU4
  43              		.loc 1 116 12 is_stmt 0 view .LVU5
  44 000e D3F88000 		ldr	r0, [r3, #128]
  45              		.loc 1 116 11 view .LVU6
  46 0012 10F48070 		ands	r0, r0, #256
  47 0016 00D1     		bne	.L3
  48              	.L1:
 117:Drivers/STM32G4xx_HAL_Driver/Src/stm32g4xx_hal_pwr_ex.c ****   {
 118:Drivers/STM32G4xx_HAL_Driver/Src/stm32g4xx_hal_pwr_ex.c ****     /* PWR_CR5_R1MODE bit set means that Range 1 Boost is disabled */
 119:Drivers/STM32G4xx_HAL_Driver/Src/stm32g4xx_hal_pwr_ex.c ****     return PWR_REGULATOR_VOLTAGE_SCALE1;
 120:Drivers/STM32G4xx_HAL_Driver/Src/stm32g4xx_hal_pwr_ex.c ****   }
 121:Drivers/STM32G4xx_HAL_Driver/Src/stm32g4xx_hal_pwr_ex.c ****   else
 122:Drivers/STM32G4xx_HAL_Driver/Src/stm32g4xx_hal_pwr_ex.c ****   {
 123:Drivers/STM32G4xx_HAL_Driver/Src/stm32g4xx_hal_pwr_ex.c ****     return PWR_REGULATOR_VOLTAGE_SCALE1_BOOST;
 124:Drivers/STM32G4xx_HAL_Driver/Src/stm32g4xx_hal_pwr_ex.c ****   }
ARM GAS  /tmp/ccWGtOKe.s 			page 4


 125:Drivers/STM32G4xx_HAL_Driver/Src/stm32g4xx_hal_pwr_ex.c **** }
  49              		.loc 1 125 1 view .LVU7
  50 0018 7047     		bx	lr
  51              	.L3:
 119:Drivers/STM32G4xx_HAL_Driver/Src/stm32g4xx_hal_pwr_ex.c ****   }
  52              		.loc 1 119 12 view .LVU8
  53 001a 4FF40070 		mov	r0, #512
  54 001e FBE7     		b	.L1
  55              	.L5:
  56              		.align	2
  57              	.L4:
  58 0020 00700040 		.word	1073770496
  59              		.cfi_endproc
  60              	.LFE162:
  62              		.section	.text.HAL_PWREx_ControlVoltageScaling,"ax",%progbits
  63              		.align	1
  64              		.global	HAL_PWREx_ControlVoltageScaling
  65              		.syntax unified
  66              		.thumb
  67              		.thumb_func
  68              		.fpu fpv4-sp-d16
  70              	HAL_PWREx_ControlVoltageScaling:
  71              	.LVL0:
  72              	.LFB163:
 126:Drivers/STM32G4xx_HAL_Driver/Src/stm32g4xx_hal_pwr_ex.c **** 
 127:Drivers/STM32G4xx_HAL_Driver/Src/stm32g4xx_hal_pwr_ex.c **** 
 128:Drivers/STM32G4xx_HAL_Driver/Src/stm32g4xx_hal_pwr_ex.c **** 
 129:Drivers/STM32G4xx_HAL_Driver/Src/stm32g4xx_hal_pwr_ex.c **** /**
 130:Drivers/STM32G4xx_HAL_Driver/Src/stm32g4xx_hal_pwr_ex.c ****   * @brief Configure the main internal regulator output voltage.
 131:Drivers/STM32G4xx_HAL_Driver/Src/stm32g4xx_hal_pwr_ex.c ****   * @param  VoltageScaling: specifies the regulator output voltage to achieve
 132:Drivers/STM32G4xx_HAL_Driver/Src/stm32g4xx_hal_pwr_ex.c ****   *         a tradeoff between performance and power consumption.
 133:Drivers/STM32G4xx_HAL_Driver/Src/stm32g4xx_hal_pwr_ex.c ****   *          This parameter can be one of the following values:
 134:Drivers/STM32G4xx_HAL_Driver/Src/stm32g4xx_hal_pwr_ex.c ****   *            @arg @ref PWR_REGULATOR_VOLTAGE_SCALE1_BOOST when available, Regulator voltage outpu
 135:Drivers/STM32G4xx_HAL_Driver/Src/stm32g4xx_hal_pwr_ex.c ****   *                                                typical output voltage at 1.28 V,
 136:Drivers/STM32G4xx_HAL_Driver/Src/stm32g4xx_hal_pwr_ex.c ****   *                                                system frequency up to 170 MHz.
 137:Drivers/STM32G4xx_HAL_Driver/Src/stm32g4xx_hal_pwr_ex.c ****   *            @arg @ref PWR_REGULATOR_VOLTAGE_SCALE1 Regulator voltage output range 1 mode,
 138:Drivers/STM32G4xx_HAL_Driver/Src/stm32g4xx_hal_pwr_ex.c ****   *                                                typical output voltage at 1.2 V,
 139:Drivers/STM32G4xx_HAL_Driver/Src/stm32g4xx_hal_pwr_ex.c ****   *                                                system frequency up to 150 MHz.
 140:Drivers/STM32G4xx_HAL_Driver/Src/stm32g4xx_hal_pwr_ex.c ****   *            @arg @ref PWR_REGULATOR_VOLTAGE_SCALE2 Regulator voltage output range 2 mode,
 141:Drivers/STM32G4xx_HAL_Driver/Src/stm32g4xx_hal_pwr_ex.c ****   *                                                typical output voltage at 1.0 V,
 142:Drivers/STM32G4xx_HAL_Driver/Src/stm32g4xx_hal_pwr_ex.c ****   *                                                system frequency up to 26 MHz.
 143:Drivers/STM32G4xx_HAL_Driver/Src/stm32g4xx_hal_pwr_ex.c ****   * @note  When moving from Range 1 to Range 2, the system frequency must be decreased to
 144:Drivers/STM32G4xx_HAL_Driver/Src/stm32g4xx_hal_pwr_ex.c ****   *        a value below 26 MHz before calling HAL_PWREx_ControlVoltageScaling() API.
 145:Drivers/STM32G4xx_HAL_Driver/Src/stm32g4xx_hal_pwr_ex.c ****   *        When moving from Range 2 to Range 1, the system frequency can be increased to
 146:Drivers/STM32G4xx_HAL_Driver/Src/stm32g4xx_hal_pwr_ex.c ****   *        a value up to 150 MHz after calling HAL_PWREx_ControlVoltageScaling() API.
 147:Drivers/STM32G4xx_HAL_Driver/Src/stm32g4xx_hal_pwr_ex.c ****   *        When moving from Range 1 to Boost Mode Range 1, the system frequency can be increased to
 148:Drivers/STM32G4xx_HAL_Driver/Src/stm32g4xx_hal_pwr_ex.c ****   *        a value up to 170 MHz after calling HAL_PWREx_ControlVoltageScaling() API.
 149:Drivers/STM32G4xx_HAL_Driver/Src/stm32g4xx_hal_pwr_ex.c ****   * @note  When moving from Range 2 to Range 1, the API waits for VOSF flag to be
 150:Drivers/STM32G4xx_HAL_Driver/Src/stm32g4xx_hal_pwr_ex.c ****   *        cleared before returning the status. If the flag is not cleared within
 151:Drivers/STM32G4xx_HAL_Driver/Src/stm32g4xx_hal_pwr_ex.c ****   *        50 microseconds, HAL_TIMEOUT status is reported.
 152:Drivers/STM32G4xx_HAL_Driver/Src/stm32g4xx_hal_pwr_ex.c ****   * @retval HAL Status
 153:Drivers/STM32G4xx_HAL_Driver/Src/stm32g4xx_hal_pwr_ex.c ****   */
 154:Drivers/STM32G4xx_HAL_Driver/Src/stm32g4xx_hal_pwr_ex.c **** HAL_StatusTypeDef HAL_PWREx_ControlVoltageScaling(uint32_t VoltageScaling)
 155:Drivers/STM32G4xx_HAL_Driver/Src/stm32g4xx_hal_pwr_ex.c **** {
  73              		.loc 1 155 1 is_stmt 1 view -0
  74              		.cfi_startproc
  75              		@ args = 0, pretend = 0, frame = 0
ARM GAS  /tmp/ccWGtOKe.s 			page 5


  76              		@ frame_needed = 0, uses_anonymous_args = 0
  77              		@ link register save eliminated.
 156:Drivers/STM32G4xx_HAL_Driver/Src/stm32g4xx_hal_pwr_ex.c ****   uint32_t wait_loop_index;
  78              		.loc 1 156 3 view .LVU10
 157:Drivers/STM32G4xx_HAL_Driver/Src/stm32g4xx_hal_pwr_ex.c **** 
 158:Drivers/STM32G4xx_HAL_Driver/Src/stm32g4xx_hal_pwr_ex.c ****   assert_param(IS_PWR_VOLTAGE_SCALING_RANGE(VoltageScaling));
  79              		.loc 1 158 3 view .LVU11
 159:Drivers/STM32G4xx_HAL_Driver/Src/stm32g4xx_hal_pwr_ex.c **** 
 160:Drivers/STM32G4xx_HAL_Driver/Src/stm32g4xx_hal_pwr_ex.c ****   if (VoltageScaling == PWR_REGULATOR_VOLTAGE_SCALE1_BOOST)
  80              		.loc 1 160 3 view .LVU12
  81              		.loc 1 160 6 is_stmt 0 view .LVU13
  82 0000 0028     		cmp	r0, #0
  83 0002 36D1     		bne	.L7
 161:Drivers/STM32G4xx_HAL_Driver/Src/stm32g4xx_hal_pwr_ex.c ****   {
 162:Drivers/STM32G4xx_HAL_Driver/Src/stm32g4xx_hal_pwr_ex.c ****     /* If current range is range 2 */
 163:Drivers/STM32G4xx_HAL_Driver/Src/stm32g4xx_hal_pwr_ex.c ****     if (READ_BIT(PWR->CR1, PWR_CR1_VOS) == PWR_REGULATOR_VOLTAGE_SCALE2)
  84              		.loc 1 163 5 is_stmt 1 view .LVU14
  85              		.loc 1 163 9 is_stmt 0 view .LVU15
  86 0004 3E4B     		ldr	r3, .L23
  87 0006 1B68     		ldr	r3, [r3]
  88 0008 03F4C063 		and	r3, r3, #1536
  89              		.loc 1 163 8 view .LVU16
  90 000c B3F5806F 		cmp	r3, #1024
  91 0010 08D0     		beq	.L20
 164:Drivers/STM32G4xx_HAL_Driver/Src/stm32g4xx_hal_pwr_ex.c ****     {
 165:Drivers/STM32G4xx_HAL_Driver/Src/stm32g4xx_hal_pwr_ex.c ****       /* Make sure Range 1 Boost is enabled */
 166:Drivers/STM32G4xx_HAL_Driver/Src/stm32g4xx_hal_pwr_ex.c ****       CLEAR_BIT(PWR->CR5, PWR_CR5_R1MODE);
 167:Drivers/STM32G4xx_HAL_Driver/Src/stm32g4xx_hal_pwr_ex.c **** 
 168:Drivers/STM32G4xx_HAL_Driver/Src/stm32g4xx_hal_pwr_ex.c ****       /* Set Range 1 */
 169:Drivers/STM32G4xx_HAL_Driver/Src/stm32g4xx_hal_pwr_ex.c ****       MODIFY_REG(PWR->CR1, PWR_CR1_VOS, PWR_REGULATOR_VOLTAGE_SCALE1);
 170:Drivers/STM32G4xx_HAL_Driver/Src/stm32g4xx_hal_pwr_ex.c **** 
 171:Drivers/STM32G4xx_HAL_Driver/Src/stm32g4xx_hal_pwr_ex.c ****       /* Wait until VOSF is cleared */
 172:Drivers/STM32G4xx_HAL_Driver/Src/stm32g4xx_hal_pwr_ex.c ****       wait_loop_index = ((PWR_FLAG_SETTING_DELAY_US * SystemCoreClock) / 1000000U) + 1U;
 173:Drivers/STM32G4xx_HAL_Driver/Src/stm32g4xx_hal_pwr_ex.c ****       while ((HAL_IS_BIT_SET(PWR->SR2, PWR_SR2_VOSF)) && (wait_loop_index != 0U))
 174:Drivers/STM32G4xx_HAL_Driver/Src/stm32g4xx_hal_pwr_ex.c ****       {
 175:Drivers/STM32G4xx_HAL_Driver/Src/stm32g4xx_hal_pwr_ex.c ****         wait_loop_index--;
 176:Drivers/STM32G4xx_HAL_Driver/Src/stm32g4xx_hal_pwr_ex.c ****       }
 177:Drivers/STM32G4xx_HAL_Driver/Src/stm32g4xx_hal_pwr_ex.c ****       if (HAL_IS_BIT_SET(PWR->SR2, PWR_SR2_VOSF))
 178:Drivers/STM32G4xx_HAL_Driver/Src/stm32g4xx_hal_pwr_ex.c ****       {
 179:Drivers/STM32G4xx_HAL_Driver/Src/stm32g4xx_hal_pwr_ex.c ****         return HAL_TIMEOUT;
 180:Drivers/STM32G4xx_HAL_Driver/Src/stm32g4xx_hal_pwr_ex.c ****       }
 181:Drivers/STM32G4xx_HAL_Driver/Src/stm32g4xx_hal_pwr_ex.c ****     }
 182:Drivers/STM32G4xx_HAL_Driver/Src/stm32g4xx_hal_pwr_ex.c ****     /* If current range is range 1 normal or boost mode */
 183:Drivers/STM32G4xx_HAL_Driver/Src/stm32g4xx_hal_pwr_ex.c ****     else
 184:Drivers/STM32G4xx_HAL_Driver/Src/stm32g4xx_hal_pwr_ex.c ****     {
 185:Drivers/STM32G4xx_HAL_Driver/Src/stm32g4xx_hal_pwr_ex.c ****       /* Enable Range 1 Boost (no issue if bit already reset) */
 186:Drivers/STM32G4xx_HAL_Driver/Src/stm32g4xx_hal_pwr_ex.c ****       CLEAR_BIT(PWR->CR5, PWR_CR5_R1MODE);
  92              		.loc 1 186 7 is_stmt 1 view .LVU17
  93 0012 3B4A     		ldr	r2, .L23
  94 0014 D2F88030 		ldr	r3, [r2, #128]
  95 0018 23F48073 		bic	r3, r3, #256
  96 001c C2F88030 		str	r3, [r2, #128]
 187:Drivers/STM32G4xx_HAL_Driver/Src/stm32g4xx_hal_pwr_ex.c ****     }
 188:Drivers/STM32G4xx_HAL_Driver/Src/stm32g4xx_hal_pwr_ex.c ****   }
 189:Drivers/STM32G4xx_HAL_Driver/Src/stm32g4xx_hal_pwr_ex.c ****   else if (VoltageScaling == PWR_REGULATOR_VOLTAGE_SCALE1)
 190:Drivers/STM32G4xx_HAL_Driver/Src/stm32g4xx_hal_pwr_ex.c ****   {
 191:Drivers/STM32G4xx_HAL_Driver/Src/stm32g4xx_hal_pwr_ex.c ****     /* If current range is range 2 */
ARM GAS  /tmp/ccWGtOKe.s 			page 6


 192:Drivers/STM32G4xx_HAL_Driver/Src/stm32g4xx_hal_pwr_ex.c ****     if (READ_BIT(PWR->CR1, PWR_CR1_VOS) == PWR_REGULATOR_VOLTAGE_SCALE2)
 193:Drivers/STM32G4xx_HAL_Driver/Src/stm32g4xx_hal_pwr_ex.c ****     {
 194:Drivers/STM32G4xx_HAL_Driver/Src/stm32g4xx_hal_pwr_ex.c ****       /* Make sure Range 1 Boost is disabled */
 195:Drivers/STM32G4xx_HAL_Driver/Src/stm32g4xx_hal_pwr_ex.c ****       SET_BIT(PWR->CR5, PWR_CR5_R1MODE);
 196:Drivers/STM32G4xx_HAL_Driver/Src/stm32g4xx_hal_pwr_ex.c **** 
 197:Drivers/STM32G4xx_HAL_Driver/Src/stm32g4xx_hal_pwr_ex.c ****       /* Set Range 1 */
 198:Drivers/STM32G4xx_HAL_Driver/Src/stm32g4xx_hal_pwr_ex.c ****       MODIFY_REG(PWR->CR1, PWR_CR1_VOS, PWR_REGULATOR_VOLTAGE_SCALE1);
 199:Drivers/STM32G4xx_HAL_Driver/Src/stm32g4xx_hal_pwr_ex.c **** 
 200:Drivers/STM32G4xx_HAL_Driver/Src/stm32g4xx_hal_pwr_ex.c ****       /* Wait until VOSF is cleared */
 201:Drivers/STM32G4xx_HAL_Driver/Src/stm32g4xx_hal_pwr_ex.c ****       wait_loop_index = ((PWR_FLAG_SETTING_DELAY_US * SystemCoreClock) / 1000000U) + 1U;
 202:Drivers/STM32G4xx_HAL_Driver/Src/stm32g4xx_hal_pwr_ex.c ****       while ((HAL_IS_BIT_SET(PWR->SR2, PWR_SR2_VOSF)) && (wait_loop_index != 0U))
 203:Drivers/STM32G4xx_HAL_Driver/Src/stm32g4xx_hal_pwr_ex.c ****       {
 204:Drivers/STM32G4xx_HAL_Driver/Src/stm32g4xx_hal_pwr_ex.c ****         wait_loop_index--;
 205:Drivers/STM32G4xx_HAL_Driver/Src/stm32g4xx_hal_pwr_ex.c ****       }
 206:Drivers/STM32G4xx_HAL_Driver/Src/stm32g4xx_hal_pwr_ex.c ****       if (HAL_IS_BIT_SET(PWR->SR2, PWR_SR2_VOSF))
 207:Drivers/STM32G4xx_HAL_Driver/Src/stm32g4xx_hal_pwr_ex.c ****       {
 208:Drivers/STM32G4xx_HAL_Driver/Src/stm32g4xx_hal_pwr_ex.c ****         return HAL_TIMEOUT;
 209:Drivers/STM32G4xx_HAL_Driver/Src/stm32g4xx_hal_pwr_ex.c ****       }
 210:Drivers/STM32G4xx_HAL_Driver/Src/stm32g4xx_hal_pwr_ex.c ****     }
 211:Drivers/STM32G4xx_HAL_Driver/Src/stm32g4xx_hal_pwr_ex.c ****      /* If current range is range 1 normal or boost mode */
 212:Drivers/STM32G4xx_HAL_Driver/Src/stm32g4xx_hal_pwr_ex.c ****     else
 213:Drivers/STM32G4xx_HAL_Driver/Src/stm32g4xx_hal_pwr_ex.c ****     {
 214:Drivers/STM32G4xx_HAL_Driver/Src/stm32g4xx_hal_pwr_ex.c ****       /* Disable Range 1 Boost (no issue if bit already set) */
 215:Drivers/STM32G4xx_HAL_Driver/Src/stm32g4xx_hal_pwr_ex.c ****       SET_BIT(PWR->CR5, PWR_CR5_R1MODE);
 216:Drivers/STM32G4xx_HAL_Driver/Src/stm32g4xx_hal_pwr_ex.c ****     }
 217:Drivers/STM32G4xx_HAL_Driver/Src/stm32g4xx_hal_pwr_ex.c ****   }
 218:Drivers/STM32G4xx_HAL_Driver/Src/stm32g4xx_hal_pwr_ex.c ****   else
 219:Drivers/STM32G4xx_HAL_Driver/Src/stm32g4xx_hal_pwr_ex.c ****   {
 220:Drivers/STM32G4xx_HAL_Driver/Src/stm32g4xx_hal_pwr_ex.c ****     /* Set Range 2 */
 221:Drivers/STM32G4xx_HAL_Driver/Src/stm32g4xx_hal_pwr_ex.c ****     MODIFY_REG(PWR->CR1, PWR_CR1_VOS, PWR_REGULATOR_VOLTAGE_SCALE2);
 222:Drivers/STM32G4xx_HAL_Driver/Src/stm32g4xx_hal_pwr_ex.c ****     /* No need to wait for VOSF to be cleared for this transition */
 223:Drivers/STM32G4xx_HAL_Driver/Src/stm32g4xx_hal_pwr_ex.c ****     /* PWR_CR5_R1MODE bit setting has no effect in Range 2        */
 224:Drivers/STM32G4xx_HAL_Driver/Src/stm32g4xx_hal_pwr_ex.c ****   }
 225:Drivers/STM32G4xx_HAL_Driver/Src/stm32g4xx_hal_pwr_ex.c **** 
 226:Drivers/STM32G4xx_HAL_Driver/Src/stm32g4xx_hal_pwr_ex.c ****   return HAL_OK;
  97              		.loc 1 226 10 is_stmt 0 view .LVU18
  98 0020 0020     		movs	r0, #0
  99              	.LVL1:
 100              		.loc 1 226 10 view .LVU19
 101 0022 7047     		bx	lr
 102              	.LVL2:
 103              	.L20:
 166:Drivers/STM32G4xx_HAL_Driver/Src/stm32g4xx_hal_pwr_ex.c **** 
 104              		.loc 1 166 7 is_stmt 1 view .LVU20
 105 0024 364A     		ldr	r2, .L23
 106 0026 D2F88030 		ldr	r3, [r2, #128]
 107 002a 23F48073 		bic	r3, r3, #256
 108 002e C2F88030 		str	r3, [r2, #128]
 169:Drivers/STM32G4xx_HAL_Driver/Src/stm32g4xx_hal_pwr_ex.c **** 
 109              		.loc 1 169 7 view .LVU21
 110 0032 1368     		ldr	r3, [r2]
 111 0034 23F4C063 		bic	r3, r3, #1536
 112 0038 43F40073 		orr	r3, r3, #512
 113 003c 1360     		str	r3, [r2]
 172:Drivers/STM32G4xx_HAL_Driver/Src/stm32g4xx_hal_pwr_ex.c ****       while ((HAL_IS_BIT_SET(PWR->SR2, PWR_SR2_VOSF)) && (wait_loop_index != 0U))
 114              		.loc 1 172 7 view .LVU22
 172:Drivers/STM32G4xx_HAL_Driver/Src/stm32g4xx_hal_pwr_ex.c ****       while ((HAL_IS_BIT_SET(PWR->SR2, PWR_SR2_VOSF)) && (wait_loop_index != 0U))
ARM GAS  /tmp/ccWGtOKe.s 			page 7


 115              		.loc 1 172 53 is_stmt 0 view .LVU23
 116 003e 314B     		ldr	r3, .L23+4
 117 0040 1A68     		ldr	r2, [r3]
 118 0042 3223     		movs	r3, #50
 119 0044 03FB02F3 		mul	r3, r3, r2
 172:Drivers/STM32G4xx_HAL_Driver/Src/stm32g4xx_hal_pwr_ex.c ****       while ((HAL_IS_BIT_SET(PWR->SR2, PWR_SR2_VOSF)) && (wait_loop_index != 0U))
 120              		.loc 1 172 72 view .LVU24
 121 0048 2F4A     		ldr	r2, .L23+8
 122 004a A2FB0323 		umull	r2, r3, r2, r3
 123 004e 9B0C     		lsrs	r3, r3, #18
 172:Drivers/STM32G4xx_HAL_Driver/Src/stm32g4xx_hal_pwr_ex.c ****       while ((HAL_IS_BIT_SET(PWR->SR2, PWR_SR2_VOSF)) && (wait_loop_index != 0U))
 124              		.loc 1 172 23 view .LVU25
 125 0050 0133     		adds	r3, r3, #1
 126              	.LVL3:
 173:Drivers/STM32G4xx_HAL_Driver/Src/stm32g4xx_hal_pwr_ex.c ****       {
 127              		.loc 1 173 7 is_stmt 1 view .LVU26
 173:Drivers/STM32G4xx_HAL_Driver/Src/stm32g4xx_hal_pwr_ex.c ****       {
 128              		.loc 1 173 13 is_stmt 0 view .LVU27
 129 0052 00E0     		b	.L9
 130              	.L11:
 175:Drivers/STM32G4xx_HAL_Driver/Src/stm32g4xx_hal_pwr_ex.c ****       }
 131              		.loc 1 175 9 is_stmt 1 view .LVU28
 175:Drivers/STM32G4xx_HAL_Driver/Src/stm32g4xx_hal_pwr_ex.c ****       }
 132              		.loc 1 175 24 is_stmt 0 view .LVU29
 133 0054 013B     		subs	r3, r3, #1
 134              	.LVL4:
 135              	.L9:
 173:Drivers/STM32G4xx_HAL_Driver/Src/stm32g4xx_hal_pwr_ex.c ****       {
 136              		.loc 1 173 13 is_stmt 1 view .LVU30
 173:Drivers/STM32G4xx_HAL_Driver/Src/stm32g4xx_hal_pwr_ex.c ****       {
 137              		.loc 1 173 15 is_stmt 0 view .LVU31
 138 0056 2A4A     		ldr	r2, .L23
 139 0058 5269     		ldr	r2, [r2, #20]
 173:Drivers/STM32G4xx_HAL_Driver/Src/stm32g4xx_hal_pwr_ex.c ****       {
 140              		.loc 1 173 13 view .LVU32
 141 005a 12F4806F 		tst	r2, #1024
 142 005e 01D0     		beq	.L10
 173:Drivers/STM32G4xx_HAL_Driver/Src/stm32g4xx_hal_pwr_ex.c ****       {
 143              		.loc 1 173 55 discriminator 1 view .LVU33
 144 0060 002B     		cmp	r3, #0
 145 0062 F7D1     		bne	.L11
 146              	.L10:
 177:Drivers/STM32G4xx_HAL_Driver/Src/stm32g4xx_hal_pwr_ex.c ****       {
 147              		.loc 1 177 7 is_stmt 1 view .LVU34
 177:Drivers/STM32G4xx_HAL_Driver/Src/stm32g4xx_hal_pwr_ex.c ****       {
 148              		.loc 1 177 11 is_stmt 0 view .LVU35
 149 0064 264B     		ldr	r3, .L23
 150              	.LVL5:
 177:Drivers/STM32G4xx_HAL_Driver/Src/stm32g4xx_hal_pwr_ex.c ****       {
 151              		.loc 1 177 11 view .LVU36
 152 0066 5B69     		ldr	r3, [r3, #20]
 177:Drivers/STM32G4xx_HAL_Driver/Src/stm32g4xx_hal_pwr_ex.c ****       {
 153              		.loc 1 177 10 view .LVU37
 154 0068 13F4806F 		tst	r3, #1024
 155 006c 44D1     		bne	.L18
 156              		.loc 1 226 10 view .LVU38
 157 006e 0020     		movs	r0, #0
ARM GAS  /tmp/ccWGtOKe.s 			page 8


 158              	.LVL6:
 159              		.loc 1 226 10 view .LVU39
 160 0070 7047     		bx	lr
 161              	.LVL7:
 162              	.L7:
 189:Drivers/STM32G4xx_HAL_Driver/Src/stm32g4xx_hal_pwr_ex.c ****   {
 163              		.loc 1 189 8 is_stmt 1 view .LVU40
 189:Drivers/STM32G4xx_HAL_Driver/Src/stm32g4xx_hal_pwr_ex.c ****   {
 164              		.loc 1 189 11 is_stmt 0 view .LVU41
 165 0072 B0F5007F 		cmp	r0, #512
 166 0076 08D0     		beq	.L21
 221:Drivers/STM32G4xx_HAL_Driver/Src/stm32g4xx_hal_pwr_ex.c ****     /* No need to wait for VOSF to be cleared for this transition */
 167              		.loc 1 221 5 is_stmt 1 view .LVU42
 168 0078 214A     		ldr	r2, .L23
 169 007a 1368     		ldr	r3, [r2]
 170 007c 23F4C063 		bic	r3, r3, #1536
 171 0080 43F48063 		orr	r3, r3, #1024
 172 0084 1360     		str	r3, [r2]
 173              		.loc 1 226 10 is_stmt 0 view .LVU43
 174 0086 0020     		movs	r0, #0
 175              	.LVL8:
 176              		.loc 1 226 10 view .LVU44
 177 0088 7047     		bx	lr
 178              	.LVL9:
 179              	.L21:
 192:Drivers/STM32G4xx_HAL_Driver/Src/stm32g4xx_hal_pwr_ex.c ****     {
 180              		.loc 1 192 5 is_stmt 1 view .LVU45
 192:Drivers/STM32G4xx_HAL_Driver/Src/stm32g4xx_hal_pwr_ex.c ****     {
 181              		.loc 1 192 9 is_stmt 0 view .LVU46
 182 008a 1D4B     		ldr	r3, .L23
 183 008c 1B68     		ldr	r3, [r3]
 184 008e 03F4C063 		and	r3, r3, #1536
 192:Drivers/STM32G4xx_HAL_Driver/Src/stm32g4xx_hal_pwr_ex.c ****     {
 185              		.loc 1 192 8 view .LVU47
 186 0092 B3F5806F 		cmp	r3, #1024
 187 0096 08D0     		beq	.L22
 215:Drivers/STM32G4xx_HAL_Driver/Src/stm32g4xx_hal_pwr_ex.c ****     }
 188              		.loc 1 215 7 is_stmt 1 view .LVU48
 189 0098 194A     		ldr	r2, .L23
 190 009a D2F88030 		ldr	r3, [r2, #128]
 191 009e 43F48073 		orr	r3, r3, #256
 192 00a2 C2F88030 		str	r3, [r2, #128]
 193              		.loc 1 226 10 is_stmt 0 view .LVU49
 194 00a6 0020     		movs	r0, #0
 195              	.LVL10:
 196              		.loc 1 226 10 view .LVU50
 197 00a8 7047     		bx	lr
 198              	.LVL11:
 199              	.L22:
 195:Drivers/STM32G4xx_HAL_Driver/Src/stm32g4xx_hal_pwr_ex.c **** 
 200              		.loc 1 195 7 is_stmt 1 view .LVU51
 201 00aa 154A     		ldr	r2, .L23
 202 00ac D2F88030 		ldr	r3, [r2, #128]
 203 00b0 43F48073 		orr	r3, r3, #256
 204 00b4 C2F88030 		str	r3, [r2, #128]
 198:Drivers/STM32G4xx_HAL_Driver/Src/stm32g4xx_hal_pwr_ex.c **** 
 205              		.loc 1 198 7 view .LVU52
ARM GAS  /tmp/ccWGtOKe.s 			page 9


 206 00b8 1368     		ldr	r3, [r2]
 207 00ba 23F4C063 		bic	r3, r3, #1536
 208 00be 43F40073 		orr	r3, r3, #512
 209 00c2 1360     		str	r3, [r2]
 201:Drivers/STM32G4xx_HAL_Driver/Src/stm32g4xx_hal_pwr_ex.c ****       while ((HAL_IS_BIT_SET(PWR->SR2, PWR_SR2_VOSF)) && (wait_loop_index != 0U))
 210              		.loc 1 201 7 view .LVU53
 201:Drivers/STM32G4xx_HAL_Driver/Src/stm32g4xx_hal_pwr_ex.c ****       while ((HAL_IS_BIT_SET(PWR->SR2, PWR_SR2_VOSF)) && (wait_loop_index != 0U))
 211              		.loc 1 201 53 is_stmt 0 view .LVU54
 212 00c4 0F4B     		ldr	r3, .L23+4
 213 00c6 1A68     		ldr	r2, [r3]
 214 00c8 3223     		movs	r3, #50
 215 00ca 03FB02F3 		mul	r3, r3, r2
 201:Drivers/STM32G4xx_HAL_Driver/Src/stm32g4xx_hal_pwr_ex.c ****       while ((HAL_IS_BIT_SET(PWR->SR2, PWR_SR2_VOSF)) && (wait_loop_index != 0U))
 216              		.loc 1 201 72 view .LVU55
 217 00ce 0E4A     		ldr	r2, .L23+8
 218 00d0 A2FB0323 		umull	r2, r3, r2, r3
 219 00d4 9B0C     		lsrs	r3, r3, #18
 201:Drivers/STM32G4xx_HAL_Driver/Src/stm32g4xx_hal_pwr_ex.c ****       while ((HAL_IS_BIT_SET(PWR->SR2, PWR_SR2_VOSF)) && (wait_loop_index != 0U))
 220              		.loc 1 201 23 view .LVU56
 221 00d6 0133     		adds	r3, r3, #1
 222              	.LVL12:
 202:Drivers/STM32G4xx_HAL_Driver/Src/stm32g4xx_hal_pwr_ex.c ****       {
 223              		.loc 1 202 7 is_stmt 1 view .LVU57
 202:Drivers/STM32G4xx_HAL_Driver/Src/stm32g4xx_hal_pwr_ex.c ****       {
 224              		.loc 1 202 13 is_stmt 0 view .LVU58
 225 00d8 00E0     		b	.L15
 226              	.L17:
 204:Drivers/STM32G4xx_HAL_Driver/Src/stm32g4xx_hal_pwr_ex.c ****       }
 227              		.loc 1 204 9 is_stmt 1 view .LVU59
 204:Drivers/STM32G4xx_HAL_Driver/Src/stm32g4xx_hal_pwr_ex.c ****       }
 228              		.loc 1 204 24 is_stmt 0 view .LVU60
 229 00da 013B     		subs	r3, r3, #1
 230              	.LVL13:
 231              	.L15:
 202:Drivers/STM32G4xx_HAL_Driver/Src/stm32g4xx_hal_pwr_ex.c ****       {
 232              		.loc 1 202 13 is_stmt 1 view .LVU61
 202:Drivers/STM32G4xx_HAL_Driver/Src/stm32g4xx_hal_pwr_ex.c ****       {
 233              		.loc 1 202 15 is_stmt 0 view .LVU62
 234 00dc 084A     		ldr	r2, .L23
 235 00de 5269     		ldr	r2, [r2, #20]
 202:Drivers/STM32G4xx_HAL_Driver/Src/stm32g4xx_hal_pwr_ex.c ****       {
 236              		.loc 1 202 13 view .LVU63
 237 00e0 12F4806F 		tst	r2, #1024
 238 00e4 01D0     		beq	.L16
 202:Drivers/STM32G4xx_HAL_Driver/Src/stm32g4xx_hal_pwr_ex.c ****       {
 239              		.loc 1 202 55 discriminator 1 view .LVU64
 240 00e6 002B     		cmp	r3, #0
 241 00e8 F7D1     		bne	.L17
 242              	.L16:
 206:Drivers/STM32G4xx_HAL_Driver/Src/stm32g4xx_hal_pwr_ex.c ****       {
 243              		.loc 1 206 7 is_stmt 1 view .LVU65
 206:Drivers/STM32G4xx_HAL_Driver/Src/stm32g4xx_hal_pwr_ex.c ****       {
 244              		.loc 1 206 11 is_stmt 0 view .LVU66
 245 00ea 054B     		ldr	r3, .L23
 246              	.LVL14:
 206:Drivers/STM32G4xx_HAL_Driver/Src/stm32g4xx_hal_pwr_ex.c ****       {
 247              		.loc 1 206 11 view .LVU67
ARM GAS  /tmp/ccWGtOKe.s 			page 10


 248 00ec 5B69     		ldr	r3, [r3, #20]
 206:Drivers/STM32G4xx_HAL_Driver/Src/stm32g4xx_hal_pwr_ex.c ****       {
 249              		.loc 1 206 10 view .LVU68
 250 00ee 13F4806F 		tst	r3, #1024
 251 00f2 03D1     		bne	.L19
 252              		.loc 1 226 10 view .LVU69
 253 00f4 0020     		movs	r0, #0
 254              	.LVL15:
 255              		.loc 1 226 10 view .LVU70
 256 00f6 7047     		bx	lr
 257              	.LVL16:
 258              	.L18:
 179:Drivers/STM32G4xx_HAL_Driver/Src/stm32g4xx_hal_pwr_ex.c ****       }
 259              		.loc 1 179 16 view .LVU71
 260 00f8 0320     		movs	r0, #3
 261              	.LVL17:
 179:Drivers/STM32G4xx_HAL_Driver/Src/stm32g4xx_hal_pwr_ex.c ****       }
 262              		.loc 1 179 16 view .LVU72
 263 00fa 7047     		bx	lr
 264              	.LVL18:
 265              	.L19:
 208:Drivers/STM32G4xx_HAL_Driver/Src/stm32g4xx_hal_pwr_ex.c ****       }
 266              		.loc 1 208 16 view .LVU73
 267 00fc 0320     		movs	r0, #3
 268              	.LVL19:
 227:Drivers/STM32G4xx_HAL_Driver/Src/stm32g4xx_hal_pwr_ex.c **** }
 269              		.loc 1 227 1 view .LVU74
 270 00fe 7047     		bx	lr
 271              	.L24:
 272              		.align	2
 273              	.L23:
 274 0100 00700040 		.word	1073770496
 275 0104 00000000 		.word	SystemCoreClock
 276 0108 83DE1B43 		.word	1125899907
 277              		.cfi_endproc
 278              	.LFE163:
 280              		.section	.text.HAL_PWREx_EnableBatteryCharging,"ax",%progbits
 281              		.align	1
 282              		.global	HAL_PWREx_EnableBatteryCharging
 283              		.syntax unified
 284              		.thumb
 285              		.thumb_func
 286              		.fpu fpv4-sp-d16
 288              	HAL_PWREx_EnableBatteryCharging:
 289              	.LVL20:
 290              	.LFB164:
 228:Drivers/STM32G4xx_HAL_Driver/Src/stm32g4xx_hal_pwr_ex.c **** 
 229:Drivers/STM32G4xx_HAL_Driver/Src/stm32g4xx_hal_pwr_ex.c **** 
 230:Drivers/STM32G4xx_HAL_Driver/Src/stm32g4xx_hal_pwr_ex.c **** /**
 231:Drivers/STM32G4xx_HAL_Driver/Src/stm32g4xx_hal_pwr_ex.c ****   * @brief Enable battery charging.
 232:Drivers/STM32G4xx_HAL_Driver/Src/stm32g4xx_hal_pwr_ex.c ****   *        When VDD is present, charge the external battery on VBAT thru an internal resistor.
 233:Drivers/STM32G4xx_HAL_Driver/Src/stm32g4xx_hal_pwr_ex.c ****   * @param  ResistorSelection: specifies the resistor impedance.
 234:Drivers/STM32G4xx_HAL_Driver/Src/stm32g4xx_hal_pwr_ex.c ****   *          This parameter can be one of the following values:
 235:Drivers/STM32G4xx_HAL_Driver/Src/stm32g4xx_hal_pwr_ex.c ****   *            @arg @ref PWR_BATTERY_CHARGING_RESISTOR_5     5 kOhms resistor
 236:Drivers/STM32G4xx_HAL_Driver/Src/stm32g4xx_hal_pwr_ex.c ****   *            @arg @ref PWR_BATTERY_CHARGING_RESISTOR_1_5 1.5 kOhms resistor
 237:Drivers/STM32G4xx_HAL_Driver/Src/stm32g4xx_hal_pwr_ex.c ****   * @retval None
 238:Drivers/STM32G4xx_HAL_Driver/Src/stm32g4xx_hal_pwr_ex.c ****   */
ARM GAS  /tmp/ccWGtOKe.s 			page 11


 239:Drivers/STM32G4xx_HAL_Driver/Src/stm32g4xx_hal_pwr_ex.c **** void HAL_PWREx_EnableBatteryCharging(uint32_t ResistorSelection)
 240:Drivers/STM32G4xx_HAL_Driver/Src/stm32g4xx_hal_pwr_ex.c **** {
 291              		.loc 1 240 1 is_stmt 1 view -0
 292              		.cfi_startproc
 293              		@ args = 0, pretend = 0, frame = 0
 294              		@ frame_needed = 0, uses_anonymous_args = 0
 295              		@ link register save eliminated.
 241:Drivers/STM32G4xx_HAL_Driver/Src/stm32g4xx_hal_pwr_ex.c ****   assert_param(IS_PWR_BATTERY_RESISTOR_SELECT(ResistorSelection));
 296              		.loc 1 241 3 view .LVU76
 242:Drivers/STM32G4xx_HAL_Driver/Src/stm32g4xx_hal_pwr_ex.c **** 
 243:Drivers/STM32G4xx_HAL_Driver/Src/stm32g4xx_hal_pwr_ex.c ****   /* Specify resistor selection */
 244:Drivers/STM32G4xx_HAL_Driver/Src/stm32g4xx_hal_pwr_ex.c ****   MODIFY_REG(PWR->CR4, PWR_CR4_VBRS, ResistorSelection);
 297              		.loc 1 244 3 view .LVU77
 298 0000 054A     		ldr	r2, .L26
 299 0002 D368     		ldr	r3, [r2, #12]
 300 0004 23F40073 		bic	r3, r3, #512
 301 0008 0343     		orrs	r3, r3, r0
 302 000a D360     		str	r3, [r2, #12]
 245:Drivers/STM32G4xx_HAL_Driver/Src/stm32g4xx_hal_pwr_ex.c **** 
 246:Drivers/STM32G4xx_HAL_Driver/Src/stm32g4xx_hal_pwr_ex.c ****   /* Enable battery charging */
 247:Drivers/STM32G4xx_HAL_Driver/Src/stm32g4xx_hal_pwr_ex.c ****   SET_BIT(PWR->CR4, PWR_CR4_VBE);
 303              		.loc 1 247 3 view .LVU78
 304 000c D368     		ldr	r3, [r2, #12]
 305 000e 43F48073 		orr	r3, r3, #256
 306 0012 D360     		str	r3, [r2, #12]
 248:Drivers/STM32G4xx_HAL_Driver/Src/stm32g4xx_hal_pwr_ex.c **** }
 307              		.loc 1 248 1 is_stmt 0 view .LVU79
 308 0014 7047     		bx	lr
 309              	.L27:
 310 0016 00BF     		.align	2
 311              	.L26:
 312 0018 00700040 		.word	1073770496
 313              		.cfi_endproc
 314              	.LFE164:
 316              		.section	.text.HAL_PWREx_DisableBatteryCharging,"ax",%progbits
 317              		.align	1
 318              		.global	HAL_PWREx_DisableBatteryCharging
 319              		.syntax unified
 320              		.thumb
 321              		.thumb_func
 322              		.fpu fpv4-sp-d16
 324              	HAL_PWREx_DisableBatteryCharging:
 325              	.LFB165:
 249:Drivers/STM32G4xx_HAL_Driver/Src/stm32g4xx_hal_pwr_ex.c **** 
 250:Drivers/STM32G4xx_HAL_Driver/Src/stm32g4xx_hal_pwr_ex.c **** 
 251:Drivers/STM32G4xx_HAL_Driver/Src/stm32g4xx_hal_pwr_ex.c **** /**
 252:Drivers/STM32G4xx_HAL_Driver/Src/stm32g4xx_hal_pwr_ex.c ****   * @brief Disable battery charging.
 253:Drivers/STM32G4xx_HAL_Driver/Src/stm32g4xx_hal_pwr_ex.c ****   * @retval None
 254:Drivers/STM32G4xx_HAL_Driver/Src/stm32g4xx_hal_pwr_ex.c ****   */
 255:Drivers/STM32G4xx_HAL_Driver/Src/stm32g4xx_hal_pwr_ex.c **** void HAL_PWREx_DisableBatteryCharging(void)
 256:Drivers/STM32G4xx_HAL_Driver/Src/stm32g4xx_hal_pwr_ex.c **** {
 326              		.loc 1 256 1 is_stmt 1 view -0
 327              		.cfi_startproc
 328              		@ args = 0, pretend = 0, frame = 0
 329              		@ frame_needed = 0, uses_anonymous_args = 0
 330              		@ link register save eliminated.
 257:Drivers/STM32G4xx_HAL_Driver/Src/stm32g4xx_hal_pwr_ex.c ****   CLEAR_BIT(PWR->CR4, PWR_CR4_VBE);
ARM GAS  /tmp/ccWGtOKe.s 			page 12


 331              		.loc 1 257 3 view .LVU81
 332 0000 024A     		ldr	r2, .L29
 333 0002 D368     		ldr	r3, [r2, #12]
 334 0004 23F48073 		bic	r3, r3, #256
 335 0008 D360     		str	r3, [r2, #12]
 258:Drivers/STM32G4xx_HAL_Driver/Src/stm32g4xx_hal_pwr_ex.c **** }
 336              		.loc 1 258 1 is_stmt 0 view .LVU82
 337 000a 7047     		bx	lr
 338              	.L30:
 339              		.align	2
 340              	.L29:
 341 000c 00700040 		.word	1073770496
 342              		.cfi_endproc
 343              	.LFE165:
 345              		.section	.text.HAL_PWREx_EnableInternalWakeUpLine,"ax",%progbits
 346              		.align	1
 347              		.global	HAL_PWREx_EnableInternalWakeUpLine
 348              		.syntax unified
 349              		.thumb
 350              		.thumb_func
 351              		.fpu fpv4-sp-d16
 353              	HAL_PWREx_EnableInternalWakeUpLine:
 354              	.LFB166:
 259:Drivers/STM32G4xx_HAL_Driver/Src/stm32g4xx_hal_pwr_ex.c **** 
 260:Drivers/STM32G4xx_HAL_Driver/Src/stm32g4xx_hal_pwr_ex.c **** 
 261:Drivers/STM32G4xx_HAL_Driver/Src/stm32g4xx_hal_pwr_ex.c **** /**
 262:Drivers/STM32G4xx_HAL_Driver/Src/stm32g4xx_hal_pwr_ex.c ****   * @brief Enable Internal Wake-up Line.
 263:Drivers/STM32G4xx_HAL_Driver/Src/stm32g4xx_hal_pwr_ex.c ****   * @retval None
 264:Drivers/STM32G4xx_HAL_Driver/Src/stm32g4xx_hal_pwr_ex.c ****   */
 265:Drivers/STM32G4xx_HAL_Driver/Src/stm32g4xx_hal_pwr_ex.c **** void HAL_PWREx_EnableInternalWakeUpLine(void)
 266:Drivers/STM32G4xx_HAL_Driver/Src/stm32g4xx_hal_pwr_ex.c **** {
 355              		.loc 1 266 1 is_stmt 1 view -0
 356              		.cfi_startproc
 357              		@ args = 0, pretend = 0, frame = 0
 358              		@ frame_needed = 0, uses_anonymous_args = 0
 359              		@ link register save eliminated.
 267:Drivers/STM32G4xx_HAL_Driver/Src/stm32g4xx_hal_pwr_ex.c ****   SET_BIT(PWR->CR3, PWR_CR3_EIWF);
 360              		.loc 1 267 3 view .LVU84
 361 0000 024A     		ldr	r2, .L32
 362 0002 9368     		ldr	r3, [r2, #8]
 363 0004 43F40043 		orr	r3, r3, #32768
 364 0008 9360     		str	r3, [r2, #8]
 268:Drivers/STM32G4xx_HAL_Driver/Src/stm32g4xx_hal_pwr_ex.c **** }
 365              		.loc 1 268 1 is_stmt 0 view .LVU85
 366 000a 7047     		bx	lr
 367              	.L33:
 368              		.align	2
 369              	.L32:
 370 000c 00700040 		.word	1073770496
 371              		.cfi_endproc
 372              	.LFE166:
 374              		.section	.text.HAL_PWREx_DisableInternalWakeUpLine,"ax",%progbits
 375              		.align	1
 376              		.global	HAL_PWREx_DisableInternalWakeUpLine
 377              		.syntax unified
 378              		.thumb
 379              		.thumb_func
ARM GAS  /tmp/ccWGtOKe.s 			page 13


 380              		.fpu fpv4-sp-d16
 382              	HAL_PWREx_DisableInternalWakeUpLine:
 383              	.LFB167:
 269:Drivers/STM32G4xx_HAL_Driver/Src/stm32g4xx_hal_pwr_ex.c **** 
 270:Drivers/STM32G4xx_HAL_Driver/Src/stm32g4xx_hal_pwr_ex.c **** 
 271:Drivers/STM32G4xx_HAL_Driver/Src/stm32g4xx_hal_pwr_ex.c **** /**
 272:Drivers/STM32G4xx_HAL_Driver/Src/stm32g4xx_hal_pwr_ex.c ****   * @brief Disable Internal Wake-up Line.
 273:Drivers/STM32G4xx_HAL_Driver/Src/stm32g4xx_hal_pwr_ex.c ****   * @retval None
 274:Drivers/STM32G4xx_HAL_Driver/Src/stm32g4xx_hal_pwr_ex.c ****   */
 275:Drivers/STM32G4xx_HAL_Driver/Src/stm32g4xx_hal_pwr_ex.c **** void HAL_PWREx_DisableInternalWakeUpLine(void)
 276:Drivers/STM32G4xx_HAL_Driver/Src/stm32g4xx_hal_pwr_ex.c **** {
 384              		.loc 1 276 1 is_stmt 1 view -0
 385              		.cfi_startproc
 386              		@ args = 0, pretend = 0, frame = 0
 387              		@ frame_needed = 0, uses_anonymous_args = 0
 388              		@ link register save eliminated.
 277:Drivers/STM32G4xx_HAL_Driver/Src/stm32g4xx_hal_pwr_ex.c ****   CLEAR_BIT(PWR->CR3, PWR_CR3_EIWF);
 389              		.loc 1 277 3 view .LVU87
 390 0000 024A     		ldr	r2, .L35
 391 0002 9368     		ldr	r3, [r2, #8]
 392 0004 23F40043 		bic	r3, r3, #32768
 393 0008 9360     		str	r3, [r2, #8]
 278:Drivers/STM32G4xx_HAL_Driver/Src/stm32g4xx_hal_pwr_ex.c **** }
 394              		.loc 1 278 1 is_stmt 0 view .LVU88
 395 000a 7047     		bx	lr
 396              	.L36:
 397              		.align	2
 398              	.L35:
 399 000c 00700040 		.word	1073770496
 400              		.cfi_endproc
 401              	.LFE167:
 403              		.section	.text.HAL_PWREx_EnableGPIOPullUp,"ax",%progbits
 404              		.align	1
 405              		.global	HAL_PWREx_EnableGPIOPullUp
 406              		.syntax unified
 407              		.thumb
 408              		.thumb_func
 409              		.fpu fpv4-sp-d16
 411              	HAL_PWREx_EnableGPIOPullUp:
 412              	.LVL21:
 413              	.LFB168:
 279:Drivers/STM32G4xx_HAL_Driver/Src/stm32g4xx_hal_pwr_ex.c **** 
 280:Drivers/STM32G4xx_HAL_Driver/Src/stm32g4xx_hal_pwr_ex.c **** 
 281:Drivers/STM32G4xx_HAL_Driver/Src/stm32g4xx_hal_pwr_ex.c **** 
 282:Drivers/STM32G4xx_HAL_Driver/Src/stm32g4xx_hal_pwr_ex.c **** /**
 283:Drivers/STM32G4xx_HAL_Driver/Src/stm32g4xx_hal_pwr_ex.c ****   * @brief Enable GPIO pull-up state in Standby and Shutdown modes.
 284:Drivers/STM32G4xx_HAL_Driver/Src/stm32g4xx_hal_pwr_ex.c ****   * @note  Set the relevant PUy bits of PWR_PUCRx register to configure the I/O in
 285:Drivers/STM32G4xx_HAL_Driver/Src/stm32g4xx_hal_pwr_ex.c ****   *        pull-up state in Standby and Shutdown modes.
 286:Drivers/STM32G4xx_HAL_Driver/Src/stm32g4xx_hal_pwr_ex.c ****   * @note  This state is effective in Standby and Shutdown modes only if APC bit
 287:Drivers/STM32G4xx_HAL_Driver/Src/stm32g4xx_hal_pwr_ex.c ****   *        is set through HAL_PWREx_EnablePullUpPullDownConfig() API.
 288:Drivers/STM32G4xx_HAL_Driver/Src/stm32g4xx_hal_pwr_ex.c ****   * @note  The configuration is lost when exiting the Shutdown mode due to the
 289:Drivers/STM32G4xx_HAL_Driver/Src/stm32g4xx_hal_pwr_ex.c ****   *        power-on reset, maintained when exiting the Standby mode.
 290:Drivers/STM32G4xx_HAL_Driver/Src/stm32g4xx_hal_pwr_ex.c ****   * @note  To avoid any conflict at Standby and Shutdown modes exits, the corresponding
 291:Drivers/STM32G4xx_HAL_Driver/Src/stm32g4xx_hal_pwr_ex.c ****   *        PDy bit of PWR_PDCRx register is cleared unless it is reserved.
 292:Drivers/STM32G4xx_HAL_Driver/Src/stm32g4xx_hal_pwr_ex.c ****   * @note  Even if a PUy bit to set is reserved, the other PUy bits entered as input
 293:Drivers/STM32G4xx_HAL_Driver/Src/stm32g4xx_hal_pwr_ex.c ****   *        parameter at the same time are set.
 294:Drivers/STM32G4xx_HAL_Driver/Src/stm32g4xx_hal_pwr_ex.c ****   * @param  GPIO: Specify the IO port. This parameter can be PWR_GPIO_A, ..., PWR_GPIO_G
ARM GAS  /tmp/ccWGtOKe.s 			page 14


 295:Drivers/STM32G4xx_HAL_Driver/Src/stm32g4xx_hal_pwr_ex.c ****   *         (or PWR_GPIO_I depending on the devices) to select the GPIO peripheral.
 296:Drivers/STM32G4xx_HAL_Driver/Src/stm32g4xx_hal_pwr_ex.c ****   * @param  GPIONumber: Specify the I/O pins numbers.
 297:Drivers/STM32G4xx_HAL_Driver/Src/stm32g4xx_hal_pwr_ex.c ****   *         This parameter can be one of the following values:
 298:Drivers/STM32G4xx_HAL_Driver/Src/stm32g4xx_hal_pwr_ex.c ****   *         PWR_GPIO_BIT_0, ..., PWR_GPIO_BIT_15 (except for the port where less
 299:Drivers/STM32G4xx_HAL_Driver/Src/stm32g4xx_hal_pwr_ex.c ****   *         I/O pins are available) or the logical OR of several of them to set
 300:Drivers/STM32G4xx_HAL_Driver/Src/stm32g4xx_hal_pwr_ex.c ****   *         several bits for a given port in a single API call.
 301:Drivers/STM32G4xx_HAL_Driver/Src/stm32g4xx_hal_pwr_ex.c ****   * @retval HAL Status
 302:Drivers/STM32G4xx_HAL_Driver/Src/stm32g4xx_hal_pwr_ex.c ****   */
 303:Drivers/STM32G4xx_HAL_Driver/Src/stm32g4xx_hal_pwr_ex.c **** HAL_StatusTypeDef HAL_PWREx_EnableGPIOPullUp(uint32_t GPIO, uint32_t GPIONumber)
 304:Drivers/STM32G4xx_HAL_Driver/Src/stm32g4xx_hal_pwr_ex.c **** {
 414              		.loc 1 304 1 is_stmt 1 view -0
 415              		.cfi_startproc
 416              		@ args = 0, pretend = 0, frame = 0
 417              		@ frame_needed = 0, uses_anonymous_args = 0
 418              		@ link register save eliminated.
 305:Drivers/STM32G4xx_HAL_Driver/Src/stm32g4xx_hal_pwr_ex.c ****   HAL_StatusTypeDef status = HAL_OK;
 419              		.loc 1 305 3 view .LVU90
 306:Drivers/STM32G4xx_HAL_Driver/Src/stm32g4xx_hal_pwr_ex.c **** 
 307:Drivers/STM32G4xx_HAL_Driver/Src/stm32g4xx_hal_pwr_ex.c ****   assert_param(IS_PWR_GPIO(GPIO));
 420              		.loc 1 307 3 view .LVU91
 308:Drivers/STM32G4xx_HAL_Driver/Src/stm32g4xx_hal_pwr_ex.c ****   assert_param(IS_PWR_GPIO_BIT_NUMBER(GPIONumber));
 421              		.loc 1 308 3 view .LVU92
 309:Drivers/STM32G4xx_HAL_Driver/Src/stm32g4xx_hal_pwr_ex.c **** 
 310:Drivers/STM32G4xx_HAL_Driver/Src/stm32g4xx_hal_pwr_ex.c ****   switch (GPIO)
 422              		.loc 1 310 3 view .LVU93
 423 0000 0628     		cmp	r0, #6
 424 0002 56D8     		bhi	.L47
 425 0004 DFE800F0 		tbb	[pc, r0]
 426              	.L40:
 427 0008 04       		.byte	(.L46-.L40)/2
 428 0009 12       		.byte	(.L45-.L40)/2
 429 000a 1E       		.byte	(.L44-.L40)/2
 430 000b 28       		.byte	(.L43-.L40)/2
 431 000c 32       		.byte	(.L42-.L40)/2
 432 000d 3C       		.byte	(.L41-.L40)/2
 433 000e 47       		.byte	(.L39-.L40)/2
 434 000f 00       		.p2align 1
 435              	.L46:
 311:Drivers/STM32G4xx_HAL_Driver/Src/stm32g4xx_hal_pwr_ex.c ****   {
 312:Drivers/STM32G4xx_HAL_Driver/Src/stm32g4xx_hal_pwr_ex.c ****     case PWR_GPIO_A:
 313:Drivers/STM32G4xx_HAL_Driver/Src/stm32g4xx_hal_pwr_ex.c ****        SET_BIT(PWR->PUCRA, (GPIONumber & (~(PWR_GPIO_BIT_14))));
 436              		.loc 1 313 8 view .LVU94
 437 0010 294B     		ldr	r3, .L48
 438 0012 1A6A     		ldr	r2, [r3, #32]
 439 0014 21F48040 		bic	r0, r1, #16384
 440              	.LVL22:
 441              		.loc 1 313 8 is_stmt 0 view .LVU95
 442 0018 0243     		orrs	r2, r2, r0
 443 001a 1A62     		str	r2, [r3, #32]
 314:Drivers/STM32G4xx_HAL_Driver/Src/stm32g4xx_hal_pwr_ex.c ****        CLEAR_BIT(PWR->PDCRA, (GPIONumber & (~(PWR_GPIO_BIT_13|PWR_GPIO_BIT_15))));
 444              		.loc 1 314 8 is_stmt 1 view .LVU96
 445 001c 5A6A     		ldr	r2, [r3, #36]
 446 001e 21F42041 		bic	r1, r1, #40960
 447              	.LVL23:
 448              		.loc 1 314 8 is_stmt 0 view .LVU97
 449 0022 22EA0101 		bic	r1, r2, r1
 450 0026 5962     		str	r1, [r3, #36]
ARM GAS  /tmp/ccWGtOKe.s 			page 15


 315:Drivers/STM32G4xx_HAL_Driver/Src/stm32g4xx_hal_pwr_ex.c ****        break;
 451              		.loc 1 315 8 is_stmt 1 view .LVU98
 305:Drivers/STM32G4xx_HAL_Driver/Src/stm32g4xx_hal_pwr_ex.c **** 
 452              		.loc 1 305 21 is_stmt 0 view .LVU99
 453 0028 0020     		movs	r0, #0
 454              		.loc 1 315 8 view .LVU100
 455 002a 7047     		bx	lr
 456              	.LVL24:
 457              	.L45:
 316:Drivers/STM32G4xx_HAL_Driver/Src/stm32g4xx_hal_pwr_ex.c ****     case PWR_GPIO_B:
 317:Drivers/STM32G4xx_HAL_Driver/Src/stm32g4xx_hal_pwr_ex.c ****        SET_BIT(PWR->PUCRB, GPIONumber);
 458              		.loc 1 317 8 is_stmt 1 view .LVU101
 459 002c 224B     		ldr	r3, .L48
 460 002e 9A6A     		ldr	r2, [r3, #40]
 461 0030 0A43     		orrs	r2, r2, r1
 462 0032 9A62     		str	r2, [r3, #40]
 318:Drivers/STM32G4xx_HAL_Driver/Src/stm32g4xx_hal_pwr_ex.c ****        CLEAR_BIT(PWR->PDCRB, (GPIONumber & (~(PWR_GPIO_BIT_4))));
 463              		.loc 1 318 8 view .LVU102
 464 0034 DA6A     		ldr	r2, [r3, #44]
 465 0036 21F01001 		bic	r1, r1, #16
 466              	.LVL25:
 467              		.loc 1 318 8 is_stmt 0 view .LVU103
 468 003a 22EA0101 		bic	r1, r2, r1
 469 003e D962     		str	r1, [r3, #44]
 319:Drivers/STM32G4xx_HAL_Driver/Src/stm32g4xx_hal_pwr_ex.c ****        break;
 470              		.loc 1 319 8 is_stmt 1 view .LVU104
 305:Drivers/STM32G4xx_HAL_Driver/Src/stm32g4xx_hal_pwr_ex.c **** 
 471              		.loc 1 305 21 is_stmt 0 view .LVU105
 472 0040 0020     		movs	r0, #0
 473              	.LVL26:
 474              		.loc 1 319 8 view .LVU106
 475 0042 7047     		bx	lr
 476              	.LVL27:
 477              	.L44:
 320:Drivers/STM32G4xx_HAL_Driver/Src/stm32g4xx_hal_pwr_ex.c ****     case PWR_GPIO_C:
 321:Drivers/STM32G4xx_HAL_Driver/Src/stm32g4xx_hal_pwr_ex.c ****        SET_BIT(PWR->PUCRC, GPIONumber);
 478              		.loc 1 321 8 is_stmt 1 view .LVU107
 479 0044 1C4B     		ldr	r3, .L48
 480 0046 1A6B     		ldr	r2, [r3, #48]
 481 0048 0A43     		orrs	r2, r2, r1
 482 004a 1A63     		str	r2, [r3, #48]
 322:Drivers/STM32G4xx_HAL_Driver/Src/stm32g4xx_hal_pwr_ex.c ****        CLEAR_BIT(PWR->PDCRC, GPIONumber);
 483              		.loc 1 322 8 view .LVU108
 484 004c 5A6B     		ldr	r2, [r3, #52]
 485 004e 22EA0101 		bic	r1, r2, r1
 486              	.LVL28:
 487              		.loc 1 322 8 is_stmt 0 view .LVU109
 488 0052 5963     		str	r1, [r3, #52]
 323:Drivers/STM32G4xx_HAL_Driver/Src/stm32g4xx_hal_pwr_ex.c ****        break;
 489              		.loc 1 323 8 is_stmt 1 view .LVU110
 305:Drivers/STM32G4xx_HAL_Driver/Src/stm32g4xx_hal_pwr_ex.c **** 
 490              		.loc 1 305 21 is_stmt 0 view .LVU111
 491 0054 0020     		movs	r0, #0
 492              	.LVL29:
 493              		.loc 1 323 8 view .LVU112
 494 0056 7047     		bx	lr
 495              	.LVL30:
ARM GAS  /tmp/ccWGtOKe.s 			page 16


 496              	.L43:
 324:Drivers/STM32G4xx_HAL_Driver/Src/stm32g4xx_hal_pwr_ex.c ****     case PWR_GPIO_D:
 325:Drivers/STM32G4xx_HAL_Driver/Src/stm32g4xx_hal_pwr_ex.c ****        SET_BIT(PWR->PUCRD, GPIONumber);
 497              		.loc 1 325 8 is_stmt 1 view .LVU113
 498 0058 174B     		ldr	r3, .L48
 499 005a 9A6B     		ldr	r2, [r3, #56]
 500 005c 0A43     		orrs	r2, r2, r1
 501 005e 9A63     		str	r2, [r3, #56]
 326:Drivers/STM32G4xx_HAL_Driver/Src/stm32g4xx_hal_pwr_ex.c ****        CLEAR_BIT(PWR->PDCRD, GPIONumber);
 502              		.loc 1 326 8 view .LVU114
 503 0060 DA6B     		ldr	r2, [r3, #60]
 504 0062 22EA0101 		bic	r1, r2, r1
 505              	.LVL31:
 506              		.loc 1 326 8 is_stmt 0 view .LVU115
 507 0066 D963     		str	r1, [r3, #60]
 327:Drivers/STM32G4xx_HAL_Driver/Src/stm32g4xx_hal_pwr_ex.c ****        break;
 508              		.loc 1 327 8 is_stmt 1 view .LVU116
 305:Drivers/STM32G4xx_HAL_Driver/Src/stm32g4xx_hal_pwr_ex.c **** 
 509              		.loc 1 305 21 is_stmt 0 view .LVU117
 510 0068 0020     		movs	r0, #0
 511              	.LVL32:
 512              		.loc 1 327 8 view .LVU118
 513 006a 7047     		bx	lr
 514              	.LVL33:
 515              	.L42:
 328:Drivers/STM32G4xx_HAL_Driver/Src/stm32g4xx_hal_pwr_ex.c ****     case PWR_GPIO_E:
 329:Drivers/STM32G4xx_HAL_Driver/Src/stm32g4xx_hal_pwr_ex.c ****        SET_BIT(PWR->PUCRE, GPIONumber);
 516              		.loc 1 329 8 is_stmt 1 view .LVU119
 517 006c 124B     		ldr	r3, .L48
 518 006e 1A6C     		ldr	r2, [r3, #64]
 519 0070 0A43     		orrs	r2, r2, r1
 520 0072 1A64     		str	r2, [r3, #64]
 330:Drivers/STM32G4xx_HAL_Driver/Src/stm32g4xx_hal_pwr_ex.c ****        CLEAR_BIT(PWR->PDCRE, GPIONumber);
 521              		.loc 1 330 8 view .LVU120
 522 0074 5A6C     		ldr	r2, [r3, #68]
 523 0076 22EA0101 		bic	r1, r2, r1
 524              	.LVL34:
 525              		.loc 1 330 8 is_stmt 0 view .LVU121
 526 007a 5964     		str	r1, [r3, #68]
 331:Drivers/STM32G4xx_HAL_Driver/Src/stm32g4xx_hal_pwr_ex.c ****        break;
 527              		.loc 1 331 8 is_stmt 1 view .LVU122
 305:Drivers/STM32G4xx_HAL_Driver/Src/stm32g4xx_hal_pwr_ex.c **** 
 528              		.loc 1 305 21 is_stmt 0 view .LVU123
 529 007c 0020     		movs	r0, #0
 530              	.LVL35:
 531              		.loc 1 331 8 view .LVU124
 532 007e 7047     		bx	lr
 533              	.LVL36:
 534              	.L41:
 332:Drivers/STM32G4xx_HAL_Driver/Src/stm32g4xx_hal_pwr_ex.c ****     case PWR_GPIO_F:
 333:Drivers/STM32G4xx_HAL_Driver/Src/stm32g4xx_hal_pwr_ex.c ****        SET_BIT(PWR->PUCRF, (GPIONumber & PWR_PORTF_AVAILABLE_PINS));
 535              		.loc 1 333 8 is_stmt 1 view .LVU125
 536 0080 0D4B     		ldr	r3, .L48
 537 0082 9A6C     		ldr	r2, [r3, #72]
 538 0084 89B2     		uxth	r1, r1
 539              	.LVL37:
 540              		.loc 1 333 8 is_stmt 0 view .LVU126
ARM GAS  /tmp/ccWGtOKe.s 			page 17


 541 0086 0A43     		orrs	r2, r2, r1
 542 0088 9A64     		str	r2, [r3, #72]
 334:Drivers/STM32G4xx_HAL_Driver/Src/stm32g4xx_hal_pwr_ex.c ****        CLEAR_BIT(PWR->PDCRF, (GPIONumber & PWR_PORTF_AVAILABLE_PINS));
 543              		.loc 1 334 8 is_stmt 1 view .LVU127
 544 008a DA6C     		ldr	r2, [r3, #76]
 545 008c 22EA0101 		bic	r1, r2, r1
 546 0090 D964     		str	r1, [r3, #76]
 335:Drivers/STM32G4xx_HAL_Driver/Src/stm32g4xx_hal_pwr_ex.c ****        break;
 547              		.loc 1 335 8 view .LVU128
 305:Drivers/STM32G4xx_HAL_Driver/Src/stm32g4xx_hal_pwr_ex.c **** 
 548              		.loc 1 305 21 is_stmt 0 view .LVU129
 549 0092 0020     		movs	r0, #0
 550              	.LVL38:
 551              		.loc 1 335 8 view .LVU130
 552 0094 7047     		bx	lr
 553              	.LVL39:
 554              	.L39:
 336:Drivers/STM32G4xx_HAL_Driver/Src/stm32g4xx_hal_pwr_ex.c ****     case PWR_GPIO_G:
 337:Drivers/STM32G4xx_HAL_Driver/Src/stm32g4xx_hal_pwr_ex.c ****        SET_BIT(PWR->PUCRG, (GPIONumber & PWR_PORTG_AVAILABLE_PINS));
 555              		.loc 1 337 8 is_stmt 1 view .LVU131
 556 0096 084B     		ldr	r3, .L48
 557 0098 1A6D     		ldr	r2, [r3, #80]
 558 009a C1F30A00 		ubfx	r0, r1, #0, #11
 559              	.LVL40:
 560              		.loc 1 337 8 is_stmt 0 view .LVU132
 561 009e 0243     		orrs	r2, r2, r0
 562 00a0 1A65     		str	r2, [r3, #80]
 338:Drivers/STM32G4xx_HAL_Driver/Src/stm32g4xx_hal_pwr_ex.c ****        CLEAR_BIT(PWR->PDCRG, ((GPIONumber & PWR_PORTG_AVAILABLE_PINS) & (~(PWR_GPIO_BIT_10))));
 563              		.loc 1 338 8 is_stmt 1 view .LVU133
 564 00a2 5A6D     		ldr	r2, [r3, #84]
 565 00a4 C1F30901 		ubfx	r1, r1, #0, #10
 566              	.LVL41:
 567              		.loc 1 338 8 is_stmt 0 view .LVU134
 568 00a8 22EA0101 		bic	r1, r2, r1
 569 00ac 5965     		str	r1, [r3, #84]
 339:Drivers/STM32G4xx_HAL_Driver/Src/stm32g4xx_hal_pwr_ex.c ****        break;
 570              		.loc 1 339 8 is_stmt 1 view .LVU135
 305:Drivers/STM32G4xx_HAL_Driver/Src/stm32g4xx_hal_pwr_ex.c **** 
 571              		.loc 1 305 21 is_stmt 0 view .LVU136
 572 00ae 0020     		movs	r0, #0
 573              		.loc 1 339 8 view .LVU137
 574 00b0 7047     		bx	lr
 575              	.LVL42:
 576              	.L47:
 305:Drivers/STM32G4xx_HAL_Driver/Src/stm32g4xx_hal_pwr_ex.c **** 
 577              		.loc 1 305 21 view .LVU138
 578 00b2 0120     		movs	r0, #1
 579              	.LVL43:
 340:Drivers/STM32G4xx_HAL_Driver/Src/stm32g4xx_hal_pwr_ex.c ****     default:
 341:Drivers/STM32G4xx_HAL_Driver/Src/stm32g4xx_hal_pwr_ex.c ****       status = HAL_ERROR;
 342:Drivers/STM32G4xx_HAL_Driver/Src/stm32g4xx_hal_pwr_ex.c ****       break;
 343:Drivers/STM32G4xx_HAL_Driver/Src/stm32g4xx_hal_pwr_ex.c ****   }
 344:Drivers/STM32G4xx_HAL_Driver/Src/stm32g4xx_hal_pwr_ex.c **** 
 345:Drivers/STM32G4xx_HAL_Driver/Src/stm32g4xx_hal_pwr_ex.c ****   return status;
 580              		.loc 1 345 3 is_stmt 1 view .LVU139
 346:Drivers/STM32G4xx_HAL_Driver/Src/stm32g4xx_hal_pwr_ex.c **** }
 581              		.loc 1 346 1 is_stmt 0 view .LVU140
ARM GAS  /tmp/ccWGtOKe.s 			page 18


 582 00b4 7047     		bx	lr
 583              	.L49:
 584 00b6 00BF     		.align	2
 585              	.L48:
 586 00b8 00700040 		.word	1073770496
 587              		.cfi_endproc
 588              	.LFE168:
 590              		.section	.text.HAL_PWREx_DisableGPIOPullUp,"ax",%progbits
 591              		.align	1
 592              		.global	HAL_PWREx_DisableGPIOPullUp
 593              		.syntax unified
 594              		.thumb
 595              		.thumb_func
 596              		.fpu fpv4-sp-d16
 598              	HAL_PWREx_DisableGPIOPullUp:
 599              	.LVL44:
 600              	.LFB169:
 347:Drivers/STM32G4xx_HAL_Driver/Src/stm32g4xx_hal_pwr_ex.c **** 
 348:Drivers/STM32G4xx_HAL_Driver/Src/stm32g4xx_hal_pwr_ex.c **** 
 349:Drivers/STM32G4xx_HAL_Driver/Src/stm32g4xx_hal_pwr_ex.c **** /**
 350:Drivers/STM32G4xx_HAL_Driver/Src/stm32g4xx_hal_pwr_ex.c ****   * @brief Disable GPIO pull-up state in Standby mode and Shutdown modes.
 351:Drivers/STM32G4xx_HAL_Driver/Src/stm32g4xx_hal_pwr_ex.c ****   * @note  Reset the relevant PUy bits of PWR_PUCRx register used to configure the I/O
 352:Drivers/STM32G4xx_HAL_Driver/Src/stm32g4xx_hal_pwr_ex.c ****   *        in pull-up state in Standby and Shutdown modes.
 353:Drivers/STM32G4xx_HAL_Driver/Src/stm32g4xx_hal_pwr_ex.c ****   * @note  Even if a PUy bit to reset is reserved, the other PUy bits entered as input
 354:Drivers/STM32G4xx_HAL_Driver/Src/stm32g4xx_hal_pwr_ex.c ****   *        parameter at the same time are reset.
 355:Drivers/STM32G4xx_HAL_Driver/Src/stm32g4xx_hal_pwr_ex.c ****   * @param  GPIO: Specifies the IO port. This parameter can be PWR_GPIO_A, ..., PWR_GPIO_G
 356:Drivers/STM32G4xx_HAL_Driver/Src/stm32g4xx_hal_pwr_ex.c ****   *          (or PWR_GPIO_I depending on the devices) to select the GPIO peripheral.
 357:Drivers/STM32G4xx_HAL_Driver/Src/stm32g4xx_hal_pwr_ex.c ****   * @param  GPIONumber: Specify the I/O pins numbers.
 358:Drivers/STM32G4xx_HAL_Driver/Src/stm32g4xx_hal_pwr_ex.c ****   *         This parameter can be one of the following values:
 359:Drivers/STM32G4xx_HAL_Driver/Src/stm32g4xx_hal_pwr_ex.c ****   *         PWR_GPIO_BIT_0, ..., PWR_GPIO_BIT_15 (except for the port where less
 360:Drivers/STM32G4xx_HAL_Driver/Src/stm32g4xx_hal_pwr_ex.c ****   *         I/O pins are available) or the logical OR of several of them to reset
 361:Drivers/STM32G4xx_HAL_Driver/Src/stm32g4xx_hal_pwr_ex.c ****   *         several bits for a given port in a single API call.
 362:Drivers/STM32G4xx_HAL_Driver/Src/stm32g4xx_hal_pwr_ex.c ****   * @retval HAL Status
 363:Drivers/STM32G4xx_HAL_Driver/Src/stm32g4xx_hal_pwr_ex.c ****   */
 364:Drivers/STM32G4xx_HAL_Driver/Src/stm32g4xx_hal_pwr_ex.c **** HAL_StatusTypeDef HAL_PWREx_DisableGPIOPullUp(uint32_t GPIO, uint32_t GPIONumber)
 365:Drivers/STM32G4xx_HAL_Driver/Src/stm32g4xx_hal_pwr_ex.c **** {
 601              		.loc 1 365 1 is_stmt 1 view -0
 602              		.cfi_startproc
 603              		@ args = 0, pretend = 0, frame = 0
 604              		@ frame_needed = 0, uses_anonymous_args = 0
 605              		@ link register save eliminated.
 366:Drivers/STM32G4xx_HAL_Driver/Src/stm32g4xx_hal_pwr_ex.c ****   HAL_StatusTypeDef status = HAL_OK;
 606              		.loc 1 366 3 view .LVU142
 367:Drivers/STM32G4xx_HAL_Driver/Src/stm32g4xx_hal_pwr_ex.c **** 
 368:Drivers/STM32G4xx_HAL_Driver/Src/stm32g4xx_hal_pwr_ex.c ****   assert_param(IS_PWR_GPIO(GPIO));
 607              		.loc 1 368 3 view .LVU143
 369:Drivers/STM32G4xx_HAL_Driver/Src/stm32g4xx_hal_pwr_ex.c ****   assert_param(IS_PWR_GPIO_BIT_NUMBER(GPIONumber));
 608              		.loc 1 369 3 view .LVU144
 370:Drivers/STM32G4xx_HAL_Driver/Src/stm32g4xx_hal_pwr_ex.c **** 
 371:Drivers/STM32G4xx_HAL_Driver/Src/stm32g4xx_hal_pwr_ex.c ****   switch (GPIO)
 609              		.loc 1 371 3 view .LVU145
 610 0000 0628     		cmp	r0, #6
 611 0002 3BD8     		bhi	.L60
 612 0004 DFE800F0 		tbb	[pc, r0]
 613              	.L53:
 614 0008 04       		.byte	(.L59-.L53)/2
 615 0009 0D       		.byte	(.L58-.L53)/2
ARM GAS  /tmp/ccWGtOKe.s 			page 19


 616 000a 14       		.byte	(.L57-.L53)/2
 617 000b 1B       		.byte	(.L56-.L53)/2
 618 000c 22       		.byte	(.L55-.L53)/2
 619 000d 29       		.byte	(.L54-.L53)/2
 620 000e 31       		.byte	(.L52-.L53)/2
 621 000f 00       		.p2align 1
 622              	.L59:
 372:Drivers/STM32G4xx_HAL_Driver/Src/stm32g4xx_hal_pwr_ex.c ****   {
 373:Drivers/STM32G4xx_HAL_Driver/Src/stm32g4xx_hal_pwr_ex.c ****     case PWR_GPIO_A:
 374:Drivers/STM32G4xx_HAL_Driver/Src/stm32g4xx_hal_pwr_ex.c ****        CLEAR_BIT(PWR->PUCRA, (GPIONumber & (~(PWR_GPIO_BIT_14))));
 623              		.loc 1 374 8 view .LVU146
 624 0010 1B4A     		ldr	r2, .L61
 625 0012 136A     		ldr	r3, [r2, #32]
 626 0014 21F48041 		bic	r1, r1, #16384
 627              	.LVL45:
 628              		.loc 1 374 8 is_stmt 0 view .LVU147
 629 0018 23EA0101 		bic	r1, r3, r1
 630 001c 1162     		str	r1, [r2, #32]
 375:Drivers/STM32G4xx_HAL_Driver/Src/stm32g4xx_hal_pwr_ex.c ****        break;
 631              		.loc 1 375 8 is_stmt 1 view .LVU148
 366:Drivers/STM32G4xx_HAL_Driver/Src/stm32g4xx_hal_pwr_ex.c **** 
 632              		.loc 1 366 21 is_stmt 0 view .LVU149
 633 001e 0020     		movs	r0, #0
 634              	.LVL46:
 635              		.loc 1 375 8 view .LVU150
 636 0020 7047     		bx	lr
 637              	.LVL47:
 638              	.L58:
 376:Drivers/STM32G4xx_HAL_Driver/Src/stm32g4xx_hal_pwr_ex.c ****     case PWR_GPIO_B:
 377:Drivers/STM32G4xx_HAL_Driver/Src/stm32g4xx_hal_pwr_ex.c ****        CLEAR_BIT(PWR->PUCRB, GPIONumber);
 639              		.loc 1 377 8 is_stmt 1 view .LVU151
 640 0022 174A     		ldr	r2, .L61
 641 0024 936A     		ldr	r3, [r2, #40]
 642 0026 23EA0101 		bic	r1, r3, r1
 643              	.LVL48:
 644              		.loc 1 377 8 is_stmt 0 view .LVU152
 645 002a 9162     		str	r1, [r2, #40]
 378:Drivers/STM32G4xx_HAL_Driver/Src/stm32g4xx_hal_pwr_ex.c ****        break;
 646              		.loc 1 378 8 is_stmt 1 view .LVU153
 366:Drivers/STM32G4xx_HAL_Driver/Src/stm32g4xx_hal_pwr_ex.c **** 
 647              		.loc 1 366 21 is_stmt 0 view .LVU154
 648 002c 0020     		movs	r0, #0
 649              	.LVL49:
 650              		.loc 1 378 8 view .LVU155
 651 002e 7047     		bx	lr
 652              	.LVL50:
 653              	.L57:
 379:Drivers/STM32G4xx_HAL_Driver/Src/stm32g4xx_hal_pwr_ex.c ****     case PWR_GPIO_C:
 380:Drivers/STM32G4xx_HAL_Driver/Src/stm32g4xx_hal_pwr_ex.c ****        CLEAR_BIT(PWR->PUCRC, GPIONumber);
 654              		.loc 1 380 8 is_stmt 1 view .LVU156
 655 0030 134A     		ldr	r2, .L61
 656 0032 136B     		ldr	r3, [r2, #48]
 657 0034 23EA0101 		bic	r1, r3, r1
 658              	.LVL51:
 659              		.loc 1 380 8 is_stmt 0 view .LVU157
 660 0038 1163     		str	r1, [r2, #48]
 381:Drivers/STM32G4xx_HAL_Driver/Src/stm32g4xx_hal_pwr_ex.c ****        break;
ARM GAS  /tmp/ccWGtOKe.s 			page 20


 661              		.loc 1 381 8 is_stmt 1 view .LVU158
 366:Drivers/STM32G4xx_HAL_Driver/Src/stm32g4xx_hal_pwr_ex.c **** 
 662              		.loc 1 366 21 is_stmt 0 view .LVU159
 663 003a 0020     		movs	r0, #0
 664              	.LVL52:
 665              		.loc 1 381 8 view .LVU160
 666 003c 7047     		bx	lr
 667              	.LVL53:
 668              	.L56:
 382:Drivers/STM32G4xx_HAL_Driver/Src/stm32g4xx_hal_pwr_ex.c ****     case PWR_GPIO_D:
 383:Drivers/STM32G4xx_HAL_Driver/Src/stm32g4xx_hal_pwr_ex.c ****        CLEAR_BIT(PWR->PUCRD, GPIONumber);
 669              		.loc 1 383 8 is_stmt 1 view .LVU161
 670 003e 104A     		ldr	r2, .L61
 671 0040 936B     		ldr	r3, [r2, #56]
 672 0042 23EA0101 		bic	r1, r3, r1
 673              	.LVL54:
 674              		.loc 1 383 8 is_stmt 0 view .LVU162
 675 0046 9163     		str	r1, [r2, #56]
 384:Drivers/STM32G4xx_HAL_Driver/Src/stm32g4xx_hal_pwr_ex.c ****        break;
 676              		.loc 1 384 8 is_stmt 1 view .LVU163
 366:Drivers/STM32G4xx_HAL_Driver/Src/stm32g4xx_hal_pwr_ex.c **** 
 677              		.loc 1 366 21 is_stmt 0 view .LVU164
 678 0048 0020     		movs	r0, #0
 679              	.LVL55:
 680              		.loc 1 384 8 view .LVU165
 681 004a 7047     		bx	lr
 682              	.LVL56:
 683              	.L55:
 385:Drivers/STM32G4xx_HAL_Driver/Src/stm32g4xx_hal_pwr_ex.c ****     case PWR_GPIO_E:
 386:Drivers/STM32G4xx_HAL_Driver/Src/stm32g4xx_hal_pwr_ex.c ****        CLEAR_BIT(PWR->PUCRE, GPIONumber);
 684              		.loc 1 386 8 is_stmt 1 view .LVU166
 685 004c 0C4A     		ldr	r2, .L61
 686 004e 136C     		ldr	r3, [r2, #64]
 687 0050 23EA0101 		bic	r1, r3, r1
 688              	.LVL57:
 689              		.loc 1 386 8 is_stmt 0 view .LVU167
 690 0054 1164     		str	r1, [r2, #64]
 387:Drivers/STM32G4xx_HAL_Driver/Src/stm32g4xx_hal_pwr_ex.c ****        break;
 691              		.loc 1 387 8 is_stmt 1 view .LVU168
 366:Drivers/STM32G4xx_HAL_Driver/Src/stm32g4xx_hal_pwr_ex.c **** 
 692              		.loc 1 366 21 is_stmt 0 view .LVU169
 693 0056 0020     		movs	r0, #0
 694              	.LVL58:
 695              		.loc 1 387 8 view .LVU170
 696 0058 7047     		bx	lr
 697              	.LVL59:
 698              	.L54:
 388:Drivers/STM32G4xx_HAL_Driver/Src/stm32g4xx_hal_pwr_ex.c ****     case PWR_GPIO_F:
 389:Drivers/STM32G4xx_HAL_Driver/Src/stm32g4xx_hal_pwr_ex.c ****        CLEAR_BIT(PWR->PUCRF, (GPIONumber & PWR_PORTF_AVAILABLE_PINS));
 699              		.loc 1 389 8 is_stmt 1 view .LVU171
 700 005a 094A     		ldr	r2, .L61
 701 005c 936C     		ldr	r3, [r2, #72]
 702 005e 89B2     		uxth	r1, r1
 703              	.LVL60:
 704              		.loc 1 389 8 is_stmt 0 view .LVU172
 705 0060 23EA0101 		bic	r1, r3, r1
 706 0064 9164     		str	r1, [r2, #72]
ARM GAS  /tmp/ccWGtOKe.s 			page 21


 390:Drivers/STM32G4xx_HAL_Driver/Src/stm32g4xx_hal_pwr_ex.c ****        break;
 707              		.loc 1 390 8 is_stmt 1 view .LVU173
 366:Drivers/STM32G4xx_HAL_Driver/Src/stm32g4xx_hal_pwr_ex.c **** 
 708              		.loc 1 366 21 is_stmt 0 view .LVU174
 709 0066 0020     		movs	r0, #0
 710              	.LVL61:
 711              		.loc 1 390 8 view .LVU175
 712 0068 7047     		bx	lr
 713              	.LVL62:
 714              	.L52:
 391:Drivers/STM32G4xx_HAL_Driver/Src/stm32g4xx_hal_pwr_ex.c ****     case PWR_GPIO_G:
 392:Drivers/STM32G4xx_HAL_Driver/Src/stm32g4xx_hal_pwr_ex.c ****        CLEAR_BIT(PWR->PUCRG, (GPIONumber & PWR_PORTG_AVAILABLE_PINS));
 715              		.loc 1 392 8 is_stmt 1 view .LVU176
 716 006a 054A     		ldr	r2, .L61
 717 006c 136D     		ldr	r3, [r2, #80]
 718 006e C1F30A01 		ubfx	r1, r1, #0, #11
 719              	.LVL63:
 720              		.loc 1 392 8 is_stmt 0 view .LVU177
 721 0072 23EA0101 		bic	r1, r3, r1
 722 0076 1165     		str	r1, [r2, #80]
 393:Drivers/STM32G4xx_HAL_Driver/Src/stm32g4xx_hal_pwr_ex.c ****        break;
 723              		.loc 1 393 8 is_stmt 1 view .LVU178
 366:Drivers/STM32G4xx_HAL_Driver/Src/stm32g4xx_hal_pwr_ex.c **** 
 724              		.loc 1 366 21 is_stmt 0 view .LVU179
 725 0078 0020     		movs	r0, #0
 726              	.LVL64:
 727              		.loc 1 393 8 view .LVU180
 728 007a 7047     		bx	lr
 729              	.LVL65:
 730              	.L60:
 366:Drivers/STM32G4xx_HAL_Driver/Src/stm32g4xx_hal_pwr_ex.c **** 
 731              		.loc 1 366 21 view .LVU181
 732 007c 0120     		movs	r0, #1
 733              	.LVL66:
 394:Drivers/STM32G4xx_HAL_Driver/Src/stm32g4xx_hal_pwr_ex.c ****     default:
 395:Drivers/STM32G4xx_HAL_Driver/Src/stm32g4xx_hal_pwr_ex.c ****        status = HAL_ERROR;
 396:Drivers/STM32G4xx_HAL_Driver/Src/stm32g4xx_hal_pwr_ex.c ****        break;
 397:Drivers/STM32G4xx_HAL_Driver/Src/stm32g4xx_hal_pwr_ex.c ****   }
 398:Drivers/STM32G4xx_HAL_Driver/Src/stm32g4xx_hal_pwr_ex.c **** 
 399:Drivers/STM32G4xx_HAL_Driver/Src/stm32g4xx_hal_pwr_ex.c ****   return status;
 734              		.loc 1 399 3 is_stmt 1 view .LVU182
 400:Drivers/STM32G4xx_HAL_Driver/Src/stm32g4xx_hal_pwr_ex.c **** }
 735              		.loc 1 400 1 is_stmt 0 view .LVU183
 736 007e 7047     		bx	lr
 737              	.L62:
 738              		.align	2
 739              	.L61:
 740 0080 00700040 		.word	1073770496
 741              		.cfi_endproc
 742              	.LFE169:
 744              		.section	.text.HAL_PWREx_EnableGPIOPullDown,"ax",%progbits
 745              		.align	1
 746              		.global	HAL_PWREx_EnableGPIOPullDown
 747              		.syntax unified
 748              		.thumb
 749              		.thumb_func
 750              		.fpu fpv4-sp-d16
ARM GAS  /tmp/ccWGtOKe.s 			page 22


 752              	HAL_PWREx_EnableGPIOPullDown:
 753              	.LVL67:
 754              	.LFB170:
 401:Drivers/STM32G4xx_HAL_Driver/Src/stm32g4xx_hal_pwr_ex.c **** 
 402:Drivers/STM32G4xx_HAL_Driver/Src/stm32g4xx_hal_pwr_ex.c **** 
 403:Drivers/STM32G4xx_HAL_Driver/Src/stm32g4xx_hal_pwr_ex.c **** 
 404:Drivers/STM32G4xx_HAL_Driver/Src/stm32g4xx_hal_pwr_ex.c **** /**
 405:Drivers/STM32G4xx_HAL_Driver/Src/stm32g4xx_hal_pwr_ex.c ****   * @brief Enable GPIO pull-down state in Standby and Shutdown modes.
 406:Drivers/STM32G4xx_HAL_Driver/Src/stm32g4xx_hal_pwr_ex.c ****   * @note  Set the relevant PDy bits of PWR_PDCRx register to configure the I/O in
 407:Drivers/STM32G4xx_HAL_Driver/Src/stm32g4xx_hal_pwr_ex.c ****   *        pull-down state in Standby and Shutdown modes.
 408:Drivers/STM32G4xx_HAL_Driver/Src/stm32g4xx_hal_pwr_ex.c ****   * @note  This state is effective in Standby and Shutdown modes only if APC bit
 409:Drivers/STM32G4xx_HAL_Driver/Src/stm32g4xx_hal_pwr_ex.c ****   *        is set through HAL_PWREx_EnablePullUpPullDownConfig() API.
 410:Drivers/STM32G4xx_HAL_Driver/Src/stm32g4xx_hal_pwr_ex.c ****   * @note  The configuration is lost when exiting the Shutdown mode due to the
 411:Drivers/STM32G4xx_HAL_Driver/Src/stm32g4xx_hal_pwr_ex.c ****   *        power-on reset, maintained when exiting the Standby mode.
 412:Drivers/STM32G4xx_HAL_Driver/Src/stm32g4xx_hal_pwr_ex.c ****   * @note  To avoid any conflict at Standby and Shutdown modes exits, the corresponding
 413:Drivers/STM32G4xx_HAL_Driver/Src/stm32g4xx_hal_pwr_ex.c ****   *        PUy bit of PWR_PUCRx register is cleared unless it is reserved.
 414:Drivers/STM32G4xx_HAL_Driver/Src/stm32g4xx_hal_pwr_ex.c ****   * @note  Even if a PDy bit to set is reserved, the other PDy bits entered as input
 415:Drivers/STM32G4xx_HAL_Driver/Src/stm32g4xx_hal_pwr_ex.c ****   *        parameter at the same time are set.
 416:Drivers/STM32G4xx_HAL_Driver/Src/stm32g4xx_hal_pwr_ex.c ****   * @param  GPIO: Specify the IO port. This parameter can be PWR_GPIO_A..PWR_GPIO_G
 417:Drivers/STM32G4xx_HAL_Driver/Src/stm32g4xx_hal_pwr_ex.c ****   *         (or PWR_GPIO_I depending on the devices) to select the GPIO peripheral.
 418:Drivers/STM32G4xx_HAL_Driver/Src/stm32g4xx_hal_pwr_ex.c ****   * @param  GPIONumber: Specify the I/O pins numbers.
 419:Drivers/STM32G4xx_HAL_Driver/Src/stm32g4xx_hal_pwr_ex.c ****   *         This parameter can be one of the following values:
 420:Drivers/STM32G4xx_HAL_Driver/Src/stm32g4xx_hal_pwr_ex.c ****   *         PWR_GPIO_BIT_0, ..., PWR_GPIO_BIT_15 (except for the port where less
 421:Drivers/STM32G4xx_HAL_Driver/Src/stm32g4xx_hal_pwr_ex.c ****   *         I/O pins are available) or the logical OR of several of them to set
 422:Drivers/STM32G4xx_HAL_Driver/Src/stm32g4xx_hal_pwr_ex.c ****   *         several bits for a given port in a single API call.
 423:Drivers/STM32G4xx_HAL_Driver/Src/stm32g4xx_hal_pwr_ex.c ****   * @retval HAL Status
 424:Drivers/STM32G4xx_HAL_Driver/Src/stm32g4xx_hal_pwr_ex.c ****   */
 425:Drivers/STM32G4xx_HAL_Driver/Src/stm32g4xx_hal_pwr_ex.c **** HAL_StatusTypeDef HAL_PWREx_EnableGPIOPullDown(uint32_t GPIO, uint32_t GPIONumber)
 426:Drivers/STM32G4xx_HAL_Driver/Src/stm32g4xx_hal_pwr_ex.c **** {
 755              		.loc 1 426 1 is_stmt 1 view -0
 756              		.cfi_startproc
 757              		@ args = 0, pretend = 0, frame = 0
 758              		@ frame_needed = 0, uses_anonymous_args = 0
 759              		@ link register save eliminated.
 427:Drivers/STM32G4xx_HAL_Driver/Src/stm32g4xx_hal_pwr_ex.c ****   HAL_StatusTypeDef status = HAL_OK;
 760              		.loc 1 427 3 view .LVU185
 428:Drivers/STM32G4xx_HAL_Driver/Src/stm32g4xx_hal_pwr_ex.c **** 
 429:Drivers/STM32G4xx_HAL_Driver/Src/stm32g4xx_hal_pwr_ex.c ****   assert_param(IS_PWR_GPIO(GPIO));
 761              		.loc 1 429 3 view .LVU186
 430:Drivers/STM32G4xx_HAL_Driver/Src/stm32g4xx_hal_pwr_ex.c ****   assert_param(IS_PWR_GPIO_BIT_NUMBER(GPIONumber));
 762              		.loc 1 430 3 view .LVU187
 431:Drivers/STM32G4xx_HAL_Driver/Src/stm32g4xx_hal_pwr_ex.c **** 
 432:Drivers/STM32G4xx_HAL_Driver/Src/stm32g4xx_hal_pwr_ex.c ****   switch (GPIO)
 763              		.loc 1 432 3 view .LVU188
 764 0000 0628     		cmp	r0, #6
 765 0002 56D8     		bhi	.L73
 766 0004 DFE800F0 		tbb	[pc, r0]
 767              	.L66:
 768 0008 04       		.byte	(.L72-.L66)/2
 769 0009 12       		.byte	(.L71-.L66)/2
 770 000a 1E       		.byte	(.L70-.L66)/2
 771 000b 28       		.byte	(.L69-.L66)/2
 772 000c 32       		.byte	(.L68-.L66)/2
 773 000d 3C       		.byte	(.L67-.L66)/2
 774 000e 47       		.byte	(.L65-.L66)/2
 775 000f 00       		.p2align 1
 776              	.L72:
ARM GAS  /tmp/ccWGtOKe.s 			page 23


 433:Drivers/STM32G4xx_HAL_Driver/Src/stm32g4xx_hal_pwr_ex.c ****   {
 434:Drivers/STM32G4xx_HAL_Driver/Src/stm32g4xx_hal_pwr_ex.c ****     case PWR_GPIO_A:
 435:Drivers/STM32G4xx_HAL_Driver/Src/stm32g4xx_hal_pwr_ex.c ****        SET_BIT(PWR->PDCRA, (GPIONumber & (~(PWR_GPIO_BIT_13|PWR_GPIO_BIT_15))));
 777              		.loc 1 435 8 view .LVU189
 778 0010 294B     		ldr	r3, .L74
 779 0012 5A6A     		ldr	r2, [r3, #36]
 780 0014 21F42040 		bic	r0, r1, #40960
 781              	.LVL68:
 782              		.loc 1 435 8 is_stmt 0 view .LVU190
 783 0018 0243     		orrs	r2, r2, r0
 784 001a 5A62     		str	r2, [r3, #36]
 436:Drivers/STM32G4xx_HAL_Driver/Src/stm32g4xx_hal_pwr_ex.c ****        CLEAR_BIT(PWR->PUCRA, (GPIONumber & (~(PWR_GPIO_BIT_14))));
 785              		.loc 1 436 8 is_stmt 1 view .LVU191
 786 001c 1A6A     		ldr	r2, [r3, #32]
 787 001e 21F48041 		bic	r1, r1, #16384
 788              	.LVL69:
 789              		.loc 1 436 8 is_stmt 0 view .LVU192
 790 0022 22EA0101 		bic	r1, r2, r1
 791 0026 1962     		str	r1, [r3, #32]
 437:Drivers/STM32G4xx_HAL_Driver/Src/stm32g4xx_hal_pwr_ex.c ****        break;
 792              		.loc 1 437 8 is_stmt 1 view .LVU193
 427:Drivers/STM32G4xx_HAL_Driver/Src/stm32g4xx_hal_pwr_ex.c **** 
 793              		.loc 1 427 21 is_stmt 0 view .LVU194
 794 0028 0020     		movs	r0, #0
 795              		.loc 1 437 8 view .LVU195
 796 002a 7047     		bx	lr
 797              	.LVL70:
 798              	.L71:
 438:Drivers/STM32G4xx_HAL_Driver/Src/stm32g4xx_hal_pwr_ex.c ****     case PWR_GPIO_B:
 439:Drivers/STM32G4xx_HAL_Driver/Src/stm32g4xx_hal_pwr_ex.c ****        SET_BIT(PWR->PDCRB, (GPIONumber & (~(PWR_GPIO_BIT_4))));
 799              		.loc 1 439 8 is_stmt 1 view .LVU196
 800 002c 224B     		ldr	r3, .L74
 801 002e DA6A     		ldr	r2, [r3, #44]
 802 0030 21F01000 		bic	r0, r1, #16
 803              	.LVL71:
 804              		.loc 1 439 8 is_stmt 0 view .LVU197
 805 0034 0243     		orrs	r2, r2, r0
 806 0036 DA62     		str	r2, [r3, #44]
 440:Drivers/STM32G4xx_HAL_Driver/Src/stm32g4xx_hal_pwr_ex.c ****        CLEAR_BIT(PWR->PUCRB, GPIONumber);
 807              		.loc 1 440 8 is_stmt 1 view .LVU198
 808 0038 9A6A     		ldr	r2, [r3, #40]
 809 003a 22EA0101 		bic	r1, r2, r1
 810              	.LVL72:
 811              		.loc 1 440 8 is_stmt 0 view .LVU199
 812 003e 9962     		str	r1, [r3, #40]
 441:Drivers/STM32G4xx_HAL_Driver/Src/stm32g4xx_hal_pwr_ex.c ****        break;
 813              		.loc 1 441 8 is_stmt 1 view .LVU200
 427:Drivers/STM32G4xx_HAL_Driver/Src/stm32g4xx_hal_pwr_ex.c **** 
 814              		.loc 1 427 21 is_stmt 0 view .LVU201
 815 0040 0020     		movs	r0, #0
 816              		.loc 1 441 8 view .LVU202
 817 0042 7047     		bx	lr
 818              	.LVL73:
 819              	.L70:
 442:Drivers/STM32G4xx_HAL_Driver/Src/stm32g4xx_hal_pwr_ex.c ****     case PWR_GPIO_C:
 443:Drivers/STM32G4xx_HAL_Driver/Src/stm32g4xx_hal_pwr_ex.c ****        SET_BIT(PWR->PDCRC, GPIONumber);
 820              		.loc 1 443 8 is_stmt 1 view .LVU203
ARM GAS  /tmp/ccWGtOKe.s 			page 24


 821 0044 1C4B     		ldr	r3, .L74
 822 0046 5A6B     		ldr	r2, [r3, #52]
 823 0048 0A43     		orrs	r2, r2, r1
 824 004a 5A63     		str	r2, [r3, #52]
 444:Drivers/STM32G4xx_HAL_Driver/Src/stm32g4xx_hal_pwr_ex.c ****        CLEAR_BIT(PWR->PUCRC, GPIONumber);
 825              		.loc 1 444 8 view .LVU204
 826 004c 1A6B     		ldr	r2, [r3, #48]
 827 004e 22EA0101 		bic	r1, r2, r1
 828              	.LVL74:
 829              		.loc 1 444 8 is_stmt 0 view .LVU205
 830 0052 1963     		str	r1, [r3, #48]
 445:Drivers/STM32G4xx_HAL_Driver/Src/stm32g4xx_hal_pwr_ex.c ****        break;
 831              		.loc 1 445 8 is_stmt 1 view .LVU206
 427:Drivers/STM32G4xx_HAL_Driver/Src/stm32g4xx_hal_pwr_ex.c **** 
 832              		.loc 1 427 21 is_stmt 0 view .LVU207
 833 0054 0020     		movs	r0, #0
 834              	.LVL75:
 835              		.loc 1 445 8 view .LVU208
 836 0056 7047     		bx	lr
 837              	.LVL76:
 838              	.L69:
 446:Drivers/STM32G4xx_HAL_Driver/Src/stm32g4xx_hal_pwr_ex.c ****     case PWR_GPIO_D:
 447:Drivers/STM32G4xx_HAL_Driver/Src/stm32g4xx_hal_pwr_ex.c ****        SET_BIT(PWR->PDCRD, GPIONumber);
 839              		.loc 1 447 8 is_stmt 1 view .LVU209
 840 0058 174B     		ldr	r3, .L74
 841 005a DA6B     		ldr	r2, [r3, #60]
 842 005c 0A43     		orrs	r2, r2, r1
 843 005e DA63     		str	r2, [r3, #60]
 448:Drivers/STM32G4xx_HAL_Driver/Src/stm32g4xx_hal_pwr_ex.c ****        CLEAR_BIT(PWR->PUCRD, GPIONumber);
 844              		.loc 1 448 8 view .LVU210
 845 0060 9A6B     		ldr	r2, [r3, #56]
 846 0062 22EA0101 		bic	r1, r2, r1
 847              	.LVL77:
 848              		.loc 1 448 8 is_stmt 0 view .LVU211
 849 0066 9963     		str	r1, [r3, #56]
 449:Drivers/STM32G4xx_HAL_Driver/Src/stm32g4xx_hal_pwr_ex.c ****        break;
 850              		.loc 1 449 8 is_stmt 1 view .LVU212
 427:Drivers/STM32G4xx_HAL_Driver/Src/stm32g4xx_hal_pwr_ex.c **** 
 851              		.loc 1 427 21 is_stmt 0 view .LVU213
 852 0068 0020     		movs	r0, #0
 853              	.LVL78:
 854              		.loc 1 449 8 view .LVU214
 855 006a 7047     		bx	lr
 856              	.LVL79:
 857              	.L68:
 450:Drivers/STM32G4xx_HAL_Driver/Src/stm32g4xx_hal_pwr_ex.c ****     case PWR_GPIO_E:
 451:Drivers/STM32G4xx_HAL_Driver/Src/stm32g4xx_hal_pwr_ex.c ****        SET_BIT(PWR->PDCRE, GPIONumber);
 858              		.loc 1 451 8 is_stmt 1 view .LVU215
 859 006c 124B     		ldr	r3, .L74
 860 006e 5A6C     		ldr	r2, [r3, #68]
 861 0070 0A43     		orrs	r2, r2, r1
 862 0072 5A64     		str	r2, [r3, #68]
 452:Drivers/STM32G4xx_HAL_Driver/Src/stm32g4xx_hal_pwr_ex.c ****        CLEAR_BIT(PWR->PUCRE, GPIONumber);
 863              		.loc 1 452 8 view .LVU216
 864 0074 1A6C     		ldr	r2, [r3, #64]
 865 0076 22EA0101 		bic	r1, r2, r1
 866              	.LVL80:
ARM GAS  /tmp/ccWGtOKe.s 			page 25


 867              		.loc 1 452 8 is_stmt 0 view .LVU217
 868 007a 1964     		str	r1, [r3, #64]
 453:Drivers/STM32G4xx_HAL_Driver/Src/stm32g4xx_hal_pwr_ex.c ****        break;
 869              		.loc 1 453 8 is_stmt 1 view .LVU218
 427:Drivers/STM32G4xx_HAL_Driver/Src/stm32g4xx_hal_pwr_ex.c **** 
 870              		.loc 1 427 21 is_stmt 0 view .LVU219
 871 007c 0020     		movs	r0, #0
 872              	.LVL81:
 873              		.loc 1 453 8 view .LVU220
 874 007e 7047     		bx	lr
 875              	.LVL82:
 876              	.L67:
 454:Drivers/STM32G4xx_HAL_Driver/Src/stm32g4xx_hal_pwr_ex.c ****     case PWR_GPIO_F:
 455:Drivers/STM32G4xx_HAL_Driver/Src/stm32g4xx_hal_pwr_ex.c ****        SET_BIT(PWR->PDCRF, (GPIONumber & PWR_PORTF_AVAILABLE_PINS));
 877              		.loc 1 455 8 is_stmt 1 view .LVU221
 878 0080 0D4B     		ldr	r3, .L74
 879 0082 DA6C     		ldr	r2, [r3, #76]
 880 0084 89B2     		uxth	r1, r1
 881              	.LVL83:
 882              		.loc 1 455 8 is_stmt 0 view .LVU222
 883 0086 0A43     		orrs	r2, r2, r1
 884 0088 DA64     		str	r2, [r3, #76]
 456:Drivers/STM32G4xx_HAL_Driver/Src/stm32g4xx_hal_pwr_ex.c ****        CLEAR_BIT(PWR->PUCRF, (GPIONumber & PWR_PORTF_AVAILABLE_PINS));
 885              		.loc 1 456 8 is_stmt 1 view .LVU223
 886 008a 9A6C     		ldr	r2, [r3, #72]
 887 008c 22EA0101 		bic	r1, r2, r1
 888 0090 9964     		str	r1, [r3, #72]
 457:Drivers/STM32G4xx_HAL_Driver/Src/stm32g4xx_hal_pwr_ex.c ****        break;
 889              		.loc 1 457 8 view .LVU224
 427:Drivers/STM32G4xx_HAL_Driver/Src/stm32g4xx_hal_pwr_ex.c **** 
 890              		.loc 1 427 21 is_stmt 0 view .LVU225
 891 0092 0020     		movs	r0, #0
 892              	.LVL84:
 893              		.loc 1 457 8 view .LVU226
 894 0094 7047     		bx	lr
 895              	.LVL85:
 896              	.L65:
 458:Drivers/STM32G4xx_HAL_Driver/Src/stm32g4xx_hal_pwr_ex.c ****     case PWR_GPIO_G:
 459:Drivers/STM32G4xx_HAL_Driver/Src/stm32g4xx_hal_pwr_ex.c ****        SET_BIT(PWR->PDCRG, ((GPIONumber & PWR_PORTG_AVAILABLE_PINS) & (~(PWR_GPIO_BIT_10))));
 897              		.loc 1 459 8 is_stmt 1 view .LVU227
 898 0096 084B     		ldr	r3, .L74
 899 0098 5A6D     		ldr	r2, [r3, #84]
 900 009a C1F30900 		ubfx	r0, r1, #0, #10
 901              	.LVL86:
 902              		.loc 1 459 8 is_stmt 0 view .LVU228
 903 009e 0243     		orrs	r2, r2, r0
 904 00a0 5A65     		str	r2, [r3, #84]
 460:Drivers/STM32G4xx_HAL_Driver/Src/stm32g4xx_hal_pwr_ex.c ****        CLEAR_BIT(PWR->PUCRG, (GPIONumber & PWR_PORTG_AVAILABLE_PINS));
 905              		.loc 1 460 8 is_stmt 1 view .LVU229
 906 00a2 1A6D     		ldr	r2, [r3, #80]
 907 00a4 C1F30A01 		ubfx	r1, r1, #0, #11
 908              	.LVL87:
 909              		.loc 1 460 8 is_stmt 0 view .LVU230
 910 00a8 22EA0101 		bic	r1, r2, r1
 911 00ac 1965     		str	r1, [r3, #80]
 461:Drivers/STM32G4xx_HAL_Driver/Src/stm32g4xx_hal_pwr_ex.c ****        break;
 912              		.loc 1 461 8 is_stmt 1 view .LVU231
ARM GAS  /tmp/ccWGtOKe.s 			page 26


 427:Drivers/STM32G4xx_HAL_Driver/Src/stm32g4xx_hal_pwr_ex.c **** 
 913              		.loc 1 427 21 is_stmt 0 view .LVU232
 914 00ae 0020     		movs	r0, #0
 915              		.loc 1 461 8 view .LVU233
 916 00b0 7047     		bx	lr
 917              	.LVL88:
 918              	.L73:
 427:Drivers/STM32G4xx_HAL_Driver/Src/stm32g4xx_hal_pwr_ex.c **** 
 919              		.loc 1 427 21 view .LVU234
 920 00b2 0120     		movs	r0, #1
 921              	.LVL89:
 462:Drivers/STM32G4xx_HAL_Driver/Src/stm32g4xx_hal_pwr_ex.c ****     default:
 463:Drivers/STM32G4xx_HAL_Driver/Src/stm32g4xx_hal_pwr_ex.c ****       status = HAL_ERROR;
 464:Drivers/STM32G4xx_HAL_Driver/Src/stm32g4xx_hal_pwr_ex.c ****       break;
 465:Drivers/STM32G4xx_HAL_Driver/Src/stm32g4xx_hal_pwr_ex.c ****   }
 466:Drivers/STM32G4xx_HAL_Driver/Src/stm32g4xx_hal_pwr_ex.c **** 
 467:Drivers/STM32G4xx_HAL_Driver/Src/stm32g4xx_hal_pwr_ex.c ****   return status;
 922              		.loc 1 467 3 is_stmt 1 view .LVU235
 468:Drivers/STM32G4xx_HAL_Driver/Src/stm32g4xx_hal_pwr_ex.c **** }
 923              		.loc 1 468 1 is_stmt 0 view .LVU236
 924 00b4 7047     		bx	lr
 925              	.L75:
 926 00b6 00BF     		.align	2
 927              	.L74:
 928 00b8 00700040 		.word	1073770496
 929              		.cfi_endproc
 930              	.LFE170:
 932              		.section	.text.HAL_PWREx_DisableGPIOPullDown,"ax",%progbits
 933              		.align	1
 934              		.global	HAL_PWREx_DisableGPIOPullDown
 935              		.syntax unified
 936              		.thumb
 937              		.thumb_func
 938              		.fpu fpv4-sp-d16
 940              	HAL_PWREx_DisableGPIOPullDown:
 941              	.LVL90:
 942              	.LFB171:
 469:Drivers/STM32G4xx_HAL_Driver/Src/stm32g4xx_hal_pwr_ex.c **** 
 470:Drivers/STM32G4xx_HAL_Driver/Src/stm32g4xx_hal_pwr_ex.c **** 
 471:Drivers/STM32G4xx_HAL_Driver/Src/stm32g4xx_hal_pwr_ex.c **** /**
 472:Drivers/STM32G4xx_HAL_Driver/Src/stm32g4xx_hal_pwr_ex.c ****   * @brief Disable GPIO pull-down state in Standby and Shutdown modes.
 473:Drivers/STM32G4xx_HAL_Driver/Src/stm32g4xx_hal_pwr_ex.c ****   * @note  Reset the relevant PDy bits of PWR_PDCRx register used to configure the I/O
 474:Drivers/STM32G4xx_HAL_Driver/Src/stm32g4xx_hal_pwr_ex.c ****   *        in pull-down state in Standby and Shutdown modes.
 475:Drivers/STM32G4xx_HAL_Driver/Src/stm32g4xx_hal_pwr_ex.c ****   * @note  Even if a PDy bit to reset is reserved, the other PDy bits entered as input
 476:Drivers/STM32G4xx_HAL_Driver/Src/stm32g4xx_hal_pwr_ex.c ****   *        parameter at the same time are reset.
 477:Drivers/STM32G4xx_HAL_Driver/Src/stm32g4xx_hal_pwr_ex.c ****   * @param  GPIO: Specifies the IO port. This parameter can be PWR_GPIO_A..PWR_GPIO_G
 478:Drivers/STM32G4xx_HAL_Driver/Src/stm32g4xx_hal_pwr_ex.c ****   *         (or PWR_GPIO_I depending on the devices) to select the GPIO peripheral.
 479:Drivers/STM32G4xx_HAL_Driver/Src/stm32g4xx_hal_pwr_ex.c ****   * @param  GPIONumber: Specify the I/O pins numbers.
 480:Drivers/STM32G4xx_HAL_Driver/Src/stm32g4xx_hal_pwr_ex.c ****   *         This parameter can be one of the following values:
 481:Drivers/STM32G4xx_HAL_Driver/Src/stm32g4xx_hal_pwr_ex.c ****   *         PWR_GPIO_BIT_0, ..., PWR_GPIO_BIT_15 (except for the port where less
 482:Drivers/STM32G4xx_HAL_Driver/Src/stm32g4xx_hal_pwr_ex.c ****   *         I/O pins are available) or the logical OR of several of them to reset
 483:Drivers/STM32G4xx_HAL_Driver/Src/stm32g4xx_hal_pwr_ex.c ****   *         several bits for a given port in a single API call.
 484:Drivers/STM32G4xx_HAL_Driver/Src/stm32g4xx_hal_pwr_ex.c ****   * @retval HAL Status
 485:Drivers/STM32G4xx_HAL_Driver/Src/stm32g4xx_hal_pwr_ex.c ****   */
 486:Drivers/STM32G4xx_HAL_Driver/Src/stm32g4xx_hal_pwr_ex.c **** HAL_StatusTypeDef HAL_PWREx_DisableGPIOPullDown(uint32_t GPIO, uint32_t GPIONumber)
 487:Drivers/STM32G4xx_HAL_Driver/Src/stm32g4xx_hal_pwr_ex.c **** {
 943              		.loc 1 487 1 is_stmt 1 view -0
ARM GAS  /tmp/ccWGtOKe.s 			page 27


 944              		.cfi_startproc
 945              		@ args = 0, pretend = 0, frame = 0
 946              		@ frame_needed = 0, uses_anonymous_args = 0
 947              		@ link register save eliminated.
 488:Drivers/STM32G4xx_HAL_Driver/Src/stm32g4xx_hal_pwr_ex.c ****   HAL_StatusTypeDef status = HAL_OK;
 948              		.loc 1 488 3 view .LVU238
 489:Drivers/STM32G4xx_HAL_Driver/Src/stm32g4xx_hal_pwr_ex.c **** 
 490:Drivers/STM32G4xx_HAL_Driver/Src/stm32g4xx_hal_pwr_ex.c ****   assert_param(IS_PWR_GPIO(GPIO));
 949              		.loc 1 490 3 view .LVU239
 491:Drivers/STM32G4xx_HAL_Driver/Src/stm32g4xx_hal_pwr_ex.c ****   assert_param(IS_PWR_GPIO_BIT_NUMBER(GPIONumber));
 950              		.loc 1 491 3 view .LVU240
 492:Drivers/STM32G4xx_HAL_Driver/Src/stm32g4xx_hal_pwr_ex.c **** 
 493:Drivers/STM32G4xx_HAL_Driver/Src/stm32g4xx_hal_pwr_ex.c ****   switch (GPIO)
 951              		.loc 1 493 3 view .LVU241
 952 0000 0628     		cmp	r0, #6
 953 0002 3DD8     		bhi	.L86
 954 0004 DFE800F0 		tbb	[pc, r0]
 955              	.L79:
 956 0008 04       		.byte	(.L85-.L79)/2
 957 0009 0D       		.byte	(.L84-.L79)/2
 958 000a 16       		.byte	(.L83-.L79)/2
 959 000b 1D       		.byte	(.L82-.L79)/2
 960 000c 24       		.byte	(.L81-.L79)/2
 961 000d 2B       		.byte	(.L80-.L79)/2
 962 000e 33       		.byte	(.L78-.L79)/2
 963 000f 00       		.p2align 1
 964              	.L85:
 494:Drivers/STM32G4xx_HAL_Driver/Src/stm32g4xx_hal_pwr_ex.c ****   {
 495:Drivers/STM32G4xx_HAL_Driver/Src/stm32g4xx_hal_pwr_ex.c ****     case PWR_GPIO_A:
 496:Drivers/STM32G4xx_HAL_Driver/Src/stm32g4xx_hal_pwr_ex.c ****        CLEAR_BIT(PWR->PDCRA, (GPIONumber & (~(PWR_GPIO_BIT_13|PWR_GPIO_BIT_15))));
 965              		.loc 1 496 8 view .LVU242
 966 0010 1C4A     		ldr	r2, .L87
 967 0012 536A     		ldr	r3, [r2, #36]
 968 0014 21F42041 		bic	r1, r1, #40960
 969              	.LVL91:
 970              		.loc 1 496 8 is_stmt 0 view .LVU243
 971 0018 23EA0101 		bic	r1, r3, r1
 972 001c 5162     		str	r1, [r2, #36]
 497:Drivers/STM32G4xx_HAL_Driver/Src/stm32g4xx_hal_pwr_ex.c ****        break;
 973              		.loc 1 497 8 is_stmt 1 view .LVU244
 488:Drivers/STM32G4xx_HAL_Driver/Src/stm32g4xx_hal_pwr_ex.c **** 
 974              		.loc 1 488 21 is_stmt 0 view .LVU245
 975 001e 0020     		movs	r0, #0
 976              	.LVL92:
 977              		.loc 1 497 8 view .LVU246
 978 0020 7047     		bx	lr
 979              	.LVL93:
 980              	.L84:
 498:Drivers/STM32G4xx_HAL_Driver/Src/stm32g4xx_hal_pwr_ex.c ****     case PWR_GPIO_B:
 499:Drivers/STM32G4xx_HAL_Driver/Src/stm32g4xx_hal_pwr_ex.c ****        CLEAR_BIT(PWR->PDCRB, (GPIONumber & (~(PWR_GPIO_BIT_4))));
 981              		.loc 1 499 8 is_stmt 1 view .LVU247
 982 0022 184A     		ldr	r2, .L87
 983 0024 D36A     		ldr	r3, [r2, #44]
 984 0026 21F01001 		bic	r1, r1, #16
 985              	.LVL94:
 986              		.loc 1 499 8 is_stmt 0 view .LVU248
 987 002a 23EA0101 		bic	r1, r3, r1
ARM GAS  /tmp/ccWGtOKe.s 			page 28


 988 002e D162     		str	r1, [r2, #44]
 500:Drivers/STM32G4xx_HAL_Driver/Src/stm32g4xx_hal_pwr_ex.c ****        break;
 989              		.loc 1 500 8 is_stmt 1 view .LVU249
 488:Drivers/STM32G4xx_HAL_Driver/Src/stm32g4xx_hal_pwr_ex.c **** 
 990              		.loc 1 488 21 is_stmt 0 view .LVU250
 991 0030 0020     		movs	r0, #0
 992              	.LVL95:
 993              		.loc 1 500 8 view .LVU251
 994 0032 7047     		bx	lr
 995              	.LVL96:
 996              	.L83:
 501:Drivers/STM32G4xx_HAL_Driver/Src/stm32g4xx_hal_pwr_ex.c ****     case PWR_GPIO_C:
 502:Drivers/STM32G4xx_HAL_Driver/Src/stm32g4xx_hal_pwr_ex.c ****        CLEAR_BIT(PWR->PDCRC, GPIONumber);
 997              		.loc 1 502 8 is_stmt 1 view .LVU252
 998 0034 134A     		ldr	r2, .L87
 999 0036 536B     		ldr	r3, [r2, #52]
 1000 0038 23EA0101 		bic	r1, r3, r1
 1001              	.LVL97:
 1002              		.loc 1 502 8 is_stmt 0 view .LVU253
 1003 003c 5163     		str	r1, [r2, #52]
 503:Drivers/STM32G4xx_HAL_Driver/Src/stm32g4xx_hal_pwr_ex.c ****        break;
 1004              		.loc 1 503 8 is_stmt 1 view .LVU254
 488:Drivers/STM32G4xx_HAL_Driver/Src/stm32g4xx_hal_pwr_ex.c **** 
 1005              		.loc 1 488 21 is_stmt 0 view .LVU255
 1006 003e 0020     		movs	r0, #0
 1007              	.LVL98:
 1008              		.loc 1 503 8 view .LVU256
 1009 0040 7047     		bx	lr
 1010              	.LVL99:
 1011              	.L82:
 504:Drivers/STM32G4xx_HAL_Driver/Src/stm32g4xx_hal_pwr_ex.c ****     case PWR_GPIO_D:
 505:Drivers/STM32G4xx_HAL_Driver/Src/stm32g4xx_hal_pwr_ex.c ****        CLEAR_BIT(PWR->PDCRD, GPIONumber);
 1012              		.loc 1 505 8 is_stmt 1 view .LVU257
 1013 0042 104A     		ldr	r2, .L87
 1014 0044 D36B     		ldr	r3, [r2, #60]
 1015 0046 23EA0101 		bic	r1, r3, r1
 1016              	.LVL100:
 1017              		.loc 1 505 8 is_stmt 0 view .LVU258
 1018 004a D163     		str	r1, [r2, #60]
 506:Drivers/STM32G4xx_HAL_Driver/Src/stm32g4xx_hal_pwr_ex.c ****        break;
 1019              		.loc 1 506 8 is_stmt 1 view .LVU259
 488:Drivers/STM32G4xx_HAL_Driver/Src/stm32g4xx_hal_pwr_ex.c **** 
 1020              		.loc 1 488 21 is_stmt 0 view .LVU260
 1021 004c 0020     		movs	r0, #0
 1022              	.LVL101:
 1023              		.loc 1 506 8 view .LVU261
 1024 004e 7047     		bx	lr
 1025              	.LVL102:
 1026              	.L81:
 507:Drivers/STM32G4xx_HAL_Driver/Src/stm32g4xx_hal_pwr_ex.c ****     case PWR_GPIO_E:
 508:Drivers/STM32G4xx_HAL_Driver/Src/stm32g4xx_hal_pwr_ex.c ****        CLEAR_BIT(PWR->PDCRE, GPIONumber);
 1027              		.loc 1 508 8 is_stmt 1 view .LVU262
 1028 0050 0C4A     		ldr	r2, .L87
 1029 0052 536C     		ldr	r3, [r2, #68]
 1030 0054 23EA0101 		bic	r1, r3, r1
 1031              	.LVL103:
 1032              		.loc 1 508 8 is_stmt 0 view .LVU263
ARM GAS  /tmp/ccWGtOKe.s 			page 29


 1033 0058 5164     		str	r1, [r2, #68]
 509:Drivers/STM32G4xx_HAL_Driver/Src/stm32g4xx_hal_pwr_ex.c ****        break;
 1034              		.loc 1 509 8 is_stmt 1 view .LVU264
 488:Drivers/STM32G4xx_HAL_Driver/Src/stm32g4xx_hal_pwr_ex.c **** 
 1035              		.loc 1 488 21 is_stmt 0 view .LVU265
 1036 005a 0020     		movs	r0, #0
 1037              	.LVL104:
 1038              		.loc 1 509 8 view .LVU266
 1039 005c 7047     		bx	lr
 1040              	.LVL105:
 1041              	.L80:
 510:Drivers/STM32G4xx_HAL_Driver/Src/stm32g4xx_hal_pwr_ex.c ****     case PWR_GPIO_F:
 511:Drivers/STM32G4xx_HAL_Driver/Src/stm32g4xx_hal_pwr_ex.c ****        CLEAR_BIT(PWR->PDCRF, (GPIONumber & PWR_PORTF_AVAILABLE_PINS));
 1042              		.loc 1 511 8 is_stmt 1 view .LVU267
 1043 005e 094A     		ldr	r2, .L87
 1044 0060 D36C     		ldr	r3, [r2, #76]
 1045 0062 89B2     		uxth	r1, r1
 1046              	.LVL106:
 1047              		.loc 1 511 8 is_stmt 0 view .LVU268
 1048 0064 23EA0101 		bic	r1, r3, r1
 1049 0068 D164     		str	r1, [r2, #76]
 512:Drivers/STM32G4xx_HAL_Driver/Src/stm32g4xx_hal_pwr_ex.c ****        break;
 1050              		.loc 1 512 8 is_stmt 1 view .LVU269
 488:Drivers/STM32G4xx_HAL_Driver/Src/stm32g4xx_hal_pwr_ex.c **** 
 1051              		.loc 1 488 21 is_stmt 0 view .LVU270
 1052 006a 0020     		movs	r0, #0
 1053              	.LVL107:
 1054              		.loc 1 512 8 view .LVU271
 1055 006c 7047     		bx	lr
 1056              	.LVL108:
 1057              	.L78:
 513:Drivers/STM32G4xx_HAL_Driver/Src/stm32g4xx_hal_pwr_ex.c ****     case PWR_GPIO_G:
 514:Drivers/STM32G4xx_HAL_Driver/Src/stm32g4xx_hal_pwr_ex.c ****        CLEAR_BIT(PWR->PDCRG, ((GPIONumber & PWR_PORTG_AVAILABLE_PINS) & (~(PWR_GPIO_BIT_10))));
 1058              		.loc 1 514 8 is_stmt 1 view .LVU272
 1059 006e 054A     		ldr	r2, .L87
 1060 0070 536D     		ldr	r3, [r2, #84]
 1061 0072 C1F30901 		ubfx	r1, r1, #0, #10
 1062              	.LVL109:
 1063              		.loc 1 514 8 is_stmt 0 view .LVU273
 1064 0076 23EA0101 		bic	r1, r3, r1
 1065 007a 5165     		str	r1, [r2, #84]
 515:Drivers/STM32G4xx_HAL_Driver/Src/stm32g4xx_hal_pwr_ex.c ****        break;
 1066              		.loc 1 515 8 is_stmt 1 view .LVU274
 488:Drivers/STM32G4xx_HAL_Driver/Src/stm32g4xx_hal_pwr_ex.c **** 
 1067              		.loc 1 488 21 is_stmt 0 view .LVU275
 1068 007c 0020     		movs	r0, #0
 1069              	.LVL110:
 1070              		.loc 1 515 8 view .LVU276
 1071 007e 7047     		bx	lr
 1072              	.LVL111:
 1073              	.L86:
 488:Drivers/STM32G4xx_HAL_Driver/Src/stm32g4xx_hal_pwr_ex.c **** 
 1074              		.loc 1 488 21 view .LVU277
 1075 0080 0120     		movs	r0, #1
 1076              	.LVL112:
 516:Drivers/STM32G4xx_HAL_Driver/Src/stm32g4xx_hal_pwr_ex.c ****     default:
 517:Drivers/STM32G4xx_HAL_Driver/Src/stm32g4xx_hal_pwr_ex.c ****       status = HAL_ERROR;
ARM GAS  /tmp/ccWGtOKe.s 			page 30


 518:Drivers/STM32G4xx_HAL_Driver/Src/stm32g4xx_hal_pwr_ex.c ****       break;
 519:Drivers/STM32G4xx_HAL_Driver/Src/stm32g4xx_hal_pwr_ex.c ****   }
 520:Drivers/STM32G4xx_HAL_Driver/Src/stm32g4xx_hal_pwr_ex.c **** 
 521:Drivers/STM32G4xx_HAL_Driver/Src/stm32g4xx_hal_pwr_ex.c ****   return status;
 1077              		.loc 1 521 3 is_stmt 1 view .LVU278
 522:Drivers/STM32G4xx_HAL_Driver/Src/stm32g4xx_hal_pwr_ex.c **** }
 1078              		.loc 1 522 1 is_stmt 0 view .LVU279
 1079 0082 7047     		bx	lr
 1080              	.L88:
 1081              		.align	2
 1082              	.L87:
 1083 0084 00700040 		.word	1073770496
 1084              		.cfi_endproc
 1085              	.LFE171:
 1087              		.section	.text.HAL_PWREx_EnablePullUpPullDownConfig,"ax",%progbits
 1088              		.align	1
 1089              		.global	HAL_PWREx_EnablePullUpPullDownConfig
 1090              		.syntax unified
 1091              		.thumb
 1092              		.thumb_func
 1093              		.fpu fpv4-sp-d16
 1095              	HAL_PWREx_EnablePullUpPullDownConfig:
 1096              	.LFB172:
 523:Drivers/STM32G4xx_HAL_Driver/Src/stm32g4xx_hal_pwr_ex.c **** 
 524:Drivers/STM32G4xx_HAL_Driver/Src/stm32g4xx_hal_pwr_ex.c **** 
 525:Drivers/STM32G4xx_HAL_Driver/Src/stm32g4xx_hal_pwr_ex.c **** 
 526:Drivers/STM32G4xx_HAL_Driver/Src/stm32g4xx_hal_pwr_ex.c **** /**
 527:Drivers/STM32G4xx_HAL_Driver/Src/stm32g4xx_hal_pwr_ex.c ****   * @brief Enable pull-up and pull-down configuration.
 528:Drivers/STM32G4xx_HAL_Driver/Src/stm32g4xx_hal_pwr_ex.c ****   * @note  When APC bit is set, the I/O pull-up and pull-down configurations defined in
 529:Drivers/STM32G4xx_HAL_Driver/Src/stm32g4xx_hal_pwr_ex.c ****   *        PWR_PUCRx and PWR_PDCRx registers are applied in Standby and Shutdown modes.
 530:Drivers/STM32G4xx_HAL_Driver/Src/stm32g4xx_hal_pwr_ex.c ****   * @note  Pull-up set by PUy bit of PWR_PUCRx register is not activated if the corresponding
 531:Drivers/STM32G4xx_HAL_Driver/Src/stm32g4xx_hal_pwr_ex.c ****   *        PDy bit of PWR_PDCRx register is also set (pull-down configuration priority is higher).
 532:Drivers/STM32G4xx_HAL_Driver/Src/stm32g4xx_hal_pwr_ex.c ****   *        HAL_PWREx_EnableGPIOPullUp() and HAL_PWREx_EnableGPIOPullDown() API's ensure there
 533:Drivers/STM32G4xx_HAL_Driver/Src/stm32g4xx_hal_pwr_ex.c ****   *        is no conflict when setting PUy or PDy bit.
 534:Drivers/STM32G4xx_HAL_Driver/Src/stm32g4xx_hal_pwr_ex.c ****   * @retval None
 535:Drivers/STM32G4xx_HAL_Driver/Src/stm32g4xx_hal_pwr_ex.c ****   */
 536:Drivers/STM32G4xx_HAL_Driver/Src/stm32g4xx_hal_pwr_ex.c **** void HAL_PWREx_EnablePullUpPullDownConfig(void)
 537:Drivers/STM32G4xx_HAL_Driver/Src/stm32g4xx_hal_pwr_ex.c **** {
 1097              		.loc 1 537 1 is_stmt 1 view -0
 1098              		.cfi_startproc
 1099              		@ args = 0, pretend = 0, frame = 0
 1100              		@ frame_needed = 0, uses_anonymous_args = 0
 1101              		@ link register save eliminated.
 538:Drivers/STM32G4xx_HAL_Driver/Src/stm32g4xx_hal_pwr_ex.c ****   SET_BIT(PWR->CR3, PWR_CR3_APC);
 1102              		.loc 1 538 3 view .LVU281
 1103 0000 024A     		ldr	r2, .L90
 1104 0002 9368     		ldr	r3, [r2, #8]
 1105 0004 43F48063 		orr	r3, r3, #1024
 1106 0008 9360     		str	r3, [r2, #8]
 539:Drivers/STM32G4xx_HAL_Driver/Src/stm32g4xx_hal_pwr_ex.c **** }
 1107              		.loc 1 539 1 is_stmt 0 view .LVU282
 1108 000a 7047     		bx	lr
 1109              	.L91:
 1110              		.align	2
 1111              	.L90:
 1112 000c 00700040 		.word	1073770496
 1113              		.cfi_endproc
ARM GAS  /tmp/ccWGtOKe.s 			page 31


 1114              	.LFE172:
 1116              		.section	.text.HAL_PWREx_DisablePullUpPullDownConfig,"ax",%progbits
 1117              		.align	1
 1118              		.global	HAL_PWREx_DisablePullUpPullDownConfig
 1119              		.syntax unified
 1120              		.thumb
 1121              		.thumb_func
 1122              		.fpu fpv4-sp-d16
 1124              	HAL_PWREx_DisablePullUpPullDownConfig:
 1125              	.LFB173:
 540:Drivers/STM32G4xx_HAL_Driver/Src/stm32g4xx_hal_pwr_ex.c **** 
 541:Drivers/STM32G4xx_HAL_Driver/Src/stm32g4xx_hal_pwr_ex.c **** 
 542:Drivers/STM32G4xx_HAL_Driver/Src/stm32g4xx_hal_pwr_ex.c **** /**
 543:Drivers/STM32G4xx_HAL_Driver/Src/stm32g4xx_hal_pwr_ex.c ****   * @brief Disable pull-up and pull-down configuration.
 544:Drivers/STM32G4xx_HAL_Driver/Src/stm32g4xx_hal_pwr_ex.c ****   * @note  When APC bit is cleared, the I/O pull-up and pull-down configurations defined in
 545:Drivers/STM32G4xx_HAL_Driver/Src/stm32g4xx_hal_pwr_ex.c ****   *        PWR_PUCRx and PWR_PDCRx registers are not applied in Standby and Shutdown modes.
 546:Drivers/STM32G4xx_HAL_Driver/Src/stm32g4xx_hal_pwr_ex.c ****   * @retval None
 547:Drivers/STM32G4xx_HAL_Driver/Src/stm32g4xx_hal_pwr_ex.c ****   */
 548:Drivers/STM32G4xx_HAL_Driver/Src/stm32g4xx_hal_pwr_ex.c **** void HAL_PWREx_DisablePullUpPullDownConfig(void)
 549:Drivers/STM32G4xx_HAL_Driver/Src/stm32g4xx_hal_pwr_ex.c **** {
 1126              		.loc 1 549 1 is_stmt 1 view -0
 1127              		.cfi_startproc
 1128              		@ args = 0, pretend = 0, frame = 0
 1129              		@ frame_needed = 0, uses_anonymous_args = 0
 1130              		@ link register save eliminated.
 550:Drivers/STM32G4xx_HAL_Driver/Src/stm32g4xx_hal_pwr_ex.c ****   CLEAR_BIT(PWR->CR3, PWR_CR3_APC);
 1131              		.loc 1 550 3 view .LVU284
 1132 0000 024A     		ldr	r2, .L93
 1133 0002 9368     		ldr	r3, [r2, #8]
 1134 0004 23F48063 		bic	r3, r3, #1024
 1135 0008 9360     		str	r3, [r2, #8]
 551:Drivers/STM32G4xx_HAL_Driver/Src/stm32g4xx_hal_pwr_ex.c **** }
 1136              		.loc 1 551 1 is_stmt 0 view .LVU285
 1137 000a 7047     		bx	lr
 1138              	.L94:
 1139              		.align	2
 1140              	.L93:
 1141 000c 00700040 		.word	1073770496
 1142              		.cfi_endproc
 1143              	.LFE173:
 1145              		.section	.text.HAL_PWREx_EnableSRAM2ContentRetention,"ax",%progbits
 1146              		.align	1
 1147              		.global	HAL_PWREx_EnableSRAM2ContentRetention
 1148              		.syntax unified
 1149              		.thumb
 1150              		.thumb_func
 1151              		.fpu fpv4-sp-d16
 1153              	HAL_PWREx_EnableSRAM2ContentRetention:
 1154              	.LFB174:
 552:Drivers/STM32G4xx_HAL_Driver/Src/stm32g4xx_hal_pwr_ex.c **** 
 553:Drivers/STM32G4xx_HAL_Driver/Src/stm32g4xx_hal_pwr_ex.c **** 
 554:Drivers/STM32G4xx_HAL_Driver/Src/stm32g4xx_hal_pwr_ex.c **** 
 555:Drivers/STM32G4xx_HAL_Driver/Src/stm32g4xx_hal_pwr_ex.c **** /**
 556:Drivers/STM32G4xx_HAL_Driver/Src/stm32g4xx_hal_pwr_ex.c ****   * @brief Enable SRAM2 content retention in Standby mode.
 557:Drivers/STM32G4xx_HAL_Driver/Src/stm32g4xx_hal_pwr_ex.c ****   * @note  When RRS bit is set, SRAM2 is powered by the low-power regulator in
 558:Drivers/STM32G4xx_HAL_Driver/Src/stm32g4xx_hal_pwr_ex.c ****   *         Standby mode and its content is kept.
 559:Drivers/STM32G4xx_HAL_Driver/Src/stm32g4xx_hal_pwr_ex.c ****   * @retval None
ARM GAS  /tmp/ccWGtOKe.s 			page 32


 560:Drivers/STM32G4xx_HAL_Driver/Src/stm32g4xx_hal_pwr_ex.c ****   */
 561:Drivers/STM32G4xx_HAL_Driver/Src/stm32g4xx_hal_pwr_ex.c **** void HAL_PWREx_EnableSRAM2ContentRetention(void)
 562:Drivers/STM32G4xx_HAL_Driver/Src/stm32g4xx_hal_pwr_ex.c **** {
 1155              		.loc 1 562 1 is_stmt 1 view -0
 1156              		.cfi_startproc
 1157              		@ args = 0, pretend = 0, frame = 0
 1158              		@ frame_needed = 0, uses_anonymous_args = 0
 1159              		@ link register save eliminated.
 563:Drivers/STM32G4xx_HAL_Driver/Src/stm32g4xx_hal_pwr_ex.c ****   SET_BIT(PWR->CR3, PWR_CR3_RRS);
 1160              		.loc 1 563 3 view .LVU287
 1161 0000 024A     		ldr	r2, .L96
 1162 0002 9368     		ldr	r3, [r2, #8]
 1163 0004 43F48073 		orr	r3, r3, #256
 1164 0008 9360     		str	r3, [r2, #8]
 564:Drivers/STM32G4xx_HAL_Driver/Src/stm32g4xx_hal_pwr_ex.c **** }
 1165              		.loc 1 564 1 is_stmt 0 view .LVU288
 1166 000a 7047     		bx	lr
 1167              	.L97:
 1168              		.align	2
 1169              	.L96:
 1170 000c 00700040 		.word	1073770496
 1171              		.cfi_endproc
 1172              	.LFE174:
 1174              		.section	.text.HAL_PWREx_DisableSRAM2ContentRetention,"ax",%progbits
 1175              		.align	1
 1176              		.global	HAL_PWREx_DisableSRAM2ContentRetention
 1177              		.syntax unified
 1178              		.thumb
 1179              		.thumb_func
 1180              		.fpu fpv4-sp-d16
 1182              	HAL_PWREx_DisableSRAM2ContentRetention:
 1183              	.LFB175:
 565:Drivers/STM32G4xx_HAL_Driver/Src/stm32g4xx_hal_pwr_ex.c **** 
 566:Drivers/STM32G4xx_HAL_Driver/Src/stm32g4xx_hal_pwr_ex.c **** 
 567:Drivers/STM32G4xx_HAL_Driver/Src/stm32g4xx_hal_pwr_ex.c **** /**
 568:Drivers/STM32G4xx_HAL_Driver/Src/stm32g4xx_hal_pwr_ex.c ****   * @brief Disable SRAM2 content retention in Standby mode.
 569:Drivers/STM32G4xx_HAL_Driver/Src/stm32g4xx_hal_pwr_ex.c ****   * @note  When RRS bit is reset, SRAM2 is powered off in Standby mode
 570:Drivers/STM32G4xx_HAL_Driver/Src/stm32g4xx_hal_pwr_ex.c ****   *        and its content is lost.
 571:Drivers/STM32G4xx_HAL_Driver/Src/stm32g4xx_hal_pwr_ex.c ****   * @retval None
 572:Drivers/STM32G4xx_HAL_Driver/Src/stm32g4xx_hal_pwr_ex.c ****   */
 573:Drivers/STM32G4xx_HAL_Driver/Src/stm32g4xx_hal_pwr_ex.c **** void HAL_PWREx_DisableSRAM2ContentRetention(void)
 574:Drivers/STM32G4xx_HAL_Driver/Src/stm32g4xx_hal_pwr_ex.c **** {
 1184              		.loc 1 574 1 is_stmt 1 view -0
 1185              		.cfi_startproc
 1186              		@ args = 0, pretend = 0, frame = 0
 1187              		@ frame_needed = 0, uses_anonymous_args = 0
 1188              		@ link register save eliminated.
 575:Drivers/STM32G4xx_HAL_Driver/Src/stm32g4xx_hal_pwr_ex.c ****   CLEAR_BIT(PWR->CR3, PWR_CR3_RRS);
 1189              		.loc 1 575 3 view .LVU290
 1190 0000 024A     		ldr	r2, .L99
 1191 0002 9368     		ldr	r3, [r2, #8]
 1192 0004 23F48073 		bic	r3, r3, #256
 1193 0008 9360     		str	r3, [r2, #8]
 576:Drivers/STM32G4xx_HAL_Driver/Src/stm32g4xx_hal_pwr_ex.c **** }
 1194              		.loc 1 576 1 is_stmt 0 view .LVU291
 1195 000a 7047     		bx	lr
 1196              	.L100:
ARM GAS  /tmp/ccWGtOKe.s 			page 33


 1197              		.align	2
 1198              	.L99:
 1199 000c 00700040 		.word	1073770496
 1200              		.cfi_endproc
 1201              	.LFE175:
 1203              		.section	.text.HAL_PWREx_EnablePVM1,"ax",%progbits
 1204              		.align	1
 1205              		.global	HAL_PWREx_EnablePVM1
 1206              		.syntax unified
 1207              		.thumb
 1208              		.thumb_func
 1209              		.fpu fpv4-sp-d16
 1211              	HAL_PWREx_EnablePVM1:
 1212              	.LFB176:
 577:Drivers/STM32G4xx_HAL_Driver/Src/stm32g4xx_hal_pwr_ex.c **** 
 578:Drivers/STM32G4xx_HAL_Driver/Src/stm32g4xx_hal_pwr_ex.c **** 
 579:Drivers/STM32G4xx_HAL_Driver/Src/stm32g4xx_hal_pwr_ex.c **** 
 580:Drivers/STM32G4xx_HAL_Driver/Src/stm32g4xx_hal_pwr_ex.c **** 
 581:Drivers/STM32G4xx_HAL_Driver/Src/stm32g4xx_hal_pwr_ex.c **** #if defined(PWR_CR2_PVME1)
 582:Drivers/STM32G4xx_HAL_Driver/Src/stm32g4xx_hal_pwr_ex.c **** /**
 583:Drivers/STM32G4xx_HAL_Driver/Src/stm32g4xx_hal_pwr_ex.c ****   * @brief Enable the Power Voltage Monitoring 1: VDDA versus FASTCOMP minimum voltage.
 584:Drivers/STM32G4xx_HAL_Driver/Src/stm32g4xx_hal_pwr_ex.c ****   * @retval None
 585:Drivers/STM32G4xx_HAL_Driver/Src/stm32g4xx_hal_pwr_ex.c ****   */
 586:Drivers/STM32G4xx_HAL_Driver/Src/stm32g4xx_hal_pwr_ex.c **** void HAL_PWREx_EnablePVM1(void)
 587:Drivers/STM32G4xx_HAL_Driver/Src/stm32g4xx_hal_pwr_ex.c **** {
 1213              		.loc 1 587 1 is_stmt 1 view -0
 1214              		.cfi_startproc
 1215              		@ args = 0, pretend = 0, frame = 0
 1216              		@ frame_needed = 0, uses_anonymous_args = 0
 1217              		@ link register save eliminated.
 588:Drivers/STM32G4xx_HAL_Driver/Src/stm32g4xx_hal_pwr_ex.c ****   SET_BIT(PWR->CR2, PWR_PVM_1);
 1218              		.loc 1 588 3 view .LVU293
 1219 0000 024A     		ldr	r2, .L102
 1220 0002 5368     		ldr	r3, [r2, #4]
 1221 0004 43F01003 		orr	r3, r3, #16
 1222 0008 5360     		str	r3, [r2, #4]
 589:Drivers/STM32G4xx_HAL_Driver/Src/stm32g4xx_hal_pwr_ex.c **** }
 1223              		.loc 1 589 1 is_stmt 0 view .LVU294
 1224 000a 7047     		bx	lr
 1225              	.L103:
 1226              		.align	2
 1227              	.L102:
 1228 000c 00700040 		.word	1073770496
 1229              		.cfi_endproc
 1230              	.LFE176:
 1232              		.section	.text.HAL_PWREx_DisablePVM1,"ax",%progbits
 1233              		.align	1
 1234              		.global	HAL_PWREx_DisablePVM1
 1235              		.syntax unified
 1236              		.thumb
 1237              		.thumb_func
 1238              		.fpu fpv4-sp-d16
 1240              	HAL_PWREx_DisablePVM1:
 1241              	.LFB177:
 590:Drivers/STM32G4xx_HAL_Driver/Src/stm32g4xx_hal_pwr_ex.c **** 
 591:Drivers/STM32G4xx_HAL_Driver/Src/stm32g4xx_hal_pwr_ex.c **** /**
 592:Drivers/STM32G4xx_HAL_Driver/Src/stm32g4xx_hal_pwr_ex.c ****   * @brief Disable the Power Voltage Monitoring 1: VDDA versus FASTCOMP minimum voltage.
ARM GAS  /tmp/ccWGtOKe.s 			page 34


 593:Drivers/STM32G4xx_HAL_Driver/Src/stm32g4xx_hal_pwr_ex.c ****   * @retval None
 594:Drivers/STM32G4xx_HAL_Driver/Src/stm32g4xx_hal_pwr_ex.c ****   */
 595:Drivers/STM32G4xx_HAL_Driver/Src/stm32g4xx_hal_pwr_ex.c **** void HAL_PWREx_DisablePVM1(void)
 596:Drivers/STM32G4xx_HAL_Driver/Src/stm32g4xx_hal_pwr_ex.c **** {
 1242              		.loc 1 596 1 is_stmt 1 view -0
 1243              		.cfi_startproc
 1244              		@ args = 0, pretend = 0, frame = 0
 1245              		@ frame_needed = 0, uses_anonymous_args = 0
 1246              		@ link register save eliminated.
 597:Drivers/STM32G4xx_HAL_Driver/Src/stm32g4xx_hal_pwr_ex.c ****   CLEAR_BIT(PWR->CR2, PWR_PVM_1);
 1247              		.loc 1 597 3 view .LVU296
 1248 0000 024A     		ldr	r2, .L105
 1249 0002 5368     		ldr	r3, [r2, #4]
 1250 0004 23F01003 		bic	r3, r3, #16
 1251 0008 5360     		str	r3, [r2, #4]
 598:Drivers/STM32G4xx_HAL_Driver/Src/stm32g4xx_hal_pwr_ex.c **** }
 1252              		.loc 1 598 1 is_stmt 0 view .LVU297
 1253 000a 7047     		bx	lr
 1254              	.L106:
 1255              		.align	2
 1256              	.L105:
 1257 000c 00700040 		.word	1073770496
 1258              		.cfi_endproc
 1259              	.LFE177:
 1261              		.section	.text.HAL_PWREx_EnablePVM2,"ax",%progbits
 1262              		.align	1
 1263              		.global	HAL_PWREx_EnablePVM2
 1264              		.syntax unified
 1265              		.thumb
 1266              		.thumb_func
 1267              		.fpu fpv4-sp-d16
 1269              	HAL_PWREx_EnablePVM2:
 1270              	.LFB178:
 599:Drivers/STM32G4xx_HAL_Driver/Src/stm32g4xx_hal_pwr_ex.c **** #endif /* PWR_CR2_PVME1 */
 600:Drivers/STM32G4xx_HAL_Driver/Src/stm32g4xx_hal_pwr_ex.c **** 
 601:Drivers/STM32G4xx_HAL_Driver/Src/stm32g4xx_hal_pwr_ex.c **** 
 602:Drivers/STM32G4xx_HAL_Driver/Src/stm32g4xx_hal_pwr_ex.c **** #if defined(PWR_CR2_PVME2)
 603:Drivers/STM32G4xx_HAL_Driver/Src/stm32g4xx_hal_pwr_ex.c **** /**
 604:Drivers/STM32G4xx_HAL_Driver/Src/stm32g4xx_hal_pwr_ex.c ****   * @brief Enable the Power Voltage Monitoring 2: VDDA versus FASTDAC minimum voltage.
 605:Drivers/STM32G4xx_HAL_Driver/Src/stm32g4xx_hal_pwr_ex.c ****   * @retval None
 606:Drivers/STM32G4xx_HAL_Driver/Src/stm32g4xx_hal_pwr_ex.c ****   */
 607:Drivers/STM32G4xx_HAL_Driver/Src/stm32g4xx_hal_pwr_ex.c **** void HAL_PWREx_EnablePVM2(void)
 608:Drivers/STM32G4xx_HAL_Driver/Src/stm32g4xx_hal_pwr_ex.c **** {
 1271              		.loc 1 608 1 is_stmt 1 view -0
 1272              		.cfi_startproc
 1273              		@ args = 0, pretend = 0, frame = 0
 1274              		@ frame_needed = 0, uses_anonymous_args = 0
 1275              		@ link register save eliminated.
 609:Drivers/STM32G4xx_HAL_Driver/Src/stm32g4xx_hal_pwr_ex.c ****   SET_BIT(PWR->CR2, PWR_PVM_2);
 1276              		.loc 1 609 3 view .LVU299
 1277 0000 024A     		ldr	r2, .L108
 1278 0002 5368     		ldr	r3, [r2, #4]
 1279 0004 43F02003 		orr	r3, r3, #32
 1280 0008 5360     		str	r3, [r2, #4]
 610:Drivers/STM32G4xx_HAL_Driver/Src/stm32g4xx_hal_pwr_ex.c **** }
 1281              		.loc 1 610 1 is_stmt 0 view .LVU300
 1282 000a 7047     		bx	lr
ARM GAS  /tmp/ccWGtOKe.s 			page 35


 1283              	.L109:
 1284              		.align	2
 1285              	.L108:
 1286 000c 00700040 		.word	1073770496
 1287              		.cfi_endproc
 1288              	.LFE178:
 1290              		.section	.text.HAL_PWREx_DisablePVM2,"ax",%progbits
 1291              		.align	1
 1292              		.global	HAL_PWREx_DisablePVM2
 1293              		.syntax unified
 1294              		.thumb
 1295              		.thumb_func
 1296              		.fpu fpv4-sp-d16
 1298              	HAL_PWREx_DisablePVM2:
 1299              	.LFB179:
 611:Drivers/STM32G4xx_HAL_Driver/Src/stm32g4xx_hal_pwr_ex.c **** 
 612:Drivers/STM32G4xx_HAL_Driver/Src/stm32g4xx_hal_pwr_ex.c **** /**
 613:Drivers/STM32G4xx_HAL_Driver/Src/stm32g4xx_hal_pwr_ex.c ****   * @brief Disable the Power Voltage Monitoring 2: VDDA versus FASTDAC minimum voltage.
 614:Drivers/STM32G4xx_HAL_Driver/Src/stm32g4xx_hal_pwr_ex.c ****   * @retval None
 615:Drivers/STM32G4xx_HAL_Driver/Src/stm32g4xx_hal_pwr_ex.c ****   */
 616:Drivers/STM32G4xx_HAL_Driver/Src/stm32g4xx_hal_pwr_ex.c **** void HAL_PWREx_DisablePVM2(void)
 617:Drivers/STM32G4xx_HAL_Driver/Src/stm32g4xx_hal_pwr_ex.c **** {
 1300              		.loc 1 617 1 is_stmt 1 view -0
 1301              		.cfi_startproc
 1302              		@ args = 0, pretend = 0, frame = 0
 1303              		@ frame_needed = 0, uses_anonymous_args = 0
 1304              		@ link register save eliminated.
 618:Drivers/STM32G4xx_HAL_Driver/Src/stm32g4xx_hal_pwr_ex.c ****   CLEAR_BIT(PWR->CR2, PWR_PVM_2);
 1305              		.loc 1 618 3 view .LVU302
 1306 0000 024A     		ldr	r2, .L111
 1307 0002 5368     		ldr	r3, [r2, #4]
 1308 0004 23F02003 		bic	r3, r3, #32
 1309 0008 5360     		str	r3, [r2, #4]
 619:Drivers/STM32G4xx_HAL_Driver/Src/stm32g4xx_hal_pwr_ex.c **** }
 1310              		.loc 1 619 1 is_stmt 0 view .LVU303
 1311 000a 7047     		bx	lr
 1312              	.L112:
 1313              		.align	2
 1314              	.L111:
 1315 000c 00700040 		.word	1073770496
 1316              		.cfi_endproc
 1317              	.LFE179:
 1319              		.section	.text.HAL_PWREx_EnablePVM3,"ax",%progbits
 1320              		.align	1
 1321              		.global	HAL_PWREx_EnablePVM3
 1322              		.syntax unified
 1323              		.thumb
 1324              		.thumb_func
 1325              		.fpu fpv4-sp-d16
 1327              	HAL_PWREx_EnablePVM3:
 1328              	.LFB180:
 620:Drivers/STM32G4xx_HAL_Driver/Src/stm32g4xx_hal_pwr_ex.c **** #endif /* PWR_CR2_PVME2 */
 621:Drivers/STM32G4xx_HAL_Driver/Src/stm32g4xx_hal_pwr_ex.c **** 
 622:Drivers/STM32G4xx_HAL_Driver/Src/stm32g4xx_hal_pwr_ex.c **** 
 623:Drivers/STM32G4xx_HAL_Driver/Src/stm32g4xx_hal_pwr_ex.c **** /**
 624:Drivers/STM32G4xx_HAL_Driver/Src/stm32g4xx_hal_pwr_ex.c ****   * @brief Enable the Power Voltage Monitoring 3: VDDA versus ADC minimum voltage 1.62V.
 625:Drivers/STM32G4xx_HAL_Driver/Src/stm32g4xx_hal_pwr_ex.c ****   * @retval None
ARM GAS  /tmp/ccWGtOKe.s 			page 36


 626:Drivers/STM32G4xx_HAL_Driver/Src/stm32g4xx_hal_pwr_ex.c ****   */
 627:Drivers/STM32G4xx_HAL_Driver/Src/stm32g4xx_hal_pwr_ex.c **** void HAL_PWREx_EnablePVM3(void)
 628:Drivers/STM32G4xx_HAL_Driver/Src/stm32g4xx_hal_pwr_ex.c **** {
 1329              		.loc 1 628 1 is_stmt 1 view -0
 1330              		.cfi_startproc
 1331              		@ args = 0, pretend = 0, frame = 0
 1332              		@ frame_needed = 0, uses_anonymous_args = 0
 1333              		@ link register save eliminated.
 629:Drivers/STM32G4xx_HAL_Driver/Src/stm32g4xx_hal_pwr_ex.c ****   SET_BIT(PWR->CR2, PWR_PVM_3);
 1334              		.loc 1 629 3 view .LVU305
 1335 0000 024A     		ldr	r2, .L114
 1336 0002 5368     		ldr	r3, [r2, #4]
 1337 0004 43F04003 		orr	r3, r3, #64
 1338 0008 5360     		str	r3, [r2, #4]
 630:Drivers/STM32G4xx_HAL_Driver/Src/stm32g4xx_hal_pwr_ex.c **** }
 1339              		.loc 1 630 1 is_stmt 0 view .LVU306
 1340 000a 7047     		bx	lr
 1341              	.L115:
 1342              		.align	2
 1343              	.L114:
 1344 000c 00700040 		.word	1073770496
 1345              		.cfi_endproc
 1346              	.LFE180:
 1348              		.section	.text.HAL_PWREx_DisablePVM3,"ax",%progbits
 1349              		.align	1
 1350              		.global	HAL_PWREx_DisablePVM3
 1351              		.syntax unified
 1352              		.thumb
 1353              		.thumb_func
 1354              		.fpu fpv4-sp-d16
 1356              	HAL_PWREx_DisablePVM3:
 1357              	.LFB181:
 631:Drivers/STM32G4xx_HAL_Driver/Src/stm32g4xx_hal_pwr_ex.c **** 
 632:Drivers/STM32G4xx_HAL_Driver/Src/stm32g4xx_hal_pwr_ex.c **** /**
 633:Drivers/STM32G4xx_HAL_Driver/Src/stm32g4xx_hal_pwr_ex.c ****   * @brief Disable the Power Voltage Monitoring 3: VDDA versus ADC minimum voltage 1.62V.
 634:Drivers/STM32G4xx_HAL_Driver/Src/stm32g4xx_hal_pwr_ex.c ****   * @retval None
 635:Drivers/STM32G4xx_HAL_Driver/Src/stm32g4xx_hal_pwr_ex.c ****   */
 636:Drivers/STM32G4xx_HAL_Driver/Src/stm32g4xx_hal_pwr_ex.c **** void HAL_PWREx_DisablePVM3(void)
 637:Drivers/STM32G4xx_HAL_Driver/Src/stm32g4xx_hal_pwr_ex.c **** {
 1358              		.loc 1 637 1 is_stmt 1 view -0
 1359              		.cfi_startproc
 1360              		@ args = 0, pretend = 0, frame = 0
 1361              		@ frame_needed = 0, uses_anonymous_args = 0
 1362              		@ link register save eliminated.
 638:Drivers/STM32G4xx_HAL_Driver/Src/stm32g4xx_hal_pwr_ex.c ****   CLEAR_BIT(PWR->CR2, PWR_PVM_3);
 1363              		.loc 1 638 3 view .LVU308
 1364 0000 024A     		ldr	r2, .L117
 1365 0002 5368     		ldr	r3, [r2, #4]
 1366 0004 23F04003 		bic	r3, r3, #64
 1367 0008 5360     		str	r3, [r2, #4]
 639:Drivers/STM32G4xx_HAL_Driver/Src/stm32g4xx_hal_pwr_ex.c **** }
 1368              		.loc 1 639 1 is_stmt 0 view .LVU309
 1369 000a 7047     		bx	lr
 1370              	.L118:
 1371              		.align	2
 1372              	.L117:
 1373 000c 00700040 		.word	1073770496
ARM GAS  /tmp/ccWGtOKe.s 			page 37


 1374              		.cfi_endproc
 1375              	.LFE181:
 1377              		.section	.text.HAL_PWREx_EnablePVM4,"ax",%progbits
 1378              		.align	1
 1379              		.global	HAL_PWREx_EnablePVM4
 1380              		.syntax unified
 1381              		.thumb
 1382              		.thumb_func
 1383              		.fpu fpv4-sp-d16
 1385              	HAL_PWREx_EnablePVM4:
 1386              	.LFB182:
 640:Drivers/STM32G4xx_HAL_Driver/Src/stm32g4xx_hal_pwr_ex.c **** 
 641:Drivers/STM32G4xx_HAL_Driver/Src/stm32g4xx_hal_pwr_ex.c **** 
 642:Drivers/STM32G4xx_HAL_Driver/Src/stm32g4xx_hal_pwr_ex.c **** /**
 643:Drivers/STM32G4xx_HAL_Driver/Src/stm32g4xx_hal_pwr_ex.c ****   * @brief Enable the Power Voltage Monitoring 4: VDDA versus OPAMP/DAC minimum voltage 1.8V.
 644:Drivers/STM32G4xx_HAL_Driver/Src/stm32g4xx_hal_pwr_ex.c ****   * @retval None
 645:Drivers/STM32G4xx_HAL_Driver/Src/stm32g4xx_hal_pwr_ex.c ****   */
 646:Drivers/STM32G4xx_HAL_Driver/Src/stm32g4xx_hal_pwr_ex.c **** void HAL_PWREx_EnablePVM4(void)
 647:Drivers/STM32G4xx_HAL_Driver/Src/stm32g4xx_hal_pwr_ex.c **** {
 1387              		.loc 1 647 1 is_stmt 1 view -0
 1388              		.cfi_startproc
 1389              		@ args = 0, pretend = 0, frame = 0
 1390              		@ frame_needed = 0, uses_anonymous_args = 0
 1391              		@ link register save eliminated.
 648:Drivers/STM32G4xx_HAL_Driver/Src/stm32g4xx_hal_pwr_ex.c ****   SET_BIT(PWR->CR2, PWR_PVM_4);
 1392              		.loc 1 648 3 view .LVU311
 1393 0000 024A     		ldr	r2, .L120
 1394 0002 5368     		ldr	r3, [r2, #4]
 1395 0004 43F08003 		orr	r3, r3, #128
 1396 0008 5360     		str	r3, [r2, #4]
 649:Drivers/STM32G4xx_HAL_Driver/Src/stm32g4xx_hal_pwr_ex.c **** }
 1397              		.loc 1 649 1 is_stmt 0 view .LVU312
 1398 000a 7047     		bx	lr
 1399              	.L121:
 1400              		.align	2
 1401              	.L120:
 1402 000c 00700040 		.word	1073770496
 1403              		.cfi_endproc
 1404              	.LFE182:
 1406              		.section	.text.HAL_PWREx_DisablePVM4,"ax",%progbits
 1407              		.align	1
 1408              		.global	HAL_PWREx_DisablePVM4
 1409              		.syntax unified
 1410              		.thumb
 1411              		.thumb_func
 1412              		.fpu fpv4-sp-d16
 1414              	HAL_PWREx_DisablePVM4:
 1415              	.LFB183:
 650:Drivers/STM32G4xx_HAL_Driver/Src/stm32g4xx_hal_pwr_ex.c **** 
 651:Drivers/STM32G4xx_HAL_Driver/Src/stm32g4xx_hal_pwr_ex.c **** /**
 652:Drivers/STM32G4xx_HAL_Driver/Src/stm32g4xx_hal_pwr_ex.c ****   * @brief Disable the Power Voltage Monitoring 4: VDDA versus OPAMP/DAC minimum voltage 1.8V.
 653:Drivers/STM32G4xx_HAL_Driver/Src/stm32g4xx_hal_pwr_ex.c ****   * @retval None
 654:Drivers/STM32G4xx_HAL_Driver/Src/stm32g4xx_hal_pwr_ex.c ****   */
 655:Drivers/STM32G4xx_HAL_Driver/Src/stm32g4xx_hal_pwr_ex.c **** void HAL_PWREx_DisablePVM4(void)
 656:Drivers/STM32G4xx_HAL_Driver/Src/stm32g4xx_hal_pwr_ex.c **** {
 1416              		.loc 1 656 1 is_stmt 1 view -0
 1417              		.cfi_startproc
ARM GAS  /tmp/ccWGtOKe.s 			page 38


 1418              		@ args = 0, pretend = 0, frame = 0
 1419              		@ frame_needed = 0, uses_anonymous_args = 0
 1420              		@ link register save eliminated.
 657:Drivers/STM32G4xx_HAL_Driver/Src/stm32g4xx_hal_pwr_ex.c ****   CLEAR_BIT(PWR->CR2, PWR_PVM_4);
 1421              		.loc 1 657 3 view .LVU314
 1422 0000 024A     		ldr	r2, .L123
 1423 0002 5368     		ldr	r3, [r2, #4]
 1424 0004 23F08003 		bic	r3, r3, #128
 1425 0008 5360     		str	r3, [r2, #4]
 658:Drivers/STM32G4xx_HAL_Driver/Src/stm32g4xx_hal_pwr_ex.c **** }
 1426              		.loc 1 658 1 is_stmt 0 view .LVU315
 1427 000a 7047     		bx	lr
 1428              	.L124:
 1429              		.align	2
 1430              	.L123:
 1431 000c 00700040 		.word	1073770496
 1432              		.cfi_endproc
 1433              	.LFE183:
 1435              		.section	.text.HAL_PWREx_ConfigPVM,"ax",%progbits
 1436              		.align	1
 1437              		.global	HAL_PWREx_ConfigPVM
 1438              		.syntax unified
 1439              		.thumb
 1440              		.thumb_func
 1441              		.fpu fpv4-sp-d16
 1443              	HAL_PWREx_ConfigPVM:
 1444              	.LVL113:
 1445              	.LFB184:
 659:Drivers/STM32G4xx_HAL_Driver/Src/stm32g4xx_hal_pwr_ex.c **** 
 660:Drivers/STM32G4xx_HAL_Driver/Src/stm32g4xx_hal_pwr_ex.c **** 
 661:Drivers/STM32G4xx_HAL_Driver/Src/stm32g4xx_hal_pwr_ex.c **** 
 662:Drivers/STM32G4xx_HAL_Driver/Src/stm32g4xx_hal_pwr_ex.c **** 
 663:Drivers/STM32G4xx_HAL_Driver/Src/stm32g4xx_hal_pwr_ex.c **** /**
 664:Drivers/STM32G4xx_HAL_Driver/Src/stm32g4xx_hal_pwr_ex.c ****   * @brief Configure the Peripheral Voltage Monitoring (PVM).
 665:Drivers/STM32G4xx_HAL_Driver/Src/stm32g4xx_hal_pwr_ex.c ****   * @param sConfigPVM: pointer to a PWR_PVMTypeDef structure that contains the
 666:Drivers/STM32G4xx_HAL_Driver/Src/stm32g4xx_hal_pwr_ex.c ****   *        PVM configuration information.
 667:Drivers/STM32G4xx_HAL_Driver/Src/stm32g4xx_hal_pwr_ex.c ****   * @note The API configures a single PVM according to the information contained
 668:Drivers/STM32G4xx_HAL_Driver/Src/stm32g4xx_hal_pwr_ex.c ****   *       in the input structure. To configure several PVMs, the API must be singly
 669:Drivers/STM32G4xx_HAL_Driver/Src/stm32g4xx_hal_pwr_ex.c ****   *       called for each PVM used.
 670:Drivers/STM32G4xx_HAL_Driver/Src/stm32g4xx_hal_pwr_ex.c ****   * @note Refer to the electrical characteristics of your device datasheet for
 671:Drivers/STM32G4xx_HAL_Driver/Src/stm32g4xx_hal_pwr_ex.c ****   *         more details about the voltage thresholds corresponding to each
 672:Drivers/STM32G4xx_HAL_Driver/Src/stm32g4xx_hal_pwr_ex.c ****   *         detection level and to each monitored supply.
 673:Drivers/STM32G4xx_HAL_Driver/Src/stm32g4xx_hal_pwr_ex.c ****   * @retval HAL status
 674:Drivers/STM32G4xx_HAL_Driver/Src/stm32g4xx_hal_pwr_ex.c ****   */
 675:Drivers/STM32G4xx_HAL_Driver/Src/stm32g4xx_hal_pwr_ex.c **** HAL_StatusTypeDef HAL_PWREx_ConfigPVM(PWR_PVMTypeDef *sConfigPVM)
 676:Drivers/STM32G4xx_HAL_Driver/Src/stm32g4xx_hal_pwr_ex.c **** {
 1446              		.loc 1 676 1 is_stmt 1 view -0
 1447              		.cfi_startproc
 1448              		@ args = 0, pretend = 0, frame = 0
 1449              		@ frame_needed = 0, uses_anonymous_args = 0
 1450              		@ link register save eliminated.
 677:Drivers/STM32G4xx_HAL_Driver/Src/stm32g4xx_hal_pwr_ex.c ****   HAL_StatusTypeDef status = HAL_OK;
 1451              		.loc 1 677 3 view .LVU317
 678:Drivers/STM32G4xx_HAL_Driver/Src/stm32g4xx_hal_pwr_ex.c **** 
 679:Drivers/STM32G4xx_HAL_Driver/Src/stm32g4xx_hal_pwr_ex.c ****   /* Check the parameters */
 680:Drivers/STM32G4xx_HAL_Driver/Src/stm32g4xx_hal_pwr_ex.c ****   assert_param(IS_PWR_PVM_TYPE(sConfigPVM->PVMType));
 1452              		.loc 1 680 3 view .LVU318
ARM GAS  /tmp/ccWGtOKe.s 			page 39


 681:Drivers/STM32G4xx_HAL_Driver/Src/stm32g4xx_hal_pwr_ex.c ****   assert_param(IS_PWR_PVM_MODE(sConfigPVM->Mode));
 1453              		.loc 1 681 3 view .LVU319
 682:Drivers/STM32G4xx_HAL_Driver/Src/stm32g4xx_hal_pwr_ex.c **** 
 683:Drivers/STM32G4xx_HAL_Driver/Src/stm32g4xx_hal_pwr_ex.c **** 
 684:Drivers/STM32G4xx_HAL_Driver/Src/stm32g4xx_hal_pwr_ex.c ****   /* Configure EXTI 35 to 38 interrupts if so required:
 685:Drivers/STM32G4xx_HAL_Driver/Src/stm32g4xx_hal_pwr_ex.c ****      scan thru PVMType to detect which PVMx is set and
 686:Drivers/STM32G4xx_HAL_Driver/Src/stm32g4xx_hal_pwr_ex.c ****      configure the corresponding EXTI line accordingly. */
 687:Drivers/STM32G4xx_HAL_Driver/Src/stm32g4xx_hal_pwr_ex.c ****   switch (sConfigPVM->PVMType)
 1454              		.loc 1 687 3 view .LVU320
 1455              		.loc 1 687 21 is_stmt 0 view .LVU321
 1456 0000 0368     		ldr	r3, [r0]
 1457              		.loc 1 687 3 view .LVU322
 1458 0002 402B     		cmp	r3, #64
 1459 0004 00F0B180 		beq	.L126
 1460 0008 3DD8     		bhi	.L127
 1461 000a 102B     		cmp	r3, #16
 1462 000c 76D0     		beq	.L128
 1463 000e 202B     		cmp	r3, #32
 1464 0010 37D1     		bne	.L148
 688:Drivers/STM32G4xx_HAL_Driver/Src/stm32g4xx_hal_pwr_ex.c ****   {
 689:Drivers/STM32G4xx_HAL_Driver/Src/stm32g4xx_hal_pwr_ex.c **** #if defined(PWR_CR2_PVME1)
 690:Drivers/STM32G4xx_HAL_Driver/Src/stm32g4xx_hal_pwr_ex.c ****     case PWR_PVM_1:
 691:Drivers/STM32G4xx_HAL_Driver/Src/stm32g4xx_hal_pwr_ex.c ****       /* Clear any previous config. Keep it clear if no event or IT mode is selected */
 692:Drivers/STM32G4xx_HAL_Driver/Src/stm32g4xx_hal_pwr_ex.c ****       __HAL_PWR_PVM1_EXTI_DISABLE_EVENT();
 693:Drivers/STM32G4xx_HAL_Driver/Src/stm32g4xx_hal_pwr_ex.c ****       __HAL_PWR_PVM1_EXTI_DISABLE_IT();
 694:Drivers/STM32G4xx_HAL_Driver/Src/stm32g4xx_hal_pwr_ex.c ****       __HAL_PWR_PVM1_EXTI_DISABLE_FALLING_EDGE();
 695:Drivers/STM32G4xx_HAL_Driver/Src/stm32g4xx_hal_pwr_ex.c ****       __HAL_PWR_PVM1_EXTI_DISABLE_RISING_EDGE();
 696:Drivers/STM32G4xx_HAL_Driver/Src/stm32g4xx_hal_pwr_ex.c **** 
 697:Drivers/STM32G4xx_HAL_Driver/Src/stm32g4xx_hal_pwr_ex.c ****       /* Configure interrupt mode */
 698:Drivers/STM32G4xx_HAL_Driver/Src/stm32g4xx_hal_pwr_ex.c ****       if((sConfigPVM->Mode & PVM_MODE_IT) == PVM_MODE_IT)
 699:Drivers/STM32G4xx_HAL_Driver/Src/stm32g4xx_hal_pwr_ex.c ****       {
 700:Drivers/STM32G4xx_HAL_Driver/Src/stm32g4xx_hal_pwr_ex.c ****         __HAL_PWR_PVM1_EXTI_ENABLE_IT();
 701:Drivers/STM32G4xx_HAL_Driver/Src/stm32g4xx_hal_pwr_ex.c ****       }
 702:Drivers/STM32G4xx_HAL_Driver/Src/stm32g4xx_hal_pwr_ex.c **** 
 703:Drivers/STM32G4xx_HAL_Driver/Src/stm32g4xx_hal_pwr_ex.c ****       /* Configure event mode */
 704:Drivers/STM32G4xx_HAL_Driver/Src/stm32g4xx_hal_pwr_ex.c ****       if((sConfigPVM->Mode & PVM_MODE_EVT) == PVM_MODE_EVT)
 705:Drivers/STM32G4xx_HAL_Driver/Src/stm32g4xx_hal_pwr_ex.c ****       {
 706:Drivers/STM32G4xx_HAL_Driver/Src/stm32g4xx_hal_pwr_ex.c ****         __HAL_PWR_PVM1_EXTI_ENABLE_EVENT();
 707:Drivers/STM32G4xx_HAL_Driver/Src/stm32g4xx_hal_pwr_ex.c ****       }
 708:Drivers/STM32G4xx_HAL_Driver/Src/stm32g4xx_hal_pwr_ex.c **** 
 709:Drivers/STM32G4xx_HAL_Driver/Src/stm32g4xx_hal_pwr_ex.c ****       /* Configure the edge */
 710:Drivers/STM32G4xx_HAL_Driver/Src/stm32g4xx_hal_pwr_ex.c ****       if((sConfigPVM->Mode & PVM_RISING_EDGE) == PVM_RISING_EDGE)
 711:Drivers/STM32G4xx_HAL_Driver/Src/stm32g4xx_hal_pwr_ex.c ****       {
 712:Drivers/STM32G4xx_HAL_Driver/Src/stm32g4xx_hal_pwr_ex.c ****         __HAL_PWR_PVM1_EXTI_ENABLE_RISING_EDGE();
 713:Drivers/STM32G4xx_HAL_Driver/Src/stm32g4xx_hal_pwr_ex.c ****       }
 714:Drivers/STM32G4xx_HAL_Driver/Src/stm32g4xx_hal_pwr_ex.c **** 
 715:Drivers/STM32G4xx_HAL_Driver/Src/stm32g4xx_hal_pwr_ex.c ****       if((sConfigPVM->Mode & PVM_FALLING_EDGE) == PVM_FALLING_EDGE)
 716:Drivers/STM32G4xx_HAL_Driver/Src/stm32g4xx_hal_pwr_ex.c ****       {
 717:Drivers/STM32G4xx_HAL_Driver/Src/stm32g4xx_hal_pwr_ex.c ****         __HAL_PWR_PVM1_EXTI_ENABLE_FALLING_EDGE();
 718:Drivers/STM32G4xx_HAL_Driver/Src/stm32g4xx_hal_pwr_ex.c ****       }
 719:Drivers/STM32G4xx_HAL_Driver/Src/stm32g4xx_hal_pwr_ex.c ****       break;
 720:Drivers/STM32G4xx_HAL_Driver/Src/stm32g4xx_hal_pwr_ex.c **** #endif /* PWR_CR2_PVME1 */
 721:Drivers/STM32G4xx_HAL_Driver/Src/stm32g4xx_hal_pwr_ex.c **** 
 722:Drivers/STM32G4xx_HAL_Driver/Src/stm32g4xx_hal_pwr_ex.c **** #if defined(PWR_CR2_PVME2)
 723:Drivers/STM32G4xx_HAL_Driver/Src/stm32g4xx_hal_pwr_ex.c ****     case PWR_PVM_2:
 724:Drivers/STM32G4xx_HAL_Driver/Src/stm32g4xx_hal_pwr_ex.c ****       /* Clear any previous config. Keep it clear if no event or IT mode is selected */
 725:Drivers/STM32G4xx_HAL_Driver/Src/stm32g4xx_hal_pwr_ex.c ****       __HAL_PWR_PVM2_EXTI_DISABLE_EVENT();
ARM GAS  /tmp/ccWGtOKe.s 			page 40


 1465              		.loc 1 725 7 is_stmt 1 view .LVU323
 1466 0012 754B     		ldr	r3, .L150
 1467 0014 5A6A     		ldr	r2, [r3, #36]
 1468 0016 22F01002 		bic	r2, r2, #16
 1469 001a 5A62     		str	r2, [r3, #36]
 726:Drivers/STM32G4xx_HAL_Driver/Src/stm32g4xx_hal_pwr_ex.c ****       __HAL_PWR_PVM2_EXTI_DISABLE_IT();
 1470              		.loc 1 726 7 view .LVU324
 1471 001c 1A6A     		ldr	r2, [r3, #32]
 1472 001e 22F01002 		bic	r2, r2, #16
 1473 0022 1A62     		str	r2, [r3, #32]
 727:Drivers/STM32G4xx_HAL_Driver/Src/stm32g4xx_hal_pwr_ex.c ****       __HAL_PWR_PVM2_EXTI_DISABLE_FALLING_EDGE();
 1474              		.loc 1 727 7 view .LVU325
 1475 0024 DA6A     		ldr	r2, [r3, #44]
 1476 0026 22F01002 		bic	r2, r2, #16
 1477 002a DA62     		str	r2, [r3, #44]
 728:Drivers/STM32G4xx_HAL_Driver/Src/stm32g4xx_hal_pwr_ex.c ****       __HAL_PWR_PVM2_EXTI_DISABLE_RISING_EDGE();
 1478              		.loc 1 728 7 view .LVU326
 1479 002c 9A6A     		ldr	r2, [r3, #40]
 1480 002e 22F01002 		bic	r2, r2, #16
 1481 0032 9A62     		str	r2, [r3, #40]
 729:Drivers/STM32G4xx_HAL_Driver/Src/stm32g4xx_hal_pwr_ex.c **** 
 730:Drivers/STM32G4xx_HAL_Driver/Src/stm32g4xx_hal_pwr_ex.c ****       /* Configure interrupt mode */
 731:Drivers/STM32G4xx_HAL_Driver/Src/stm32g4xx_hal_pwr_ex.c ****       if((sConfigPVM->Mode & PVM_MODE_IT) == PVM_MODE_IT)
 1482              		.loc 1 731 7 view .LVU327
 1483              		.loc 1 731 21 is_stmt 0 view .LVU328
 1484 0034 4368     		ldr	r3, [r0, #4]
 1485              		.loc 1 731 9 view .LVU329
 1486 0036 13F4803F 		tst	r3, #65536
 1487 003a 04D0     		beq	.L135
 732:Drivers/STM32G4xx_HAL_Driver/Src/stm32g4xx_hal_pwr_ex.c ****       {
 733:Drivers/STM32G4xx_HAL_Driver/Src/stm32g4xx_hal_pwr_ex.c ****         __HAL_PWR_PVM2_EXTI_ENABLE_IT();
 1488              		.loc 1 733 9 is_stmt 1 view .LVU330
 1489 003c 6A4A     		ldr	r2, .L150
 1490 003e 136A     		ldr	r3, [r2, #32]
 1491 0040 43F01003 		orr	r3, r3, #16
 1492 0044 1362     		str	r3, [r2, #32]
 1493              	.L135:
 734:Drivers/STM32G4xx_HAL_Driver/Src/stm32g4xx_hal_pwr_ex.c ****       }
 735:Drivers/STM32G4xx_HAL_Driver/Src/stm32g4xx_hal_pwr_ex.c **** 
 736:Drivers/STM32G4xx_HAL_Driver/Src/stm32g4xx_hal_pwr_ex.c ****       /* Configure event mode */
 737:Drivers/STM32G4xx_HAL_Driver/Src/stm32g4xx_hal_pwr_ex.c ****       if((sConfigPVM->Mode & PVM_MODE_EVT) == PVM_MODE_EVT)
 1494              		.loc 1 737 7 view .LVU331
 1495              		.loc 1 737 21 is_stmt 0 view .LVU332
 1496 0046 4368     		ldr	r3, [r0, #4]
 1497              		.loc 1 737 9 view .LVU333
 1498 0048 13F4003F 		tst	r3, #131072
 1499 004c 04D0     		beq	.L136
 738:Drivers/STM32G4xx_HAL_Driver/Src/stm32g4xx_hal_pwr_ex.c ****       {
 739:Drivers/STM32G4xx_HAL_Driver/Src/stm32g4xx_hal_pwr_ex.c ****         __HAL_PWR_PVM2_EXTI_ENABLE_EVENT();
 1500              		.loc 1 739 9 is_stmt 1 view .LVU334
 1501 004e 664A     		ldr	r2, .L150
 1502 0050 536A     		ldr	r3, [r2, #36]
 1503 0052 43F01003 		orr	r3, r3, #16
 1504 0056 5362     		str	r3, [r2, #36]
 1505              	.L136:
 740:Drivers/STM32G4xx_HAL_Driver/Src/stm32g4xx_hal_pwr_ex.c ****       }
 741:Drivers/STM32G4xx_HAL_Driver/Src/stm32g4xx_hal_pwr_ex.c **** 
ARM GAS  /tmp/ccWGtOKe.s 			page 41


 742:Drivers/STM32G4xx_HAL_Driver/Src/stm32g4xx_hal_pwr_ex.c ****       /* Configure the edge */
 743:Drivers/STM32G4xx_HAL_Driver/Src/stm32g4xx_hal_pwr_ex.c ****       if((sConfigPVM->Mode & PVM_RISING_EDGE) == PVM_RISING_EDGE)
 1506              		.loc 1 743 7 view .LVU335
 1507              		.loc 1 743 21 is_stmt 0 view .LVU336
 1508 0058 4368     		ldr	r3, [r0, #4]
 1509              		.loc 1 743 9 view .LVU337
 1510 005a 13F0010F 		tst	r3, #1
 1511 005e 04D0     		beq	.L137
 744:Drivers/STM32G4xx_HAL_Driver/Src/stm32g4xx_hal_pwr_ex.c ****       {
 745:Drivers/STM32G4xx_HAL_Driver/Src/stm32g4xx_hal_pwr_ex.c ****         __HAL_PWR_PVM2_EXTI_ENABLE_RISING_EDGE();
 1512              		.loc 1 745 9 is_stmt 1 view .LVU338
 1513 0060 614A     		ldr	r2, .L150
 1514 0062 936A     		ldr	r3, [r2, #40]
 1515 0064 43F01003 		orr	r3, r3, #16
 1516 0068 9362     		str	r3, [r2, #40]
 1517              	.L137:
 746:Drivers/STM32G4xx_HAL_Driver/Src/stm32g4xx_hal_pwr_ex.c ****       }
 747:Drivers/STM32G4xx_HAL_Driver/Src/stm32g4xx_hal_pwr_ex.c **** 
 748:Drivers/STM32G4xx_HAL_Driver/Src/stm32g4xx_hal_pwr_ex.c ****       if((sConfigPVM->Mode & PVM_FALLING_EDGE) == PVM_FALLING_EDGE)
 1518              		.loc 1 748 7 view .LVU339
 1519              		.loc 1 748 21 is_stmt 0 view .LVU340
 1520 006a 4368     		ldr	r3, [r0, #4]
 1521              		.loc 1 748 9 view .LVU341
 1522 006c 13F0020F 		tst	r3, #2
 1523 0070 00F0B480 		beq	.L145
 749:Drivers/STM32G4xx_HAL_Driver/Src/stm32g4xx_hal_pwr_ex.c ****       {
 750:Drivers/STM32G4xx_HAL_Driver/Src/stm32g4xx_hal_pwr_ex.c ****         __HAL_PWR_PVM2_EXTI_ENABLE_FALLING_EDGE();
 1524              		.loc 1 750 9 is_stmt 1 view .LVU342
 1525 0074 5C4A     		ldr	r2, .L150
 1526 0076 D36A     		ldr	r3, [r2, #44]
 1527 0078 43F01003 		orr	r3, r3, #16
 1528 007c D362     		str	r3, [r2, #44]
 677:Drivers/STM32G4xx_HAL_Driver/Src/stm32g4xx_hal_pwr_ex.c **** 
 1529              		.loc 1 677 21 is_stmt 0 view .LVU343
 1530 007e 0020     		movs	r0, #0
 1531              	.LVL114:
 677:Drivers/STM32G4xx_HAL_Driver/Src/stm32g4xx_hal_pwr_ex.c **** 
 1532              		.loc 1 677 21 view .LVU344
 1533 0080 7047     		bx	lr
 1534              	.LVL115:
 1535              	.L148:
 687:Drivers/STM32G4xx_HAL_Driver/Src/stm32g4xx_hal_pwr_ex.c ****   {
 1536              		.loc 1 687 3 view .LVU345
 1537 0082 0120     		movs	r0, #1
 1538              	.LVL116:
 687:Drivers/STM32G4xx_HAL_Driver/Src/stm32g4xx_hal_pwr_ex.c ****   {
 1539              		.loc 1 687 3 view .LVU346
 1540 0084 7047     		bx	lr
 1541              	.LVL117:
 1542              	.L127:
 687:Drivers/STM32G4xx_HAL_Driver/Src/stm32g4xx_hal_pwr_ex.c ****   {
 1543              		.loc 1 687 3 view .LVU347
 1544 0086 802B     		cmp	r3, #128
 1545 0088 36D1     		bne	.L149
 751:Drivers/STM32G4xx_HAL_Driver/Src/stm32g4xx_hal_pwr_ex.c ****       }
 752:Drivers/STM32G4xx_HAL_Driver/Src/stm32g4xx_hal_pwr_ex.c ****       break;
 753:Drivers/STM32G4xx_HAL_Driver/Src/stm32g4xx_hal_pwr_ex.c **** #endif /* PWR_CR2_PVME2 */
ARM GAS  /tmp/ccWGtOKe.s 			page 42


 754:Drivers/STM32G4xx_HAL_Driver/Src/stm32g4xx_hal_pwr_ex.c **** 
 755:Drivers/STM32G4xx_HAL_Driver/Src/stm32g4xx_hal_pwr_ex.c ****     case PWR_PVM_3:
 756:Drivers/STM32G4xx_HAL_Driver/Src/stm32g4xx_hal_pwr_ex.c ****       /* Clear any previous config. Keep it clear if no event or IT mode is selected */
 757:Drivers/STM32G4xx_HAL_Driver/Src/stm32g4xx_hal_pwr_ex.c ****       __HAL_PWR_PVM3_EXTI_DISABLE_EVENT();
 758:Drivers/STM32G4xx_HAL_Driver/Src/stm32g4xx_hal_pwr_ex.c ****       __HAL_PWR_PVM3_EXTI_DISABLE_IT();
 759:Drivers/STM32G4xx_HAL_Driver/Src/stm32g4xx_hal_pwr_ex.c ****       __HAL_PWR_PVM3_EXTI_DISABLE_FALLING_EDGE();
 760:Drivers/STM32G4xx_HAL_Driver/Src/stm32g4xx_hal_pwr_ex.c ****       __HAL_PWR_PVM3_EXTI_DISABLE_RISING_EDGE();
 761:Drivers/STM32G4xx_HAL_Driver/Src/stm32g4xx_hal_pwr_ex.c **** 
 762:Drivers/STM32G4xx_HAL_Driver/Src/stm32g4xx_hal_pwr_ex.c ****       /* Configure interrupt mode */
 763:Drivers/STM32G4xx_HAL_Driver/Src/stm32g4xx_hal_pwr_ex.c ****       if((sConfigPVM->Mode & PVM_MODE_IT) == PVM_MODE_IT)
 764:Drivers/STM32G4xx_HAL_Driver/Src/stm32g4xx_hal_pwr_ex.c ****       {
 765:Drivers/STM32G4xx_HAL_Driver/Src/stm32g4xx_hal_pwr_ex.c ****         __HAL_PWR_PVM3_EXTI_ENABLE_IT();
 766:Drivers/STM32G4xx_HAL_Driver/Src/stm32g4xx_hal_pwr_ex.c ****       }
 767:Drivers/STM32G4xx_HAL_Driver/Src/stm32g4xx_hal_pwr_ex.c **** 
 768:Drivers/STM32G4xx_HAL_Driver/Src/stm32g4xx_hal_pwr_ex.c ****       /* Configure event mode */
 769:Drivers/STM32G4xx_HAL_Driver/Src/stm32g4xx_hal_pwr_ex.c ****       if((sConfigPVM->Mode & PVM_MODE_EVT) == PVM_MODE_EVT)
 770:Drivers/STM32G4xx_HAL_Driver/Src/stm32g4xx_hal_pwr_ex.c ****       {
 771:Drivers/STM32G4xx_HAL_Driver/Src/stm32g4xx_hal_pwr_ex.c ****         __HAL_PWR_PVM3_EXTI_ENABLE_EVENT();
 772:Drivers/STM32G4xx_HAL_Driver/Src/stm32g4xx_hal_pwr_ex.c ****       }
 773:Drivers/STM32G4xx_HAL_Driver/Src/stm32g4xx_hal_pwr_ex.c **** 
 774:Drivers/STM32G4xx_HAL_Driver/Src/stm32g4xx_hal_pwr_ex.c ****       /* Configure the edge */
 775:Drivers/STM32G4xx_HAL_Driver/Src/stm32g4xx_hal_pwr_ex.c ****       if((sConfigPVM->Mode & PVM_RISING_EDGE) == PVM_RISING_EDGE)
 776:Drivers/STM32G4xx_HAL_Driver/Src/stm32g4xx_hal_pwr_ex.c ****       {
 777:Drivers/STM32G4xx_HAL_Driver/Src/stm32g4xx_hal_pwr_ex.c ****         __HAL_PWR_PVM3_EXTI_ENABLE_RISING_EDGE();
 778:Drivers/STM32G4xx_HAL_Driver/Src/stm32g4xx_hal_pwr_ex.c ****       }
 779:Drivers/STM32G4xx_HAL_Driver/Src/stm32g4xx_hal_pwr_ex.c **** 
 780:Drivers/STM32G4xx_HAL_Driver/Src/stm32g4xx_hal_pwr_ex.c ****       if((sConfigPVM->Mode & PVM_FALLING_EDGE) == PVM_FALLING_EDGE)
 781:Drivers/STM32G4xx_HAL_Driver/Src/stm32g4xx_hal_pwr_ex.c ****       {
 782:Drivers/STM32G4xx_HAL_Driver/Src/stm32g4xx_hal_pwr_ex.c ****         __HAL_PWR_PVM3_EXTI_ENABLE_FALLING_EDGE();
 783:Drivers/STM32G4xx_HAL_Driver/Src/stm32g4xx_hal_pwr_ex.c ****       }
 784:Drivers/STM32G4xx_HAL_Driver/Src/stm32g4xx_hal_pwr_ex.c ****       break;
 785:Drivers/STM32G4xx_HAL_Driver/Src/stm32g4xx_hal_pwr_ex.c **** 
 786:Drivers/STM32G4xx_HAL_Driver/Src/stm32g4xx_hal_pwr_ex.c ****     case PWR_PVM_4:
 787:Drivers/STM32G4xx_HAL_Driver/Src/stm32g4xx_hal_pwr_ex.c ****       /* Clear any previous config. Keep it clear if no event or IT mode is selected */
 788:Drivers/STM32G4xx_HAL_Driver/Src/stm32g4xx_hal_pwr_ex.c ****       __HAL_PWR_PVM4_EXTI_DISABLE_EVENT();
 1546              		.loc 1 788 7 is_stmt 1 view .LVU348
 1547 008a 574B     		ldr	r3, .L150
 1548 008c 5A6A     		ldr	r2, [r3, #36]
 1549 008e 22F04002 		bic	r2, r2, #64
 1550 0092 5A62     		str	r2, [r3, #36]
 789:Drivers/STM32G4xx_HAL_Driver/Src/stm32g4xx_hal_pwr_ex.c ****       __HAL_PWR_PVM4_EXTI_DISABLE_IT();
 1551              		.loc 1 789 7 view .LVU349
 1552 0094 1A6A     		ldr	r2, [r3, #32]
 1553 0096 22F04002 		bic	r2, r2, #64
 1554 009a 1A62     		str	r2, [r3, #32]
 790:Drivers/STM32G4xx_HAL_Driver/Src/stm32g4xx_hal_pwr_ex.c ****       __HAL_PWR_PVM4_EXTI_DISABLE_FALLING_EDGE();
 1555              		.loc 1 790 7 view .LVU350
 1556 009c DA6A     		ldr	r2, [r3, #44]
 1557 009e 22F04002 		bic	r2, r2, #64
 1558 00a2 DA62     		str	r2, [r3, #44]
 791:Drivers/STM32G4xx_HAL_Driver/Src/stm32g4xx_hal_pwr_ex.c ****       __HAL_PWR_PVM4_EXTI_DISABLE_RISING_EDGE();
 1559              		.loc 1 791 7 view .LVU351
 1560 00a4 9A6A     		ldr	r2, [r3, #40]
 1561 00a6 22F04002 		bic	r2, r2, #64
 1562 00aa 9A62     		str	r2, [r3, #40]
 792:Drivers/STM32G4xx_HAL_Driver/Src/stm32g4xx_hal_pwr_ex.c **** 
 793:Drivers/STM32G4xx_HAL_Driver/Src/stm32g4xx_hal_pwr_ex.c ****       /* Configure interrupt mode */
ARM GAS  /tmp/ccWGtOKe.s 			page 43


 794:Drivers/STM32G4xx_HAL_Driver/Src/stm32g4xx_hal_pwr_ex.c ****       if((sConfigPVM->Mode & PVM_MODE_IT) == PVM_MODE_IT)
 1563              		.loc 1 794 7 view .LVU352
 1564              		.loc 1 794 21 is_stmt 0 view .LVU353
 1565 00ac 4368     		ldr	r3, [r0, #4]
 1566              		.loc 1 794 9 view .LVU354
 1567 00ae 13F4803F 		tst	r3, #65536
 1568 00b2 04D0     		beq	.L141
 795:Drivers/STM32G4xx_HAL_Driver/Src/stm32g4xx_hal_pwr_ex.c ****       {
 796:Drivers/STM32G4xx_HAL_Driver/Src/stm32g4xx_hal_pwr_ex.c ****         __HAL_PWR_PVM4_EXTI_ENABLE_IT();
 1569              		.loc 1 796 9 is_stmt 1 view .LVU355
 1570 00b4 4C4A     		ldr	r2, .L150
 1571 00b6 136A     		ldr	r3, [r2, #32]
 1572 00b8 43F04003 		orr	r3, r3, #64
 1573 00bc 1362     		str	r3, [r2, #32]
 1574              	.L141:
 797:Drivers/STM32G4xx_HAL_Driver/Src/stm32g4xx_hal_pwr_ex.c ****       }
 798:Drivers/STM32G4xx_HAL_Driver/Src/stm32g4xx_hal_pwr_ex.c **** 
 799:Drivers/STM32G4xx_HAL_Driver/Src/stm32g4xx_hal_pwr_ex.c ****       /* Configure event mode */
 800:Drivers/STM32G4xx_HAL_Driver/Src/stm32g4xx_hal_pwr_ex.c ****       if((sConfigPVM->Mode & PVM_MODE_EVT) == PVM_MODE_EVT)
 1575              		.loc 1 800 7 view .LVU356
 1576              		.loc 1 800 21 is_stmt 0 view .LVU357
 1577 00be 4368     		ldr	r3, [r0, #4]
 1578              		.loc 1 800 9 view .LVU358
 1579 00c0 13F4003F 		tst	r3, #131072
 1580 00c4 04D0     		beq	.L142
 801:Drivers/STM32G4xx_HAL_Driver/Src/stm32g4xx_hal_pwr_ex.c ****       {
 802:Drivers/STM32G4xx_HAL_Driver/Src/stm32g4xx_hal_pwr_ex.c ****         __HAL_PWR_PVM4_EXTI_ENABLE_EVENT();
 1581              		.loc 1 802 9 is_stmt 1 view .LVU359
 1582 00c6 484A     		ldr	r2, .L150
 1583 00c8 536A     		ldr	r3, [r2, #36]
 1584 00ca 43F04003 		orr	r3, r3, #64
 1585 00ce 5362     		str	r3, [r2, #36]
 1586              	.L142:
 803:Drivers/STM32G4xx_HAL_Driver/Src/stm32g4xx_hal_pwr_ex.c ****       }
 804:Drivers/STM32G4xx_HAL_Driver/Src/stm32g4xx_hal_pwr_ex.c **** 
 805:Drivers/STM32G4xx_HAL_Driver/Src/stm32g4xx_hal_pwr_ex.c ****       /* Configure the edge */
 806:Drivers/STM32G4xx_HAL_Driver/Src/stm32g4xx_hal_pwr_ex.c ****       if((sConfigPVM->Mode & PVM_RISING_EDGE) == PVM_RISING_EDGE)
 1587              		.loc 1 806 7 view .LVU360
 1588              		.loc 1 806 21 is_stmt 0 view .LVU361
 1589 00d0 4368     		ldr	r3, [r0, #4]
 1590              		.loc 1 806 9 view .LVU362
 1591 00d2 13F0010F 		tst	r3, #1
 1592 00d6 04D0     		beq	.L143
 807:Drivers/STM32G4xx_HAL_Driver/Src/stm32g4xx_hal_pwr_ex.c ****       {
 808:Drivers/STM32G4xx_HAL_Driver/Src/stm32g4xx_hal_pwr_ex.c ****         __HAL_PWR_PVM4_EXTI_ENABLE_RISING_EDGE();
 1593              		.loc 1 808 9 is_stmt 1 view .LVU363
 1594 00d8 434A     		ldr	r2, .L150
 1595 00da 936A     		ldr	r3, [r2, #40]
 1596 00dc 43F04003 		orr	r3, r3, #64
 1597 00e0 9362     		str	r3, [r2, #40]
 1598              	.L143:
 809:Drivers/STM32G4xx_HAL_Driver/Src/stm32g4xx_hal_pwr_ex.c ****       }
 810:Drivers/STM32G4xx_HAL_Driver/Src/stm32g4xx_hal_pwr_ex.c **** 
 811:Drivers/STM32G4xx_HAL_Driver/Src/stm32g4xx_hal_pwr_ex.c ****       if((sConfigPVM->Mode & PVM_FALLING_EDGE) == PVM_FALLING_EDGE)
 1599              		.loc 1 811 7 view .LVU364
 1600              		.loc 1 811 21 is_stmt 0 view .LVU365
 1601 00e2 4368     		ldr	r3, [r0, #4]
ARM GAS  /tmp/ccWGtOKe.s 			page 44


 1602              		.loc 1 811 9 view .LVU366
 1603 00e4 13F0020F 		tst	r3, #2
 1604 00e8 7CD0     		beq	.L147
 812:Drivers/STM32G4xx_HAL_Driver/Src/stm32g4xx_hal_pwr_ex.c ****       {
 813:Drivers/STM32G4xx_HAL_Driver/Src/stm32g4xx_hal_pwr_ex.c ****         __HAL_PWR_PVM4_EXTI_ENABLE_FALLING_EDGE();
 1605              		.loc 1 813 9 is_stmt 1 view .LVU367
 1606 00ea 3F4A     		ldr	r2, .L150
 1607 00ec D36A     		ldr	r3, [r2, #44]
 1608 00ee 43F04003 		orr	r3, r3, #64
 1609 00f2 D362     		str	r3, [r2, #44]
 677:Drivers/STM32G4xx_HAL_Driver/Src/stm32g4xx_hal_pwr_ex.c **** 
 1610              		.loc 1 677 21 is_stmt 0 view .LVU368
 1611 00f4 0020     		movs	r0, #0
 1612              	.LVL118:
 677:Drivers/STM32G4xx_HAL_Driver/Src/stm32g4xx_hal_pwr_ex.c **** 
 1613              		.loc 1 677 21 view .LVU369
 1614 00f6 7047     		bx	lr
 1615              	.LVL119:
 1616              	.L149:
 687:Drivers/STM32G4xx_HAL_Driver/Src/stm32g4xx_hal_pwr_ex.c ****   {
 1617              		.loc 1 687 3 view .LVU370
 1618 00f8 0120     		movs	r0, #1
 1619              	.LVL120:
 687:Drivers/STM32G4xx_HAL_Driver/Src/stm32g4xx_hal_pwr_ex.c ****   {
 1620              		.loc 1 687 3 view .LVU371
 1621 00fa 7047     		bx	lr
 1622              	.LVL121:
 1623              	.L128:
 692:Drivers/STM32G4xx_HAL_Driver/Src/stm32g4xx_hal_pwr_ex.c ****       __HAL_PWR_PVM1_EXTI_DISABLE_IT();
 1624              		.loc 1 692 7 is_stmt 1 view .LVU372
 1625 00fc 3A4B     		ldr	r3, .L150
 1626 00fe 5A6A     		ldr	r2, [r3, #36]
 1627 0100 22F00802 		bic	r2, r2, #8
 1628 0104 5A62     		str	r2, [r3, #36]
 693:Drivers/STM32G4xx_HAL_Driver/Src/stm32g4xx_hal_pwr_ex.c ****       __HAL_PWR_PVM1_EXTI_DISABLE_FALLING_EDGE();
 1629              		.loc 1 693 7 view .LVU373
 1630 0106 1A6A     		ldr	r2, [r3, #32]
 1631 0108 22F00802 		bic	r2, r2, #8
 1632 010c 1A62     		str	r2, [r3, #32]
 694:Drivers/STM32G4xx_HAL_Driver/Src/stm32g4xx_hal_pwr_ex.c ****       __HAL_PWR_PVM1_EXTI_DISABLE_RISING_EDGE();
 1633              		.loc 1 694 7 view .LVU374
 1634 010e DA6A     		ldr	r2, [r3, #44]
 1635 0110 22F00802 		bic	r2, r2, #8
 1636 0114 DA62     		str	r2, [r3, #44]
 695:Drivers/STM32G4xx_HAL_Driver/Src/stm32g4xx_hal_pwr_ex.c **** 
 1637              		.loc 1 695 7 view .LVU375
 1638 0116 9A6A     		ldr	r2, [r3, #40]
 1639 0118 22F00802 		bic	r2, r2, #8
 1640 011c 9A62     		str	r2, [r3, #40]
 698:Drivers/STM32G4xx_HAL_Driver/Src/stm32g4xx_hal_pwr_ex.c ****       {
 1641              		.loc 1 698 7 view .LVU376
 698:Drivers/STM32G4xx_HAL_Driver/Src/stm32g4xx_hal_pwr_ex.c ****       {
 1642              		.loc 1 698 21 is_stmt 0 view .LVU377
 1643 011e 4368     		ldr	r3, [r0, #4]
 698:Drivers/STM32G4xx_HAL_Driver/Src/stm32g4xx_hal_pwr_ex.c ****       {
 1644              		.loc 1 698 9 view .LVU378
 1645 0120 13F4803F 		tst	r3, #65536
ARM GAS  /tmp/ccWGtOKe.s 			page 45


 1646 0124 04D0     		beq	.L132
 700:Drivers/STM32G4xx_HAL_Driver/Src/stm32g4xx_hal_pwr_ex.c ****       }
 1647              		.loc 1 700 9 is_stmt 1 view .LVU379
 1648 0126 304A     		ldr	r2, .L150
 1649 0128 136A     		ldr	r3, [r2, #32]
 1650 012a 43F00803 		orr	r3, r3, #8
 1651 012e 1362     		str	r3, [r2, #32]
 1652              	.L132:
 704:Drivers/STM32G4xx_HAL_Driver/Src/stm32g4xx_hal_pwr_ex.c ****       {
 1653              		.loc 1 704 7 view .LVU380
 704:Drivers/STM32G4xx_HAL_Driver/Src/stm32g4xx_hal_pwr_ex.c ****       {
 1654              		.loc 1 704 21 is_stmt 0 view .LVU381
 1655 0130 4368     		ldr	r3, [r0, #4]
 704:Drivers/STM32G4xx_HAL_Driver/Src/stm32g4xx_hal_pwr_ex.c ****       {
 1656              		.loc 1 704 9 view .LVU382
 1657 0132 13F4003F 		tst	r3, #131072
 1658 0136 04D0     		beq	.L133
 706:Drivers/STM32G4xx_HAL_Driver/Src/stm32g4xx_hal_pwr_ex.c ****       }
 1659              		.loc 1 706 9 is_stmt 1 view .LVU383
 1660 0138 2B4A     		ldr	r2, .L150
 1661 013a 536A     		ldr	r3, [r2, #36]
 1662 013c 43F00803 		orr	r3, r3, #8
 1663 0140 5362     		str	r3, [r2, #36]
 1664              	.L133:
 710:Drivers/STM32G4xx_HAL_Driver/Src/stm32g4xx_hal_pwr_ex.c ****       {
 1665              		.loc 1 710 7 view .LVU384
 710:Drivers/STM32G4xx_HAL_Driver/Src/stm32g4xx_hal_pwr_ex.c ****       {
 1666              		.loc 1 710 21 is_stmt 0 view .LVU385
 1667 0142 4368     		ldr	r3, [r0, #4]
 710:Drivers/STM32G4xx_HAL_Driver/Src/stm32g4xx_hal_pwr_ex.c ****       {
 1668              		.loc 1 710 9 view .LVU386
 1669 0144 13F0010F 		tst	r3, #1
 1670 0148 04D0     		beq	.L134
 712:Drivers/STM32G4xx_HAL_Driver/Src/stm32g4xx_hal_pwr_ex.c ****       }
 1671              		.loc 1 712 9 is_stmt 1 view .LVU387
 1672 014a 274A     		ldr	r2, .L150
 1673 014c 936A     		ldr	r3, [r2, #40]
 1674 014e 43F00803 		orr	r3, r3, #8
 1675 0152 9362     		str	r3, [r2, #40]
 1676              	.L134:
 715:Drivers/STM32G4xx_HAL_Driver/Src/stm32g4xx_hal_pwr_ex.c ****       {
 1677              		.loc 1 715 7 view .LVU388
 715:Drivers/STM32G4xx_HAL_Driver/Src/stm32g4xx_hal_pwr_ex.c ****       {
 1678              		.loc 1 715 21 is_stmt 0 view .LVU389
 1679 0154 4368     		ldr	r3, [r0, #4]
 715:Drivers/STM32G4xx_HAL_Driver/Src/stm32g4xx_hal_pwr_ex.c ****       {
 1680              		.loc 1 715 9 view .LVU390
 1681 0156 13F0020F 		tst	r3, #2
 1682 015a 3DD0     		beq	.L144
 717:Drivers/STM32G4xx_HAL_Driver/Src/stm32g4xx_hal_pwr_ex.c ****       }
 1683              		.loc 1 717 9 is_stmt 1 view .LVU391
 1684 015c 224A     		ldr	r2, .L150
 1685 015e D36A     		ldr	r3, [r2, #44]
 1686 0160 43F00803 		orr	r3, r3, #8
 1687 0164 D362     		str	r3, [r2, #44]
 677:Drivers/STM32G4xx_HAL_Driver/Src/stm32g4xx_hal_pwr_ex.c **** 
 1688              		.loc 1 677 21 is_stmt 0 view .LVU392
ARM GAS  /tmp/ccWGtOKe.s 			page 46


 1689 0166 0020     		movs	r0, #0
 1690              	.LVL122:
 677:Drivers/STM32G4xx_HAL_Driver/Src/stm32g4xx_hal_pwr_ex.c **** 
 1691              		.loc 1 677 21 view .LVU393
 1692 0168 7047     		bx	lr
 1693              	.LVL123:
 1694              	.L126:
 757:Drivers/STM32G4xx_HAL_Driver/Src/stm32g4xx_hal_pwr_ex.c ****       __HAL_PWR_PVM3_EXTI_DISABLE_IT();
 1695              		.loc 1 757 7 is_stmt 1 view .LVU394
 1696 016a 1F4B     		ldr	r3, .L150
 1697 016c 5A6A     		ldr	r2, [r3, #36]
 1698 016e 22F02002 		bic	r2, r2, #32
 1699 0172 5A62     		str	r2, [r3, #36]
 758:Drivers/STM32G4xx_HAL_Driver/Src/stm32g4xx_hal_pwr_ex.c ****       __HAL_PWR_PVM3_EXTI_DISABLE_FALLING_EDGE();
 1700              		.loc 1 758 7 view .LVU395
 1701 0174 1A6A     		ldr	r2, [r3, #32]
 1702 0176 22F02002 		bic	r2, r2, #32
 1703 017a 1A62     		str	r2, [r3, #32]
 759:Drivers/STM32G4xx_HAL_Driver/Src/stm32g4xx_hal_pwr_ex.c ****       __HAL_PWR_PVM3_EXTI_DISABLE_RISING_EDGE();
 1704              		.loc 1 759 7 view .LVU396
 1705 017c DA6A     		ldr	r2, [r3, #44]
 1706 017e 22F02002 		bic	r2, r2, #32
 1707 0182 DA62     		str	r2, [r3, #44]
 760:Drivers/STM32G4xx_HAL_Driver/Src/stm32g4xx_hal_pwr_ex.c **** 
 1708              		.loc 1 760 7 view .LVU397
 1709 0184 9A6A     		ldr	r2, [r3, #40]
 1710 0186 22F02002 		bic	r2, r2, #32
 1711 018a 9A62     		str	r2, [r3, #40]
 763:Drivers/STM32G4xx_HAL_Driver/Src/stm32g4xx_hal_pwr_ex.c ****       {
 1712              		.loc 1 763 7 view .LVU398
 763:Drivers/STM32G4xx_HAL_Driver/Src/stm32g4xx_hal_pwr_ex.c ****       {
 1713              		.loc 1 763 21 is_stmt 0 view .LVU399
 1714 018c 4368     		ldr	r3, [r0, #4]
 763:Drivers/STM32G4xx_HAL_Driver/Src/stm32g4xx_hal_pwr_ex.c ****       {
 1715              		.loc 1 763 9 view .LVU400
 1716 018e 13F4803F 		tst	r3, #65536
 1717 0192 04D0     		beq	.L138
 765:Drivers/STM32G4xx_HAL_Driver/Src/stm32g4xx_hal_pwr_ex.c ****       }
 1718              		.loc 1 765 9 is_stmt 1 view .LVU401
 1719 0194 144A     		ldr	r2, .L150
 1720 0196 136A     		ldr	r3, [r2, #32]
 1721 0198 43F02003 		orr	r3, r3, #32
 1722 019c 1362     		str	r3, [r2, #32]
 1723              	.L138:
 769:Drivers/STM32G4xx_HAL_Driver/Src/stm32g4xx_hal_pwr_ex.c ****       {
 1724              		.loc 1 769 7 view .LVU402
 769:Drivers/STM32G4xx_HAL_Driver/Src/stm32g4xx_hal_pwr_ex.c ****       {
 1725              		.loc 1 769 21 is_stmt 0 view .LVU403
 1726 019e 4368     		ldr	r3, [r0, #4]
 769:Drivers/STM32G4xx_HAL_Driver/Src/stm32g4xx_hal_pwr_ex.c ****       {
 1727              		.loc 1 769 9 view .LVU404
 1728 01a0 13F4003F 		tst	r3, #131072
 1729 01a4 04D0     		beq	.L139
 771:Drivers/STM32G4xx_HAL_Driver/Src/stm32g4xx_hal_pwr_ex.c ****       }
 1730              		.loc 1 771 9 is_stmt 1 view .LVU405
 1731 01a6 104A     		ldr	r2, .L150
 1732 01a8 536A     		ldr	r3, [r2, #36]
ARM GAS  /tmp/ccWGtOKe.s 			page 47


 1733 01aa 43F02003 		orr	r3, r3, #32
 1734 01ae 5362     		str	r3, [r2, #36]
 1735              	.L139:
 775:Drivers/STM32G4xx_HAL_Driver/Src/stm32g4xx_hal_pwr_ex.c ****       {
 1736              		.loc 1 775 7 view .LVU406
 775:Drivers/STM32G4xx_HAL_Driver/Src/stm32g4xx_hal_pwr_ex.c ****       {
 1737              		.loc 1 775 21 is_stmt 0 view .LVU407
 1738 01b0 4368     		ldr	r3, [r0, #4]
 775:Drivers/STM32G4xx_HAL_Driver/Src/stm32g4xx_hal_pwr_ex.c ****       {
 1739              		.loc 1 775 9 view .LVU408
 1740 01b2 13F0010F 		tst	r3, #1
 1741 01b6 04D0     		beq	.L140
 777:Drivers/STM32G4xx_HAL_Driver/Src/stm32g4xx_hal_pwr_ex.c ****       }
 1742              		.loc 1 777 9 is_stmt 1 view .LVU409
 1743 01b8 0B4A     		ldr	r2, .L150
 1744 01ba 936A     		ldr	r3, [r2, #40]
 1745 01bc 43F02003 		orr	r3, r3, #32
 1746 01c0 9362     		str	r3, [r2, #40]
 1747              	.L140:
 780:Drivers/STM32G4xx_HAL_Driver/Src/stm32g4xx_hal_pwr_ex.c ****       {
 1748              		.loc 1 780 7 view .LVU410
 780:Drivers/STM32G4xx_HAL_Driver/Src/stm32g4xx_hal_pwr_ex.c ****       {
 1749              		.loc 1 780 21 is_stmt 0 view .LVU411
 1750 01c2 4368     		ldr	r3, [r0, #4]
 780:Drivers/STM32G4xx_HAL_Driver/Src/stm32g4xx_hal_pwr_ex.c ****       {
 1751              		.loc 1 780 9 view .LVU412
 1752 01c4 13F0020F 		tst	r3, #2
 1753 01c8 0AD0     		beq	.L146
 782:Drivers/STM32G4xx_HAL_Driver/Src/stm32g4xx_hal_pwr_ex.c ****       }
 1754              		.loc 1 782 9 is_stmt 1 view .LVU413
 1755 01ca 074A     		ldr	r2, .L150
 1756 01cc D36A     		ldr	r3, [r2, #44]
 1757 01ce 43F02003 		orr	r3, r3, #32
 1758 01d2 D362     		str	r3, [r2, #44]
 677:Drivers/STM32G4xx_HAL_Driver/Src/stm32g4xx_hal_pwr_ex.c **** 
 1759              		.loc 1 677 21 is_stmt 0 view .LVU414
 1760 01d4 0020     		movs	r0, #0
 1761              	.LVL124:
 677:Drivers/STM32G4xx_HAL_Driver/Src/stm32g4xx_hal_pwr_ex.c **** 
 1762              		.loc 1 677 21 view .LVU415
 1763 01d6 7047     		bx	lr
 1764              	.LVL125:
 1765              	.L144:
 677:Drivers/STM32G4xx_HAL_Driver/Src/stm32g4xx_hal_pwr_ex.c **** 
 1766              		.loc 1 677 21 view .LVU416
 1767 01d8 0020     		movs	r0, #0
 1768              	.LVL126:
 677:Drivers/STM32G4xx_HAL_Driver/Src/stm32g4xx_hal_pwr_ex.c **** 
 1769              		.loc 1 677 21 view .LVU417
 1770 01da 7047     		bx	lr
 1771              	.LVL127:
 1772              	.L145:
 677:Drivers/STM32G4xx_HAL_Driver/Src/stm32g4xx_hal_pwr_ex.c **** 
 1773              		.loc 1 677 21 view .LVU418
 1774 01dc 0020     		movs	r0, #0
 1775              	.LVL128:
 677:Drivers/STM32G4xx_HAL_Driver/Src/stm32g4xx_hal_pwr_ex.c **** 
ARM GAS  /tmp/ccWGtOKe.s 			page 48


 1776              		.loc 1 677 21 view .LVU419
 1777 01de 7047     		bx	lr
 1778              	.LVL129:
 1779              	.L146:
 677:Drivers/STM32G4xx_HAL_Driver/Src/stm32g4xx_hal_pwr_ex.c **** 
 1780              		.loc 1 677 21 view .LVU420
 1781 01e0 0020     		movs	r0, #0
 1782              	.LVL130:
 677:Drivers/STM32G4xx_HAL_Driver/Src/stm32g4xx_hal_pwr_ex.c **** 
 1783              		.loc 1 677 21 view .LVU421
 1784 01e2 7047     		bx	lr
 1785              	.LVL131:
 1786              	.L147:
 677:Drivers/STM32G4xx_HAL_Driver/Src/stm32g4xx_hal_pwr_ex.c **** 
 1787              		.loc 1 677 21 view .LVU422
 1788 01e4 0020     		movs	r0, #0
 1789              	.LVL132:
 814:Drivers/STM32G4xx_HAL_Driver/Src/stm32g4xx_hal_pwr_ex.c ****       }
 815:Drivers/STM32G4xx_HAL_Driver/Src/stm32g4xx_hal_pwr_ex.c ****       break;
 816:Drivers/STM32G4xx_HAL_Driver/Src/stm32g4xx_hal_pwr_ex.c **** 
 817:Drivers/STM32G4xx_HAL_Driver/Src/stm32g4xx_hal_pwr_ex.c ****     default:
 818:Drivers/STM32G4xx_HAL_Driver/Src/stm32g4xx_hal_pwr_ex.c ****       status = HAL_ERROR;
 819:Drivers/STM32G4xx_HAL_Driver/Src/stm32g4xx_hal_pwr_ex.c ****       break;
 820:Drivers/STM32G4xx_HAL_Driver/Src/stm32g4xx_hal_pwr_ex.c ****   }
 821:Drivers/STM32G4xx_HAL_Driver/Src/stm32g4xx_hal_pwr_ex.c **** 
 822:Drivers/STM32G4xx_HAL_Driver/Src/stm32g4xx_hal_pwr_ex.c ****   return status;
 1790              		.loc 1 822 3 is_stmt 1 view .LVU423
 823:Drivers/STM32G4xx_HAL_Driver/Src/stm32g4xx_hal_pwr_ex.c **** }
 1791              		.loc 1 823 1 is_stmt 0 view .LVU424
 1792 01e6 7047     		bx	lr
 1793              	.L151:
 1794              		.align	2
 1795              	.L150:
 1796 01e8 00040140 		.word	1073808384
 1797              		.cfi_endproc
 1798              	.LFE184:
 1800              		.section	.text.HAL_PWREx_EnableUSBDeadBatteryPD,"ax",%progbits
 1801              		.align	1
 1802              		.global	HAL_PWREx_EnableUSBDeadBatteryPD
 1803              		.syntax unified
 1804              		.thumb
 1805              		.thumb_func
 1806              		.fpu fpv4-sp-d16
 1808              	HAL_PWREx_EnableUSBDeadBatteryPD:
 1809              	.LFB185:
 824:Drivers/STM32G4xx_HAL_Driver/Src/stm32g4xx_hal_pwr_ex.c **** 
 825:Drivers/STM32G4xx_HAL_Driver/Src/stm32g4xx_hal_pwr_ex.c **** #if defined(PWR_CR3_UCPD_DBDIS)
 826:Drivers/STM32G4xx_HAL_Driver/Src/stm32g4xx_hal_pwr_ex.c **** /**
 827:Drivers/STM32G4xx_HAL_Driver/Src/stm32g4xx_hal_pwr_ex.c ****   * @brief Enable the USB Type-C dead battery pull-down behavior
 828:Drivers/STM32G4xx_HAL_Driver/Src/stm32g4xx_hal_pwr_ex.c ****   *        on UCPDx_CC1 and UCPDx_CC2 pins
 829:Drivers/STM32G4xx_HAL_Driver/Src/stm32g4xx_hal_pwr_ex.c ****   * @note After exiting reset, the USB Type-C dead battery behavior will be enabled,
 830:Drivers/STM32G4xx_HAL_Driver/Src/stm32g4xx_hal_pwr_ex.c ****   *       which may have a pull-down effect on CC1 and CC2 pins.
 831:Drivers/STM32G4xx_HAL_Driver/Src/stm32g4xx_hal_pwr_ex.c ****   *       It is recommended to disable it in all cases, either to stop this pull-down
 832:Drivers/STM32G4xx_HAL_Driver/Src/stm32g4xx_hal_pwr_ex.c ****   *       or to hand over control to the UCPD (which should therefore be
 833:Drivers/STM32G4xx_HAL_Driver/Src/stm32g4xx_hal_pwr_ex.c ****   *       initialized before doing the disable).
 834:Drivers/STM32G4xx_HAL_Driver/Src/stm32g4xx_hal_pwr_ex.c ****   * @retval None
 835:Drivers/STM32G4xx_HAL_Driver/Src/stm32g4xx_hal_pwr_ex.c ****   */
ARM GAS  /tmp/ccWGtOKe.s 			page 49


 836:Drivers/STM32G4xx_HAL_Driver/Src/stm32g4xx_hal_pwr_ex.c **** void HAL_PWREx_EnableUSBDeadBatteryPD(void)
 837:Drivers/STM32G4xx_HAL_Driver/Src/stm32g4xx_hal_pwr_ex.c **** {
 1810              		.loc 1 837 1 is_stmt 1 view -0
 1811              		.cfi_startproc
 1812              		@ args = 0, pretend = 0, frame = 0
 1813              		@ frame_needed = 0, uses_anonymous_args = 0
 1814              		@ link register save eliminated.
 838:Drivers/STM32G4xx_HAL_Driver/Src/stm32g4xx_hal_pwr_ex.c ****    /* writing 0 to enable the USB Type-C dead battery pull-down behavior */
 839:Drivers/STM32G4xx_HAL_Driver/Src/stm32g4xx_hal_pwr_ex.c ****    CLEAR_BIT(PWR->CR3, PWR_CR3_UCPD_DBDIS);
 1815              		.loc 1 839 4 view .LVU426
 1816 0000 024A     		ldr	r2, .L153
 1817 0002 9368     		ldr	r3, [r2, #8]
 1818 0004 23F48043 		bic	r3, r3, #16384
 1819 0008 9360     		str	r3, [r2, #8]
 840:Drivers/STM32G4xx_HAL_Driver/Src/stm32g4xx_hal_pwr_ex.c **** }
 1820              		.loc 1 840 1 is_stmt 0 view .LVU427
 1821 000a 7047     		bx	lr
 1822              	.L154:
 1823              		.align	2
 1824              	.L153:
 1825 000c 00700040 		.word	1073770496
 1826              		.cfi_endproc
 1827              	.LFE185:
 1829              		.section	.text.HAL_PWREx_DisableUSBDeadBatteryPD,"ax",%progbits
 1830              		.align	1
 1831              		.global	HAL_PWREx_DisableUSBDeadBatteryPD
 1832              		.syntax unified
 1833              		.thumb
 1834              		.thumb_func
 1835              		.fpu fpv4-sp-d16
 1837              	HAL_PWREx_DisableUSBDeadBatteryPD:
 1838              	.LFB186:
 841:Drivers/STM32G4xx_HAL_Driver/Src/stm32g4xx_hal_pwr_ex.c **** 
 842:Drivers/STM32G4xx_HAL_Driver/Src/stm32g4xx_hal_pwr_ex.c **** /**
 843:Drivers/STM32G4xx_HAL_Driver/Src/stm32g4xx_hal_pwr_ex.c ****   * @brief Disable the USB Type-C dead battery pull-down behavior
 844:Drivers/STM32G4xx_HAL_Driver/Src/stm32g4xx_hal_pwr_ex.c ****   *        on UCPDx_CC1 and UCPDx_CC2 pins
 845:Drivers/STM32G4xx_HAL_Driver/Src/stm32g4xx_hal_pwr_ex.c ****   * @note After exiting reset, the USB Type-C dead battery behavior will be enabled,
 846:Drivers/STM32G4xx_HAL_Driver/Src/stm32g4xx_hal_pwr_ex.c ****   *       which may have a pull-down effect on CC1 and CC2 pins.
 847:Drivers/STM32G4xx_HAL_Driver/Src/stm32g4xx_hal_pwr_ex.c ****   *       It is recommended to disable it in all cases, either to stop this pull-down
 848:Drivers/STM32G4xx_HAL_Driver/Src/stm32g4xx_hal_pwr_ex.c ****   *       or to hand over control to the UCPD (which should therefore be
 849:Drivers/STM32G4xx_HAL_Driver/Src/stm32g4xx_hal_pwr_ex.c ****   *       initialized before doing the disable).
 850:Drivers/STM32G4xx_HAL_Driver/Src/stm32g4xx_hal_pwr_ex.c ****   * @retval None
 851:Drivers/STM32G4xx_HAL_Driver/Src/stm32g4xx_hal_pwr_ex.c ****   */
 852:Drivers/STM32G4xx_HAL_Driver/Src/stm32g4xx_hal_pwr_ex.c **** void HAL_PWREx_DisableUSBDeadBatteryPD(void)
 853:Drivers/STM32G4xx_HAL_Driver/Src/stm32g4xx_hal_pwr_ex.c **** {
 1839              		.loc 1 853 1 is_stmt 1 view -0
 1840              		.cfi_startproc
 1841              		@ args = 0, pretend = 0, frame = 0
 1842              		@ frame_needed = 0, uses_anonymous_args = 0
 1843              		@ link register save eliminated.
 854:Drivers/STM32G4xx_HAL_Driver/Src/stm32g4xx_hal_pwr_ex.c ****    /* writing 1 to disable the USB Type-C dead battery pull-down behavior */
 855:Drivers/STM32G4xx_HAL_Driver/Src/stm32g4xx_hal_pwr_ex.c ****    SET_BIT(PWR->CR3, PWR_CR3_UCPD_DBDIS);
 1844              		.loc 1 855 4 view .LVU429
 1845 0000 024A     		ldr	r2, .L156
 1846 0002 9368     		ldr	r3, [r2, #8]
 1847 0004 43F48043 		orr	r3, r3, #16384
 1848 0008 9360     		str	r3, [r2, #8]
ARM GAS  /tmp/ccWGtOKe.s 			page 50


 856:Drivers/STM32G4xx_HAL_Driver/Src/stm32g4xx_hal_pwr_ex.c **** }
 1849              		.loc 1 856 1 is_stmt 0 view .LVU430
 1850 000a 7047     		bx	lr
 1851              	.L157:
 1852              		.align	2
 1853              	.L156:
 1854 000c 00700040 		.word	1073770496
 1855              		.cfi_endproc
 1856              	.LFE186:
 1858              		.section	.text.HAL_PWREx_EnableUSBStandByModePD,"ax",%progbits
 1859              		.align	1
 1860              		.global	HAL_PWREx_EnableUSBStandByModePD
 1861              		.syntax unified
 1862              		.thumb
 1863              		.thumb_func
 1864              		.fpu fpv4-sp-d16
 1866              	HAL_PWREx_EnableUSBStandByModePD:
 1867              	.LFB187:
 857:Drivers/STM32G4xx_HAL_Driver/Src/stm32g4xx_hal_pwr_ex.c **** #endif /* PWR_CR3_UCPD_DBDIS */
 858:Drivers/STM32G4xx_HAL_Driver/Src/stm32g4xx_hal_pwr_ex.c **** 
 859:Drivers/STM32G4xx_HAL_Driver/Src/stm32g4xx_hal_pwr_ex.c **** #if defined(PWR_CR3_UCPD_STDBY)
 860:Drivers/STM32G4xx_HAL_Driver/Src/stm32g4xx_hal_pwr_ex.c **** /**
 861:Drivers/STM32G4xx_HAL_Driver/Src/stm32g4xx_hal_pwr_ex.c ****   * @brief Enable the USB Type-C and Power Delivery standby mode
 862:Drivers/STM32G4xx_HAL_Driver/Src/stm32g4xx_hal_pwr_ex.c ****   * @retval None
 863:Drivers/STM32G4xx_HAL_Driver/Src/stm32g4xx_hal_pwr_ex.c ****   */
 864:Drivers/STM32G4xx_HAL_Driver/Src/stm32g4xx_hal_pwr_ex.c **** void HAL_PWREx_EnableUSBStandByModePD(void)
 865:Drivers/STM32G4xx_HAL_Driver/Src/stm32g4xx_hal_pwr_ex.c **** {
 1868              		.loc 1 865 1 is_stmt 1 view -0
 1869              		.cfi_startproc
 1870              		@ args = 0, pretend = 0, frame = 0
 1871              		@ frame_needed = 0, uses_anonymous_args = 0
 1872              		@ link register save eliminated.
 866:Drivers/STM32G4xx_HAL_Driver/Src/stm32g4xx_hal_pwr_ex.c ****    /* Write 1 just before entering Standby when using UCPD */
 867:Drivers/STM32G4xx_HAL_Driver/Src/stm32g4xx_hal_pwr_ex.c ****    SET_BIT(PWR->CR3, PWR_CR3_UCPD_STDBY);
 1873              		.loc 1 867 4 view .LVU432
 1874 0000 024A     		ldr	r2, .L159
 1875 0002 9368     		ldr	r3, [r2, #8]
 1876 0004 43F40053 		orr	r3, r3, #8192
 1877 0008 9360     		str	r3, [r2, #8]
 868:Drivers/STM32G4xx_HAL_Driver/Src/stm32g4xx_hal_pwr_ex.c **** }
 1878              		.loc 1 868 1 is_stmt 0 view .LVU433
 1879 000a 7047     		bx	lr
 1880              	.L160:
 1881              		.align	2
 1882              	.L159:
 1883 000c 00700040 		.word	1073770496
 1884              		.cfi_endproc
 1885              	.LFE187:
 1887              		.section	.text.HAL_PWREx_DisableUSBStandByModePD,"ax",%progbits
 1888              		.align	1
 1889              		.global	HAL_PWREx_DisableUSBStandByModePD
 1890              		.syntax unified
 1891              		.thumb
 1892              		.thumb_func
 1893              		.fpu fpv4-sp-d16
 1895              	HAL_PWREx_DisableUSBStandByModePD:
 1896              	.LFB188:
ARM GAS  /tmp/ccWGtOKe.s 			page 51


 869:Drivers/STM32G4xx_HAL_Driver/Src/stm32g4xx_hal_pwr_ex.c **** 
 870:Drivers/STM32G4xx_HAL_Driver/Src/stm32g4xx_hal_pwr_ex.c **** /**
 871:Drivers/STM32G4xx_HAL_Driver/Src/stm32g4xx_hal_pwr_ex.c ****   * @brief Disable the USB Type-C and Power Delivery standby mode
 872:Drivers/STM32G4xx_HAL_Driver/Src/stm32g4xx_hal_pwr_ex.c ****   * @retval None
 873:Drivers/STM32G4xx_HAL_Driver/Src/stm32g4xx_hal_pwr_ex.c ****   */
 874:Drivers/STM32G4xx_HAL_Driver/Src/stm32g4xx_hal_pwr_ex.c **** void HAL_PWREx_DisableUSBStandByModePD (void)
 875:Drivers/STM32G4xx_HAL_Driver/Src/stm32g4xx_hal_pwr_ex.c **** {
 1897              		.loc 1 875 1 is_stmt 1 view -0
 1898              		.cfi_startproc
 1899              		@ args = 0, pretend = 0, frame = 0
 1900              		@ frame_needed = 0, uses_anonymous_args = 0
 1901              		@ link register save eliminated.
 876:Drivers/STM32G4xx_HAL_Driver/Src/stm32g4xx_hal_pwr_ex.c ****    /* Write 0 immediately after Standby exit when using UCPD,
 877:Drivers/STM32G4xx_HAL_Driver/Src/stm32g4xx_hal_pwr_ex.c ****       and before writing any UCPD registers */
 878:Drivers/STM32G4xx_HAL_Driver/Src/stm32g4xx_hal_pwr_ex.c ****    CLEAR_BIT(PWR->CR3, PWR_CR3_UCPD_STDBY);
 1902              		.loc 1 878 4 view .LVU435
 1903 0000 024A     		ldr	r2, .L162
 1904 0002 9368     		ldr	r3, [r2, #8]
 1905 0004 23F40053 		bic	r3, r3, #8192
 1906 0008 9360     		str	r3, [r2, #8]
 879:Drivers/STM32G4xx_HAL_Driver/Src/stm32g4xx_hal_pwr_ex.c **** }
 1907              		.loc 1 879 1 is_stmt 0 view .LVU436
 1908 000a 7047     		bx	lr
 1909              	.L163:
 1910              		.align	2
 1911              	.L162:
 1912 000c 00700040 		.word	1073770496
 1913              		.cfi_endproc
 1914              	.LFE188:
 1916              		.section	.text.HAL_PWREx_EnableLowPowerRunMode,"ax",%progbits
 1917              		.align	1
 1918              		.global	HAL_PWREx_EnableLowPowerRunMode
 1919              		.syntax unified
 1920              		.thumb
 1921              		.thumb_func
 1922              		.fpu fpv4-sp-d16
 1924              	HAL_PWREx_EnableLowPowerRunMode:
 1925              	.LFB189:
 880:Drivers/STM32G4xx_HAL_Driver/Src/stm32g4xx_hal_pwr_ex.c **** #endif /* PWR_CR3_UCPD_STDBY */
 881:Drivers/STM32G4xx_HAL_Driver/Src/stm32g4xx_hal_pwr_ex.c **** 
 882:Drivers/STM32G4xx_HAL_Driver/Src/stm32g4xx_hal_pwr_ex.c **** /**
 883:Drivers/STM32G4xx_HAL_Driver/Src/stm32g4xx_hal_pwr_ex.c ****   * @brief Enter Low-power Run mode
 884:Drivers/STM32G4xx_HAL_Driver/Src/stm32g4xx_hal_pwr_ex.c ****   * @note  In Low-power Run mode, all I/O pins keep the same state as in Run mode.
 885:Drivers/STM32G4xx_HAL_Driver/Src/stm32g4xx_hal_pwr_ex.c ****   * @note  When Regulator is set to PWR_LOWPOWERREGULATOR_ON, the user can optionally configure the
 886:Drivers/STM32G4xx_HAL_Driver/Src/stm32g4xx_hal_pwr_ex.c ****   *        Flash in power-down monde in setting the RUN_PD bit in FLASH_ACR register.
 887:Drivers/STM32G4xx_HAL_Driver/Src/stm32g4xx_hal_pwr_ex.c ****   *        Additionally, the clock frequency must be reduced below 2 MHz.
 888:Drivers/STM32G4xx_HAL_Driver/Src/stm32g4xx_hal_pwr_ex.c ****   *        Setting RUN_PD in FLASH_ACR then appropriately reducing the clock frequency must
 889:Drivers/STM32G4xx_HAL_Driver/Src/stm32g4xx_hal_pwr_ex.c ****   *        be done before calling HAL_PWREx_EnableLowPowerRunMode() API.
 890:Drivers/STM32G4xx_HAL_Driver/Src/stm32g4xx_hal_pwr_ex.c ****   * @retval None
 891:Drivers/STM32G4xx_HAL_Driver/Src/stm32g4xx_hal_pwr_ex.c ****   */
 892:Drivers/STM32G4xx_HAL_Driver/Src/stm32g4xx_hal_pwr_ex.c **** void HAL_PWREx_EnableLowPowerRunMode(void)
 893:Drivers/STM32G4xx_HAL_Driver/Src/stm32g4xx_hal_pwr_ex.c **** {
 1926              		.loc 1 893 1 is_stmt 1 view -0
 1927              		.cfi_startproc
 1928              		@ args = 0, pretend = 0, frame = 0
 1929              		@ frame_needed = 0, uses_anonymous_args = 0
 1930              		@ link register save eliminated.
ARM GAS  /tmp/ccWGtOKe.s 			page 52


 894:Drivers/STM32G4xx_HAL_Driver/Src/stm32g4xx_hal_pwr_ex.c ****   /* Set Regulator parameter */
 895:Drivers/STM32G4xx_HAL_Driver/Src/stm32g4xx_hal_pwr_ex.c ****   SET_BIT(PWR->CR1, PWR_CR1_LPR);
 1931              		.loc 1 895 3 view .LVU438
 1932 0000 024A     		ldr	r2, .L165
 1933 0002 1368     		ldr	r3, [r2]
 1934 0004 43F48043 		orr	r3, r3, #16384
 1935 0008 1360     		str	r3, [r2]
 896:Drivers/STM32G4xx_HAL_Driver/Src/stm32g4xx_hal_pwr_ex.c **** }
 1936              		.loc 1 896 1 is_stmt 0 view .LVU439
 1937 000a 7047     		bx	lr
 1938              	.L166:
 1939              		.align	2
 1940              	.L165:
 1941 000c 00700040 		.word	1073770496
 1942              		.cfi_endproc
 1943              	.LFE189:
 1945              		.section	.text.HAL_PWREx_DisableLowPowerRunMode,"ax",%progbits
 1946              		.align	1
 1947              		.global	HAL_PWREx_DisableLowPowerRunMode
 1948              		.syntax unified
 1949              		.thumb
 1950              		.thumb_func
 1951              		.fpu fpv4-sp-d16
 1953              	HAL_PWREx_DisableLowPowerRunMode:
 1954              	.LFB190:
 897:Drivers/STM32G4xx_HAL_Driver/Src/stm32g4xx_hal_pwr_ex.c **** 
 898:Drivers/STM32G4xx_HAL_Driver/Src/stm32g4xx_hal_pwr_ex.c **** 
 899:Drivers/STM32G4xx_HAL_Driver/Src/stm32g4xx_hal_pwr_ex.c **** /**
 900:Drivers/STM32G4xx_HAL_Driver/Src/stm32g4xx_hal_pwr_ex.c ****   * @brief Exit Low-power Run mode.
 901:Drivers/STM32G4xx_HAL_Driver/Src/stm32g4xx_hal_pwr_ex.c ****   * @note  Before HAL_PWREx_DisableLowPowerRunMode() completion, the function checks that
 902:Drivers/STM32G4xx_HAL_Driver/Src/stm32g4xx_hal_pwr_ex.c ****   *        REGLPF has been properly reset (otherwise, HAL_PWREx_DisableLowPowerRunMode
 903:Drivers/STM32G4xx_HAL_Driver/Src/stm32g4xx_hal_pwr_ex.c ****   *        returns HAL_TIMEOUT status). The system clock frequency can then be
 904:Drivers/STM32G4xx_HAL_Driver/Src/stm32g4xx_hal_pwr_ex.c ****   *        increased above 2 MHz.
 905:Drivers/STM32G4xx_HAL_Driver/Src/stm32g4xx_hal_pwr_ex.c ****   * @retval HAL Status
 906:Drivers/STM32G4xx_HAL_Driver/Src/stm32g4xx_hal_pwr_ex.c ****   */
 907:Drivers/STM32G4xx_HAL_Driver/Src/stm32g4xx_hal_pwr_ex.c **** HAL_StatusTypeDef HAL_PWREx_DisableLowPowerRunMode(void)
 908:Drivers/STM32G4xx_HAL_Driver/Src/stm32g4xx_hal_pwr_ex.c **** {
 1955              		.loc 1 908 1 is_stmt 1 view -0
 1956              		.cfi_startproc
 1957              		@ args = 0, pretend = 0, frame = 0
 1958              		@ frame_needed = 0, uses_anonymous_args = 0
 1959              		@ link register save eliminated.
 909:Drivers/STM32G4xx_HAL_Driver/Src/stm32g4xx_hal_pwr_ex.c ****   uint32_t wait_loop_index;
 1960              		.loc 1 909 3 view .LVU441
 910:Drivers/STM32G4xx_HAL_Driver/Src/stm32g4xx_hal_pwr_ex.c **** 
 911:Drivers/STM32G4xx_HAL_Driver/Src/stm32g4xx_hal_pwr_ex.c ****   /* Clear LPR bit */
 912:Drivers/STM32G4xx_HAL_Driver/Src/stm32g4xx_hal_pwr_ex.c ****   CLEAR_BIT(PWR->CR1, PWR_CR1_LPR);
 1961              		.loc 1 912 3 view .LVU442
 1962 0000 114A     		ldr	r2, .L173
 1963 0002 1368     		ldr	r3, [r2]
 1964 0004 23F48043 		bic	r3, r3, #16384
 1965 0008 1360     		str	r3, [r2]
 913:Drivers/STM32G4xx_HAL_Driver/Src/stm32g4xx_hal_pwr_ex.c **** 
 914:Drivers/STM32G4xx_HAL_Driver/Src/stm32g4xx_hal_pwr_ex.c ****   /* Wait until REGLPF is reset */
 915:Drivers/STM32G4xx_HAL_Driver/Src/stm32g4xx_hal_pwr_ex.c ****   wait_loop_index = (PWR_FLAG_SETTING_DELAY_US * (SystemCoreClock / 1000000U));
 1966              		.loc 1 915 3 view .LVU443
 1967              		.loc 1 915 67 is_stmt 0 view .LVU444
ARM GAS  /tmp/ccWGtOKe.s 			page 53


 1968 000a 104B     		ldr	r3, .L173+4
 1969 000c 1B68     		ldr	r3, [r3]
 1970 000e 02F14672 		add	r2, r2, #51904512
 1971 0012 02F55B32 		add	r2, r2, #224256
 1972 0016 02F28322 		addw	r2, r2, #643
 1973 001a A2FB0323 		umull	r2, r3, r2, r3
 1974 001e 9A0C     		lsrs	r2, r3, #18
 1975              		.loc 1 915 19 view .LVU445
 1976 0020 3223     		movs	r3, #50
 1977 0022 03FB02F3 		mul	r3, r3, r2
 1978              	.LVL133:
 916:Drivers/STM32G4xx_HAL_Driver/Src/stm32g4xx_hal_pwr_ex.c ****   while ((HAL_IS_BIT_SET(PWR->SR2, PWR_SR2_REGLPF)) && (wait_loop_index != 0U))
 1979              		.loc 1 916 3 is_stmt 1 view .LVU446
 1980              	.L168:
 1981              		.loc 1 916 9 view .LVU447
 1982              		.loc 1 916 11 is_stmt 0 view .LVU448
 1983 0026 084A     		ldr	r2, .L173
 1984 0028 5269     		ldr	r2, [r2, #20]
 1985              		.loc 1 916 9 view .LVU449
 1986 002a 12F4007F 		tst	r2, #512
 1987 002e 02D0     		beq	.L169
 1988              		.loc 1 916 53 discriminator 1 view .LVU450
 1989 0030 0BB1     		cbz	r3, .L169
 917:Drivers/STM32G4xx_HAL_Driver/Src/stm32g4xx_hal_pwr_ex.c ****   {
 918:Drivers/STM32G4xx_HAL_Driver/Src/stm32g4xx_hal_pwr_ex.c ****     wait_loop_index--;
 1990              		.loc 1 918 5 is_stmt 1 view .LVU451
 1991              		.loc 1 918 20 is_stmt 0 view .LVU452
 1992 0032 013B     		subs	r3, r3, #1
 1993              	.LVL134:
 1994              		.loc 1 918 20 view .LVU453
 1995 0034 F7E7     		b	.L168
 1996              	.L169:
 919:Drivers/STM32G4xx_HAL_Driver/Src/stm32g4xx_hal_pwr_ex.c ****   }
 920:Drivers/STM32G4xx_HAL_Driver/Src/stm32g4xx_hal_pwr_ex.c ****   if (HAL_IS_BIT_SET(PWR->SR2, PWR_SR2_REGLPF))
 1997              		.loc 1 920 3 is_stmt 1 view .LVU454
 1998              		.loc 1 920 7 is_stmt 0 view .LVU455
 1999 0036 044B     		ldr	r3, .L173
 2000              	.LVL135:
 2001              		.loc 1 920 7 view .LVU456
 2002 0038 5B69     		ldr	r3, [r3, #20]
 2003              		.loc 1 920 6 view .LVU457
 2004 003a 13F4007F 		tst	r3, #512
 2005 003e 01D1     		bne	.L172
 921:Drivers/STM32G4xx_HAL_Driver/Src/stm32g4xx_hal_pwr_ex.c ****   {
 922:Drivers/STM32G4xx_HAL_Driver/Src/stm32g4xx_hal_pwr_ex.c ****     return HAL_TIMEOUT;
 923:Drivers/STM32G4xx_HAL_Driver/Src/stm32g4xx_hal_pwr_ex.c ****   }
 924:Drivers/STM32G4xx_HAL_Driver/Src/stm32g4xx_hal_pwr_ex.c **** 
 925:Drivers/STM32G4xx_HAL_Driver/Src/stm32g4xx_hal_pwr_ex.c ****   return HAL_OK;
 2006              		.loc 1 925 10 view .LVU458
 2007 0040 0020     		movs	r0, #0
 2008 0042 7047     		bx	lr
 2009              	.L172:
 922:Drivers/STM32G4xx_HAL_Driver/Src/stm32g4xx_hal_pwr_ex.c ****   }
 2010              		.loc 1 922 12 view .LVU459
 2011 0044 0320     		movs	r0, #3
 926:Drivers/STM32G4xx_HAL_Driver/Src/stm32g4xx_hal_pwr_ex.c **** }
 2012              		.loc 1 926 1 view .LVU460
ARM GAS  /tmp/ccWGtOKe.s 			page 54


 2013 0046 7047     		bx	lr
 2014              	.L174:
 2015              		.align	2
 2016              	.L173:
 2017 0048 00700040 		.word	1073770496
 2018 004c 00000000 		.word	SystemCoreClock
 2019              		.cfi_endproc
 2020              	.LFE190:
 2022              		.section	.text.HAL_PWREx_EnterSTOP0Mode,"ax",%progbits
 2023              		.align	1
 2024              		.global	HAL_PWREx_EnterSTOP0Mode
 2025              		.syntax unified
 2026              		.thumb
 2027              		.thumb_func
 2028              		.fpu fpv4-sp-d16
 2030              	HAL_PWREx_EnterSTOP0Mode:
 2031              	.LVL136:
 2032              	.LFB191:
 927:Drivers/STM32G4xx_HAL_Driver/Src/stm32g4xx_hal_pwr_ex.c **** 
 928:Drivers/STM32G4xx_HAL_Driver/Src/stm32g4xx_hal_pwr_ex.c **** 
 929:Drivers/STM32G4xx_HAL_Driver/Src/stm32g4xx_hal_pwr_ex.c **** /**
 930:Drivers/STM32G4xx_HAL_Driver/Src/stm32g4xx_hal_pwr_ex.c ****   * @brief Enter Stop 0 mode.
 931:Drivers/STM32G4xx_HAL_Driver/Src/stm32g4xx_hal_pwr_ex.c ****   * @note  In Stop 0 mode, main and low voltage regulators are ON.
 932:Drivers/STM32G4xx_HAL_Driver/Src/stm32g4xx_hal_pwr_ex.c ****   * @note  In Stop 0 mode, all I/O pins keep the same state as in Run mode.
 933:Drivers/STM32G4xx_HAL_Driver/Src/stm32g4xx_hal_pwr_ex.c ****   * @note  All clocks in the VCORE domain are stopped; the PLL, the HSI
 934:Drivers/STM32G4xx_HAL_Driver/Src/stm32g4xx_hal_pwr_ex.c ****   *        and the HSE oscillators are disabled. Some peripherals with the wakeup capability
 935:Drivers/STM32G4xx_HAL_Driver/Src/stm32g4xx_hal_pwr_ex.c ****   *        (I2Cx, USARTx and LPUART) can switch on the HSI to receive a frame, and switch off the H
 936:Drivers/STM32G4xx_HAL_Driver/Src/stm32g4xx_hal_pwr_ex.c ****   *        after receiving the frame if it is not a wakeup frame. In this case, the HSI clock is pr
 937:Drivers/STM32G4xx_HAL_Driver/Src/stm32g4xx_hal_pwr_ex.c ****   *        only to the peripheral requesting it.
 938:Drivers/STM32G4xx_HAL_Driver/Src/stm32g4xx_hal_pwr_ex.c ****   *        SRAM1, SRAM2 and register contents are preserved.
 939:Drivers/STM32G4xx_HAL_Driver/Src/stm32g4xx_hal_pwr_ex.c ****   *        The BOR is available.
 940:Drivers/STM32G4xx_HAL_Driver/Src/stm32g4xx_hal_pwr_ex.c ****   * @note  When exiting Stop 0 mode by issuing an interrupt or a wakeup event,
 941:Drivers/STM32G4xx_HAL_Driver/Src/stm32g4xx_hal_pwr_ex.c ****   *         the HSI RC oscillator is selected as system clock if STOPWUCK bit in RCC_CFGR register
 942:Drivers/STM32G4xx_HAL_Driver/Src/stm32g4xx_hal_pwr_ex.c ****   *         is set; the HSI oscillator is selected if STOPWUCK is cleared.
 943:Drivers/STM32G4xx_HAL_Driver/Src/stm32g4xx_hal_pwr_ex.c ****   * @note  By keeping the internal regulator ON during Stop 0 mode, the consumption
 944:Drivers/STM32G4xx_HAL_Driver/Src/stm32g4xx_hal_pwr_ex.c ****   *         is higher although the startup time is reduced.
 945:Drivers/STM32G4xx_HAL_Driver/Src/stm32g4xx_hal_pwr_ex.c ****   * @param STOPEntry  specifies if Stop mode in entered with WFI or WFE instruction.
 946:Drivers/STM32G4xx_HAL_Driver/Src/stm32g4xx_hal_pwr_ex.c ****   *          This parameter can be one of the following values:
 947:Drivers/STM32G4xx_HAL_Driver/Src/stm32g4xx_hal_pwr_ex.c ****   *            @arg @ref PWR_STOPENTRY_WFI  Enter Stop mode with WFI instruction
 948:Drivers/STM32G4xx_HAL_Driver/Src/stm32g4xx_hal_pwr_ex.c ****   *            @arg @ref PWR_STOPENTRY_WFE  Enter Stop mode with WFE instruction
 949:Drivers/STM32G4xx_HAL_Driver/Src/stm32g4xx_hal_pwr_ex.c ****   * @retval None
 950:Drivers/STM32G4xx_HAL_Driver/Src/stm32g4xx_hal_pwr_ex.c ****   */
 951:Drivers/STM32G4xx_HAL_Driver/Src/stm32g4xx_hal_pwr_ex.c **** void HAL_PWREx_EnterSTOP0Mode(uint8_t STOPEntry)
 952:Drivers/STM32G4xx_HAL_Driver/Src/stm32g4xx_hal_pwr_ex.c **** {
 2033              		.loc 1 952 1 is_stmt 1 view -0
 2034              		.cfi_startproc
 2035              		@ args = 0, pretend = 0, frame = 0
 2036              		@ frame_needed = 0, uses_anonymous_args = 0
 2037              		@ link register save eliminated.
 953:Drivers/STM32G4xx_HAL_Driver/Src/stm32g4xx_hal_pwr_ex.c ****   /* Check the parameters */
 954:Drivers/STM32G4xx_HAL_Driver/Src/stm32g4xx_hal_pwr_ex.c ****   assert_param(IS_PWR_STOP_ENTRY(STOPEntry));
 2038              		.loc 1 954 3 view .LVU462
 955:Drivers/STM32G4xx_HAL_Driver/Src/stm32g4xx_hal_pwr_ex.c **** 
 956:Drivers/STM32G4xx_HAL_Driver/Src/stm32g4xx_hal_pwr_ex.c ****   /* Stop 0 mode with Main Regulator */
 957:Drivers/STM32G4xx_HAL_Driver/Src/stm32g4xx_hal_pwr_ex.c ****   MODIFY_REG(PWR->CR1, PWR_CR1_LPMS, PWR_CR1_LPMS_STOP0);
 2039              		.loc 1 957 3 view .LVU463
 2040 0000 0B4A     		ldr	r2, .L179
ARM GAS  /tmp/ccWGtOKe.s 			page 55


 2041 0002 1368     		ldr	r3, [r2]
 2042 0004 23F00703 		bic	r3, r3, #7
 2043 0008 1360     		str	r3, [r2]
 958:Drivers/STM32G4xx_HAL_Driver/Src/stm32g4xx_hal_pwr_ex.c **** 
 959:Drivers/STM32G4xx_HAL_Driver/Src/stm32g4xx_hal_pwr_ex.c ****   /* Set SLEEPDEEP bit of Cortex System Control Register */
 960:Drivers/STM32G4xx_HAL_Driver/Src/stm32g4xx_hal_pwr_ex.c ****   SET_BIT(SCB->SCR, ((uint32_t)SCB_SCR_SLEEPDEEP_Msk));
 2044              		.loc 1 960 3 view .LVU464
 2045 000a 0A4A     		ldr	r2, .L179+4
 2046 000c 1369     		ldr	r3, [r2, #16]
 2047 000e 43F00403 		orr	r3, r3, #4
 2048 0012 1361     		str	r3, [r2, #16]
 961:Drivers/STM32G4xx_HAL_Driver/Src/stm32g4xx_hal_pwr_ex.c **** 
 962:Drivers/STM32G4xx_HAL_Driver/Src/stm32g4xx_hal_pwr_ex.c ****   /* Select Stop mode entry --------------------------------------------------*/
 963:Drivers/STM32G4xx_HAL_Driver/Src/stm32g4xx_hal_pwr_ex.c ****   if(STOPEntry == PWR_STOPENTRY_WFI)
 2049              		.loc 1 963 3 view .LVU465
 2050              		.loc 1 963 5 is_stmt 0 view .LVU466
 2051 0014 0128     		cmp	r0, #1
 2052 0016 08D0     		beq	.L178
 964:Drivers/STM32G4xx_HAL_Driver/Src/stm32g4xx_hal_pwr_ex.c ****   {
 965:Drivers/STM32G4xx_HAL_Driver/Src/stm32g4xx_hal_pwr_ex.c ****     /* Request Wait For Interrupt */
 966:Drivers/STM32G4xx_HAL_Driver/Src/stm32g4xx_hal_pwr_ex.c ****     __WFI();
 967:Drivers/STM32G4xx_HAL_Driver/Src/stm32g4xx_hal_pwr_ex.c ****   }
 968:Drivers/STM32G4xx_HAL_Driver/Src/stm32g4xx_hal_pwr_ex.c ****   else
 969:Drivers/STM32G4xx_HAL_Driver/Src/stm32g4xx_hal_pwr_ex.c ****   {
 970:Drivers/STM32G4xx_HAL_Driver/Src/stm32g4xx_hal_pwr_ex.c ****     /* Request Wait For Event */
 971:Drivers/STM32G4xx_HAL_Driver/Src/stm32g4xx_hal_pwr_ex.c ****     __SEV();
 2053              		.loc 1 971 5 is_stmt 1 view .LVU467
 2054              		.syntax unified
 2055              	@ 971 "Drivers/STM32G4xx_HAL_Driver/Src/stm32g4xx_hal_pwr_ex.c" 1
 2056 0018 40BF     		sev
 2057              	@ 0 "" 2
 972:Drivers/STM32G4xx_HAL_Driver/Src/stm32g4xx_hal_pwr_ex.c ****     __WFE();
 2058              		.loc 1 972 5 view .LVU468
 2059              	@ 972 "Drivers/STM32G4xx_HAL_Driver/Src/stm32g4xx_hal_pwr_ex.c" 1
 2060 001a 20BF     		wfe
 2061              	@ 0 "" 2
 973:Drivers/STM32G4xx_HAL_Driver/Src/stm32g4xx_hal_pwr_ex.c ****     __WFE();
 2062              		.loc 1 973 5 view .LVU469
 2063              	@ 973 "Drivers/STM32G4xx_HAL_Driver/Src/stm32g4xx_hal_pwr_ex.c" 1
 2064 001c 20BF     		wfe
 2065              	@ 0 "" 2
 2066              		.thumb
 2067              		.syntax unified
 2068              	.L177:
 974:Drivers/STM32G4xx_HAL_Driver/Src/stm32g4xx_hal_pwr_ex.c ****   }
 975:Drivers/STM32G4xx_HAL_Driver/Src/stm32g4xx_hal_pwr_ex.c **** 
 976:Drivers/STM32G4xx_HAL_Driver/Src/stm32g4xx_hal_pwr_ex.c ****   /* Reset SLEEPDEEP bit of Cortex System Control Register */
 977:Drivers/STM32G4xx_HAL_Driver/Src/stm32g4xx_hal_pwr_ex.c ****   CLEAR_BIT(SCB->SCR, ((uint32_t)SCB_SCR_SLEEPDEEP_Msk));
 2069              		.loc 1 977 3 view .LVU470
 2070 001e 054A     		ldr	r2, .L179+4
 2071 0020 1369     		ldr	r3, [r2, #16]
 2072 0022 23F00403 		bic	r3, r3, #4
 2073 0026 1361     		str	r3, [r2, #16]
 978:Drivers/STM32G4xx_HAL_Driver/Src/stm32g4xx_hal_pwr_ex.c **** }
 2074              		.loc 1 978 1 is_stmt 0 view .LVU471
 2075 0028 7047     		bx	lr
 2076              	.L178:
ARM GAS  /tmp/ccWGtOKe.s 			page 56


 966:Drivers/STM32G4xx_HAL_Driver/Src/stm32g4xx_hal_pwr_ex.c ****   }
 2077              		.loc 1 966 5 is_stmt 1 view .LVU472
 2078              		.syntax unified
 2079              	@ 966 "Drivers/STM32G4xx_HAL_Driver/Src/stm32g4xx_hal_pwr_ex.c" 1
 2080 002a 30BF     		wfi
 2081              	@ 0 "" 2
 2082              		.thumb
 2083              		.syntax unified
 2084 002c F7E7     		b	.L177
 2085              	.L180:
 2086 002e 00BF     		.align	2
 2087              	.L179:
 2088 0030 00700040 		.word	1073770496
 2089 0034 00ED00E0 		.word	-536810240
 2090              		.cfi_endproc
 2091              	.LFE191:
 2093              		.section	.text.HAL_PWREx_EnterSTOP1Mode,"ax",%progbits
 2094              		.align	1
 2095              		.global	HAL_PWREx_EnterSTOP1Mode
 2096              		.syntax unified
 2097              		.thumb
 2098              		.thumb_func
 2099              		.fpu fpv4-sp-d16
 2101              	HAL_PWREx_EnterSTOP1Mode:
 2102              	.LVL137:
 2103              	.LFB192:
 979:Drivers/STM32G4xx_HAL_Driver/Src/stm32g4xx_hal_pwr_ex.c **** 
 980:Drivers/STM32G4xx_HAL_Driver/Src/stm32g4xx_hal_pwr_ex.c **** 
 981:Drivers/STM32G4xx_HAL_Driver/Src/stm32g4xx_hal_pwr_ex.c **** /**
 982:Drivers/STM32G4xx_HAL_Driver/Src/stm32g4xx_hal_pwr_ex.c ****   * @brief Enter Stop 1 mode.
 983:Drivers/STM32G4xx_HAL_Driver/Src/stm32g4xx_hal_pwr_ex.c ****   * @note  In Stop 1 mode, only low power voltage regulator is ON.
 984:Drivers/STM32G4xx_HAL_Driver/Src/stm32g4xx_hal_pwr_ex.c ****   * @note  In Stop 1 mode, all I/O pins keep the same state as in Run mode.
 985:Drivers/STM32G4xx_HAL_Driver/Src/stm32g4xx_hal_pwr_ex.c ****   * @note  All clocks in the VCORE domain are stopped; the PLL, the HSI
 986:Drivers/STM32G4xx_HAL_Driver/Src/stm32g4xx_hal_pwr_ex.c ****   *        and the HSE oscillators are disabled. Some peripherals with the wakeup capability
 987:Drivers/STM32G4xx_HAL_Driver/Src/stm32g4xx_hal_pwr_ex.c ****   *        (I2Cx, USARTx and LPUART) can switch on the HSI to receive a frame, and switch off the H
 988:Drivers/STM32G4xx_HAL_Driver/Src/stm32g4xx_hal_pwr_ex.c ****   *        after receiving the frame if it is not a wakeup frame. In this case, the HSI clock is pr
 989:Drivers/STM32G4xx_HAL_Driver/Src/stm32g4xx_hal_pwr_ex.c ****   *        only to the peripheral requesting it.
 990:Drivers/STM32G4xx_HAL_Driver/Src/stm32g4xx_hal_pwr_ex.c ****   *        SRAM1, SRAM2 and register contents are preserved.
 991:Drivers/STM32G4xx_HAL_Driver/Src/stm32g4xx_hal_pwr_ex.c ****   *        The BOR is available.
 992:Drivers/STM32G4xx_HAL_Driver/Src/stm32g4xx_hal_pwr_ex.c ****   * @note  When exiting Stop 1 mode by issuing an interrupt or a wakeup event,
 993:Drivers/STM32G4xx_HAL_Driver/Src/stm32g4xx_hal_pwr_ex.c ****   *         the HSI RC oscillator is selected as system clock if STOPWUCK bit in RCC_CFGR register
 994:Drivers/STM32G4xx_HAL_Driver/Src/stm32g4xx_hal_pwr_ex.c ****   *         is set.
 995:Drivers/STM32G4xx_HAL_Driver/Src/stm32g4xx_hal_pwr_ex.c ****   * @note  Due to low power mode, an additional startup delay is incurred when waking up from Stop 
 996:Drivers/STM32G4xx_HAL_Driver/Src/stm32g4xx_hal_pwr_ex.c ****   * @param STOPEntry  specifies if Stop mode in entered with WFI or WFE instruction.
 997:Drivers/STM32G4xx_HAL_Driver/Src/stm32g4xx_hal_pwr_ex.c ****   *          This parameter can be one of the following values:
 998:Drivers/STM32G4xx_HAL_Driver/Src/stm32g4xx_hal_pwr_ex.c ****   *            @arg @ref PWR_STOPENTRY_WFI  Enter Stop mode with WFI instruction
 999:Drivers/STM32G4xx_HAL_Driver/Src/stm32g4xx_hal_pwr_ex.c ****   *            @arg @ref PWR_STOPENTRY_WFE  Enter Stop mode with WFE instruction
1000:Drivers/STM32G4xx_HAL_Driver/Src/stm32g4xx_hal_pwr_ex.c ****   * @retval None
1001:Drivers/STM32G4xx_HAL_Driver/Src/stm32g4xx_hal_pwr_ex.c ****   */
1002:Drivers/STM32G4xx_HAL_Driver/Src/stm32g4xx_hal_pwr_ex.c **** void HAL_PWREx_EnterSTOP1Mode(uint8_t STOPEntry)
1003:Drivers/STM32G4xx_HAL_Driver/Src/stm32g4xx_hal_pwr_ex.c **** {
 2104              		.loc 1 1003 1 view -0
 2105              		.cfi_startproc
 2106              		@ args = 0, pretend = 0, frame = 0
 2107              		@ frame_needed = 0, uses_anonymous_args = 0
 2108              		@ link register save eliminated.
1004:Drivers/STM32G4xx_HAL_Driver/Src/stm32g4xx_hal_pwr_ex.c ****   /* Check the parameters */
ARM GAS  /tmp/ccWGtOKe.s 			page 57


1005:Drivers/STM32G4xx_HAL_Driver/Src/stm32g4xx_hal_pwr_ex.c ****   assert_param(IS_PWR_STOP_ENTRY(STOPEntry));
 2109              		.loc 1 1005 3 view .LVU474
1006:Drivers/STM32G4xx_HAL_Driver/Src/stm32g4xx_hal_pwr_ex.c **** 
1007:Drivers/STM32G4xx_HAL_Driver/Src/stm32g4xx_hal_pwr_ex.c ****   /* Stop 1 mode with Low-Power Regulator */
1008:Drivers/STM32G4xx_HAL_Driver/Src/stm32g4xx_hal_pwr_ex.c ****   MODIFY_REG(PWR->CR1, PWR_CR1_LPMS, PWR_CR1_LPMS_STOP1);
 2110              		.loc 1 1008 3 view .LVU475
 2111 0000 0C4A     		ldr	r2, .L185
 2112 0002 1368     		ldr	r3, [r2]
 2113 0004 23F00703 		bic	r3, r3, #7
 2114 0008 43F00103 		orr	r3, r3, #1
 2115 000c 1360     		str	r3, [r2]
1009:Drivers/STM32G4xx_HAL_Driver/Src/stm32g4xx_hal_pwr_ex.c **** 
1010:Drivers/STM32G4xx_HAL_Driver/Src/stm32g4xx_hal_pwr_ex.c ****   /* Set SLEEPDEEP bit of Cortex System Control Register */
1011:Drivers/STM32G4xx_HAL_Driver/Src/stm32g4xx_hal_pwr_ex.c ****   SET_BIT(SCB->SCR, ((uint32_t)SCB_SCR_SLEEPDEEP_Msk));
 2116              		.loc 1 1011 3 view .LVU476
 2117 000e 0A4A     		ldr	r2, .L185+4
 2118 0010 1369     		ldr	r3, [r2, #16]
 2119 0012 43F00403 		orr	r3, r3, #4
 2120 0016 1361     		str	r3, [r2, #16]
1012:Drivers/STM32G4xx_HAL_Driver/Src/stm32g4xx_hal_pwr_ex.c **** 
1013:Drivers/STM32G4xx_HAL_Driver/Src/stm32g4xx_hal_pwr_ex.c ****   /* Select Stop mode entry --------------------------------------------------*/
1014:Drivers/STM32G4xx_HAL_Driver/Src/stm32g4xx_hal_pwr_ex.c ****   if(STOPEntry == PWR_STOPENTRY_WFI)
 2121              		.loc 1 1014 3 view .LVU477
 2122              		.loc 1 1014 5 is_stmt 0 view .LVU478
 2123 0018 0128     		cmp	r0, #1
 2124 001a 08D0     		beq	.L184
1015:Drivers/STM32G4xx_HAL_Driver/Src/stm32g4xx_hal_pwr_ex.c ****   {
1016:Drivers/STM32G4xx_HAL_Driver/Src/stm32g4xx_hal_pwr_ex.c ****     /* Request Wait For Interrupt */
1017:Drivers/STM32G4xx_HAL_Driver/Src/stm32g4xx_hal_pwr_ex.c ****     __WFI();
1018:Drivers/STM32G4xx_HAL_Driver/Src/stm32g4xx_hal_pwr_ex.c ****   }
1019:Drivers/STM32G4xx_HAL_Driver/Src/stm32g4xx_hal_pwr_ex.c ****   else
1020:Drivers/STM32G4xx_HAL_Driver/Src/stm32g4xx_hal_pwr_ex.c ****   {
1021:Drivers/STM32G4xx_HAL_Driver/Src/stm32g4xx_hal_pwr_ex.c ****     /* Request Wait For Event */
1022:Drivers/STM32G4xx_HAL_Driver/Src/stm32g4xx_hal_pwr_ex.c ****     __SEV();
 2125              		.loc 1 1022 5 is_stmt 1 view .LVU479
 2126              		.syntax unified
 2127              	@ 1022 "Drivers/STM32G4xx_HAL_Driver/Src/stm32g4xx_hal_pwr_ex.c" 1
 2128 001c 40BF     		sev
 2129              	@ 0 "" 2
1023:Drivers/STM32G4xx_HAL_Driver/Src/stm32g4xx_hal_pwr_ex.c ****     __WFE();
 2130              		.loc 1 1023 5 view .LVU480
 2131              	@ 1023 "Drivers/STM32G4xx_HAL_Driver/Src/stm32g4xx_hal_pwr_ex.c" 1
 2132 001e 20BF     		wfe
 2133              	@ 0 "" 2
1024:Drivers/STM32G4xx_HAL_Driver/Src/stm32g4xx_hal_pwr_ex.c ****     __WFE();
 2134              		.loc 1 1024 5 view .LVU481
 2135              	@ 1024 "Drivers/STM32G4xx_HAL_Driver/Src/stm32g4xx_hal_pwr_ex.c" 1
 2136 0020 20BF     		wfe
 2137              	@ 0 "" 2
 2138              		.thumb
 2139              		.syntax unified
 2140              	.L183:
1025:Drivers/STM32G4xx_HAL_Driver/Src/stm32g4xx_hal_pwr_ex.c ****   }
1026:Drivers/STM32G4xx_HAL_Driver/Src/stm32g4xx_hal_pwr_ex.c **** 
1027:Drivers/STM32G4xx_HAL_Driver/Src/stm32g4xx_hal_pwr_ex.c ****   /* Reset SLEEPDEEP bit of Cortex System Control Register */
1028:Drivers/STM32G4xx_HAL_Driver/Src/stm32g4xx_hal_pwr_ex.c ****   CLEAR_BIT(SCB->SCR, ((uint32_t)SCB_SCR_SLEEPDEEP_Msk));
 2141              		.loc 1 1028 3 view .LVU482
ARM GAS  /tmp/ccWGtOKe.s 			page 58


 2142 0022 054A     		ldr	r2, .L185+4
 2143 0024 1369     		ldr	r3, [r2, #16]
 2144 0026 23F00403 		bic	r3, r3, #4
 2145 002a 1361     		str	r3, [r2, #16]
1029:Drivers/STM32G4xx_HAL_Driver/Src/stm32g4xx_hal_pwr_ex.c **** }
 2146              		.loc 1 1029 1 is_stmt 0 view .LVU483
 2147 002c 7047     		bx	lr
 2148              	.L184:
1017:Drivers/STM32G4xx_HAL_Driver/Src/stm32g4xx_hal_pwr_ex.c ****   }
 2149              		.loc 1 1017 5 is_stmt 1 view .LVU484
 2150              		.syntax unified
 2151              	@ 1017 "Drivers/STM32G4xx_HAL_Driver/Src/stm32g4xx_hal_pwr_ex.c" 1
 2152 002e 30BF     		wfi
 2153              	@ 0 "" 2
 2154              		.thumb
 2155              		.syntax unified
 2156 0030 F7E7     		b	.L183
 2157              	.L186:
 2158 0032 00BF     		.align	2
 2159              	.L185:
 2160 0034 00700040 		.word	1073770496
 2161 0038 00ED00E0 		.word	-536810240
 2162              		.cfi_endproc
 2163              	.LFE192:
 2165              		.section	.text.HAL_PWREx_EnterSHUTDOWNMode,"ax",%progbits
 2166              		.align	1
 2167              		.global	HAL_PWREx_EnterSHUTDOWNMode
 2168              		.syntax unified
 2169              		.thumb
 2170              		.thumb_func
 2171              		.fpu fpv4-sp-d16
 2173              	HAL_PWREx_EnterSHUTDOWNMode:
 2174              	.LFB193:
1030:Drivers/STM32G4xx_HAL_Driver/Src/stm32g4xx_hal_pwr_ex.c **** 
1031:Drivers/STM32G4xx_HAL_Driver/Src/stm32g4xx_hal_pwr_ex.c **** 
1032:Drivers/STM32G4xx_HAL_Driver/Src/stm32g4xx_hal_pwr_ex.c **** 
1033:Drivers/STM32G4xx_HAL_Driver/Src/stm32g4xx_hal_pwr_ex.c **** 
1034:Drivers/STM32G4xx_HAL_Driver/Src/stm32g4xx_hal_pwr_ex.c **** /**
1035:Drivers/STM32G4xx_HAL_Driver/Src/stm32g4xx_hal_pwr_ex.c ****   * @brief Enter Shutdown mode.
1036:Drivers/STM32G4xx_HAL_Driver/Src/stm32g4xx_hal_pwr_ex.c ****   * @note  In Shutdown mode, the PLL, the HSI, the LSI and the HSE oscillators are switched
1037:Drivers/STM32G4xx_HAL_Driver/Src/stm32g4xx_hal_pwr_ex.c ****   *        off. The voltage regulator is disabled and Vcore domain is powered off.
1038:Drivers/STM32G4xx_HAL_Driver/Src/stm32g4xx_hal_pwr_ex.c ****   *        SRAM1, SRAM2 and registers contents are lost except for registers in the Backup domain.
1039:Drivers/STM32G4xx_HAL_Driver/Src/stm32g4xx_hal_pwr_ex.c ****   *        The BOR is not available.
1040:Drivers/STM32G4xx_HAL_Driver/Src/stm32g4xx_hal_pwr_ex.c ****   * @note  The I/Os can be configured either with a pull-up or pull-down or can be kept in analog s
1041:Drivers/STM32G4xx_HAL_Driver/Src/stm32g4xx_hal_pwr_ex.c ****   * @retval None
1042:Drivers/STM32G4xx_HAL_Driver/Src/stm32g4xx_hal_pwr_ex.c ****   */
1043:Drivers/STM32G4xx_HAL_Driver/Src/stm32g4xx_hal_pwr_ex.c **** void HAL_PWREx_EnterSHUTDOWNMode(void)
1044:Drivers/STM32G4xx_HAL_Driver/Src/stm32g4xx_hal_pwr_ex.c **** {
 2175              		.loc 1 1044 1 view -0
 2176              		.cfi_startproc
 2177              		@ args = 0, pretend = 0, frame = 0
 2178              		@ frame_needed = 0, uses_anonymous_args = 0
 2179              		@ link register save eliminated.
1045:Drivers/STM32G4xx_HAL_Driver/Src/stm32g4xx_hal_pwr_ex.c **** 
1046:Drivers/STM32G4xx_HAL_Driver/Src/stm32g4xx_hal_pwr_ex.c ****   /* Set Shutdown mode */
1047:Drivers/STM32G4xx_HAL_Driver/Src/stm32g4xx_hal_pwr_ex.c ****   MODIFY_REG(PWR->CR1, PWR_CR1_LPMS, PWR_CR1_LPMS_SHUTDOWN);
 2180              		.loc 1 1047 3 view .LVU486
ARM GAS  /tmp/ccWGtOKe.s 			page 59


 2181 0000 064A     		ldr	r2, .L188
 2182 0002 1368     		ldr	r3, [r2]
 2183 0004 23F00703 		bic	r3, r3, #7
 2184 0008 43F00403 		orr	r3, r3, #4
 2185 000c 1360     		str	r3, [r2]
1048:Drivers/STM32G4xx_HAL_Driver/Src/stm32g4xx_hal_pwr_ex.c **** 
1049:Drivers/STM32G4xx_HAL_Driver/Src/stm32g4xx_hal_pwr_ex.c ****   /* Set SLEEPDEEP bit of Cortex System Control Register */
1050:Drivers/STM32G4xx_HAL_Driver/Src/stm32g4xx_hal_pwr_ex.c ****   SET_BIT(SCB->SCR, ((uint32_t)SCB_SCR_SLEEPDEEP_Msk));
 2186              		.loc 1 1050 3 view .LVU487
 2187 000e 044A     		ldr	r2, .L188+4
 2188 0010 1369     		ldr	r3, [r2, #16]
 2189 0012 43F00403 		orr	r3, r3, #4
 2190 0016 1361     		str	r3, [r2, #16]
1051:Drivers/STM32G4xx_HAL_Driver/Src/stm32g4xx_hal_pwr_ex.c **** 
1052:Drivers/STM32G4xx_HAL_Driver/Src/stm32g4xx_hal_pwr_ex.c **** /* This option is used to ensure that store operations are completed */
1053:Drivers/STM32G4xx_HAL_Driver/Src/stm32g4xx_hal_pwr_ex.c **** #if defined ( __CC_ARM)
1054:Drivers/STM32G4xx_HAL_Driver/Src/stm32g4xx_hal_pwr_ex.c ****   __force_stores();
1055:Drivers/STM32G4xx_HAL_Driver/Src/stm32g4xx_hal_pwr_ex.c **** #endif
1056:Drivers/STM32G4xx_HAL_Driver/Src/stm32g4xx_hal_pwr_ex.c ****   /* Request Wait For Interrupt */
1057:Drivers/STM32G4xx_HAL_Driver/Src/stm32g4xx_hal_pwr_ex.c ****   __WFI();
 2191              		.loc 1 1057 3 view .LVU488
 2192              		.syntax unified
 2193              	@ 1057 "Drivers/STM32G4xx_HAL_Driver/Src/stm32g4xx_hal_pwr_ex.c" 1
 2194 0018 30BF     		wfi
 2195              	@ 0 "" 2
1058:Drivers/STM32G4xx_HAL_Driver/Src/stm32g4xx_hal_pwr_ex.c **** }
 2196              		.loc 1 1058 1 is_stmt 0 view .LVU489
 2197              		.thumb
 2198              		.syntax unified
 2199 001a 7047     		bx	lr
 2200              	.L189:
 2201              		.align	2
 2202              	.L188:
 2203 001c 00700040 		.word	1073770496
 2204 0020 00ED00E0 		.word	-536810240
 2205              		.cfi_endproc
 2206              	.LFE193:
 2208              		.section	.text.HAL_PWREx_PVM1Callback,"ax",%progbits
 2209              		.align	1
 2210              		.weak	HAL_PWREx_PVM1Callback
 2211              		.syntax unified
 2212              		.thumb
 2213              		.thumb_func
 2214              		.fpu fpv4-sp-d16
 2216              	HAL_PWREx_PVM1Callback:
 2217              	.LFB195:
1059:Drivers/STM32G4xx_HAL_Driver/Src/stm32g4xx_hal_pwr_ex.c **** 
1060:Drivers/STM32G4xx_HAL_Driver/Src/stm32g4xx_hal_pwr_ex.c **** 
1061:Drivers/STM32G4xx_HAL_Driver/Src/stm32g4xx_hal_pwr_ex.c **** 
1062:Drivers/STM32G4xx_HAL_Driver/Src/stm32g4xx_hal_pwr_ex.c **** 
1063:Drivers/STM32G4xx_HAL_Driver/Src/stm32g4xx_hal_pwr_ex.c **** /**
1064:Drivers/STM32G4xx_HAL_Driver/Src/stm32g4xx_hal_pwr_ex.c ****   * @brief This function handles the PWR PVD/PVMx interrupt request.
1065:Drivers/STM32G4xx_HAL_Driver/Src/stm32g4xx_hal_pwr_ex.c ****   * @note This API should be called under the PVD_PVM_IRQHandler().
1066:Drivers/STM32G4xx_HAL_Driver/Src/stm32g4xx_hal_pwr_ex.c ****   * @retval None
1067:Drivers/STM32G4xx_HAL_Driver/Src/stm32g4xx_hal_pwr_ex.c ****   */
1068:Drivers/STM32G4xx_HAL_Driver/Src/stm32g4xx_hal_pwr_ex.c **** void HAL_PWREx_PVD_PVM_IRQHandler(void)
1069:Drivers/STM32G4xx_HAL_Driver/Src/stm32g4xx_hal_pwr_ex.c **** {
ARM GAS  /tmp/ccWGtOKe.s 			page 60


1070:Drivers/STM32G4xx_HAL_Driver/Src/stm32g4xx_hal_pwr_ex.c ****   /* Check PWR exti flag */
1071:Drivers/STM32G4xx_HAL_Driver/Src/stm32g4xx_hal_pwr_ex.c ****   if(__HAL_PWR_PVD_EXTI_GET_FLAG() != 0U)
1072:Drivers/STM32G4xx_HAL_Driver/Src/stm32g4xx_hal_pwr_ex.c ****   {
1073:Drivers/STM32G4xx_HAL_Driver/Src/stm32g4xx_hal_pwr_ex.c ****     /* PWR PVD interrupt user callback */
1074:Drivers/STM32G4xx_HAL_Driver/Src/stm32g4xx_hal_pwr_ex.c ****     HAL_PWR_PVDCallback();
1075:Drivers/STM32G4xx_HAL_Driver/Src/stm32g4xx_hal_pwr_ex.c **** 
1076:Drivers/STM32G4xx_HAL_Driver/Src/stm32g4xx_hal_pwr_ex.c ****     /* Clear PVD exti pending bit */
1077:Drivers/STM32G4xx_HAL_Driver/Src/stm32g4xx_hal_pwr_ex.c ****     __HAL_PWR_PVD_EXTI_CLEAR_FLAG();
1078:Drivers/STM32G4xx_HAL_Driver/Src/stm32g4xx_hal_pwr_ex.c ****   }
1079:Drivers/STM32G4xx_HAL_Driver/Src/stm32g4xx_hal_pwr_ex.c ****   /* Next, successively check PVMx exti flags */
1080:Drivers/STM32G4xx_HAL_Driver/Src/stm32g4xx_hal_pwr_ex.c **** #if defined(PWR_CR2_PVME1)
1081:Drivers/STM32G4xx_HAL_Driver/Src/stm32g4xx_hal_pwr_ex.c ****   if(__HAL_PWR_PVM1_EXTI_GET_FLAG() != 0U)
1082:Drivers/STM32G4xx_HAL_Driver/Src/stm32g4xx_hal_pwr_ex.c ****   {
1083:Drivers/STM32G4xx_HAL_Driver/Src/stm32g4xx_hal_pwr_ex.c ****     /* PWR PVM1 interrupt user callback */
1084:Drivers/STM32G4xx_HAL_Driver/Src/stm32g4xx_hal_pwr_ex.c ****     HAL_PWREx_PVM1Callback();
1085:Drivers/STM32G4xx_HAL_Driver/Src/stm32g4xx_hal_pwr_ex.c **** 
1086:Drivers/STM32G4xx_HAL_Driver/Src/stm32g4xx_hal_pwr_ex.c ****     /* Clear PVM1 exti pending bit */
1087:Drivers/STM32G4xx_HAL_Driver/Src/stm32g4xx_hal_pwr_ex.c ****     __HAL_PWR_PVM1_EXTI_CLEAR_FLAG();
1088:Drivers/STM32G4xx_HAL_Driver/Src/stm32g4xx_hal_pwr_ex.c ****   }
1089:Drivers/STM32G4xx_HAL_Driver/Src/stm32g4xx_hal_pwr_ex.c **** #endif /* PWR_CR2_PVME1 */
1090:Drivers/STM32G4xx_HAL_Driver/Src/stm32g4xx_hal_pwr_ex.c **** #if defined(PWR_CR2_PVME2)
1091:Drivers/STM32G4xx_HAL_Driver/Src/stm32g4xx_hal_pwr_ex.c ****   if(__HAL_PWR_PVM2_EXTI_GET_FLAG() != 0U)
1092:Drivers/STM32G4xx_HAL_Driver/Src/stm32g4xx_hal_pwr_ex.c ****   {
1093:Drivers/STM32G4xx_HAL_Driver/Src/stm32g4xx_hal_pwr_ex.c ****     /* PWR PVM2 interrupt user callback */
1094:Drivers/STM32G4xx_HAL_Driver/Src/stm32g4xx_hal_pwr_ex.c ****     HAL_PWREx_PVM2Callback();
1095:Drivers/STM32G4xx_HAL_Driver/Src/stm32g4xx_hal_pwr_ex.c **** 
1096:Drivers/STM32G4xx_HAL_Driver/Src/stm32g4xx_hal_pwr_ex.c ****     /* Clear PVM2 exti pending bit */
1097:Drivers/STM32G4xx_HAL_Driver/Src/stm32g4xx_hal_pwr_ex.c ****     __HAL_PWR_PVM2_EXTI_CLEAR_FLAG();
1098:Drivers/STM32G4xx_HAL_Driver/Src/stm32g4xx_hal_pwr_ex.c ****   }
1099:Drivers/STM32G4xx_HAL_Driver/Src/stm32g4xx_hal_pwr_ex.c **** #endif /* PWR_CR2_PVME2 */
1100:Drivers/STM32G4xx_HAL_Driver/Src/stm32g4xx_hal_pwr_ex.c ****   if(__HAL_PWR_PVM3_EXTI_GET_FLAG() != 0U)
1101:Drivers/STM32G4xx_HAL_Driver/Src/stm32g4xx_hal_pwr_ex.c ****   {
1102:Drivers/STM32G4xx_HAL_Driver/Src/stm32g4xx_hal_pwr_ex.c ****     /* PWR PVM3 interrupt user callback */
1103:Drivers/STM32G4xx_HAL_Driver/Src/stm32g4xx_hal_pwr_ex.c ****     HAL_PWREx_PVM3Callback();
1104:Drivers/STM32G4xx_HAL_Driver/Src/stm32g4xx_hal_pwr_ex.c **** 
1105:Drivers/STM32G4xx_HAL_Driver/Src/stm32g4xx_hal_pwr_ex.c ****     /* Clear PVM3 exti pending bit */
1106:Drivers/STM32G4xx_HAL_Driver/Src/stm32g4xx_hal_pwr_ex.c ****     __HAL_PWR_PVM3_EXTI_CLEAR_FLAG();
1107:Drivers/STM32G4xx_HAL_Driver/Src/stm32g4xx_hal_pwr_ex.c ****   }
1108:Drivers/STM32G4xx_HAL_Driver/Src/stm32g4xx_hal_pwr_ex.c ****   if(__HAL_PWR_PVM4_EXTI_GET_FLAG() != 0U)
1109:Drivers/STM32G4xx_HAL_Driver/Src/stm32g4xx_hal_pwr_ex.c ****   {
1110:Drivers/STM32G4xx_HAL_Driver/Src/stm32g4xx_hal_pwr_ex.c ****     /* PWR PVM4 interrupt user callback */
1111:Drivers/STM32G4xx_HAL_Driver/Src/stm32g4xx_hal_pwr_ex.c ****     HAL_PWREx_PVM4Callback();
1112:Drivers/STM32G4xx_HAL_Driver/Src/stm32g4xx_hal_pwr_ex.c **** 
1113:Drivers/STM32G4xx_HAL_Driver/Src/stm32g4xx_hal_pwr_ex.c ****     /* Clear PVM4 exti pending bit */
1114:Drivers/STM32G4xx_HAL_Driver/Src/stm32g4xx_hal_pwr_ex.c ****     __HAL_PWR_PVM4_EXTI_CLEAR_FLAG();
1115:Drivers/STM32G4xx_HAL_Driver/Src/stm32g4xx_hal_pwr_ex.c ****   }
1116:Drivers/STM32G4xx_HAL_Driver/Src/stm32g4xx_hal_pwr_ex.c **** }
1117:Drivers/STM32G4xx_HAL_Driver/Src/stm32g4xx_hal_pwr_ex.c **** 
1118:Drivers/STM32G4xx_HAL_Driver/Src/stm32g4xx_hal_pwr_ex.c **** 
1119:Drivers/STM32G4xx_HAL_Driver/Src/stm32g4xx_hal_pwr_ex.c **** #if defined(PWR_CR2_PVME1)
1120:Drivers/STM32G4xx_HAL_Driver/Src/stm32g4xx_hal_pwr_ex.c **** /**
1121:Drivers/STM32G4xx_HAL_Driver/Src/stm32g4xx_hal_pwr_ex.c ****   * @brief PWR PVM1 interrupt callback
1122:Drivers/STM32G4xx_HAL_Driver/Src/stm32g4xx_hal_pwr_ex.c ****   * @retval None
1123:Drivers/STM32G4xx_HAL_Driver/Src/stm32g4xx_hal_pwr_ex.c ****   */
1124:Drivers/STM32G4xx_HAL_Driver/Src/stm32g4xx_hal_pwr_ex.c **** __weak void HAL_PWREx_PVM1Callback(void)
1125:Drivers/STM32G4xx_HAL_Driver/Src/stm32g4xx_hal_pwr_ex.c **** {
 2218              		.loc 1 1125 1 is_stmt 1 view -0
ARM GAS  /tmp/ccWGtOKe.s 			page 61


 2219              		.cfi_startproc
 2220              		@ args = 0, pretend = 0, frame = 0
 2221              		@ frame_needed = 0, uses_anonymous_args = 0
 2222              		@ link register save eliminated.
1126:Drivers/STM32G4xx_HAL_Driver/Src/stm32g4xx_hal_pwr_ex.c ****   /* NOTE : This function should not be modified; when the callback is needed,
1127:Drivers/STM32G4xx_HAL_Driver/Src/stm32g4xx_hal_pwr_ex.c ****             HAL_PWREx_PVM1Callback() API can be implemented in the user file
1128:Drivers/STM32G4xx_HAL_Driver/Src/stm32g4xx_hal_pwr_ex.c ****    */
1129:Drivers/STM32G4xx_HAL_Driver/Src/stm32g4xx_hal_pwr_ex.c **** }
 2223              		.loc 1 1129 1 view .LVU491
 2224 0000 7047     		bx	lr
 2225              		.cfi_endproc
 2226              	.LFE195:
 2228              		.section	.text.HAL_PWREx_PVM2Callback,"ax",%progbits
 2229              		.align	1
 2230              		.weak	HAL_PWREx_PVM2Callback
 2231              		.syntax unified
 2232              		.thumb
 2233              		.thumb_func
 2234              		.fpu fpv4-sp-d16
 2236              	HAL_PWREx_PVM2Callback:
 2237              	.LFB196:
1130:Drivers/STM32G4xx_HAL_Driver/Src/stm32g4xx_hal_pwr_ex.c **** #endif /* PWR_CR2_PVME1 */
1131:Drivers/STM32G4xx_HAL_Driver/Src/stm32g4xx_hal_pwr_ex.c **** 
1132:Drivers/STM32G4xx_HAL_Driver/Src/stm32g4xx_hal_pwr_ex.c **** #if defined(PWR_CR2_PVME2)
1133:Drivers/STM32G4xx_HAL_Driver/Src/stm32g4xx_hal_pwr_ex.c **** /**
1134:Drivers/STM32G4xx_HAL_Driver/Src/stm32g4xx_hal_pwr_ex.c ****   * @brief PWR PVM2 interrupt callback
1135:Drivers/STM32G4xx_HAL_Driver/Src/stm32g4xx_hal_pwr_ex.c ****   * @retval None
1136:Drivers/STM32G4xx_HAL_Driver/Src/stm32g4xx_hal_pwr_ex.c ****   */
1137:Drivers/STM32G4xx_HAL_Driver/Src/stm32g4xx_hal_pwr_ex.c **** __weak void HAL_PWREx_PVM2Callback(void)
1138:Drivers/STM32G4xx_HAL_Driver/Src/stm32g4xx_hal_pwr_ex.c **** {
 2238              		.loc 1 1138 1 view -0
 2239              		.cfi_startproc
 2240              		@ args = 0, pretend = 0, frame = 0
 2241              		@ frame_needed = 0, uses_anonymous_args = 0
 2242              		@ link register save eliminated.
1139:Drivers/STM32G4xx_HAL_Driver/Src/stm32g4xx_hal_pwr_ex.c ****   /* NOTE : This function should not be modified; when the callback is needed,
1140:Drivers/STM32G4xx_HAL_Driver/Src/stm32g4xx_hal_pwr_ex.c ****             HAL_PWREx_PVM2Callback() API can be implemented in the user file
1141:Drivers/STM32G4xx_HAL_Driver/Src/stm32g4xx_hal_pwr_ex.c ****    */
1142:Drivers/STM32G4xx_HAL_Driver/Src/stm32g4xx_hal_pwr_ex.c **** }
 2243              		.loc 1 1142 1 view .LVU493
 2244 0000 7047     		bx	lr
 2245              		.cfi_endproc
 2246              	.LFE196:
 2248              		.section	.text.HAL_PWREx_PVM3Callback,"ax",%progbits
 2249              		.align	1
 2250              		.weak	HAL_PWREx_PVM3Callback
 2251              		.syntax unified
 2252              		.thumb
 2253              		.thumb_func
 2254              		.fpu fpv4-sp-d16
 2256              	HAL_PWREx_PVM3Callback:
 2257              	.LFB197:
1143:Drivers/STM32G4xx_HAL_Driver/Src/stm32g4xx_hal_pwr_ex.c **** #endif /* PWR_CR2_PVME2 */
1144:Drivers/STM32G4xx_HAL_Driver/Src/stm32g4xx_hal_pwr_ex.c **** 
1145:Drivers/STM32G4xx_HAL_Driver/Src/stm32g4xx_hal_pwr_ex.c **** /**
1146:Drivers/STM32G4xx_HAL_Driver/Src/stm32g4xx_hal_pwr_ex.c ****   * @brief PWR PVM3 interrupt callback
1147:Drivers/STM32G4xx_HAL_Driver/Src/stm32g4xx_hal_pwr_ex.c ****   * @retval None
ARM GAS  /tmp/ccWGtOKe.s 			page 62


1148:Drivers/STM32G4xx_HAL_Driver/Src/stm32g4xx_hal_pwr_ex.c ****   */
1149:Drivers/STM32G4xx_HAL_Driver/Src/stm32g4xx_hal_pwr_ex.c **** __weak void HAL_PWREx_PVM3Callback(void)
1150:Drivers/STM32G4xx_HAL_Driver/Src/stm32g4xx_hal_pwr_ex.c **** {
 2258              		.loc 1 1150 1 view -0
 2259              		.cfi_startproc
 2260              		@ args = 0, pretend = 0, frame = 0
 2261              		@ frame_needed = 0, uses_anonymous_args = 0
 2262              		@ link register save eliminated.
1151:Drivers/STM32G4xx_HAL_Driver/Src/stm32g4xx_hal_pwr_ex.c ****   /* NOTE : This function should not be modified; when the callback is needed,
1152:Drivers/STM32G4xx_HAL_Driver/Src/stm32g4xx_hal_pwr_ex.c ****             HAL_PWREx_PVM3Callback() API can be implemented in the user file
1153:Drivers/STM32G4xx_HAL_Driver/Src/stm32g4xx_hal_pwr_ex.c ****    */
1154:Drivers/STM32G4xx_HAL_Driver/Src/stm32g4xx_hal_pwr_ex.c **** }
 2263              		.loc 1 1154 1 view .LVU495
 2264 0000 7047     		bx	lr
 2265              		.cfi_endproc
 2266              	.LFE197:
 2268              		.section	.text.HAL_PWREx_PVM4Callback,"ax",%progbits
 2269              		.align	1
 2270              		.weak	HAL_PWREx_PVM4Callback
 2271              		.syntax unified
 2272              		.thumb
 2273              		.thumb_func
 2274              		.fpu fpv4-sp-d16
 2276              	HAL_PWREx_PVM4Callback:
 2277              	.LFB198:
1155:Drivers/STM32G4xx_HAL_Driver/Src/stm32g4xx_hal_pwr_ex.c **** 
1156:Drivers/STM32G4xx_HAL_Driver/Src/stm32g4xx_hal_pwr_ex.c **** /**
1157:Drivers/STM32G4xx_HAL_Driver/Src/stm32g4xx_hal_pwr_ex.c ****   * @brief PWR PVM4 interrupt callback
1158:Drivers/STM32G4xx_HAL_Driver/Src/stm32g4xx_hal_pwr_ex.c ****   * @retval None
1159:Drivers/STM32G4xx_HAL_Driver/Src/stm32g4xx_hal_pwr_ex.c ****   */
1160:Drivers/STM32G4xx_HAL_Driver/Src/stm32g4xx_hal_pwr_ex.c **** __weak void HAL_PWREx_PVM4Callback(void)
1161:Drivers/STM32G4xx_HAL_Driver/Src/stm32g4xx_hal_pwr_ex.c **** {
 2278              		.loc 1 1161 1 view -0
 2279              		.cfi_startproc
 2280              		@ args = 0, pretend = 0, frame = 0
 2281              		@ frame_needed = 0, uses_anonymous_args = 0
 2282              		@ link register save eliminated.
1162:Drivers/STM32G4xx_HAL_Driver/Src/stm32g4xx_hal_pwr_ex.c ****   /* NOTE : This function should not be modified; when the callback is needed,
1163:Drivers/STM32G4xx_HAL_Driver/Src/stm32g4xx_hal_pwr_ex.c ****             HAL_PWREx_PVM4Callback() API can be implemented in the user file
1164:Drivers/STM32G4xx_HAL_Driver/Src/stm32g4xx_hal_pwr_ex.c ****    */
1165:Drivers/STM32G4xx_HAL_Driver/Src/stm32g4xx_hal_pwr_ex.c **** }
 2283              		.loc 1 1165 1 view .LVU497
 2284 0000 7047     		bx	lr
 2285              		.cfi_endproc
 2286              	.LFE198:
 2288              		.section	.text.HAL_PWREx_PVD_PVM_IRQHandler,"ax",%progbits
 2289              		.align	1
 2290              		.global	HAL_PWREx_PVD_PVM_IRQHandler
 2291              		.syntax unified
 2292              		.thumb
 2293              		.thumb_func
 2294              		.fpu fpv4-sp-d16
 2296              	HAL_PWREx_PVD_PVM_IRQHandler:
 2297              	.LFB194:
1069:Drivers/STM32G4xx_HAL_Driver/Src/stm32g4xx_hal_pwr_ex.c ****   /* Check PWR exti flag */
 2298              		.loc 1 1069 1 view -0
 2299              		.cfi_startproc
ARM GAS  /tmp/ccWGtOKe.s 			page 63


 2300              		@ args = 0, pretend = 0, frame = 0
 2301              		@ frame_needed = 0, uses_anonymous_args = 0
 2302 0000 08B5     		push	{r3, lr}
 2303              	.LCFI0:
 2304              		.cfi_def_cfa_offset 8
 2305              		.cfi_offset 3, -8
 2306              		.cfi_offset 14, -4
1071:Drivers/STM32G4xx_HAL_Driver/Src/stm32g4xx_hal_pwr_ex.c ****   {
 2307              		.loc 1 1071 3 view .LVU499
1071:Drivers/STM32G4xx_HAL_Driver/Src/stm32g4xx_hal_pwr_ex.c ****   {
 2308              		.loc 1 1071 6 is_stmt 0 view .LVU500
 2309 0002 1C4B     		ldr	r3, .L206
 2310 0004 5B69     		ldr	r3, [r3, #20]
1071:Drivers/STM32G4xx_HAL_Driver/Src/stm32g4xx_hal_pwr_ex.c ****   {
 2311              		.loc 1 1071 5 view .LVU501
 2312 0006 13F4803F 		tst	r3, #65536
 2313 000a 14D1     		bne	.L201
 2314              	.L195:
1081:Drivers/STM32G4xx_HAL_Driver/Src/stm32g4xx_hal_pwr_ex.c ****   {
 2315              		.loc 1 1081 3 is_stmt 1 view .LVU502
1081:Drivers/STM32G4xx_HAL_Driver/Src/stm32g4xx_hal_pwr_ex.c ****   {
 2316              		.loc 1 1081 6 is_stmt 0 view .LVU503
 2317 000c 194B     		ldr	r3, .L206
 2318 000e 5B6B     		ldr	r3, [r3, #52]
1081:Drivers/STM32G4xx_HAL_Driver/Src/stm32g4xx_hal_pwr_ex.c ****   {
 2319              		.loc 1 1081 5 view .LVU504
 2320 0010 13F0080F 		tst	r3, #8
 2321 0014 16D1     		bne	.L202
 2322              	.L196:
1091:Drivers/STM32G4xx_HAL_Driver/Src/stm32g4xx_hal_pwr_ex.c ****   {
 2323              		.loc 1 1091 3 is_stmt 1 view .LVU505
1091:Drivers/STM32G4xx_HAL_Driver/Src/stm32g4xx_hal_pwr_ex.c ****   {
 2324              		.loc 1 1091 6 is_stmt 0 view .LVU506
 2325 0016 174B     		ldr	r3, .L206
 2326 0018 5B6B     		ldr	r3, [r3, #52]
1091:Drivers/STM32G4xx_HAL_Driver/Src/stm32g4xx_hal_pwr_ex.c ****   {
 2327              		.loc 1 1091 5 view .LVU507
 2328 001a 13F0100F 		tst	r3, #16
 2329 001e 17D1     		bne	.L203
 2330              	.L197:
1100:Drivers/STM32G4xx_HAL_Driver/Src/stm32g4xx_hal_pwr_ex.c ****   {
 2331              		.loc 1 1100 3 is_stmt 1 view .LVU508
1100:Drivers/STM32G4xx_HAL_Driver/Src/stm32g4xx_hal_pwr_ex.c ****   {
 2332              		.loc 1 1100 6 is_stmt 0 view .LVU509
 2333 0020 144B     		ldr	r3, .L206
 2334 0022 5B6B     		ldr	r3, [r3, #52]
1100:Drivers/STM32G4xx_HAL_Driver/Src/stm32g4xx_hal_pwr_ex.c ****   {
 2335              		.loc 1 1100 5 view .LVU510
 2336 0024 13F0200F 		tst	r3, #32
 2337 0028 18D1     		bne	.L204
 2338              	.L198:
1108:Drivers/STM32G4xx_HAL_Driver/Src/stm32g4xx_hal_pwr_ex.c ****   {
 2339              		.loc 1 1108 3 is_stmt 1 view .LVU511
1108:Drivers/STM32G4xx_HAL_Driver/Src/stm32g4xx_hal_pwr_ex.c ****   {
 2340              		.loc 1 1108 6 is_stmt 0 view .LVU512
 2341 002a 124B     		ldr	r3, .L206
 2342 002c 5B6B     		ldr	r3, [r3, #52]
ARM GAS  /tmp/ccWGtOKe.s 			page 64


1108:Drivers/STM32G4xx_HAL_Driver/Src/stm32g4xx_hal_pwr_ex.c ****   {
 2343              		.loc 1 1108 5 view .LVU513
 2344 002e 13F0400F 		tst	r3, #64
 2345 0032 19D1     		bne	.L205
 2346              	.L194:
1116:Drivers/STM32G4xx_HAL_Driver/Src/stm32g4xx_hal_pwr_ex.c **** 
 2347              		.loc 1 1116 1 view .LVU514
 2348 0034 08BD     		pop	{r3, pc}
 2349              	.L201:
1074:Drivers/STM32G4xx_HAL_Driver/Src/stm32g4xx_hal_pwr_ex.c **** 
 2350              		.loc 1 1074 5 is_stmt 1 view .LVU515
 2351 0036 FFF7FEFF 		bl	HAL_PWR_PVDCallback
 2352              	.LVL138:
1077:Drivers/STM32G4xx_HAL_Driver/Src/stm32g4xx_hal_pwr_ex.c ****   }
 2353              		.loc 1 1077 5 view .LVU516
 2354 003a 0E4B     		ldr	r3, .L206
 2355 003c 4FF48032 		mov	r2, #65536
 2356 0040 5A61     		str	r2, [r3, #20]
 2357 0042 E3E7     		b	.L195
 2358              	.L202:
1084:Drivers/STM32G4xx_HAL_Driver/Src/stm32g4xx_hal_pwr_ex.c **** 
 2359              		.loc 1 1084 5 view .LVU517
 2360 0044 FFF7FEFF 		bl	HAL_PWREx_PVM1Callback
 2361              	.LVL139:
1087:Drivers/STM32G4xx_HAL_Driver/Src/stm32g4xx_hal_pwr_ex.c ****   }
 2362              		.loc 1 1087 5 view .LVU518
 2363 0048 0A4B     		ldr	r3, .L206
 2364 004a 0822     		movs	r2, #8
 2365 004c 5A63     		str	r2, [r3, #52]
 2366 004e E2E7     		b	.L196
 2367              	.L203:
1094:Drivers/STM32G4xx_HAL_Driver/Src/stm32g4xx_hal_pwr_ex.c **** 
 2368              		.loc 1 1094 5 view .LVU519
 2369 0050 FFF7FEFF 		bl	HAL_PWREx_PVM2Callback
 2370              	.LVL140:
1097:Drivers/STM32G4xx_HAL_Driver/Src/stm32g4xx_hal_pwr_ex.c ****   }
 2371              		.loc 1 1097 5 view .LVU520
 2372 0054 074B     		ldr	r3, .L206
 2373 0056 1022     		movs	r2, #16
 2374 0058 5A63     		str	r2, [r3, #52]
 2375 005a E1E7     		b	.L197
 2376              	.L204:
1103:Drivers/STM32G4xx_HAL_Driver/Src/stm32g4xx_hal_pwr_ex.c **** 
 2377              		.loc 1 1103 5 view .LVU521
 2378 005c FFF7FEFF 		bl	HAL_PWREx_PVM3Callback
 2379              	.LVL141:
1106:Drivers/STM32G4xx_HAL_Driver/Src/stm32g4xx_hal_pwr_ex.c ****   }
 2380              		.loc 1 1106 5 view .LVU522
 2381 0060 044B     		ldr	r3, .L206
 2382 0062 2022     		movs	r2, #32
 2383 0064 5A63     		str	r2, [r3, #52]
 2384 0066 E0E7     		b	.L198
 2385              	.L205:
1111:Drivers/STM32G4xx_HAL_Driver/Src/stm32g4xx_hal_pwr_ex.c **** 
 2386              		.loc 1 1111 5 view .LVU523
 2387 0068 FFF7FEFF 		bl	HAL_PWREx_PVM4Callback
 2388              	.LVL142:
ARM GAS  /tmp/ccWGtOKe.s 			page 65


1114:Drivers/STM32G4xx_HAL_Driver/Src/stm32g4xx_hal_pwr_ex.c ****   }
 2389              		.loc 1 1114 5 view .LVU524
 2390 006c 014B     		ldr	r3, .L206
 2391 006e 4022     		movs	r2, #64
 2392 0070 5A63     		str	r2, [r3, #52]
1116:Drivers/STM32G4xx_HAL_Driver/Src/stm32g4xx_hal_pwr_ex.c **** 
 2393              		.loc 1 1116 1 is_stmt 0 view .LVU525
 2394 0072 DFE7     		b	.L194
 2395              	.L207:
 2396              		.align	2
 2397              	.L206:
 2398 0074 00040140 		.word	1073808384
 2399              		.cfi_endproc
 2400              	.LFE194:
 2402              		.text
 2403              	.Letext0:
 2404              		.file 2 "/usr/lib/gcc/arm-none-eabi/9.2.1/include/stdint.h"
 2405              		.file 3 "Drivers/CMSIS/Include/core_cm4.h"
 2406              		.file 4 "Drivers/CMSIS/Device/ST/STM32G4xx/Include/system_stm32g4xx.h"
 2407              		.file 5 "Drivers/CMSIS/Device/ST/STM32G4xx/Include/stm32g474xx.h"
 2408              		.file 6 "Drivers/STM32G4xx_HAL_Driver/Inc/stm32g4xx_hal_def.h"
 2409              		.file 7 "Drivers/STM32G4xx_HAL_Driver/Inc/stm32g4xx_hal_flash.h"
 2410              		.file 8 "Drivers/STM32G4xx_HAL_Driver/Inc/stm32g4xx_hal_pwr_ex.h"
 2411              		.file 9 "Drivers/STM32G4xx_HAL_Driver/Inc/stm32g4xx_hal.h"
 2412              		.file 10 "Drivers/STM32G4xx_HAL_Driver/Inc/stm32g4xx_hal_pwr.h"
ARM GAS  /tmp/ccWGtOKe.s 			page 66

