ARM GAS  /tmp/ccmTh9p3.s 			page 1


   1              		.cpu cortex-m4
   2              		.eabi_attribute 27, 1
   3              		.eabi_attribute 28, 1
   4              		.eabi_attribute 20, 1
   5              		.eabi_attribute 21, 1
   6              		.eabi_attribute 23, 3
   7              		.eabi_attribute 24, 1
   8              		.eabi_attribute 25, 1
   9              		.eabi_attribute 26, 1
  10              		.eabi_attribute 30, 1
  11              		.eabi_attribute 34, 1
  12              		.eabi_attribute 18, 4
  13              		.file	"stm32g4xx_hal_exti.c"
  14              		.text
  15              	.Ltext0:
  16              		.cfi_sections	.debug_frame
  17              		.section	.text.HAL_EXTI_SetConfigLine,"ax",%progbits
  18              		.align	1
  19              		.global	HAL_EXTI_SetConfigLine
  20              		.arch armv7e-m
  21              		.syntax unified
  22              		.thumb
  23              		.thumb_func
  24              		.fpu fpv4-sp-d16
  26              	HAL_EXTI_SetConfigLine:
  27              	.LVL0:
  28              	.LFB162:
  29              		.file 1 "Drivers/STM32G4xx_HAL_Driver/Src/stm32g4xx_hal_exti.c"
   1:Drivers/STM32G4xx_HAL_Driver/Src/stm32g4xx_hal_exti.c **** /**
   2:Drivers/STM32G4xx_HAL_Driver/Src/stm32g4xx_hal_exti.c ****   ******************************************************************************
   3:Drivers/STM32G4xx_HAL_Driver/Src/stm32g4xx_hal_exti.c ****   * @file    stm32g4xx_hal_exti.c
   4:Drivers/STM32G4xx_HAL_Driver/Src/stm32g4xx_hal_exti.c ****   * @author  MCD Application Team
   5:Drivers/STM32G4xx_HAL_Driver/Src/stm32g4xx_hal_exti.c ****   * @brief   EXTI HAL module driver.
   6:Drivers/STM32G4xx_HAL_Driver/Src/stm32g4xx_hal_exti.c ****   *          This file provides firmware functions to manage the following
   7:Drivers/STM32G4xx_HAL_Driver/Src/stm32g4xx_hal_exti.c ****   *          functionalities of the Extended Interrupts and events controller (EXTI) peripheral:
   8:Drivers/STM32G4xx_HAL_Driver/Src/stm32g4xx_hal_exti.c ****   *          functionalities of the General Purpose Input/Output (EXTI) peripheral:
   9:Drivers/STM32G4xx_HAL_Driver/Src/stm32g4xx_hal_exti.c ****   *           + Initialization and de-initialization functions
  10:Drivers/STM32G4xx_HAL_Driver/Src/stm32g4xx_hal_exti.c ****   *           + IO operation functions
  11:Drivers/STM32G4xx_HAL_Driver/Src/stm32g4xx_hal_exti.c ****   *
  12:Drivers/STM32G4xx_HAL_Driver/Src/stm32g4xx_hal_exti.c ****   @verbatim
  13:Drivers/STM32G4xx_HAL_Driver/Src/stm32g4xx_hal_exti.c ****   ==============================================================================
  14:Drivers/STM32G4xx_HAL_Driver/Src/stm32g4xx_hal_exti.c ****                     ##### EXTI Peripheral features #####
  15:Drivers/STM32G4xx_HAL_Driver/Src/stm32g4xx_hal_exti.c ****   ==============================================================================
  16:Drivers/STM32G4xx_HAL_Driver/Src/stm32g4xx_hal_exti.c ****   [..]
  17:Drivers/STM32G4xx_HAL_Driver/Src/stm32g4xx_hal_exti.c ****     (+) Each Exti line can be configured within this driver.
  18:Drivers/STM32G4xx_HAL_Driver/Src/stm32g4xx_hal_exti.c **** 
  19:Drivers/STM32G4xx_HAL_Driver/Src/stm32g4xx_hal_exti.c ****     (+) Exti line can be configured in 3 different modes
  20:Drivers/STM32G4xx_HAL_Driver/Src/stm32g4xx_hal_exti.c ****         (++) Interrupt
  21:Drivers/STM32G4xx_HAL_Driver/Src/stm32g4xx_hal_exti.c ****         (++) Event
  22:Drivers/STM32G4xx_HAL_Driver/Src/stm32g4xx_hal_exti.c ****         (++) Both of them
  23:Drivers/STM32G4xx_HAL_Driver/Src/stm32g4xx_hal_exti.c **** 
  24:Drivers/STM32G4xx_HAL_Driver/Src/stm32g4xx_hal_exti.c ****     (+) Configurable Exti lines can be configured with 3 different triggers
  25:Drivers/STM32G4xx_HAL_Driver/Src/stm32g4xx_hal_exti.c ****         (++) Rising
  26:Drivers/STM32G4xx_HAL_Driver/Src/stm32g4xx_hal_exti.c ****         (++) Falling
  27:Drivers/STM32G4xx_HAL_Driver/Src/stm32g4xx_hal_exti.c ****         (++) Both of them
  28:Drivers/STM32G4xx_HAL_Driver/Src/stm32g4xx_hal_exti.c **** 
  29:Drivers/STM32G4xx_HAL_Driver/Src/stm32g4xx_hal_exti.c ****     (+) When set in interrupt mode, configurable Exti lines have two different
ARM GAS  /tmp/ccmTh9p3.s 			page 2


  30:Drivers/STM32G4xx_HAL_Driver/Src/stm32g4xx_hal_exti.c ****         interrupt pending registers which allow to distinguish which transition
  31:Drivers/STM32G4xx_HAL_Driver/Src/stm32g4xx_hal_exti.c ****         occurs:
  32:Drivers/STM32G4xx_HAL_Driver/Src/stm32g4xx_hal_exti.c ****         (++) Rising edge pending interrupt
  33:Drivers/STM32G4xx_HAL_Driver/Src/stm32g4xx_hal_exti.c ****         (++) Falling
  34:Drivers/STM32G4xx_HAL_Driver/Src/stm32g4xx_hal_exti.c **** 
  35:Drivers/STM32G4xx_HAL_Driver/Src/stm32g4xx_hal_exti.c ****     (+) Exti lines 0 to 15 are linked to gpio pin number 0 to 15. Gpio port can
  36:Drivers/STM32G4xx_HAL_Driver/Src/stm32g4xx_hal_exti.c ****         be selected through multiplexer.
  37:Drivers/STM32G4xx_HAL_Driver/Src/stm32g4xx_hal_exti.c **** 
  38:Drivers/STM32G4xx_HAL_Driver/Src/stm32g4xx_hal_exti.c ****                      ##### How to use this driver #####
  39:Drivers/STM32G4xx_HAL_Driver/Src/stm32g4xx_hal_exti.c ****   ==============================================================================
  40:Drivers/STM32G4xx_HAL_Driver/Src/stm32g4xx_hal_exti.c ****   [..]
  41:Drivers/STM32G4xx_HAL_Driver/Src/stm32g4xx_hal_exti.c **** 
  42:Drivers/STM32G4xx_HAL_Driver/Src/stm32g4xx_hal_exti.c ****     (#) Configure the EXTI line using HAL_EXTI_SetConfigLine().
  43:Drivers/STM32G4xx_HAL_Driver/Src/stm32g4xx_hal_exti.c ****         (++) Choose the interrupt line number by setting "Line" member from
  44:Drivers/STM32G4xx_HAL_Driver/Src/stm32g4xx_hal_exti.c ****              EXTI_ConfigTypeDef structure.
  45:Drivers/STM32G4xx_HAL_Driver/Src/stm32g4xx_hal_exti.c ****         (++) Configure the interrupt and/or event mode using "Mode" member from
  46:Drivers/STM32G4xx_HAL_Driver/Src/stm32g4xx_hal_exti.c ****              EXTI_ConfigTypeDef structure.
  47:Drivers/STM32G4xx_HAL_Driver/Src/stm32g4xx_hal_exti.c ****         (++) For configurable lines, configure rising and/or falling trigger
  48:Drivers/STM32G4xx_HAL_Driver/Src/stm32g4xx_hal_exti.c ****              "Trigger" member from EXTI_ConfigTypeDef structure.
  49:Drivers/STM32G4xx_HAL_Driver/Src/stm32g4xx_hal_exti.c ****         (++) For Exti lines linked to gpio, choose gpio port using "GPIOSel"
  50:Drivers/STM32G4xx_HAL_Driver/Src/stm32g4xx_hal_exti.c ****              member from GPIO_InitTypeDef structure.
  51:Drivers/STM32G4xx_HAL_Driver/Src/stm32g4xx_hal_exti.c **** 
  52:Drivers/STM32G4xx_HAL_Driver/Src/stm32g4xx_hal_exti.c ****     (#) Get current Exti configuration of a dedicated line using
  53:Drivers/STM32G4xx_HAL_Driver/Src/stm32g4xx_hal_exti.c ****         HAL_EXTI_GetConfigLine().
  54:Drivers/STM32G4xx_HAL_Driver/Src/stm32g4xx_hal_exti.c ****         (++) Provide exiting handle as parameter.
  55:Drivers/STM32G4xx_HAL_Driver/Src/stm32g4xx_hal_exti.c ****         (++) Provide pointer on EXTI_ConfigTypeDef structure as second parameter.
  56:Drivers/STM32G4xx_HAL_Driver/Src/stm32g4xx_hal_exti.c **** 
  57:Drivers/STM32G4xx_HAL_Driver/Src/stm32g4xx_hal_exti.c ****     (#) Clear Exti configuration of a dedicated line using HAL_EXTI_GetConfigLine().
  58:Drivers/STM32G4xx_HAL_Driver/Src/stm32g4xx_hal_exti.c ****         (++) Provide exiting handle as parameter.
  59:Drivers/STM32G4xx_HAL_Driver/Src/stm32g4xx_hal_exti.c **** 
  60:Drivers/STM32G4xx_HAL_Driver/Src/stm32g4xx_hal_exti.c ****     (#) Register callback to treat Exti interrupts using HAL_EXTI_RegisterCallback().
  61:Drivers/STM32G4xx_HAL_Driver/Src/stm32g4xx_hal_exti.c ****         (++) Provide exiting handle as first parameter.
  62:Drivers/STM32G4xx_HAL_Driver/Src/stm32g4xx_hal_exti.c ****         (++) Provide which callback will be registered using one value from
  63:Drivers/STM32G4xx_HAL_Driver/Src/stm32g4xx_hal_exti.c ****              EXTI_CallbackIDTypeDef.
  64:Drivers/STM32G4xx_HAL_Driver/Src/stm32g4xx_hal_exti.c ****         (++) Provide callback function pointer.
  65:Drivers/STM32G4xx_HAL_Driver/Src/stm32g4xx_hal_exti.c **** 
  66:Drivers/STM32G4xx_HAL_Driver/Src/stm32g4xx_hal_exti.c ****     (#) Get interrupt pending bit using HAL_EXTI_GetPending().
  67:Drivers/STM32G4xx_HAL_Driver/Src/stm32g4xx_hal_exti.c **** 
  68:Drivers/STM32G4xx_HAL_Driver/Src/stm32g4xx_hal_exti.c ****     (#) Clear interrupt pending bit using HAL_EXTI_ClearPending().
  69:Drivers/STM32G4xx_HAL_Driver/Src/stm32g4xx_hal_exti.c **** 
  70:Drivers/STM32G4xx_HAL_Driver/Src/stm32g4xx_hal_exti.c ****     (#) Generate software interrupt using HAL_EXTI_GenerateSWI().
  71:Drivers/STM32G4xx_HAL_Driver/Src/stm32g4xx_hal_exti.c **** 
  72:Drivers/STM32G4xx_HAL_Driver/Src/stm32g4xx_hal_exti.c ****   @endverbatim
  73:Drivers/STM32G4xx_HAL_Driver/Src/stm32g4xx_hal_exti.c ****   ******************************************************************************
  74:Drivers/STM32G4xx_HAL_Driver/Src/stm32g4xx_hal_exti.c ****   * @attention
  75:Drivers/STM32G4xx_HAL_Driver/Src/stm32g4xx_hal_exti.c ****   *
  76:Drivers/STM32G4xx_HAL_Driver/Src/stm32g4xx_hal_exti.c ****   * <h2><center>&copy; Copyright (c) 2019 STMicroelectronics.
  77:Drivers/STM32G4xx_HAL_Driver/Src/stm32g4xx_hal_exti.c ****   * All rights reserved.</center></h2>
  78:Drivers/STM32G4xx_HAL_Driver/Src/stm32g4xx_hal_exti.c ****   *
  79:Drivers/STM32G4xx_HAL_Driver/Src/stm32g4xx_hal_exti.c ****   * This software component is licensed by ST under BSD 3-Clause license,
  80:Drivers/STM32G4xx_HAL_Driver/Src/stm32g4xx_hal_exti.c ****   * the "License"; You may not use this file except in compliance with the
  81:Drivers/STM32G4xx_HAL_Driver/Src/stm32g4xx_hal_exti.c ****   * License. You may obtain a copy of the License at:
  82:Drivers/STM32G4xx_HAL_Driver/Src/stm32g4xx_hal_exti.c ****   *                        opensource.org/licenses/BSD-3-Clause
  83:Drivers/STM32G4xx_HAL_Driver/Src/stm32g4xx_hal_exti.c ****   *
  84:Drivers/STM32G4xx_HAL_Driver/Src/stm32g4xx_hal_exti.c ****   ******************************************************************************
  85:Drivers/STM32G4xx_HAL_Driver/Src/stm32g4xx_hal_exti.c ****   */
  86:Drivers/STM32G4xx_HAL_Driver/Src/stm32g4xx_hal_exti.c **** 
ARM GAS  /tmp/ccmTh9p3.s 			page 3


  87:Drivers/STM32G4xx_HAL_Driver/Src/stm32g4xx_hal_exti.c **** /* Includes ------------------------------------------------------------------*/
  88:Drivers/STM32G4xx_HAL_Driver/Src/stm32g4xx_hal_exti.c **** #include "stm32g4xx_hal.h"
  89:Drivers/STM32G4xx_HAL_Driver/Src/stm32g4xx_hal_exti.c **** 
  90:Drivers/STM32G4xx_HAL_Driver/Src/stm32g4xx_hal_exti.c **** /** @addtogroup STM32G4xx_HAL_Driver
  91:Drivers/STM32G4xx_HAL_Driver/Src/stm32g4xx_hal_exti.c ****   * @{
  92:Drivers/STM32G4xx_HAL_Driver/Src/stm32g4xx_hal_exti.c ****   */
  93:Drivers/STM32G4xx_HAL_Driver/Src/stm32g4xx_hal_exti.c **** 
  94:Drivers/STM32G4xx_HAL_Driver/Src/stm32g4xx_hal_exti.c **** /** @addtogroup EXTI
  95:Drivers/STM32G4xx_HAL_Driver/Src/stm32g4xx_hal_exti.c ****   * @{
  96:Drivers/STM32G4xx_HAL_Driver/Src/stm32g4xx_hal_exti.c ****   */
  97:Drivers/STM32G4xx_HAL_Driver/Src/stm32g4xx_hal_exti.c **** /** MISRA C:2012 deviation rule has been granted for following rule:
  98:Drivers/STM32G4xx_HAL_Driver/Src/stm32g4xx_hal_exti.c ****   * Rule-18.1_b - Medium: Array `EXTICR' 1st subscript interval [0,7] may be out
  99:Drivers/STM32G4xx_HAL_Driver/Src/stm32g4xx_hal_exti.c ****   * of bounds [0,3] in following API :
 100:Drivers/STM32G4xx_HAL_Driver/Src/stm32g4xx_hal_exti.c ****   * HAL_EXTI_SetConfigLine
 101:Drivers/STM32G4xx_HAL_Driver/Src/stm32g4xx_hal_exti.c ****   * HAL_EXTI_GetConfigLine
 102:Drivers/STM32G4xx_HAL_Driver/Src/stm32g4xx_hal_exti.c ****   * HAL_EXTI_ClearConfigLine
 103:Drivers/STM32G4xx_HAL_Driver/Src/stm32g4xx_hal_exti.c ****   */
 104:Drivers/STM32G4xx_HAL_Driver/Src/stm32g4xx_hal_exti.c **** 
 105:Drivers/STM32G4xx_HAL_Driver/Src/stm32g4xx_hal_exti.c **** #ifdef HAL_EXTI_MODULE_ENABLED
 106:Drivers/STM32G4xx_HAL_Driver/Src/stm32g4xx_hal_exti.c **** 
 107:Drivers/STM32G4xx_HAL_Driver/Src/stm32g4xx_hal_exti.c **** /* Private typedef -----------------------------------------------------------*/
 108:Drivers/STM32G4xx_HAL_Driver/Src/stm32g4xx_hal_exti.c **** /* Private defines ------------------------------------------------------------*/
 109:Drivers/STM32G4xx_HAL_Driver/Src/stm32g4xx_hal_exti.c **** /** @defgroup EXTI_Private_Constants EXTI Private Constants
 110:Drivers/STM32G4xx_HAL_Driver/Src/stm32g4xx_hal_exti.c ****   * @{
 111:Drivers/STM32G4xx_HAL_Driver/Src/stm32g4xx_hal_exti.c ****   */
 112:Drivers/STM32G4xx_HAL_Driver/Src/stm32g4xx_hal_exti.c **** #define EXTI_MODE_OFFSET                    0x08U   /* 0x20: offset between MCU IMR/EMR registers *
 113:Drivers/STM32G4xx_HAL_Driver/Src/stm32g4xx_hal_exti.c **** #define EXTI_CONFIG_OFFSET                  0x08U   /* 0x20: offset between MCU Rising/Falling conf
 114:Drivers/STM32G4xx_HAL_Driver/Src/stm32g4xx_hal_exti.c **** /**
 115:Drivers/STM32G4xx_HAL_Driver/Src/stm32g4xx_hal_exti.c ****   * @}
 116:Drivers/STM32G4xx_HAL_Driver/Src/stm32g4xx_hal_exti.c ****   */
 117:Drivers/STM32G4xx_HAL_Driver/Src/stm32g4xx_hal_exti.c **** 
 118:Drivers/STM32G4xx_HAL_Driver/Src/stm32g4xx_hal_exti.c **** /* Private macros ------------------------------------------------------------*/
 119:Drivers/STM32G4xx_HAL_Driver/Src/stm32g4xx_hal_exti.c **** /* Private variables ---------------------------------------------------------*/
 120:Drivers/STM32G4xx_HAL_Driver/Src/stm32g4xx_hal_exti.c **** /* Private function prototypes -----------------------------------------------*/
 121:Drivers/STM32G4xx_HAL_Driver/Src/stm32g4xx_hal_exti.c **** /* Exported functions --------------------------------------------------------*/
 122:Drivers/STM32G4xx_HAL_Driver/Src/stm32g4xx_hal_exti.c **** 
 123:Drivers/STM32G4xx_HAL_Driver/Src/stm32g4xx_hal_exti.c **** /** @addtogroup EXTI_Exported_Functions
 124:Drivers/STM32G4xx_HAL_Driver/Src/stm32g4xx_hal_exti.c ****   * @{
 125:Drivers/STM32G4xx_HAL_Driver/Src/stm32g4xx_hal_exti.c ****   */
 126:Drivers/STM32G4xx_HAL_Driver/Src/stm32g4xx_hal_exti.c **** 
 127:Drivers/STM32G4xx_HAL_Driver/Src/stm32g4xx_hal_exti.c **** /** @addtogroup EXTI_Exported_Functions_Group1
 128:Drivers/STM32G4xx_HAL_Driver/Src/stm32g4xx_hal_exti.c ****   *  @brief    Configuration functions
 129:Drivers/STM32G4xx_HAL_Driver/Src/stm32g4xx_hal_exti.c ****   *
 130:Drivers/STM32G4xx_HAL_Driver/Src/stm32g4xx_hal_exti.c **** @verbatim
 131:Drivers/STM32G4xx_HAL_Driver/Src/stm32g4xx_hal_exti.c ****  ===============================================================================
 132:Drivers/STM32G4xx_HAL_Driver/Src/stm32g4xx_hal_exti.c ****               ##### Configuration functions #####
 133:Drivers/STM32G4xx_HAL_Driver/Src/stm32g4xx_hal_exti.c ****  ===============================================================================
 134:Drivers/STM32G4xx_HAL_Driver/Src/stm32g4xx_hal_exti.c **** 
 135:Drivers/STM32G4xx_HAL_Driver/Src/stm32g4xx_hal_exti.c **** @endverbatim
 136:Drivers/STM32G4xx_HAL_Driver/Src/stm32g4xx_hal_exti.c ****   * @{
 137:Drivers/STM32G4xx_HAL_Driver/Src/stm32g4xx_hal_exti.c ****   */
 138:Drivers/STM32G4xx_HAL_Driver/Src/stm32g4xx_hal_exti.c **** 
 139:Drivers/STM32G4xx_HAL_Driver/Src/stm32g4xx_hal_exti.c **** /**
 140:Drivers/STM32G4xx_HAL_Driver/Src/stm32g4xx_hal_exti.c ****   * @brief  Set configuration of a dedicated Exti line.
 141:Drivers/STM32G4xx_HAL_Driver/Src/stm32g4xx_hal_exti.c ****   * @param  hexti Exti handle.
 142:Drivers/STM32G4xx_HAL_Driver/Src/stm32g4xx_hal_exti.c ****   * @param  pExtiConfig Pointer on EXTI configuration to be set.
 143:Drivers/STM32G4xx_HAL_Driver/Src/stm32g4xx_hal_exti.c ****   * @retval HAL Status.
ARM GAS  /tmp/ccmTh9p3.s 			page 4


 144:Drivers/STM32G4xx_HAL_Driver/Src/stm32g4xx_hal_exti.c ****   */
 145:Drivers/STM32G4xx_HAL_Driver/Src/stm32g4xx_hal_exti.c **** HAL_StatusTypeDef HAL_EXTI_SetConfigLine(EXTI_HandleTypeDef *hexti, EXTI_ConfigTypeDef *pExtiConfig
 146:Drivers/STM32G4xx_HAL_Driver/Src/stm32g4xx_hal_exti.c **** {
  30              		.loc 1 146 1 view -0
  31              		.cfi_startproc
  32              		@ args = 0, pretend = 0, frame = 0
  33              		@ frame_needed = 0, uses_anonymous_args = 0
  34              		@ link register save eliminated.
 147:Drivers/STM32G4xx_HAL_Driver/Src/stm32g4xx_hal_exti.c ****   __IO uint32_t *regaddr;
  35              		.loc 1 147 3 view .LVU1
 148:Drivers/STM32G4xx_HAL_Driver/Src/stm32g4xx_hal_exti.c ****   uint32_t regval;
  36              		.loc 1 148 3 view .LVU2
 149:Drivers/STM32G4xx_HAL_Driver/Src/stm32g4xx_hal_exti.c ****   uint32_t linepos;
  37              		.loc 1 149 3 view .LVU3
 150:Drivers/STM32G4xx_HAL_Driver/Src/stm32g4xx_hal_exti.c ****   uint32_t maskline;
  38              		.loc 1 150 3 view .LVU4
 151:Drivers/STM32G4xx_HAL_Driver/Src/stm32g4xx_hal_exti.c ****   uint32_t offset;
  39              		.loc 1 151 3 view .LVU5
 152:Drivers/STM32G4xx_HAL_Driver/Src/stm32g4xx_hal_exti.c **** 
 153:Drivers/STM32G4xx_HAL_Driver/Src/stm32g4xx_hal_exti.c ****   /* Check null pointer */
 154:Drivers/STM32G4xx_HAL_Driver/Src/stm32g4xx_hal_exti.c ****   if ((hexti == NULL) || (pExtiConfig == NULL))
  40              		.loc 1 154 3 view .LVU6
  41              		.loc 1 154 6 is_stmt 0 view .LVU7
  42 0000 0028     		cmp	r0, #0
  43 0002 5ED0     		beq	.L12
  44              		.loc 1 154 23 discriminator 1 view .LVU8
  45 0004 0029     		cmp	r1, #0
  46 0006 5ED0     		beq	.L13
 146:Drivers/STM32G4xx_HAL_Driver/Src/stm32g4xx_hal_exti.c ****   __IO uint32_t *regaddr;
  47              		.loc 1 146 1 view .LVU9
  48 0008 F0B4     		push	{r4, r5, r6, r7}
  49              	.LCFI0:
  50              		.cfi_def_cfa_offset 16
  51              		.cfi_offset 4, -16
  52              		.cfi_offset 5, -12
  53              		.cfi_offset 6, -8
  54              		.cfi_offset 7, -4
 155:Drivers/STM32G4xx_HAL_Driver/Src/stm32g4xx_hal_exti.c ****   {
 156:Drivers/STM32G4xx_HAL_Driver/Src/stm32g4xx_hal_exti.c ****     return HAL_ERROR;
 157:Drivers/STM32G4xx_HAL_Driver/Src/stm32g4xx_hal_exti.c ****   }
 158:Drivers/STM32G4xx_HAL_Driver/Src/stm32g4xx_hal_exti.c **** 
 159:Drivers/STM32G4xx_HAL_Driver/Src/stm32g4xx_hal_exti.c ****   /* Check parameters */
 160:Drivers/STM32G4xx_HAL_Driver/Src/stm32g4xx_hal_exti.c ****   assert_param(IS_EXTI_LINE(pExtiConfig->Line));
  55              		.loc 1 160 3 is_stmt 1 view .LVU10
 161:Drivers/STM32G4xx_HAL_Driver/Src/stm32g4xx_hal_exti.c ****   assert_param(IS_EXTI_MODE(pExtiConfig->Mode));
  56              		.loc 1 161 3 view .LVU11
 162:Drivers/STM32G4xx_HAL_Driver/Src/stm32g4xx_hal_exti.c **** 
 163:Drivers/STM32G4xx_HAL_Driver/Src/stm32g4xx_hal_exti.c ****   /* Assign line number to handle */
 164:Drivers/STM32G4xx_HAL_Driver/Src/stm32g4xx_hal_exti.c ****   hexti->Line = pExtiConfig->Line;
  57              		.loc 1 164 3 view .LVU12
  58              		.loc 1 164 28 is_stmt 0 view .LVU13
  59 000a 0A68     		ldr	r2, [r1]
  60              		.loc 1 164 15 view .LVU14
  61 000c 0260     		str	r2, [r0]
 165:Drivers/STM32G4xx_HAL_Driver/Src/stm32g4xx_hal_exti.c **** 
 166:Drivers/STM32G4xx_HAL_Driver/Src/stm32g4xx_hal_exti.c ****   /* Compute line register offset */
 167:Drivers/STM32G4xx_HAL_Driver/Src/stm32g4xx_hal_exti.c ****   offset = ((pExtiConfig->Line & EXTI_REG_MASK) >> EXTI_REG_SHIFT);
ARM GAS  /tmp/ccmTh9p3.s 			page 5


  62              		.loc 1 167 3 is_stmt 1 view .LVU15
  63              		.loc 1 167 10 is_stmt 0 view .LVU16
  64 000e C2F30043 		ubfx	r3, r2, #16, #1
  65              	.LVL1:
 168:Drivers/STM32G4xx_HAL_Driver/Src/stm32g4xx_hal_exti.c ****   /* Compute line position */
 169:Drivers/STM32G4xx_HAL_Driver/Src/stm32g4xx_hal_exti.c ****   linepos = (pExtiConfig->Line & EXTI_PIN_MASK);
  66              		.loc 1 169 3 is_stmt 1 view .LVU17
  67              		.loc 1 169 11 is_stmt 0 view .LVU18
  68 0012 02F01F04 		and	r4, r2, #31
  69              	.LVL2:
 170:Drivers/STM32G4xx_HAL_Driver/Src/stm32g4xx_hal_exti.c ****   /* Compute line mask */
 171:Drivers/STM32G4xx_HAL_Driver/Src/stm32g4xx_hal_exti.c ****   maskline = (1uL << linepos);
  70              		.loc 1 171 3 is_stmt 1 view .LVU19
  71              		.loc 1 171 12 is_stmt 0 view .LVU20
  72 0016 0120     		movs	r0, #1
  73              	.LVL3:
  74              		.loc 1 171 12 view .LVU21
  75 0018 A040     		lsls	r0, r0, r4
  76              	.LVL4:
 172:Drivers/STM32G4xx_HAL_Driver/Src/stm32g4xx_hal_exti.c **** 
 173:Drivers/STM32G4xx_HAL_Driver/Src/stm32g4xx_hal_exti.c ****   /* Configure triggers for configurable lines */
 174:Drivers/STM32G4xx_HAL_Driver/Src/stm32g4xx_hal_exti.c ****   if ((pExtiConfig->Line & EXTI_CONFIG) != 0x00u)
  77              		.loc 1 174 3 is_stmt 1 view .LVU22
  78              		.loc 1 174 6 is_stmt 0 view .LVU23
  79 001a 12F0007F 		tst	r2, #33554432
  80 001e 1AD0     		beq	.L3
 175:Drivers/STM32G4xx_HAL_Driver/Src/stm32g4xx_hal_exti.c ****   {
 176:Drivers/STM32G4xx_HAL_Driver/Src/stm32g4xx_hal_exti.c ****     assert_param(IS_EXTI_TRIGGER(pExtiConfig->Trigger));
  81              		.loc 1 176 5 is_stmt 1 view .LVU24
 177:Drivers/STM32G4xx_HAL_Driver/Src/stm32g4xx_hal_exti.c **** 
 178:Drivers/STM32G4xx_HAL_Driver/Src/stm32g4xx_hal_exti.c ****     /* Configure rising trigger */
 179:Drivers/STM32G4xx_HAL_Driver/Src/stm32g4xx_hal_exti.c ****     regaddr = (&EXTI->RTSR1 + (EXTI_CONFIG_OFFSET * offset));
  82              		.loc 1 179 5 view .LVU25
  83              		.loc 1 179 29 is_stmt 0 view .LVU26
  84 0020 5D01     		lsls	r5, r3, #5
  85              		.loc 1 179 13 view .LVU27
  86 0022 2A4F     		ldr	r7, .L19
  87              	.LVL5:
 180:Drivers/STM32G4xx_HAL_Driver/Src/stm32g4xx_hal_exti.c ****     regval = *regaddr;
  88              		.loc 1 180 5 is_stmt 1 view .LVU28
  89              		.loc 1 180 12 is_stmt 0 view .LVU29
  90 0024 55F807C0 		ldr	ip, [r5, r7]
  91              	.LVL6:
 181:Drivers/STM32G4xx_HAL_Driver/Src/stm32g4xx_hal_exti.c **** 
 182:Drivers/STM32G4xx_HAL_Driver/Src/stm32g4xx_hal_exti.c ****     /* Mask or set line */
 183:Drivers/STM32G4xx_HAL_Driver/Src/stm32g4xx_hal_exti.c ****     if ((pExtiConfig->Trigger & EXTI_TRIGGER_RISING) != 0x00u)
  92              		.loc 1 183 5 is_stmt 1 view .LVU30
  93              		.loc 1 183 8 is_stmt 0 view .LVU31
  94 0028 8E68     		ldr	r6, [r1, #8]
  95 002a 16F0010F 		tst	r6, #1
  96 002e 29D0     		beq	.L4
 184:Drivers/STM32G4xx_HAL_Driver/Src/stm32g4xx_hal_exti.c ****     {
 185:Drivers/STM32G4xx_HAL_Driver/Src/stm32g4xx_hal_exti.c ****       regval |= maskline;
  97              		.loc 1 185 7 is_stmt 1 view .LVU32
  98              		.loc 1 185 14 is_stmt 0 view .LVU33
  99 0030 4CEA0006 		orr	r6, ip, r0
 100              	.LVL7:
ARM GAS  /tmp/ccmTh9p3.s 			page 6


 101              	.L5:
 186:Drivers/STM32G4xx_HAL_Driver/Src/stm32g4xx_hal_exti.c ****     }
 187:Drivers/STM32G4xx_HAL_Driver/Src/stm32g4xx_hal_exti.c ****     else
 188:Drivers/STM32G4xx_HAL_Driver/Src/stm32g4xx_hal_exti.c ****     {
 189:Drivers/STM32G4xx_HAL_Driver/Src/stm32g4xx_hal_exti.c ****       regval &= ~maskline;
 190:Drivers/STM32G4xx_HAL_Driver/Src/stm32g4xx_hal_exti.c ****     }
 191:Drivers/STM32G4xx_HAL_Driver/Src/stm32g4xx_hal_exti.c **** 
 192:Drivers/STM32G4xx_HAL_Driver/Src/stm32g4xx_hal_exti.c ****     /* Store rising trigger mode */
 193:Drivers/STM32G4xx_HAL_Driver/Src/stm32g4xx_hal_exti.c ****     *regaddr = regval;
 102              		.loc 1 193 5 is_stmt 1 view .LVU34
 103              		.loc 1 193 14 is_stmt 0 view .LVU35
 104 0034 EE51     		str	r6, [r5, r7]
 194:Drivers/STM32G4xx_HAL_Driver/Src/stm32g4xx_hal_exti.c **** 
 195:Drivers/STM32G4xx_HAL_Driver/Src/stm32g4xx_hal_exti.c ****     /* Configure falling trigger */
 196:Drivers/STM32G4xx_HAL_Driver/Src/stm32g4xx_hal_exti.c ****     regaddr = (&EXTI->FTSR1 + (EXTI_CONFIG_OFFSET * offset));
 105              		.loc 1 196 5 is_stmt 1 view .LVU36
 106              		.loc 1 196 13 is_stmt 0 view .LVU37
 107 0036 264F     		ldr	r7, .L19+4
 108              	.LVL8:
 197:Drivers/STM32G4xx_HAL_Driver/Src/stm32g4xx_hal_exti.c ****     regval = *regaddr;
 109              		.loc 1 197 5 is_stmt 1 view .LVU38
 110              		.loc 1 197 12 is_stmt 0 view .LVU39
 111 0038 55F807C0 		ldr	ip, [r5, r7]
 112              	.LVL9:
 198:Drivers/STM32G4xx_HAL_Driver/Src/stm32g4xx_hal_exti.c **** 
 199:Drivers/STM32G4xx_HAL_Driver/Src/stm32g4xx_hal_exti.c ****     /* Mask or set line */
 200:Drivers/STM32G4xx_HAL_Driver/Src/stm32g4xx_hal_exti.c ****     if ((pExtiConfig->Trigger & EXTI_TRIGGER_FALLING) != 0x00u)
 113              		.loc 1 200 5 is_stmt 1 view .LVU40
 114              		.loc 1 200 8 is_stmt 0 view .LVU41
 115 003c 8E68     		ldr	r6, [r1, #8]
 116 003e 16F0020F 		tst	r6, #2
 117 0042 22D0     		beq	.L6
 201:Drivers/STM32G4xx_HAL_Driver/Src/stm32g4xx_hal_exti.c ****     {
 202:Drivers/STM32G4xx_HAL_Driver/Src/stm32g4xx_hal_exti.c ****       regval |= maskline;
 118              		.loc 1 202 7 is_stmt 1 view .LVU42
 119              		.loc 1 202 14 is_stmt 0 view .LVU43
 120 0044 4CEA0006 		orr	r6, ip, r0
 121              	.LVL10:
 122              	.L7:
 203:Drivers/STM32G4xx_HAL_Driver/Src/stm32g4xx_hal_exti.c ****     }
 204:Drivers/STM32G4xx_HAL_Driver/Src/stm32g4xx_hal_exti.c ****     else
 205:Drivers/STM32G4xx_HAL_Driver/Src/stm32g4xx_hal_exti.c ****     {
 206:Drivers/STM32G4xx_HAL_Driver/Src/stm32g4xx_hal_exti.c ****       regval &= ~maskline;
 207:Drivers/STM32G4xx_HAL_Driver/Src/stm32g4xx_hal_exti.c ****     }
 208:Drivers/STM32G4xx_HAL_Driver/Src/stm32g4xx_hal_exti.c **** 
 209:Drivers/STM32G4xx_HAL_Driver/Src/stm32g4xx_hal_exti.c ****     /* Store falling trigger mode */
 210:Drivers/STM32G4xx_HAL_Driver/Src/stm32g4xx_hal_exti.c ****     *regaddr = regval;
 123              		.loc 1 210 5 is_stmt 1 view .LVU44
 124              		.loc 1 210 14 is_stmt 0 view .LVU45
 125 0048 EE51     		str	r6, [r5, r7]
 211:Drivers/STM32G4xx_HAL_Driver/Src/stm32g4xx_hal_exti.c **** 
 212:Drivers/STM32G4xx_HAL_Driver/Src/stm32g4xx_hal_exti.c ****     /* Configure gpio port selection in case of gpio exti line */
 213:Drivers/STM32G4xx_HAL_Driver/Src/stm32g4xx_hal_exti.c ****     if ((pExtiConfig->Line & EXTI_GPIO) == EXTI_GPIO)
 126              		.loc 1 213 5 is_stmt 1 view .LVU46
 127              		.loc 1 213 21 is_stmt 0 view .LVU47
 128 004a 0D68     		ldr	r5, [r1]
 129              	.LVL11:
ARM GAS  /tmp/ccmTh9p3.s 			page 7


 130              		.loc 1 213 28 view .LVU48
 131 004c 05F0C065 		and	r5, r5, #100663296
 132              		.loc 1 213 8 view .LVU49
 133 0050 B5F1C06F 		cmp	r5, #100663296
 134 0054 1CD0     		beq	.L18
 135              	.LVL12:
 136              	.L3:
 214:Drivers/STM32G4xx_HAL_Driver/Src/stm32g4xx_hal_exti.c ****     {
 215:Drivers/STM32G4xx_HAL_Driver/Src/stm32g4xx_hal_exti.c ****       assert_param(IS_EXTI_GPIO_PORT(pExtiConfig->GPIOSel));
 216:Drivers/STM32G4xx_HAL_Driver/Src/stm32g4xx_hal_exti.c ****       assert_param(IS_EXTI_GPIO_PIN(linepos));
 217:Drivers/STM32G4xx_HAL_Driver/Src/stm32g4xx_hal_exti.c **** 
 218:Drivers/STM32G4xx_HAL_Driver/Src/stm32g4xx_hal_exti.c ****       regval = SYSCFG->EXTICR[linepos >> 2u];
 219:Drivers/STM32G4xx_HAL_Driver/Src/stm32g4xx_hal_exti.c ****       regval &= ~(SYSCFG_EXTICR1_EXTI0 << (SYSCFG_EXTICR1_EXTI1_Pos * (linepos & 0x03u)));
 220:Drivers/STM32G4xx_HAL_Driver/Src/stm32g4xx_hal_exti.c ****       regval |= (pExtiConfig->GPIOSel << (SYSCFG_EXTICR1_EXTI1_Pos * (linepos & 0x03u)));
 221:Drivers/STM32G4xx_HAL_Driver/Src/stm32g4xx_hal_exti.c ****       SYSCFG->EXTICR[linepos >> 2u] = regval;
 222:Drivers/STM32G4xx_HAL_Driver/Src/stm32g4xx_hal_exti.c ****     }
 223:Drivers/STM32G4xx_HAL_Driver/Src/stm32g4xx_hal_exti.c ****   }
 224:Drivers/STM32G4xx_HAL_Driver/Src/stm32g4xx_hal_exti.c **** 
 225:Drivers/STM32G4xx_HAL_Driver/Src/stm32g4xx_hal_exti.c ****   /* Configure interrupt mode : read current mode */
 226:Drivers/STM32G4xx_HAL_Driver/Src/stm32g4xx_hal_exti.c ****   regaddr = (&EXTI->IMR1 + (EXTI_MODE_OFFSET * offset));
 137              		.loc 1 226 3 is_stmt 1 view .LVU50
 138              		.loc 1 226 26 is_stmt 0 view .LVU51
 139 0056 5B01     		lsls	r3, r3, #5
 140              	.LVL13:
 141              		.loc 1 226 11 view .LVU52
 142 0058 03F18042 		add	r2, r3, #1073741824
 143 005c 02F58232 		add	r2, r2, #66560
 144              	.LVL14:
 227:Drivers/STM32G4xx_HAL_Driver/Src/stm32g4xx_hal_exti.c ****   regval = *regaddr;
 145              		.loc 1 227 3 is_stmt 1 view .LVU53
 146              		.loc 1 227 10 is_stmt 0 view .LVU54
 147 0060 1468     		ldr	r4, [r2]
 148              	.LVL15:
 228:Drivers/STM32G4xx_HAL_Driver/Src/stm32g4xx_hal_exti.c **** 
 229:Drivers/STM32G4xx_HAL_Driver/Src/stm32g4xx_hal_exti.c ****   /* Mask or set line */
 230:Drivers/STM32G4xx_HAL_Driver/Src/stm32g4xx_hal_exti.c ****   if ((pExtiConfig->Mode & EXTI_MODE_INTERRUPT) != 0x00u)
 149              		.loc 1 230 3 is_stmt 1 view .LVU55
 150              		.loc 1 230 19 is_stmt 0 view .LVU56
 151 0062 4D68     		ldr	r5, [r1, #4]
 152              		.loc 1 230 6 view .LVU57
 153 0064 15F0010F 		tst	r5, #1
 154 0068 25D0     		beq	.L8
 231:Drivers/STM32G4xx_HAL_Driver/Src/stm32g4xx_hal_exti.c ****   {
 232:Drivers/STM32G4xx_HAL_Driver/Src/stm32g4xx_hal_exti.c ****     regval |= maskline;
 155              		.loc 1 232 5 is_stmt 1 view .LVU58
 156              		.loc 1 232 12 is_stmt 0 view .LVU59
 157 006a 0443     		orrs	r4, r4, r0
 158              	.LVL16:
 159              	.L9:
 233:Drivers/STM32G4xx_HAL_Driver/Src/stm32g4xx_hal_exti.c ****   }
 234:Drivers/STM32G4xx_HAL_Driver/Src/stm32g4xx_hal_exti.c ****   else
 235:Drivers/STM32G4xx_HAL_Driver/Src/stm32g4xx_hal_exti.c ****   {
 236:Drivers/STM32G4xx_HAL_Driver/Src/stm32g4xx_hal_exti.c ****     regval &= ~maskline;
 237:Drivers/STM32G4xx_HAL_Driver/Src/stm32g4xx_hal_exti.c ****   }
 238:Drivers/STM32G4xx_HAL_Driver/Src/stm32g4xx_hal_exti.c **** 
 239:Drivers/STM32G4xx_HAL_Driver/Src/stm32g4xx_hal_exti.c ****   /* Store interrupt mode */
 240:Drivers/STM32G4xx_HAL_Driver/Src/stm32g4xx_hal_exti.c ****   *regaddr = regval;
ARM GAS  /tmp/ccmTh9p3.s 			page 8


 160              		.loc 1 240 3 is_stmt 1 view .LVU60
 161              		.loc 1 240 12 is_stmt 0 view .LVU61
 162 006c 1460     		str	r4, [r2]
 241:Drivers/STM32G4xx_HAL_Driver/Src/stm32g4xx_hal_exti.c **** 
 242:Drivers/STM32G4xx_HAL_Driver/Src/stm32g4xx_hal_exti.c ****   /* Configure event mode : read current mode */
 243:Drivers/STM32G4xx_HAL_Driver/Src/stm32g4xx_hal_exti.c ****   regaddr = (&EXTI->EMR1 + (EXTI_MODE_OFFSET * offset));
 163              		.loc 1 243 3 is_stmt 1 view .LVU62
 164              		.loc 1 243 11 is_stmt 0 view .LVU63
 165 006e 194C     		ldr	r4, .L19+8
 166              	.LVL17:
 244:Drivers/STM32G4xx_HAL_Driver/Src/stm32g4xx_hal_exti.c ****   regval = *regaddr;
 167              		.loc 1 244 3 is_stmt 1 view .LVU64
 168              		.loc 1 244 10 is_stmt 0 view .LVU65
 169 0070 1A59     		ldr	r2, [r3, r4]
 170              	.LVL18:
 245:Drivers/STM32G4xx_HAL_Driver/Src/stm32g4xx_hal_exti.c **** 
 246:Drivers/STM32G4xx_HAL_Driver/Src/stm32g4xx_hal_exti.c ****   /* Mask or set line */
 247:Drivers/STM32G4xx_HAL_Driver/Src/stm32g4xx_hal_exti.c ****   if ((pExtiConfig->Mode & EXTI_MODE_EVENT) != 0x00u)
 171              		.loc 1 247 3 is_stmt 1 view .LVU66
 172              		.loc 1 247 19 is_stmt 0 view .LVU67
 173 0072 4968     		ldr	r1, [r1, #4]
 174              	.LVL19:
 175              		.loc 1 247 6 view .LVU68
 176 0074 11F0020F 		tst	r1, #2
 177 0078 20D0     		beq	.L10
 248:Drivers/STM32G4xx_HAL_Driver/Src/stm32g4xx_hal_exti.c ****   {
 249:Drivers/STM32G4xx_HAL_Driver/Src/stm32g4xx_hal_exti.c ****     regval |= maskline;
 178              		.loc 1 249 5 is_stmt 1 view .LVU69
 179              		.loc 1 249 12 is_stmt 0 view .LVU70
 180 007a 1043     		orrs	r0, r0, r2
 181              	.LVL20:
 182              	.L11:
 250:Drivers/STM32G4xx_HAL_Driver/Src/stm32g4xx_hal_exti.c ****   }
 251:Drivers/STM32G4xx_HAL_Driver/Src/stm32g4xx_hal_exti.c ****   else
 252:Drivers/STM32G4xx_HAL_Driver/Src/stm32g4xx_hal_exti.c ****   {
 253:Drivers/STM32G4xx_HAL_Driver/Src/stm32g4xx_hal_exti.c ****     regval &= ~maskline;
 254:Drivers/STM32G4xx_HAL_Driver/Src/stm32g4xx_hal_exti.c ****   }
 255:Drivers/STM32G4xx_HAL_Driver/Src/stm32g4xx_hal_exti.c **** 
 256:Drivers/STM32G4xx_HAL_Driver/Src/stm32g4xx_hal_exti.c ****   /* Store event mode */
 257:Drivers/STM32G4xx_HAL_Driver/Src/stm32g4xx_hal_exti.c ****   *regaddr = regval;
 183              		.loc 1 257 3 is_stmt 1 view .LVU71
 184              		.loc 1 257 12 is_stmt 0 view .LVU72
 185 007c 1851     		str	r0, [r3, r4]
 258:Drivers/STM32G4xx_HAL_Driver/Src/stm32g4xx_hal_exti.c **** 
 259:Drivers/STM32G4xx_HAL_Driver/Src/stm32g4xx_hal_exti.c ****   return HAL_OK;
 186              		.loc 1 259 3 is_stmt 1 view .LVU73
 187              		.loc 1 259 10 is_stmt 0 view .LVU74
 188 007e 0020     		movs	r0, #0
 189              	.LVL21:
 260:Drivers/STM32G4xx_HAL_Driver/Src/stm32g4xx_hal_exti.c **** }
 190              		.loc 1 260 1 view .LVU75
 191 0080 F0BC     		pop	{r4, r5, r6, r7}
 192              	.LCFI1:
 193              		.cfi_remember_state
 194              		.cfi_restore 7
 195              		.cfi_restore 6
 196              		.cfi_restore 5
ARM GAS  /tmp/ccmTh9p3.s 			page 9


 197              		.cfi_restore 4
 198              		.cfi_def_cfa_offset 0
 199              	.LVL22:
 200              		.loc 1 260 1 view .LVU76
 201 0082 7047     		bx	lr
 202              	.LVL23:
 203              	.L4:
 204              	.LCFI2:
 205              		.cfi_restore_state
 189:Drivers/STM32G4xx_HAL_Driver/Src/stm32g4xx_hal_exti.c ****     }
 206              		.loc 1 189 7 is_stmt 1 view .LVU77
 189:Drivers/STM32G4xx_HAL_Driver/Src/stm32g4xx_hal_exti.c ****     }
 207              		.loc 1 189 14 is_stmt 0 view .LVU78
 208 0084 2CEA0006 		bic	r6, ip, r0
 209              	.LVL24:
 189:Drivers/STM32G4xx_HAL_Driver/Src/stm32g4xx_hal_exti.c ****     }
 210              		.loc 1 189 14 view .LVU79
 211 0088 D4E7     		b	.L5
 212              	.LVL25:
 213              	.L6:
 206:Drivers/STM32G4xx_HAL_Driver/Src/stm32g4xx_hal_exti.c ****     }
 214              		.loc 1 206 7 is_stmt 1 view .LVU80
 206:Drivers/STM32G4xx_HAL_Driver/Src/stm32g4xx_hal_exti.c ****     }
 215              		.loc 1 206 14 is_stmt 0 view .LVU81
 216 008a 2CEA0006 		bic	r6, ip, r0
 217              	.LVL26:
 206:Drivers/STM32G4xx_HAL_Driver/Src/stm32g4xx_hal_exti.c ****     }
 218              		.loc 1 206 14 view .LVU82
 219 008e DBE7     		b	.L7
 220              	.LVL27:
 221              	.L18:
 215:Drivers/STM32G4xx_HAL_Driver/Src/stm32g4xx_hal_exti.c ****       assert_param(IS_EXTI_GPIO_PIN(linepos));
 222              		.loc 1 215 7 is_stmt 1 view .LVU83
 216:Drivers/STM32G4xx_HAL_Driver/Src/stm32g4xx_hal_exti.c **** 
 223              		.loc 1 216 7 view .LVU84
 218:Drivers/STM32G4xx_HAL_Driver/Src/stm32g4xx_hal_exti.c ****       regval &= ~(SYSCFG_EXTICR1_EXTI0 << (SYSCFG_EXTICR1_EXTI1_Pos * (linepos & 0x03u)));
 224              		.loc 1 218 7 view .LVU85
 218:Drivers/STM32G4xx_HAL_Driver/Src/stm32g4xx_hal_exti.c ****       regval &= ~(SYSCFG_EXTICR1_EXTI0 << (SYSCFG_EXTICR1_EXTI1_Pos * (linepos & 0x03u)));
 225              		.loc 1 218 39 is_stmt 0 view .LVU86
 226 0090 A408     		lsrs	r4, r4, #2
 227              	.LVL28:
 218:Drivers/STM32G4xx_HAL_Driver/Src/stm32g4xx_hal_exti.c ****       regval &= ~(SYSCFG_EXTICR1_EXTI0 << (SYSCFG_EXTICR1_EXTI1_Pos * (linepos & 0x03u)));
 228              		.loc 1 218 14 view .LVU87
 229 0092 114F     		ldr	r7, .L19+12
 230              	.LVL29:
 218:Drivers/STM32G4xx_HAL_Driver/Src/stm32g4xx_hal_exti.c ****       regval &= ~(SYSCFG_EXTICR1_EXTI0 << (SYSCFG_EXTICR1_EXTI1_Pos * (linepos & 0x03u)));
 231              		.loc 1 218 14 view .LVU88
 232 0094 0234     		adds	r4, r4, #2
 233 0096 57F82460 		ldr	r6, [r7, r4, lsl #2]
 234              	.LVL30:
 219:Drivers/STM32G4xx_HAL_Driver/Src/stm32g4xx_hal_exti.c ****       regval |= (pExtiConfig->GPIOSel << (SYSCFG_EXTICR1_EXTI1_Pos * (linepos & 0x03u)));
 235              		.loc 1 219 7 is_stmt 1 view .LVU89
 219:Drivers/STM32G4xx_HAL_Driver/Src/stm32g4xx_hal_exti.c ****       regval |= (pExtiConfig->GPIOSel << (SYSCFG_EXTICR1_EXTI1_Pos * (linepos & 0x03u)));
 236              		.loc 1 219 80 is_stmt 0 view .LVU90
 237 009a 02F00302 		and	r2, r2, #3
 238              	.LVL31:
 219:Drivers/STM32G4xx_HAL_Driver/Src/stm32g4xx_hal_exti.c ****       regval |= (pExtiConfig->GPIOSel << (SYSCFG_EXTICR1_EXTI1_Pos * (linepos & 0x03u)));
ARM GAS  /tmp/ccmTh9p3.s 			page 10


 239              		.loc 1 219 69 view .LVU91
 240 009e 9200     		lsls	r2, r2, #2
 219:Drivers/STM32G4xx_HAL_Driver/Src/stm32g4xx_hal_exti.c ****       regval |= (pExtiConfig->GPIOSel << (SYSCFG_EXTICR1_EXTI1_Pos * (linepos & 0x03u)));
 241              		.loc 1 219 40 view .LVU92
 242 00a0 0725     		movs	r5, #7
 243 00a2 9540     		lsls	r5, r5, r2
 219:Drivers/STM32G4xx_HAL_Driver/Src/stm32g4xx_hal_exti.c ****       regval |= (pExtiConfig->GPIOSel << (SYSCFG_EXTICR1_EXTI1_Pos * (linepos & 0x03u)));
 244              		.loc 1 219 14 view .LVU93
 245 00a4 26EA0506 		bic	r6, r6, r5
 246              	.LVL32:
 220:Drivers/STM32G4xx_HAL_Driver/Src/stm32g4xx_hal_exti.c ****       SYSCFG->EXTICR[linepos >> 2u] = regval;
 247              		.loc 1 220 7 is_stmt 1 view .LVU94
 220:Drivers/STM32G4xx_HAL_Driver/Src/stm32g4xx_hal_exti.c ****       SYSCFG->EXTICR[linepos >> 2u] = regval;
 248              		.loc 1 220 29 is_stmt 0 view .LVU95
 249 00a8 CD68     		ldr	r5, [r1, #12]
 220:Drivers/STM32G4xx_HAL_Driver/Src/stm32g4xx_hal_exti.c ****       SYSCFG->EXTICR[linepos >> 2u] = regval;
 250              		.loc 1 220 39 view .LVU96
 251 00aa 05FA02F2 		lsl	r2, r5, r2
 220:Drivers/STM32G4xx_HAL_Driver/Src/stm32g4xx_hal_exti.c ****       SYSCFG->EXTICR[linepos >> 2u] = regval;
 252              		.loc 1 220 14 view .LVU97
 253 00ae 3243     		orrs	r2, r2, r6
 254              	.LVL33:
 221:Drivers/STM32G4xx_HAL_Driver/Src/stm32g4xx_hal_exti.c ****     }
 255              		.loc 1 221 7 is_stmt 1 view .LVU98
 221:Drivers/STM32G4xx_HAL_Driver/Src/stm32g4xx_hal_exti.c ****     }
 256              		.loc 1 221 37 is_stmt 0 view .LVU99
 257 00b0 47F82420 		str	r2, [r7, r4, lsl #2]
 258 00b4 CFE7     		b	.L3
 259              	.LVL34:
 260              	.L8:
 236:Drivers/STM32G4xx_HAL_Driver/Src/stm32g4xx_hal_exti.c ****   }
 261              		.loc 1 236 5 is_stmt 1 view .LVU100
 236:Drivers/STM32G4xx_HAL_Driver/Src/stm32g4xx_hal_exti.c ****   }
 262              		.loc 1 236 12 is_stmt 0 view .LVU101
 263 00b6 24EA0004 		bic	r4, r4, r0
 264              	.LVL35:
 236:Drivers/STM32G4xx_HAL_Driver/Src/stm32g4xx_hal_exti.c ****   }
 265              		.loc 1 236 12 view .LVU102
 266 00ba D7E7     		b	.L9
 267              	.LVL36:
 268              	.L10:
 253:Drivers/STM32G4xx_HAL_Driver/Src/stm32g4xx_hal_exti.c ****   }
 269              		.loc 1 253 5 is_stmt 1 view .LVU103
 253:Drivers/STM32G4xx_HAL_Driver/Src/stm32g4xx_hal_exti.c ****   }
 270              		.loc 1 253 12 is_stmt 0 view .LVU104
 271 00bc 22EA0000 		bic	r0, r2, r0
 272              	.LVL37:
 253:Drivers/STM32G4xx_HAL_Driver/Src/stm32g4xx_hal_exti.c ****   }
 273              		.loc 1 253 12 view .LVU105
 274 00c0 DCE7     		b	.L11
 275              	.LVL38:
 276              	.L12:
 277              	.LCFI3:
 278              		.cfi_def_cfa_offset 0
 279              		.cfi_restore 4
 280              		.cfi_restore 5
 281              		.cfi_restore 6
ARM GAS  /tmp/ccmTh9p3.s 			page 11


 282              		.cfi_restore 7
 156:Drivers/STM32G4xx_HAL_Driver/Src/stm32g4xx_hal_exti.c ****   }
 283              		.loc 1 156 12 view .LVU106
 284 00c2 0120     		movs	r0, #1
 285              	.LVL39:
 156:Drivers/STM32G4xx_HAL_Driver/Src/stm32g4xx_hal_exti.c ****   }
 286              		.loc 1 156 12 view .LVU107
 287 00c4 7047     		bx	lr
 288              	.LVL40:
 289              	.L13:
 156:Drivers/STM32G4xx_HAL_Driver/Src/stm32g4xx_hal_exti.c ****   }
 290              		.loc 1 156 12 view .LVU108
 291 00c6 0120     		movs	r0, #1
 292              	.LVL41:
 293              		.loc 1 260 1 view .LVU109
 294 00c8 7047     		bx	lr
 295              	.L20:
 296 00ca 00BF     		.align	2
 297              	.L19:
 298 00cc 08040140 		.word	1073808392
 299 00d0 0C040140 		.word	1073808396
 300 00d4 04040140 		.word	1073808388
 301 00d8 00000140 		.word	1073807360
 302              		.cfi_endproc
 303              	.LFE162:
 305              		.section	.text.HAL_EXTI_GetConfigLine,"ax",%progbits
 306              		.align	1
 307              		.global	HAL_EXTI_GetConfigLine
 308              		.syntax unified
 309              		.thumb
 310              		.thumb_func
 311              		.fpu fpv4-sp-d16
 313              	HAL_EXTI_GetConfigLine:
 314              	.LVL42:
 315              	.LFB163:
 261:Drivers/STM32G4xx_HAL_Driver/Src/stm32g4xx_hal_exti.c **** 
 262:Drivers/STM32G4xx_HAL_Driver/Src/stm32g4xx_hal_exti.c **** 
 263:Drivers/STM32G4xx_HAL_Driver/Src/stm32g4xx_hal_exti.c **** /**
 264:Drivers/STM32G4xx_HAL_Driver/Src/stm32g4xx_hal_exti.c ****   * @brief  Get configuration of a dedicated Exti line.
 265:Drivers/STM32G4xx_HAL_Driver/Src/stm32g4xx_hal_exti.c ****   * @param  hexti Exti handle.
 266:Drivers/STM32G4xx_HAL_Driver/Src/stm32g4xx_hal_exti.c ****   * @param  pExtiConfig Pointer on structure to store Exti configuration.
 267:Drivers/STM32G4xx_HAL_Driver/Src/stm32g4xx_hal_exti.c ****   * @retval HAL Status.
 268:Drivers/STM32G4xx_HAL_Driver/Src/stm32g4xx_hal_exti.c ****   */
 269:Drivers/STM32G4xx_HAL_Driver/Src/stm32g4xx_hal_exti.c **** HAL_StatusTypeDef HAL_EXTI_GetConfigLine(EXTI_HandleTypeDef *hexti, EXTI_ConfigTypeDef *pExtiConfig
 270:Drivers/STM32G4xx_HAL_Driver/Src/stm32g4xx_hal_exti.c **** {
 316              		.loc 1 270 1 is_stmt 1 view -0
 317              		.cfi_startproc
 318              		@ args = 0, pretend = 0, frame = 0
 319              		@ frame_needed = 0, uses_anonymous_args = 0
 320              		@ link register save eliminated.
 271:Drivers/STM32G4xx_HAL_Driver/Src/stm32g4xx_hal_exti.c ****   __IO uint32_t *regaddr;
 321              		.loc 1 271 3 view .LVU111
 272:Drivers/STM32G4xx_HAL_Driver/Src/stm32g4xx_hal_exti.c ****   uint32_t regval;
 322              		.loc 1 272 3 view .LVU112
 273:Drivers/STM32G4xx_HAL_Driver/Src/stm32g4xx_hal_exti.c ****   uint32_t linepos;
 323              		.loc 1 273 3 view .LVU113
 274:Drivers/STM32G4xx_HAL_Driver/Src/stm32g4xx_hal_exti.c ****   uint32_t maskline;
ARM GAS  /tmp/ccmTh9p3.s 			page 12


 324              		.loc 1 274 3 view .LVU114
 275:Drivers/STM32G4xx_HAL_Driver/Src/stm32g4xx_hal_exti.c ****   uint32_t offset;
 325              		.loc 1 275 3 view .LVU115
 276:Drivers/STM32G4xx_HAL_Driver/Src/stm32g4xx_hal_exti.c **** 
 277:Drivers/STM32G4xx_HAL_Driver/Src/stm32g4xx_hal_exti.c ****   /* Check null pointer */
 278:Drivers/STM32G4xx_HAL_Driver/Src/stm32g4xx_hal_exti.c ****   if ((hexti == NULL) || (pExtiConfig == NULL))
 326              		.loc 1 278 3 view .LVU116
 327              		.loc 1 278 6 is_stmt 0 view .LVU117
 328 0000 0028     		cmp	r0, #0
 329 0002 4DD0     		beq	.L31
 330              		.loc 1 278 23 discriminator 1 view .LVU118
 331 0004 0029     		cmp	r1, #0
 332 0006 4DD0     		beq	.L32
 270:Drivers/STM32G4xx_HAL_Driver/Src/stm32g4xx_hal_exti.c ****   __IO uint32_t *regaddr;
 333              		.loc 1 270 1 view .LVU119
 334 0008 30B4     		push	{r4, r5}
 335              	.LCFI4:
 336              		.cfi_def_cfa_offset 8
 337              		.cfi_offset 4, -8
 338              		.cfi_offset 5, -4
 279:Drivers/STM32G4xx_HAL_Driver/Src/stm32g4xx_hal_exti.c ****   {
 280:Drivers/STM32G4xx_HAL_Driver/Src/stm32g4xx_hal_exti.c ****     return HAL_ERROR;
 281:Drivers/STM32G4xx_HAL_Driver/Src/stm32g4xx_hal_exti.c ****   }
 282:Drivers/STM32G4xx_HAL_Driver/Src/stm32g4xx_hal_exti.c **** 
 283:Drivers/STM32G4xx_HAL_Driver/Src/stm32g4xx_hal_exti.c ****   /* Check the parameter */
 284:Drivers/STM32G4xx_HAL_Driver/Src/stm32g4xx_hal_exti.c ****   assert_param(IS_EXTI_LINE(hexti->Line));
 339              		.loc 1 284 3 is_stmt 1 view .LVU120
 285:Drivers/STM32G4xx_HAL_Driver/Src/stm32g4xx_hal_exti.c **** 
 286:Drivers/STM32G4xx_HAL_Driver/Src/stm32g4xx_hal_exti.c ****   /* Store handle line number to configuration structure */
 287:Drivers/STM32G4xx_HAL_Driver/Src/stm32g4xx_hal_exti.c ****   pExtiConfig->Line = hexti->Line;
 340              		.loc 1 287 3 view .LVU121
 341              		.loc 1 287 28 is_stmt 0 view .LVU122
 342 000a 0368     		ldr	r3, [r0]
 343              		.loc 1 287 21 view .LVU123
 344 000c 0B60     		str	r3, [r1]
 288:Drivers/STM32G4xx_HAL_Driver/Src/stm32g4xx_hal_exti.c **** 
 289:Drivers/STM32G4xx_HAL_Driver/Src/stm32g4xx_hal_exti.c ****   /* Compute line register offset and line mask */
 290:Drivers/STM32G4xx_HAL_Driver/Src/stm32g4xx_hal_exti.c ****   offset = ((pExtiConfig->Line & EXTI_REG_MASK) >> EXTI_REG_SHIFT);
 345              		.loc 1 290 3 is_stmt 1 view .LVU124
 346              		.loc 1 290 10 is_stmt 0 view .LVU125
 347 000e C3F30040 		ubfx	r0, r3, #16, #1
 348              	.LVL43:
 291:Drivers/STM32G4xx_HAL_Driver/Src/stm32g4xx_hal_exti.c ****   /* Compute line position */
 292:Drivers/STM32G4xx_HAL_Driver/Src/stm32g4xx_hal_exti.c ****   linepos = (pExtiConfig->Line & EXTI_PIN_MASK);
 349              		.loc 1 292 3 is_stmt 1 view .LVU126
 350              		.loc 1 292 11 is_stmt 0 view .LVU127
 351 0012 03F01F05 		and	r5, r3, #31
 352              	.LVL44:
 293:Drivers/STM32G4xx_HAL_Driver/Src/stm32g4xx_hal_exti.c ****   /* Compute mask */
 294:Drivers/STM32G4xx_HAL_Driver/Src/stm32g4xx_hal_exti.c ****   maskline = (1uL << linepos);
 353              		.loc 1 294 3 is_stmt 1 view .LVU128
 354              		.loc 1 294 12 is_stmt 0 view .LVU129
 355 0016 0122     		movs	r2, #1
 356 0018 AA40     		lsls	r2, r2, r5
 357              	.LVL45:
 295:Drivers/STM32G4xx_HAL_Driver/Src/stm32g4xx_hal_exti.c **** 
 296:Drivers/STM32G4xx_HAL_Driver/Src/stm32g4xx_hal_exti.c ****   /* 1] Get core mode : interrupt */
ARM GAS  /tmp/ccmTh9p3.s 			page 13


 297:Drivers/STM32G4xx_HAL_Driver/Src/stm32g4xx_hal_exti.c ****   regaddr = (&EXTI->IMR1 + (EXTI_MODE_OFFSET * offset));
 358              		.loc 1 297 3 is_stmt 1 view .LVU130
 359              		.loc 1 297 26 is_stmt 0 view .LVU131
 360 001a 4001     		lsls	r0, r0, #5
 361              	.LVL46:
 362              		.loc 1 297 11 view .LVU132
 363 001c 00F18044 		add	r4, r0, #1073741824
 364 0020 04F58234 		add	r4, r4, #66560
 365              	.LVL47:
 298:Drivers/STM32G4xx_HAL_Driver/Src/stm32g4xx_hal_exti.c ****   regval = *regaddr;
 366              		.loc 1 298 3 is_stmt 1 view .LVU133
 367              		.loc 1 298 10 is_stmt 0 view .LVU134
 368 0024 2468     		ldr	r4, [r4]
 369              	.LVL48:
 299:Drivers/STM32G4xx_HAL_Driver/Src/stm32g4xx_hal_exti.c **** 
 300:Drivers/STM32G4xx_HAL_Driver/Src/stm32g4xx_hal_exti.c ****   /* Check if selected line is enable */
 301:Drivers/STM32G4xx_HAL_Driver/Src/stm32g4xx_hal_exti.c ****   if ((regval & maskline) != 0x00u)
 370              		.loc 1 301 3 is_stmt 1 view .LVU135
 371              		.loc 1 301 6 is_stmt 0 view .LVU136
 372 0026 2242     		tst	r2, r4
 373 0028 22D0     		beq	.L23
 302:Drivers/STM32G4xx_HAL_Driver/Src/stm32g4xx_hal_exti.c ****   {
 303:Drivers/STM32G4xx_HAL_Driver/Src/stm32g4xx_hal_exti.c ****     pExtiConfig->Mode = EXTI_MODE_INTERRUPT;
 374              		.loc 1 303 5 is_stmt 1 view .LVU137
 375              		.loc 1 303 23 is_stmt 0 view .LVU138
 376 002a 0124     		movs	r4, #1
 377              	.LVL49:
 378              		.loc 1 303 23 view .LVU139
 379 002c 4C60     		str	r4, [r1, #4]
 380              	.L24:
 304:Drivers/STM32G4xx_HAL_Driver/Src/stm32g4xx_hal_exti.c ****   }
 305:Drivers/STM32G4xx_HAL_Driver/Src/stm32g4xx_hal_exti.c ****   else
 306:Drivers/STM32G4xx_HAL_Driver/Src/stm32g4xx_hal_exti.c ****   {
 307:Drivers/STM32G4xx_HAL_Driver/Src/stm32g4xx_hal_exti.c ****     pExtiConfig->Mode = EXTI_MODE_NONE;
 308:Drivers/STM32G4xx_HAL_Driver/Src/stm32g4xx_hal_exti.c ****   }
 309:Drivers/STM32G4xx_HAL_Driver/Src/stm32g4xx_hal_exti.c **** 
 310:Drivers/STM32G4xx_HAL_Driver/Src/stm32g4xx_hal_exti.c ****   /* Get event mode */
 311:Drivers/STM32G4xx_HAL_Driver/Src/stm32g4xx_hal_exti.c ****   regaddr = (&EXTI->EMR1 + (EXTI_MODE_OFFSET * offset));
 381              		.loc 1 311 3 is_stmt 1 view .LVU140
 382              		.loc 1 311 11 is_stmt 0 view .LVU141
 383 002e 1E4C     		ldr	r4, .L38
 384              	.LVL50:
 312:Drivers/STM32G4xx_HAL_Driver/Src/stm32g4xx_hal_exti.c ****   regval = *regaddr;
 385              		.loc 1 312 3 is_stmt 1 view .LVU142
 386              		.loc 1 312 10 is_stmt 0 view .LVU143
 387 0030 0459     		ldr	r4, [r0, r4]
 388              	.LVL51:
 313:Drivers/STM32G4xx_HAL_Driver/Src/stm32g4xx_hal_exti.c **** 
 314:Drivers/STM32G4xx_HAL_Driver/Src/stm32g4xx_hal_exti.c ****   /* Check if selected line is enable */
 315:Drivers/STM32G4xx_HAL_Driver/Src/stm32g4xx_hal_exti.c ****   if ((regval & maskline) != 0x00u)
 389              		.loc 1 315 3 is_stmt 1 view .LVU144
 390              		.loc 1 315 6 is_stmt 0 view .LVU145
 391 0032 2242     		tst	r2, r4
 392 0034 03D0     		beq	.L25
 316:Drivers/STM32G4xx_HAL_Driver/Src/stm32g4xx_hal_exti.c ****   {
 317:Drivers/STM32G4xx_HAL_Driver/Src/stm32g4xx_hal_exti.c ****     pExtiConfig->Mode |= EXTI_MODE_EVENT;
 393              		.loc 1 317 5 is_stmt 1 view .LVU146
ARM GAS  /tmp/ccmTh9p3.s 			page 14


 394              		.loc 1 317 23 is_stmt 0 view .LVU147
 395 0036 4C68     		ldr	r4, [r1, #4]
 396              	.LVL52:
 397              		.loc 1 317 23 view .LVU148
 398 0038 44F00204 		orr	r4, r4, #2
 399 003c 4C60     		str	r4, [r1, #4]
 400              	.L25:
 318:Drivers/STM32G4xx_HAL_Driver/Src/stm32g4xx_hal_exti.c ****   }
 319:Drivers/STM32G4xx_HAL_Driver/Src/stm32g4xx_hal_exti.c **** 
 320:Drivers/STM32G4xx_HAL_Driver/Src/stm32g4xx_hal_exti.c ****   /* 2] Get trigger for configurable lines : rising */
 321:Drivers/STM32G4xx_HAL_Driver/Src/stm32g4xx_hal_exti.c ****   if ((pExtiConfig->Line & EXTI_CONFIG) != 0x00u)
 401              		.loc 1 321 3 is_stmt 1 view .LVU149
 402              		.loc 1 321 6 is_stmt 0 view .LVU150
 403 003e 13F0007F 		tst	r3, #33554432
 404 0042 28D0     		beq	.L26
 322:Drivers/STM32G4xx_HAL_Driver/Src/stm32g4xx_hal_exti.c ****   {
 323:Drivers/STM32G4xx_HAL_Driver/Src/stm32g4xx_hal_exti.c ****     regaddr = (&EXTI->RTSR1 + (EXTI_CONFIG_OFFSET * offset));
 405              		.loc 1 323 5 is_stmt 1 view .LVU151
 406              		.loc 1 323 13 is_stmt 0 view .LVU152
 407 0044 194C     		ldr	r4, .L38+4
 408              	.LVL53:
 324:Drivers/STM32G4xx_HAL_Driver/Src/stm32g4xx_hal_exti.c ****     regval = *regaddr;
 409              		.loc 1 324 5 is_stmt 1 view .LVU153
 410              		.loc 1 324 12 is_stmt 0 view .LVU154
 411 0046 0459     		ldr	r4, [r0, r4]
 412              	.LVL54:
 325:Drivers/STM32G4xx_HAL_Driver/Src/stm32g4xx_hal_exti.c **** 
 326:Drivers/STM32G4xx_HAL_Driver/Src/stm32g4xx_hal_exti.c ****     /* Check if configuration of selected line is enable */
 327:Drivers/STM32G4xx_HAL_Driver/Src/stm32g4xx_hal_exti.c ****     if ((regval & maskline) != 0x00u)
 413              		.loc 1 327 5 is_stmt 1 view .LVU155
 414              		.loc 1 327 8 is_stmt 0 view .LVU156
 415 0048 2242     		tst	r2, r4
 416 004a 14D0     		beq	.L27
 328:Drivers/STM32G4xx_HAL_Driver/Src/stm32g4xx_hal_exti.c ****     {
 329:Drivers/STM32G4xx_HAL_Driver/Src/stm32g4xx_hal_exti.c ****       pExtiConfig->Trigger = EXTI_TRIGGER_RISING;
 417              		.loc 1 329 7 is_stmt 1 view .LVU157
 418              		.loc 1 329 28 is_stmt 0 view .LVU158
 419 004c 0124     		movs	r4, #1
 420              	.LVL55:
 421              		.loc 1 329 28 view .LVU159
 422 004e 8C60     		str	r4, [r1, #8]
 423              	.L28:
 330:Drivers/STM32G4xx_HAL_Driver/Src/stm32g4xx_hal_exti.c ****     }
 331:Drivers/STM32G4xx_HAL_Driver/Src/stm32g4xx_hal_exti.c ****     else
 332:Drivers/STM32G4xx_HAL_Driver/Src/stm32g4xx_hal_exti.c ****     {
 333:Drivers/STM32G4xx_HAL_Driver/Src/stm32g4xx_hal_exti.c ****       pExtiConfig->Trigger = EXTI_TRIGGER_NONE;
 334:Drivers/STM32G4xx_HAL_Driver/Src/stm32g4xx_hal_exti.c ****     }
 335:Drivers/STM32G4xx_HAL_Driver/Src/stm32g4xx_hal_exti.c **** 
 336:Drivers/STM32G4xx_HAL_Driver/Src/stm32g4xx_hal_exti.c ****     /* Get falling configuration */
 337:Drivers/STM32G4xx_HAL_Driver/Src/stm32g4xx_hal_exti.c ****     regaddr = (&EXTI->FTSR1 + (EXTI_CONFIG_OFFSET * offset));
 424              		.loc 1 337 5 is_stmt 1 view .LVU160
 425              		.loc 1 337 13 is_stmt 0 view .LVU161
 426 0050 174C     		ldr	r4, .L38+8
 427              	.LVL56:
 338:Drivers/STM32G4xx_HAL_Driver/Src/stm32g4xx_hal_exti.c ****     regval = *regaddr;
 428              		.loc 1 338 5 is_stmt 1 view .LVU162
 429              		.loc 1 338 12 is_stmt 0 view .LVU163
ARM GAS  /tmp/ccmTh9p3.s 			page 15


 430 0052 0059     		ldr	r0, [r0, r4]
 431              	.LVL57:
 339:Drivers/STM32G4xx_HAL_Driver/Src/stm32g4xx_hal_exti.c **** 
 340:Drivers/STM32G4xx_HAL_Driver/Src/stm32g4xx_hal_exti.c ****     /* Check if configuration of selected line is enable */
 341:Drivers/STM32G4xx_HAL_Driver/Src/stm32g4xx_hal_exti.c ****     if ((regval & maskline) != 0x00u)
 432              		.loc 1 341 5 is_stmt 1 view .LVU164
 433              		.loc 1 341 8 is_stmt 0 view .LVU165
 434 0054 0242     		tst	r2, r0
 435 0056 03D0     		beq	.L29
 342:Drivers/STM32G4xx_HAL_Driver/Src/stm32g4xx_hal_exti.c ****     {
 343:Drivers/STM32G4xx_HAL_Driver/Src/stm32g4xx_hal_exti.c ****       pExtiConfig->Trigger |= EXTI_TRIGGER_FALLING;
 436              		.loc 1 343 7 is_stmt 1 view .LVU166
 437              		.loc 1 343 28 is_stmt 0 view .LVU167
 438 0058 8A68     		ldr	r2, [r1, #8]
 439              	.LVL58:
 440              		.loc 1 343 28 view .LVU168
 441 005a 42F00202 		orr	r2, r2, #2
 442 005e 8A60     		str	r2, [r1, #8]
 443              	.L29:
 344:Drivers/STM32G4xx_HAL_Driver/Src/stm32g4xx_hal_exti.c ****     }
 345:Drivers/STM32G4xx_HAL_Driver/Src/stm32g4xx_hal_exti.c **** 
 346:Drivers/STM32G4xx_HAL_Driver/Src/stm32g4xx_hal_exti.c ****     /* Get Gpio port selection for gpio lines */
 347:Drivers/STM32G4xx_HAL_Driver/Src/stm32g4xx_hal_exti.c ****     if ((pExtiConfig->Line & EXTI_GPIO) == EXTI_GPIO)
 444              		.loc 1 347 5 is_stmt 1 view .LVU169
 445              		.loc 1 347 28 is_stmt 0 view .LVU170
 446 0060 03F0C062 		and	r2, r3, #100663296
 447              		.loc 1 347 8 view .LVU171
 448 0064 B2F1C06F 		cmp	r2, #100663296
 449 0068 08D0     		beq	.L37
 348:Drivers/STM32G4xx_HAL_Driver/Src/stm32g4xx_hal_exti.c ****     {
 349:Drivers/STM32G4xx_HAL_Driver/Src/stm32g4xx_hal_exti.c ****       assert_param(IS_EXTI_GPIO_PIN(linepos));
 350:Drivers/STM32G4xx_HAL_Driver/Src/stm32g4xx_hal_exti.c **** 
 351:Drivers/STM32G4xx_HAL_Driver/Src/stm32g4xx_hal_exti.c ****       regval = SYSCFG->EXTICR[linepos >> 2u];
 352:Drivers/STM32G4xx_HAL_Driver/Src/stm32g4xx_hal_exti.c ****       pExtiConfig->GPIOSel = ((regval >> (SYSCFG_EXTICR1_EXTI1_Pos * ((linepos & 0x03u)))));
 353:Drivers/STM32G4xx_HAL_Driver/Src/stm32g4xx_hal_exti.c ****     }
 354:Drivers/STM32G4xx_HAL_Driver/Src/stm32g4xx_hal_exti.c ****     else
 355:Drivers/STM32G4xx_HAL_Driver/Src/stm32g4xx_hal_exti.c ****     {
 356:Drivers/STM32G4xx_HAL_Driver/Src/stm32g4xx_hal_exti.c ****       pExtiConfig->GPIOSel = 0x00u;
 450              		.loc 1 356 7 is_stmt 1 view .LVU172
 451              		.loc 1 356 28 is_stmt 0 view .LVU173
 452 006a 0020     		movs	r0, #0
 453              	.LVL59:
 454              		.loc 1 356 28 view .LVU174
 455 006c C860     		str	r0, [r1, #12]
 456 006e 15E0     		b	.L22
 457              	.LVL60:
 458              	.L23:
 307:Drivers/STM32G4xx_HAL_Driver/Src/stm32g4xx_hal_exti.c ****   }
 459              		.loc 1 307 5 is_stmt 1 view .LVU175
 307:Drivers/STM32G4xx_HAL_Driver/Src/stm32g4xx_hal_exti.c ****   }
 460              		.loc 1 307 23 is_stmt 0 view .LVU176
 461 0070 0024     		movs	r4, #0
 462              	.LVL61:
 307:Drivers/STM32G4xx_HAL_Driver/Src/stm32g4xx_hal_exti.c ****   }
 463              		.loc 1 307 23 view .LVU177
 464 0072 4C60     		str	r4, [r1, #4]
 465 0074 DBE7     		b	.L24
ARM GAS  /tmp/ccmTh9p3.s 			page 16


 466              	.LVL62:
 467              	.L27:
 333:Drivers/STM32G4xx_HAL_Driver/Src/stm32g4xx_hal_exti.c ****     }
 468              		.loc 1 333 7 is_stmt 1 view .LVU178
 333:Drivers/STM32G4xx_HAL_Driver/Src/stm32g4xx_hal_exti.c ****     }
 469              		.loc 1 333 28 is_stmt 0 view .LVU179
 470 0076 0024     		movs	r4, #0
 471              	.LVL63:
 333:Drivers/STM32G4xx_HAL_Driver/Src/stm32g4xx_hal_exti.c ****     }
 472              		.loc 1 333 28 view .LVU180
 473 0078 8C60     		str	r4, [r1, #8]
 474 007a E9E7     		b	.L28
 475              	.LVL64:
 476              	.L37:
 349:Drivers/STM32G4xx_HAL_Driver/Src/stm32g4xx_hal_exti.c **** 
 477              		.loc 1 349 7 is_stmt 1 view .LVU181
 351:Drivers/STM32G4xx_HAL_Driver/Src/stm32g4xx_hal_exti.c ****       pExtiConfig->GPIOSel = ((regval >> (SYSCFG_EXTICR1_EXTI1_Pos * ((linepos & 0x03u)))));
 478              		.loc 1 351 7 view .LVU182
 351:Drivers/STM32G4xx_HAL_Driver/Src/stm32g4xx_hal_exti.c ****       pExtiConfig->GPIOSel = ((regval >> (SYSCFG_EXTICR1_EXTI1_Pos * ((linepos & 0x03u)))));
 479              		.loc 1 351 39 is_stmt 0 view .LVU183
 480 007c AA08     		lsrs	r2, r5, #2
 351:Drivers/STM32G4xx_HAL_Driver/Src/stm32g4xx_hal_exti.c ****       pExtiConfig->GPIOSel = ((regval >> (SYSCFG_EXTICR1_EXTI1_Pos * ((linepos & 0x03u)))));
 481              		.loc 1 351 14 view .LVU184
 482 007e 0232     		adds	r2, r2, #2
 483 0080 0C48     		ldr	r0, .L38+12
 484              	.LVL65:
 351:Drivers/STM32G4xx_HAL_Driver/Src/stm32g4xx_hal_exti.c ****       pExtiConfig->GPIOSel = ((regval >> (SYSCFG_EXTICR1_EXTI1_Pos * ((linepos & 0x03u)))));
 485              		.loc 1 351 14 view .LVU185
 486 0082 50F82220 		ldr	r2, [r0, r2, lsl #2]
 487              	.LVL66:
 352:Drivers/STM32G4xx_HAL_Driver/Src/stm32g4xx_hal_exti.c ****     }
 488              		.loc 1 352 7 is_stmt 1 view .LVU186
 352:Drivers/STM32G4xx_HAL_Driver/Src/stm32g4xx_hal_exti.c ****     }
 489              		.loc 1 352 80 is_stmt 0 view .LVU187
 490 0086 03F00303 		and	r3, r3, #3
 491              	.LVL67:
 352:Drivers/STM32G4xx_HAL_Driver/Src/stm32g4xx_hal_exti.c ****     }
 492              		.loc 1 352 68 view .LVU188
 493 008a 9B00     		lsls	r3, r3, #2
 352:Drivers/STM32G4xx_HAL_Driver/Src/stm32g4xx_hal_exti.c ****     }
 494              		.loc 1 352 39 view .LVU189
 495 008c 22FA03F3 		lsr	r3, r2, r3
 352:Drivers/STM32G4xx_HAL_Driver/Src/stm32g4xx_hal_exti.c ****     }
 496              		.loc 1 352 28 view .LVU190
 497 0090 CB60     		str	r3, [r1, #12]
 357:Drivers/STM32G4xx_HAL_Driver/Src/stm32g4xx_hal_exti.c ****     }
 358:Drivers/STM32G4xx_HAL_Driver/Src/stm32g4xx_hal_exti.c ****   }
 359:Drivers/STM32G4xx_HAL_Driver/Src/stm32g4xx_hal_exti.c ****   else
 360:Drivers/STM32G4xx_HAL_Driver/Src/stm32g4xx_hal_exti.c ****   {
 361:Drivers/STM32G4xx_HAL_Driver/Src/stm32g4xx_hal_exti.c ****     pExtiConfig->Trigger = EXTI_TRIGGER_NONE;
 362:Drivers/STM32G4xx_HAL_Driver/Src/stm32g4xx_hal_exti.c ****     pExtiConfig->GPIOSel = 0x00u;
 363:Drivers/STM32G4xx_HAL_Driver/Src/stm32g4xx_hal_exti.c ****   }
 364:Drivers/STM32G4xx_HAL_Driver/Src/stm32g4xx_hal_exti.c **** 
 365:Drivers/STM32G4xx_HAL_Driver/Src/stm32g4xx_hal_exti.c ****   return HAL_OK;
 498              		.loc 1 365 10 view .LVU191
 499 0092 0020     		movs	r0, #0
 500 0094 02E0     		b	.L22
ARM GAS  /tmp/ccmTh9p3.s 			page 17


 501              	.LVL68:
 502              	.L26:
 361:Drivers/STM32G4xx_HAL_Driver/Src/stm32g4xx_hal_exti.c ****     pExtiConfig->GPIOSel = 0x00u;
 503              		.loc 1 361 5 is_stmt 1 view .LVU192
 361:Drivers/STM32G4xx_HAL_Driver/Src/stm32g4xx_hal_exti.c ****     pExtiConfig->GPIOSel = 0x00u;
 504              		.loc 1 361 26 is_stmt 0 view .LVU193
 505 0096 0020     		movs	r0, #0
 506              	.LVL69:
 361:Drivers/STM32G4xx_HAL_Driver/Src/stm32g4xx_hal_exti.c ****     pExtiConfig->GPIOSel = 0x00u;
 507              		.loc 1 361 26 view .LVU194
 508 0098 8860     		str	r0, [r1, #8]
 362:Drivers/STM32G4xx_HAL_Driver/Src/stm32g4xx_hal_exti.c ****   }
 509              		.loc 1 362 5 is_stmt 1 view .LVU195
 362:Drivers/STM32G4xx_HAL_Driver/Src/stm32g4xx_hal_exti.c ****   }
 510              		.loc 1 362 26 is_stmt 0 view .LVU196
 511 009a C860     		str	r0, [r1, #12]
 512              	.LVL70:
 513              	.L22:
 366:Drivers/STM32G4xx_HAL_Driver/Src/stm32g4xx_hal_exti.c **** }
 514              		.loc 1 366 1 view .LVU197
 515 009c 30BC     		pop	{r4, r5}
 516              	.LCFI5:
 517              		.cfi_restore 5
 518              		.cfi_restore 4
 519              		.cfi_def_cfa_offset 0
 520              	.LVL71:
 521              		.loc 1 366 1 view .LVU198
 522 009e 7047     		bx	lr
 523              	.LVL72:
 524              	.L31:
 280:Drivers/STM32G4xx_HAL_Driver/Src/stm32g4xx_hal_exti.c ****   }
 525              		.loc 1 280 12 view .LVU199
 526 00a0 0120     		movs	r0, #1
 527              	.LVL73:
 280:Drivers/STM32G4xx_HAL_Driver/Src/stm32g4xx_hal_exti.c ****   }
 528              		.loc 1 280 12 view .LVU200
 529 00a2 7047     		bx	lr
 530              	.LVL74:
 531              	.L32:
 280:Drivers/STM32G4xx_HAL_Driver/Src/stm32g4xx_hal_exti.c ****   }
 532              		.loc 1 280 12 view .LVU201
 533 00a4 0120     		movs	r0, #1
 534              	.LVL75:
 535              		.loc 1 366 1 view .LVU202
 536 00a6 7047     		bx	lr
 537              	.L39:
 538              		.align	2
 539              	.L38:
 540 00a8 04040140 		.word	1073808388
 541 00ac 08040140 		.word	1073808392
 542 00b0 0C040140 		.word	1073808396
 543 00b4 00000140 		.word	1073807360
 544              		.cfi_endproc
 545              	.LFE163:
 547              		.section	.text.HAL_EXTI_ClearConfigLine,"ax",%progbits
 548              		.align	1
 549              		.global	HAL_EXTI_ClearConfigLine
ARM GAS  /tmp/ccmTh9p3.s 			page 18


 550              		.syntax unified
 551              		.thumb
 552              		.thumb_func
 553              		.fpu fpv4-sp-d16
 555              	HAL_EXTI_ClearConfigLine:
 556              	.LVL76:
 557              	.LFB164:
 367:Drivers/STM32G4xx_HAL_Driver/Src/stm32g4xx_hal_exti.c **** 
 368:Drivers/STM32G4xx_HAL_Driver/Src/stm32g4xx_hal_exti.c **** 
 369:Drivers/STM32G4xx_HAL_Driver/Src/stm32g4xx_hal_exti.c **** /**
 370:Drivers/STM32G4xx_HAL_Driver/Src/stm32g4xx_hal_exti.c ****   * @brief  Clear whole configuration of a dedicated Exti line.
 371:Drivers/STM32G4xx_HAL_Driver/Src/stm32g4xx_hal_exti.c ****   * @param  hexti Exti handle.
 372:Drivers/STM32G4xx_HAL_Driver/Src/stm32g4xx_hal_exti.c ****   * @retval HAL Status.
 373:Drivers/STM32G4xx_HAL_Driver/Src/stm32g4xx_hal_exti.c ****   */
 374:Drivers/STM32G4xx_HAL_Driver/Src/stm32g4xx_hal_exti.c **** HAL_StatusTypeDef HAL_EXTI_ClearConfigLine(EXTI_HandleTypeDef *hexti)
 375:Drivers/STM32G4xx_HAL_Driver/Src/stm32g4xx_hal_exti.c **** {
 558              		.loc 1 375 1 is_stmt 1 view -0
 559              		.cfi_startproc
 560              		@ args = 0, pretend = 0, frame = 0
 561              		@ frame_needed = 0, uses_anonymous_args = 0
 562              		@ link register save eliminated.
 376:Drivers/STM32G4xx_HAL_Driver/Src/stm32g4xx_hal_exti.c ****   __IO uint32_t *regaddr;
 563              		.loc 1 376 3 view .LVU204
 377:Drivers/STM32G4xx_HAL_Driver/Src/stm32g4xx_hal_exti.c ****   uint32_t regval;
 564              		.loc 1 377 3 view .LVU205
 378:Drivers/STM32G4xx_HAL_Driver/Src/stm32g4xx_hal_exti.c ****   uint32_t linepos;
 565              		.loc 1 378 3 view .LVU206
 379:Drivers/STM32G4xx_HAL_Driver/Src/stm32g4xx_hal_exti.c ****   uint32_t maskline;
 566              		.loc 1 379 3 view .LVU207
 380:Drivers/STM32G4xx_HAL_Driver/Src/stm32g4xx_hal_exti.c ****   uint32_t offset;
 567              		.loc 1 380 3 view .LVU208
 381:Drivers/STM32G4xx_HAL_Driver/Src/stm32g4xx_hal_exti.c **** 
 382:Drivers/STM32G4xx_HAL_Driver/Src/stm32g4xx_hal_exti.c ****   /* Check null pointer */
 383:Drivers/STM32G4xx_HAL_Driver/Src/stm32g4xx_hal_exti.c ****   if (hexti == NULL)
 568              		.loc 1 383 3 view .LVU209
 569              		.loc 1 383 6 is_stmt 0 view .LVU210
 570 0000 0028     		cmp	r0, #0
 571 0002 3CD0     		beq	.L42
 375:Drivers/STM32G4xx_HAL_Driver/Src/stm32g4xx_hal_exti.c ****   __IO uint32_t *regaddr;
 572              		.loc 1 375 1 view .LVU211
 573 0004 F0B4     		push	{r4, r5, r6, r7}
 574              	.LCFI6:
 575              		.cfi_def_cfa_offset 16
 576              		.cfi_offset 4, -16
 577              		.cfi_offset 5, -12
 578              		.cfi_offset 6, -8
 579              		.cfi_offset 7, -4
 580 0006 0546     		mov	r5, r0
 384:Drivers/STM32G4xx_HAL_Driver/Src/stm32g4xx_hal_exti.c ****   {
 385:Drivers/STM32G4xx_HAL_Driver/Src/stm32g4xx_hal_exti.c ****     return HAL_ERROR;
 386:Drivers/STM32G4xx_HAL_Driver/Src/stm32g4xx_hal_exti.c ****   }
 387:Drivers/STM32G4xx_HAL_Driver/Src/stm32g4xx_hal_exti.c **** 
 388:Drivers/STM32G4xx_HAL_Driver/Src/stm32g4xx_hal_exti.c ****   /* Check the parameter */
 389:Drivers/STM32G4xx_HAL_Driver/Src/stm32g4xx_hal_exti.c ****   assert_param(IS_EXTI_LINE(hexti->Line));
 581              		.loc 1 389 3 is_stmt 1 view .LVU212
 390:Drivers/STM32G4xx_HAL_Driver/Src/stm32g4xx_hal_exti.c **** 
 391:Drivers/STM32G4xx_HAL_Driver/Src/stm32g4xx_hal_exti.c ****   /* compute line register offset and line mask */
ARM GAS  /tmp/ccmTh9p3.s 			page 19


 392:Drivers/STM32G4xx_HAL_Driver/Src/stm32g4xx_hal_exti.c ****   offset = ((hexti->Line & EXTI_REG_MASK) >> EXTI_REG_SHIFT);
 582              		.loc 1 392 3 view .LVU213
 583              		.loc 1 392 19 is_stmt 0 view .LVU214
 584 0008 0468     		ldr	r4, [r0]
 585              		.loc 1 392 10 view .LVU215
 586 000a C4F30043 		ubfx	r3, r4, #16, #1
 587              	.LVL77:
 393:Drivers/STM32G4xx_HAL_Driver/Src/stm32g4xx_hal_exti.c ****   /* compute line position */
 394:Drivers/STM32G4xx_HAL_Driver/Src/stm32g4xx_hal_exti.c ****   linepos = (hexti->Line & EXTI_PIN_MASK);
 588              		.loc 1 394 3 is_stmt 1 view .LVU216
 589              		.loc 1 394 11 is_stmt 0 view .LVU217
 590 000e 04F01F06 		and	r6, r4, #31
 591              	.LVL78:
 395:Drivers/STM32G4xx_HAL_Driver/Src/stm32g4xx_hal_exti.c ****   /* compute line mask */
 396:Drivers/STM32G4xx_HAL_Driver/Src/stm32g4xx_hal_exti.c ****   maskline = (1uL << linepos);
 592              		.loc 1 396 3 is_stmt 1 view .LVU218
 593              		.loc 1 396 12 is_stmt 0 view .LVU219
 594 0012 0122     		movs	r2, #1
 595 0014 B240     		lsls	r2, r2, r6
 596              	.LVL79:
 397:Drivers/STM32G4xx_HAL_Driver/Src/stm32g4xx_hal_exti.c **** 
 398:Drivers/STM32G4xx_HAL_Driver/Src/stm32g4xx_hal_exti.c ****   /* 1] Clear interrupt mode */
 399:Drivers/STM32G4xx_HAL_Driver/Src/stm32g4xx_hal_exti.c ****   regaddr = (&EXTI->IMR1 + (EXTI_MODE_OFFSET * offset));
 597              		.loc 1 399 3 is_stmt 1 view .LVU220
 598              		.loc 1 399 26 is_stmt 0 view .LVU221
 599 0016 5B01     		lsls	r3, r3, #5
 600              	.LVL80:
 601              		.loc 1 399 11 view .LVU222
 602 0018 03F18041 		add	r1, r3, #1073741824
 603 001c 01F58231 		add	r1, r1, #66560
 604              	.LVL81:
 400:Drivers/STM32G4xx_HAL_Driver/Src/stm32g4xx_hal_exti.c ****   regval = (*regaddr & ~maskline);
 605              		.loc 1 400 3 is_stmt 1 view .LVU223
 606              		.loc 1 400 13 is_stmt 0 view .LVU224
 607 0020 0868     		ldr	r0, [r1]
 608              	.LVL82:
 609              		.loc 1 400 24 view .LVU225
 610 0022 D743     		mvns	r7, r2
 611              		.loc 1 400 10 view .LVU226
 612 0024 20EA0200 		bic	r0, r0, r2
 613              	.LVL83:
 401:Drivers/STM32G4xx_HAL_Driver/Src/stm32g4xx_hal_exti.c ****   *regaddr = regval;
 614              		.loc 1 401 3 is_stmt 1 view .LVU227
 615              		.loc 1 401 12 is_stmt 0 view .LVU228
 616 0028 0860     		str	r0, [r1]
 402:Drivers/STM32G4xx_HAL_Driver/Src/stm32g4xx_hal_exti.c **** 
 403:Drivers/STM32G4xx_HAL_Driver/Src/stm32g4xx_hal_exti.c ****   /* 2] Clear event mode */
 404:Drivers/STM32G4xx_HAL_Driver/Src/stm32g4xx_hal_exti.c ****   regaddr = (&EXTI->EMR1 + (EXTI_MODE_OFFSET * offset));
 617              		.loc 1 404 3 is_stmt 1 view .LVU229
 618              		.loc 1 404 11 is_stmt 0 view .LVU230
 619 002a 1748     		ldr	r0, .L50
 620              	.LVL84:
 405:Drivers/STM32G4xx_HAL_Driver/Src/stm32g4xx_hal_exti.c ****   regval = (*regaddr & ~maskline);
 621              		.loc 1 405 3 is_stmt 1 view .LVU231
 622              		.loc 1 405 13 is_stmt 0 view .LVU232
 623 002c 1958     		ldr	r1, [r3, r0]
 624              	.LVL85:
ARM GAS  /tmp/ccmTh9p3.s 			page 20


 625              		.loc 1 405 10 view .LVU233
 626 002e 21EA0202 		bic	r2, r1, r2
 627              	.LVL86:
 406:Drivers/STM32G4xx_HAL_Driver/Src/stm32g4xx_hal_exti.c ****   *regaddr = regval;
 628              		.loc 1 406 3 is_stmt 1 view .LVU234
 629              		.loc 1 406 12 is_stmt 0 view .LVU235
 630 0032 1A50     		str	r2, [r3, r0]
 407:Drivers/STM32G4xx_HAL_Driver/Src/stm32g4xx_hal_exti.c **** 
 408:Drivers/STM32G4xx_HAL_Driver/Src/stm32g4xx_hal_exti.c ****   /* 3] Clear triggers in case of configurable lines */
 409:Drivers/STM32G4xx_HAL_Driver/Src/stm32g4xx_hal_exti.c ****   if ((hexti->Line & EXTI_CONFIG) != 0x00u)
 631              		.loc 1 409 3 is_stmt 1 view .LVU236
 632              		.loc 1 409 13 is_stmt 0 view .LVU237
 633 0034 2A68     		ldr	r2, [r5]
 634              	.LVL87:
 635              		.loc 1 409 6 view .LVU238
 636 0036 12F0007F 		tst	r2, #33554432
 637 003a 22D0     		beq	.L43
 410:Drivers/STM32G4xx_HAL_Driver/Src/stm32g4xx_hal_exti.c ****   {
 411:Drivers/STM32G4xx_HAL_Driver/Src/stm32g4xx_hal_exti.c ****     regaddr = (&EXTI->RTSR1 + (EXTI_CONFIG_OFFSET * offset));
 638              		.loc 1 411 5 is_stmt 1 view .LVU239
 639              		.loc 1 411 13 is_stmt 0 view .LVU240
 640 003c 1349     		ldr	r1, .L50+4
 641              	.LVL88:
 412:Drivers/STM32G4xx_HAL_Driver/Src/stm32g4xx_hal_exti.c ****     regval = (*regaddr & ~maskline);
 642              		.loc 1 412 5 is_stmt 1 view .LVU241
 643              		.loc 1 412 15 is_stmt 0 view .LVU242
 644 003e 5A58     		ldr	r2, [r3, r1]
 645              		.loc 1 412 12 view .LVU243
 646 0040 3A40     		ands	r2, r2, r7
 647              	.LVL89:
 413:Drivers/STM32G4xx_HAL_Driver/Src/stm32g4xx_hal_exti.c ****     *regaddr = regval;
 648              		.loc 1 413 5 is_stmt 1 view .LVU244
 649              		.loc 1 413 14 is_stmt 0 view .LVU245
 650 0042 5A50     		str	r2, [r3, r1]
 414:Drivers/STM32G4xx_HAL_Driver/Src/stm32g4xx_hal_exti.c **** 
 415:Drivers/STM32G4xx_HAL_Driver/Src/stm32g4xx_hal_exti.c ****     regaddr = (&EXTI->FTSR1 + (EXTI_CONFIG_OFFSET * offset));
 651              		.loc 1 415 5 is_stmt 1 view .LVU246
 652              		.loc 1 415 13 is_stmt 0 view .LVU247
 653 0044 124A     		ldr	r2, .L50+8
 654              	.LVL90:
 416:Drivers/STM32G4xx_HAL_Driver/Src/stm32g4xx_hal_exti.c ****     regval = (*regaddr & ~maskline);
 655              		.loc 1 416 5 is_stmt 1 view .LVU248
 656              		.loc 1 416 15 is_stmt 0 view .LVU249
 657 0046 9958     		ldr	r1, [r3, r2]
 658              	.LVL91:
 659              		.loc 1 416 12 view .LVU250
 660 0048 0F40     		ands	r7, r7, r1
 661              	.LVL92:
 417:Drivers/STM32G4xx_HAL_Driver/Src/stm32g4xx_hal_exti.c ****     *regaddr = regval;
 662              		.loc 1 417 5 is_stmt 1 view .LVU251
 663              		.loc 1 417 14 is_stmt 0 view .LVU252
 664 004a 9F50     		str	r7, [r3, r2]
 418:Drivers/STM32G4xx_HAL_Driver/Src/stm32g4xx_hal_exti.c **** 
 419:Drivers/STM32G4xx_HAL_Driver/Src/stm32g4xx_hal_exti.c ****     /* Get Gpio port selection for gpio lines */
 420:Drivers/STM32G4xx_HAL_Driver/Src/stm32g4xx_hal_exti.c ****     if ((hexti->Line & EXTI_GPIO) == EXTI_GPIO)
 665              		.loc 1 420 5 is_stmt 1 view .LVU253
 666              		.loc 1 420 15 is_stmt 0 view .LVU254
ARM GAS  /tmp/ccmTh9p3.s 			page 21


 667 004c 2B68     		ldr	r3, [r5]
 668              	.LVL93:
 669              		.loc 1 420 22 view .LVU255
 670 004e 03F0C063 		and	r3, r3, #100663296
 671              		.loc 1 420 8 view .LVU256
 672 0052 B3F1C06F 		cmp	r3, #100663296
 673 0056 01D0     		beq	.L49
 421:Drivers/STM32G4xx_HAL_Driver/Src/stm32g4xx_hal_exti.c ****     {
 422:Drivers/STM32G4xx_HAL_Driver/Src/stm32g4xx_hal_exti.c ****       assert_param(IS_EXTI_GPIO_PIN(linepos));
 423:Drivers/STM32G4xx_HAL_Driver/Src/stm32g4xx_hal_exti.c **** 
 424:Drivers/STM32G4xx_HAL_Driver/Src/stm32g4xx_hal_exti.c ****       regval = SYSCFG->EXTICR[linepos >> 2u];
 425:Drivers/STM32G4xx_HAL_Driver/Src/stm32g4xx_hal_exti.c ****       regval &= ~(SYSCFG_EXTICR1_EXTI0 << (SYSCFG_EXTICR1_EXTI1_Pos * (linepos & 0x03u)));
 426:Drivers/STM32G4xx_HAL_Driver/Src/stm32g4xx_hal_exti.c ****       SYSCFG->EXTICR[linepos >> 2u] = regval;
 427:Drivers/STM32G4xx_HAL_Driver/Src/stm32g4xx_hal_exti.c ****     }
 428:Drivers/STM32G4xx_HAL_Driver/Src/stm32g4xx_hal_exti.c ****   }
 429:Drivers/STM32G4xx_HAL_Driver/Src/stm32g4xx_hal_exti.c **** 
 430:Drivers/STM32G4xx_HAL_Driver/Src/stm32g4xx_hal_exti.c ****   return HAL_OK;
 674              		.loc 1 430 10 view .LVU257
 675 0058 0020     		movs	r0, #0
 676 005a 13E0     		b	.L41
 677              	.L49:
 422:Drivers/STM32G4xx_HAL_Driver/Src/stm32g4xx_hal_exti.c **** 
 678              		.loc 1 422 7 is_stmt 1 view .LVU258
 424:Drivers/STM32G4xx_HAL_Driver/Src/stm32g4xx_hal_exti.c ****       regval &= ~(SYSCFG_EXTICR1_EXTI0 << (SYSCFG_EXTICR1_EXTI1_Pos * (linepos & 0x03u)));
 679              		.loc 1 424 7 view .LVU259
 424:Drivers/STM32G4xx_HAL_Driver/Src/stm32g4xx_hal_exti.c ****       regval &= ~(SYSCFG_EXTICR1_EXTI0 << (SYSCFG_EXTICR1_EXTI1_Pos * (linepos & 0x03u)));
 680              		.loc 1 424 39 is_stmt 0 view .LVU260
 681 005c B608     		lsrs	r6, r6, #2
 682              	.LVL94:
 424:Drivers/STM32G4xx_HAL_Driver/Src/stm32g4xx_hal_exti.c ****       regval &= ~(SYSCFG_EXTICR1_EXTI0 << (SYSCFG_EXTICR1_EXTI1_Pos * (linepos & 0x03u)));
 683              		.loc 1 424 14 view .LVU261
 684 005e 0D49     		ldr	r1, .L50+12
 685 0060 0236     		adds	r6, r6, #2
 686 0062 51F82630 		ldr	r3, [r1, r6, lsl #2]
 687              	.LVL95:
 425:Drivers/STM32G4xx_HAL_Driver/Src/stm32g4xx_hal_exti.c ****       SYSCFG->EXTICR[linepos >> 2u] = regval;
 688              		.loc 1 425 7 is_stmt 1 view .LVU262
 425:Drivers/STM32G4xx_HAL_Driver/Src/stm32g4xx_hal_exti.c ****       SYSCFG->EXTICR[linepos >> 2u] = regval;
 689              		.loc 1 425 80 is_stmt 0 view .LVU263
 690 0066 04F00304 		and	r4, r4, #3
 691              	.LVL96:
 425:Drivers/STM32G4xx_HAL_Driver/Src/stm32g4xx_hal_exti.c ****       SYSCFG->EXTICR[linepos >> 2u] = regval;
 692              		.loc 1 425 69 view .LVU264
 693 006a A400     		lsls	r4, r4, #2
 425:Drivers/STM32G4xx_HAL_Driver/Src/stm32g4xx_hal_exti.c ****       SYSCFG->EXTICR[linepos >> 2u] = regval;
 694              		.loc 1 425 40 view .LVU265
 695 006c 0722     		movs	r2, #7
 696 006e 02FA04F4 		lsl	r4, r2, r4
 425:Drivers/STM32G4xx_HAL_Driver/Src/stm32g4xx_hal_exti.c ****       SYSCFG->EXTICR[linepos >> 2u] = regval;
 697              		.loc 1 425 14 view .LVU266
 698 0072 23EA0404 		bic	r4, r3, r4
 699              	.LVL97:
 426:Drivers/STM32G4xx_HAL_Driver/Src/stm32g4xx_hal_exti.c ****     }
 700              		.loc 1 426 7 is_stmt 1 view .LVU267
 426:Drivers/STM32G4xx_HAL_Driver/Src/stm32g4xx_hal_exti.c ****     }
 701              		.loc 1 426 37 is_stmt 0 view .LVU268
 702 0076 41F82640 		str	r4, [r1, r6, lsl #2]
ARM GAS  /tmp/ccmTh9p3.s 			page 22


 703              		.loc 1 430 10 view .LVU269
 704 007a 0020     		movs	r0, #0
 705 007c 02E0     		b	.L41
 706              	.LVL98:
 707              	.L42:
 708              	.LCFI7:
 709              		.cfi_def_cfa_offset 0
 710              		.cfi_restore 4
 711              		.cfi_restore 5
 712              		.cfi_restore 6
 713              		.cfi_restore 7
 385:Drivers/STM32G4xx_HAL_Driver/Src/stm32g4xx_hal_exti.c ****   }
 714              		.loc 1 385 12 view .LVU270
 715 007e 0120     		movs	r0, #1
 716              	.LVL99:
 431:Drivers/STM32G4xx_HAL_Driver/Src/stm32g4xx_hal_exti.c **** }
 717              		.loc 1 431 1 view .LVU271
 718 0080 7047     		bx	lr
 719              	.LVL100:
 720              	.L43:
 721              	.LCFI8:
 722              		.cfi_def_cfa_offset 16
 723              		.cfi_offset 4, -16
 724              		.cfi_offset 5, -12
 725              		.cfi_offset 6, -8
 726              		.cfi_offset 7, -4
 430:Drivers/STM32G4xx_HAL_Driver/Src/stm32g4xx_hal_exti.c **** }
 727              		.loc 1 430 10 view .LVU272
 728 0082 0020     		movs	r0, #0
 729              	.LVL101:
 730              	.L41:
 731              		.loc 1 431 1 view .LVU273
 732 0084 F0BC     		pop	{r4, r5, r6, r7}
 733              	.LCFI9:
 734              		.cfi_restore 7
 735              		.cfi_restore 6
 736              		.cfi_restore 5
 737              		.cfi_restore 4
 738              		.cfi_def_cfa_offset 0
 739              	.LVL102:
 740              		.loc 1 431 1 view .LVU274
 741 0086 7047     		bx	lr
 742              	.L51:
 743              		.align	2
 744              	.L50:
 745 0088 04040140 		.word	1073808388
 746 008c 08040140 		.word	1073808392
 747 0090 0C040140 		.word	1073808396
 748 0094 00000140 		.word	1073807360
 749              		.cfi_endproc
 750              	.LFE164:
 752              		.section	.text.HAL_EXTI_RegisterCallback,"ax",%progbits
 753              		.align	1
 754              		.global	HAL_EXTI_RegisterCallback
 755              		.syntax unified
 756              		.thumb
 757              		.thumb_func
ARM GAS  /tmp/ccmTh9p3.s 			page 23


 758              		.fpu fpv4-sp-d16
 760              	HAL_EXTI_RegisterCallback:
 761              	.LVL103:
 762              	.LFB165:
 432:Drivers/STM32G4xx_HAL_Driver/Src/stm32g4xx_hal_exti.c **** 
 433:Drivers/STM32G4xx_HAL_Driver/Src/stm32g4xx_hal_exti.c **** 
 434:Drivers/STM32G4xx_HAL_Driver/Src/stm32g4xx_hal_exti.c **** /**
 435:Drivers/STM32G4xx_HAL_Driver/Src/stm32g4xx_hal_exti.c ****   * @brief  Register callback for a dedicated Exti line.
 436:Drivers/STM32G4xx_HAL_Driver/Src/stm32g4xx_hal_exti.c ****   * @param  hexti Exti handle.
 437:Drivers/STM32G4xx_HAL_Driver/Src/stm32g4xx_hal_exti.c ****   * @param  CallbackID User callback identifier.
 438:Drivers/STM32G4xx_HAL_Driver/Src/stm32g4xx_hal_exti.c ****   *         This parameter can be one of @arg @ref EXTI_CallbackIDTypeDef values.
 439:Drivers/STM32G4xx_HAL_Driver/Src/stm32g4xx_hal_exti.c ****   * @param  pPendingCbfn function pointer to be stored as callback.
 440:Drivers/STM32G4xx_HAL_Driver/Src/stm32g4xx_hal_exti.c ****   * @retval HAL Status.
 441:Drivers/STM32G4xx_HAL_Driver/Src/stm32g4xx_hal_exti.c ****   */
 442:Drivers/STM32G4xx_HAL_Driver/Src/stm32g4xx_hal_exti.c **** HAL_StatusTypeDef HAL_EXTI_RegisterCallback(EXTI_HandleTypeDef *hexti, EXTI_CallbackIDTypeDef Callb
 443:Drivers/STM32G4xx_HAL_Driver/Src/stm32g4xx_hal_exti.c **** {
 763              		.loc 1 443 1 is_stmt 1 view -0
 764              		.cfi_startproc
 765              		@ args = 0, pretend = 0, frame = 0
 766              		@ frame_needed = 0, uses_anonymous_args = 0
 767              		@ link register save eliminated.
 444:Drivers/STM32G4xx_HAL_Driver/Src/stm32g4xx_hal_exti.c ****   HAL_StatusTypeDef status = HAL_OK;
 768              		.loc 1 444 3 view .LVU276
 445:Drivers/STM32G4xx_HAL_Driver/Src/stm32g4xx_hal_exti.c **** 
 446:Drivers/STM32G4xx_HAL_Driver/Src/stm32g4xx_hal_exti.c ****   /* Check the parameters */
 447:Drivers/STM32G4xx_HAL_Driver/Src/stm32g4xx_hal_exti.c ****   assert_param(IS_EXTI_CB(CallbackID));
 769              		.loc 1 447 3 view .LVU277
 448:Drivers/STM32G4xx_HAL_Driver/Src/stm32g4xx_hal_exti.c **** 
 449:Drivers/STM32G4xx_HAL_Driver/Src/stm32g4xx_hal_exti.c ****   switch (CallbackID)
 770              		.loc 1 449 3 view .LVU278
 771 0000 11B9     		cbnz	r1, .L53
 450:Drivers/STM32G4xx_HAL_Driver/Src/stm32g4xx_hal_exti.c ****   {
 451:Drivers/STM32G4xx_HAL_Driver/Src/stm32g4xx_hal_exti.c ****     /* set common callback */
 452:Drivers/STM32G4xx_HAL_Driver/Src/stm32g4xx_hal_exti.c ****     case  HAL_EXTI_COMMON_CB_ID:
 453:Drivers/STM32G4xx_HAL_Driver/Src/stm32g4xx_hal_exti.c ****       hexti->PendingCallback = pPendingCbfn;
 772              		.loc 1 453 7 view .LVU279
 773              		.loc 1 453 30 is_stmt 0 view .LVU280
 774 0002 4260     		str	r2, [r0, #4]
 454:Drivers/STM32G4xx_HAL_Driver/Src/stm32g4xx_hal_exti.c ****       break;
 775              		.loc 1 454 7 is_stmt 1 view .LVU281
 444:Drivers/STM32G4xx_HAL_Driver/Src/stm32g4xx_hal_exti.c **** 
 776              		.loc 1 444 21 is_stmt 0 view .LVU282
 777 0004 0846     		mov	r0, r1
 778              	.LVL104:
 779              		.loc 1 454 7 view .LVU283
 780 0006 7047     		bx	lr
 781              	.LVL105:
 782              	.L53:
 455:Drivers/STM32G4xx_HAL_Driver/Src/stm32g4xx_hal_exti.c **** 
 456:Drivers/STM32G4xx_HAL_Driver/Src/stm32g4xx_hal_exti.c ****     default:
 457:Drivers/STM32G4xx_HAL_Driver/Src/stm32g4xx_hal_exti.c ****       hexti->PendingCallback = NULL;
 783              		.loc 1 457 7 is_stmt 1 view .LVU284
 784              		.loc 1 457 30 is_stmt 0 view .LVU285
 785 0008 0023     		movs	r3, #0
 786 000a 4360     		str	r3, [r0, #4]
 458:Drivers/STM32G4xx_HAL_Driver/Src/stm32g4xx_hal_exti.c ****       status = HAL_ERROR;
 787              		.loc 1 458 7 is_stmt 1 view .LVU286
ARM GAS  /tmp/ccmTh9p3.s 			page 24


 788              	.LVL106:
 459:Drivers/STM32G4xx_HAL_Driver/Src/stm32g4xx_hal_exti.c ****       break;
 789              		.loc 1 459 7 view .LVU287
 458:Drivers/STM32G4xx_HAL_Driver/Src/stm32g4xx_hal_exti.c ****       status = HAL_ERROR;
 790              		.loc 1 458 14 is_stmt 0 view .LVU288
 791 000c 0120     		movs	r0, #1
 792              	.LVL107:
 460:Drivers/STM32G4xx_HAL_Driver/Src/stm32g4xx_hal_exti.c ****   }
 461:Drivers/STM32G4xx_HAL_Driver/Src/stm32g4xx_hal_exti.c **** 
 462:Drivers/STM32G4xx_HAL_Driver/Src/stm32g4xx_hal_exti.c ****   return status;
 793              		.loc 1 462 3 is_stmt 1 view .LVU289
 463:Drivers/STM32G4xx_HAL_Driver/Src/stm32g4xx_hal_exti.c **** }
 794              		.loc 1 463 1 is_stmt 0 view .LVU290
 795 000e 7047     		bx	lr
 796              		.cfi_endproc
 797              	.LFE165:
 799              		.section	.text.HAL_EXTI_GetHandle,"ax",%progbits
 800              		.align	1
 801              		.global	HAL_EXTI_GetHandle
 802              		.syntax unified
 803              		.thumb
 804              		.thumb_func
 805              		.fpu fpv4-sp-d16
 807              	HAL_EXTI_GetHandle:
 808              	.LVL108:
 809              	.LFB166:
 464:Drivers/STM32G4xx_HAL_Driver/Src/stm32g4xx_hal_exti.c **** 
 465:Drivers/STM32G4xx_HAL_Driver/Src/stm32g4xx_hal_exti.c **** 
 466:Drivers/STM32G4xx_HAL_Driver/Src/stm32g4xx_hal_exti.c **** /**
 467:Drivers/STM32G4xx_HAL_Driver/Src/stm32g4xx_hal_exti.c ****   * @brief  Store line number as handle private field.
 468:Drivers/STM32G4xx_HAL_Driver/Src/stm32g4xx_hal_exti.c ****   * @param  hexti Exti handle.
 469:Drivers/STM32G4xx_HAL_Driver/Src/stm32g4xx_hal_exti.c ****   * @param  ExtiLine Exti line number.
 470:Drivers/STM32G4xx_HAL_Driver/Src/stm32g4xx_hal_exti.c ****   *         This parameter can be from 0 to @ref EXTI_LINE_NB.
 471:Drivers/STM32G4xx_HAL_Driver/Src/stm32g4xx_hal_exti.c ****   * @retval HAL Status.
 472:Drivers/STM32G4xx_HAL_Driver/Src/stm32g4xx_hal_exti.c ****   */
 473:Drivers/STM32G4xx_HAL_Driver/Src/stm32g4xx_hal_exti.c **** HAL_StatusTypeDef HAL_EXTI_GetHandle(EXTI_HandleTypeDef *hexti, uint32_t ExtiLine)
 474:Drivers/STM32G4xx_HAL_Driver/Src/stm32g4xx_hal_exti.c **** {
 810              		.loc 1 474 1 is_stmt 1 view -0
 811              		.cfi_startproc
 812              		@ args = 0, pretend = 0, frame = 0
 813              		@ frame_needed = 0, uses_anonymous_args = 0
 814              		@ link register save eliminated.
 475:Drivers/STM32G4xx_HAL_Driver/Src/stm32g4xx_hal_exti.c ****   /* Check the parameters */
 476:Drivers/STM32G4xx_HAL_Driver/Src/stm32g4xx_hal_exti.c ****   assert_param(IS_EXTI_LINE(ExtiLine));
 815              		.loc 1 476 3 view .LVU292
 477:Drivers/STM32G4xx_HAL_Driver/Src/stm32g4xx_hal_exti.c **** 
 478:Drivers/STM32G4xx_HAL_Driver/Src/stm32g4xx_hal_exti.c ****   /* Check null pointer */
 479:Drivers/STM32G4xx_HAL_Driver/Src/stm32g4xx_hal_exti.c ****   if (hexti == NULL)
 816              		.loc 1 479 3 view .LVU293
 817              		.loc 1 479 6 is_stmt 0 view .LVU294
 818 0000 10B1     		cbz	r0, .L57
 480:Drivers/STM32G4xx_HAL_Driver/Src/stm32g4xx_hal_exti.c ****   {
 481:Drivers/STM32G4xx_HAL_Driver/Src/stm32g4xx_hal_exti.c ****     return HAL_ERROR;
 482:Drivers/STM32G4xx_HAL_Driver/Src/stm32g4xx_hal_exti.c ****   }
 483:Drivers/STM32G4xx_HAL_Driver/Src/stm32g4xx_hal_exti.c ****   else
 484:Drivers/STM32G4xx_HAL_Driver/Src/stm32g4xx_hal_exti.c ****   {
 485:Drivers/STM32G4xx_HAL_Driver/Src/stm32g4xx_hal_exti.c ****     /* Store line number as handle private field */
ARM GAS  /tmp/ccmTh9p3.s 			page 25


 486:Drivers/STM32G4xx_HAL_Driver/Src/stm32g4xx_hal_exti.c ****     hexti->Line = ExtiLine;
 819              		.loc 1 486 5 is_stmt 1 view .LVU295
 820              		.loc 1 486 17 is_stmt 0 view .LVU296
 821 0002 0160     		str	r1, [r0]
 487:Drivers/STM32G4xx_HAL_Driver/Src/stm32g4xx_hal_exti.c **** 
 488:Drivers/STM32G4xx_HAL_Driver/Src/stm32g4xx_hal_exti.c ****     return HAL_OK;
 822              		.loc 1 488 5 is_stmt 1 view .LVU297
 823              		.loc 1 488 12 is_stmt 0 view .LVU298
 824 0004 0020     		movs	r0, #0
 825              	.LVL109:
 826              		.loc 1 488 12 view .LVU299
 827 0006 7047     		bx	lr
 828              	.LVL110:
 829              	.L57:
 481:Drivers/STM32G4xx_HAL_Driver/Src/stm32g4xx_hal_exti.c ****   }
 830              		.loc 1 481 12 view .LVU300
 831 0008 0120     		movs	r0, #1
 832              	.LVL111:
 489:Drivers/STM32G4xx_HAL_Driver/Src/stm32g4xx_hal_exti.c ****   }
 490:Drivers/STM32G4xx_HAL_Driver/Src/stm32g4xx_hal_exti.c **** }
 833              		.loc 1 490 1 view .LVU301
 834 000a 7047     		bx	lr
 835              		.cfi_endproc
 836              	.LFE166:
 838              		.section	.text.HAL_EXTI_IRQHandler,"ax",%progbits
 839              		.align	1
 840              		.global	HAL_EXTI_IRQHandler
 841              		.syntax unified
 842              		.thumb
 843              		.thumb_func
 844              		.fpu fpv4-sp-d16
 846              	HAL_EXTI_IRQHandler:
 847              	.LVL112:
 848              	.LFB167:
 491:Drivers/STM32G4xx_HAL_Driver/Src/stm32g4xx_hal_exti.c **** 
 492:Drivers/STM32G4xx_HAL_Driver/Src/stm32g4xx_hal_exti.c **** 
 493:Drivers/STM32G4xx_HAL_Driver/Src/stm32g4xx_hal_exti.c **** /**
 494:Drivers/STM32G4xx_HAL_Driver/Src/stm32g4xx_hal_exti.c ****   * @}
 495:Drivers/STM32G4xx_HAL_Driver/Src/stm32g4xx_hal_exti.c ****   */
 496:Drivers/STM32G4xx_HAL_Driver/Src/stm32g4xx_hal_exti.c **** 
 497:Drivers/STM32G4xx_HAL_Driver/Src/stm32g4xx_hal_exti.c **** /** @addtogroup EXTI_Exported_Functions_Group2
 498:Drivers/STM32G4xx_HAL_Driver/Src/stm32g4xx_hal_exti.c ****   *  @brief EXTI IO functions.
 499:Drivers/STM32G4xx_HAL_Driver/Src/stm32g4xx_hal_exti.c ****   *
 500:Drivers/STM32G4xx_HAL_Driver/Src/stm32g4xx_hal_exti.c **** @verbatim
 501:Drivers/STM32G4xx_HAL_Driver/Src/stm32g4xx_hal_exti.c ****  ===============================================================================
 502:Drivers/STM32G4xx_HAL_Driver/Src/stm32g4xx_hal_exti.c ****                        ##### IO operation functions #####
 503:Drivers/STM32G4xx_HAL_Driver/Src/stm32g4xx_hal_exti.c ****  ===============================================================================
 504:Drivers/STM32G4xx_HAL_Driver/Src/stm32g4xx_hal_exti.c **** 
 505:Drivers/STM32G4xx_HAL_Driver/Src/stm32g4xx_hal_exti.c **** @endverbatim
 506:Drivers/STM32G4xx_HAL_Driver/Src/stm32g4xx_hal_exti.c ****   * @{
 507:Drivers/STM32G4xx_HAL_Driver/Src/stm32g4xx_hal_exti.c ****   */
 508:Drivers/STM32G4xx_HAL_Driver/Src/stm32g4xx_hal_exti.c **** 
 509:Drivers/STM32G4xx_HAL_Driver/Src/stm32g4xx_hal_exti.c **** /**
 510:Drivers/STM32G4xx_HAL_Driver/Src/stm32g4xx_hal_exti.c ****   * @brief  Handle EXTI interrupt request.
 511:Drivers/STM32G4xx_HAL_Driver/Src/stm32g4xx_hal_exti.c ****   * @param  hexti Exti handle.
 512:Drivers/STM32G4xx_HAL_Driver/Src/stm32g4xx_hal_exti.c ****   * @retval none.
 513:Drivers/STM32G4xx_HAL_Driver/Src/stm32g4xx_hal_exti.c ****   */
ARM GAS  /tmp/ccmTh9p3.s 			page 26


 514:Drivers/STM32G4xx_HAL_Driver/Src/stm32g4xx_hal_exti.c **** void HAL_EXTI_IRQHandler(EXTI_HandleTypeDef *hexti)
 515:Drivers/STM32G4xx_HAL_Driver/Src/stm32g4xx_hal_exti.c **** {
 849              		.loc 1 515 1 is_stmt 1 view -0
 850              		.cfi_startproc
 851              		@ args = 0, pretend = 0, frame = 0
 852              		@ frame_needed = 0, uses_anonymous_args = 0
 853              		.loc 1 515 1 is_stmt 0 view .LVU303
 854 0000 10B5     		push	{r4, lr}
 855              	.LCFI10:
 856              		.cfi_def_cfa_offset 8
 857              		.cfi_offset 4, -8
 858              		.cfi_offset 14, -4
 516:Drivers/STM32G4xx_HAL_Driver/Src/stm32g4xx_hal_exti.c ****   __IO uint32_t *regaddr;
 859              		.loc 1 516 3 is_stmt 1 view .LVU304
 517:Drivers/STM32G4xx_HAL_Driver/Src/stm32g4xx_hal_exti.c ****   uint32_t regval;
 860              		.loc 1 517 3 view .LVU305
 518:Drivers/STM32G4xx_HAL_Driver/Src/stm32g4xx_hal_exti.c ****   uint32_t maskline;
 861              		.loc 1 518 3 view .LVU306
 519:Drivers/STM32G4xx_HAL_Driver/Src/stm32g4xx_hal_exti.c ****   uint32_t offset;
 862              		.loc 1 519 3 view .LVU307
 520:Drivers/STM32G4xx_HAL_Driver/Src/stm32g4xx_hal_exti.c **** 
 521:Drivers/STM32G4xx_HAL_Driver/Src/stm32g4xx_hal_exti.c ****   /* Compute line register offset */
 522:Drivers/STM32G4xx_HAL_Driver/Src/stm32g4xx_hal_exti.c ****   offset = ((hexti->Line & EXTI_REG_MASK) >> EXTI_REG_SHIFT);
 863              		.loc 1 522 3 view .LVU308
 864              		.loc 1 522 19 is_stmt 0 view .LVU309
 865 0002 0368     		ldr	r3, [r0]
 866              		.loc 1 522 10 view .LVU310
 867 0004 C3F30042 		ubfx	r2, r3, #16, #1
 868              	.LVL113:
 523:Drivers/STM32G4xx_HAL_Driver/Src/stm32g4xx_hal_exti.c ****   /* compute line mask */
 524:Drivers/STM32G4xx_HAL_Driver/Src/stm32g4xx_hal_exti.c ****   maskline = (1uL << (hexti->Line & EXTI_PIN_MASK));
 869              		.loc 1 524 3 is_stmt 1 view .LVU311
 870              		.loc 1 524 35 is_stmt 0 view .LVU312
 871 0008 03F01F03 		and	r3, r3, #31
 872              		.loc 1 524 12 view .LVU313
 873 000c 0121     		movs	r1, #1
 874 000e 01FA03F3 		lsl	r3, r1, r3
 875              	.LVL114:
 525:Drivers/STM32G4xx_HAL_Driver/Src/stm32g4xx_hal_exti.c **** 
 526:Drivers/STM32G4xx_HAL_Driver/Src/stm32g4xx_hal_exti.c ****   /* Get pending bit  */
 527:Drivers/STM32G4xx_HAL_Driver/Src/stm32g4xx_hal_exti.c ****   regaddr = (&EXTI->PR1 + (EXTI_CONFIG_OFFSET * offset));
 876              		.loc 1 527 3 is_stmt 1 view .LVU314
 877              		.loc 1 527 25 is_stmt 0 view .LVU315
 878 0012 5201     		lsls	r2, r2, #5
 879              	.LVL115:
 880              		.loc 1 527 11 view .LVU316
 881 0014 0449     		ldr	r1, .L61
 882              	.LVL116:
 528:Drivers/STM32G4xx_HAL_Driver/Src/stm32g4xx_hal_exti.c ****   regval = (*regaddr & maskline);
 883              		.loc 1 528 3 is_stmt 1 view .LVU317
 884              		.loc 1 528 13 is_stmt 0 view .LVU318
 885 0016 5458     		ldr	r4, [r2, r1]
 886              	.LVL117:
 529:Drivers/STM32G4xx_HAL_Driver/Src/stm32g4xx_hal_exti.c **** 
 530:Drivers/STM32G4xx_HAL_Driver/Src/stm32g4xx_hal_exti.c ****   if (regval != 0x00u)
 887              		.loc 1 530 3 is_stmt 1 view .LVU319
 888              		.loc 1 530 6 is_stmt 0 view .LVU320
ARM GAS  /tmp/ccmTh9p3.s 			page 27


 889 0018 1C42     		tst	r4, r3
 890 001a 03D0     		beq	.L58
 531:Drivers/STM32G4xx_HAL_Driver/Src/stm32g4xx_hal_exti.c ****   {
 532:Drivers/STM32G4xx_HAL_Driver/Src/stm32g4xx_hal_exti.c ****     /* Clear pending bit */
 533:Drivers/STM32G4xx_HAL_Driver/Src/stm32g4xx_hal_exti.c ****     *regaddr = maskline;
 891              		.loc 1 533 5 is_stmt 1 view .LVU321
 892              		.loc 1 533 14 is_stmt 0 view .LVU322
 893 001c 5350     		str	r3, [r2, r1]
 894              	.LVL118:
 534:Drivers/STM32G4xx_HAL_Driver/Src/stm32g4xx_hal_exti.c **** 
 535:Drivers/STM32G4xx_HAL_Driver/Src/stm32g4xx_hal_exti.c ****     /* Call pending callback */
 536:Drivers/STM32G4xx_HAL_Driver/Src/stm32g4xx_hal_exti.c ****     if (hexti->PendingCallback != NULL)
 895              		.loc 1 536 5 is_stmt 1 view .LVU323
 896              		.loc 1 536 14 is_stmt 0 view .LVU324
 897 001e 4368     		ldr	r3, [r0, #4]
 898              	.LVL119:
 899              		.loc 1 536 8 view .LVU325
 900 0020 03B1     		cbz	r3, .L58
 537:Drivers/STM32G4xx_HAL_Driver/Src/stm32g4xx_hal_exti.c ****     {
 538:Drivers/STM32G4xx_HAL_Driver/Src/stm32g4xx_hal_exti.c ****       hexti->PendingCallback();
 901              		.loc 1 538 7 is_stmt 1 view .LVU326
 902 0022 9847     		blx	r3
 903              	.LVL120:
 904              	.L58:
 539:Drivers/STM32G4xx_HAL_Driver/Src/stm32g4xx_hal_exti.c ****     }
 540:Drivers/STM32G4xx_HAL_Driver/Src/stm32g4xx_hal_exti.c ****   }
 541:Drivers/STM32G4xx_HAL_Driver/Src/stm32g4xx_hal_exti.c **** }
 905              		.loc 1 541 1 is_stmt 0 view .LVU327
 906 0024 10BD     		pop	{r4, pc}
 907              	.L62:
 908              		.loc 1 541 1 view .LVU328
 909 0026 00BF     		.align	2
 910              	.L61:
 911 0028 14040140 		.word	1073808404
 912              		.cfi_endproc
 913              	.LFE167:
 915              		.section	.text.HAL_EXTI_GetPending,"ax",%progbits
 916              		.align	1
 917              		.global	HAL_EXTI_GetPending
 918              		.syntax unified
 919              		.thumb
 920              		.thumb_func
 921              		.fpu fpv4-sp-d16
 923              	HAL_EXTI_GetPending:
 924              	.LVL121:
 925              	.LFB168:
 542:Drivers/STM32G4xx_HAL_Driver/Src/stm32g4xx_hal_exti.c **** 
 543:Drivers/STM32G4xx_HAL_Driver/Src/stm32g4xx_hal_exti.c **** /**
 544:Drivers/STM32G4xx_HAL_Driver/Src/stm32g4xx_hal_exti.c ****   * @brief  Get interrupt pending bit of a dedicated line.
 545:Drivers/STM32G4xx_HAL_Driver/Src/stm32g4xx_hal_exti.c ****   * @param  hexti Exti handle.
 546:Drivers/STM32G4xx_HAL_Driver/Src/stm32g4xx_hal_exti.c ****   * @param  Edge unused
 547:Drivers/STM32G4xx_HAL_Driver/Src/stm32g4xx_hal_exti.c ****   * @retval 1 if interrupt is pending else 0.
 548:Drivers/STM32G4xx_HAL_Driver/Src/stm32g4xx_hal_exti.c ****   */
 549:Drivers/STM32G4xx_HAL_Driver/Src/stm32g4xx_hal_exti.c **** uint32_t HAL_EXTI_GetPending(EXTI_HandleTypeDef *hexti, uint32_t Edge)
 550:Drivers/STM32G4xx_HAL_Driver/Src/stm32g4xx_hal_exti.c **** {
 926              		.loc 1 550 1 is_stmt 1 view -0
 927              		.cfi_startproc
ARM GAS  /tmp/ccmTh9p3.s 			page 28


 928              		@ args = 0, pretend = 0, frame = 0
 929              		@ frame_needed = 0, uses_anonymous_args = 0
 930              		@ link register save eliminated.
 551:Drivers/STM32G4xx_HAL_Driver/Src/stm32g4xx_hal_exti.c ****   __IO uint32_t *regaddr;
 931              		.loc 1 551 3 view .LVU330
 552:Drivers/STM32G4xx_HAL_Driver/Src/stm32g4xx_hal_exti.c ****   uint32_t regval;
 932              		.loc 1 552 3 view .LVU331
 553:Drivers/STM32G4xx_HAL_Driver/Src/stm32g4xx_hal_exti.c ****   uint32_t linepos;
 933              		.loc 1 553 3 view .LVU332
 554:Drivers/STM32G4xx_HAL_Driver/Src/stm32g4xx_hal_exti.c ****   uint32_t maskline;
 934              		.loc 1 554 3 view .LVU333
 555:Drivers/STM32G4xx_HAL_Driver/Src/stm32g4xx_hal_exti.c ****   uint32_t offset;
 935              		.loc 1 555 3 view .LVU334
 556:Drivers/STM32G4xx_HAL_Driver/Src/stm32g4xx_hal_exti.c **** 
 557:Drivers/STM32G4xx_HAL_Driver/Src/stm32g4xx_hal_exti.c ****   /* Check parameters */
 558:Drivers/STM32G4xx_HAL_Driver/Src/stm32g4xx_hal_exti.c ****   assert_param(IS_EXTI_LINE(hexti->Line));
 936              		.loc 1 558 3 view .LVU335
 559:Drivers/STM32G4xx_HAL_Driver/Src/stm32g4xx_hal_exti.c ****   assert_param(IS_EXTI_CONFIG_LINE(hexti->Line));
 937              		.loc 1 559 3 view .LVU336
 560:Drivers/STM32G4xx_HAL_Driver/Src/stm32g4xx_hal_exti.c ****   UNUSED(Edge);
 938              		.loc 1 560 3 view .LVU337
 561:Drivers/STM32G4xx_HAL_Driver/Src/stm32g4xx_hal_exti.c **** 
 562:Drivers/STM32G4xx_HAL_Driver/Src/stm32g4xx_hal_exti.c ****   /* Compute line register offset */
 563:Drivers/STM32G4xx_HAL_Driver/Src/stm32g4xx_hal_exti.c ****   offset = ((hexti->Line & EXTI_REG_MASK) >> EXTI_REG_SHIFT);
 939              		.loc 1 563 3 view .LVU338
 940              		.loc 1 563 19 is_stmt 0 view .LVU339
 941 0000 0368     		ldr	r3, [r0]
 942              		.loc 1 563 10 view .LVU340
 943 0002 C3F30041 		ubfx	r1, r3, #16, #1
 944              	.LVL122:
 564:Drivers/STM32G4xx_HAL_Driver/Src/stm32g4xx_hal_exti.c ****   /* Compute line position */
 565:Drivers/STM32G4xx_HAL_Driver/Src/stm32g4xx_hal_exti.c ****   linepos = (hexti->Line & EXTI_PIN_MASK);
 945              		.loc 1 565 3 is_stmt 1 view .LVU341
 946              		.loc 1 565 11 is_stmt 0 view .LVU342
 947 0006 03F01F03 		and	r3, r3, #31
 948              	.LVL123:
 566:Drivers/STM32G4xx_HAL_Driver/Src/stm32g4xx_hal_exti.c ****   /* Compute line mask */
 567:Drivers/STM32G4xx_HAL_Driver/Src/stm32g4xx_hal_exti.c ****   maskline = (1uL << linepos);
 949              		.loc 1 567 3 is_stmt 1 view .LVU343
 950              		.loc 1 567 12 is_stmt 0 view .LVU344
 951 000a 0120     		movs	r0, #1
 952              	.LVL124:
 953              		.loc 1 567 12 view .LVU345
 954 000c 00FA03F2 		lsl	r2, r0, r3
 955              	.LVL125:
 568:Drivers/STM32G4xx_HAL_Driver/Src/stm32g4xx_hal_exti.c **** 
 569:Drivers/STM32G4xx_HAL_Driver/Src/stm32g4xx_hal_exti.c ****   /* Get pending bit */
 570:Drivers/STM32G4xx_HAL_Driver/Src/stm32g4xx_hal_exti.c ****   regaddr = (&EXTI->PR1 + (EXTI_CONFIG_OFFSET * offset));
 956              		.loc 1 570 3 is_stmt 1 view .LVU346
 957              		.loc 1 570 25 is_stmt 0 view .LVU347
 958 0010 4901     		lsls	r1, r1, #5
 959              	.LVL126:
 960              		.loc 1 570 11 view .LVU348
 961 0012 0248     		ldr	r0, .L64
 962              	.LVL127:
 571:Drivers/STM32G4xx_HAL_Driver/Src/stm32g4xx_hal_exti.c **** 
 572:Drivers/STM32G4xx_HAL_Driver/Src/stm32g4xx_hal_exti.c ****   /* return 1 if bit is set else 0 */
ARM GAS  /tmp/ccmTh9p3.s 			page 29


 573:Drivers/STM32G4xx_HAL_Driver/Src/stm32g4xx_hal_exti.c ****   regval = ((*regaddr & maskline) >> linepos);
 963              		.loc 1 573 3 is_stmt 1 view .LVU349
 964              		.loc 1 573 14 is_stmt 0 view .LVU350
 965 0014 0858     		ldr	r0, [r1, r0]
 966              	.LVL128:
 967              		.loc 1 573 23 view .LVU351
 968 0016 1040     		ands	r0, r0, r2
 969              	.LVL129:
 574:Drivers/STM32G4xx_HAL_Driver/Src/stm32g4xx_hal_exti.c ****   return regval;
 970              		.loc 1 574 3 is_stmt 1 view .LVU352
 575:Drivers/STM32G4xx_HAL_Driver/Src/stm32g4xx_hal_exti.c **** }
 971              		.loc 1 575 1 is_stmt 0 view .LVU353
 972 0018 D840     		lsrs	r0, r0, r3
 973              	.LVL130:
 974              		.loc 1 575 1 view .LVU354
 975 001a 7047     		bx	lr
 976              	.L65:
 977              		.align	2
 978              	.L64:
 979 001c 14040140 		.word	1073808404
 980              		.cfi_endproc
 981              	.LFE168:
 983              		.section	.text.HAL_EXTI_ClearPending,"ax",%progbits
 984              		.align	1
 985              		.global	HAL_EXTI_ClearPending
 986              		.syntax unified
 987              		.thumb
 988              		.thumb_func
 989              		.fpu fpv4-sp-d16
 991              	HAL_EXTI_ClearPending:
 992              	.LVL131:
 993              	.LFB169:
 576:Drivers/STM32G4xx_HAL_Driver/Src/stm32g4xx_hal_exti.c **** 
 577:Drivers/STM32G4xx_HAL_Driver/Src/stm32g4xx_hal_exti.c **** 
 578:Drivers/STM32G4xx_HAL_Driver/Src/stm32g4xx_hal_exti.c **** /**
 579:Drivers/STM32G4xx_HAL_Driver/Src/stm32g4xx_hal_exti.c ****   * @brief  Clear interrupt pending bit of a dedicated line.
 580:Drivers/STM32G4xx_HAL_Driver/Src/stm32g4xx_hal_exti.c ****   * @param  hexti Exti handle.
 581:Drivers/STM32G4xx_HAL_Driver/Src/stm32g4xx_hal_exti.c ****   * @param  Edge unused
 582:Drivers/STM32G4xx_HAL_Driver/Src/stm32g4xx_hal_exti.c ****   * @retval None.
 583:Drivers/STM32G4xx_HAL_Driver/Src/stm32g4xx_hal_exti.c ****   */
 584:Drivers/STM32G4xx_HAL_Driver/Src/stm32g4xx_hal_exti.c **** void HAL_EXTI_ClearPending(EXTI_HandleTypeDef *hexti, uint32_t Edge)
 585:Drivers/STM32G4xx_HAL_Driver/Src/stm32g4xx_hal_exti.c **** {
 994              		.loc 1 585 1 is_stmt 1 view -0
 995              		.cfi_startproc
 996              		@ args = 0, pretend = 0, frame = 0
 997              		@ frame_needed = 0, uses_anonymous_args = 0
 998              		@ link register save eliminated.
 586:Drivers/STM32G4xx_HAL_Driver/Src/stm32g4xx_hal_exti.c ****   __IO uint32_t *regaddr;
 999              		.loc 1 586 3 view .LVU356
 587:Drivers/STM32G4xx_HAL_Driver/Src/stm32g4xx_hal_exti.c ****   uint32_t maskline;
 1000              		.loc 1 587 3 view .LVU357
 588:Drivers/STM32G4xx_HAL_Driver/Src/stm32g4xx_hal_exti.c ****   uint32_t offset;
 1001              		.loc 1 588 3 view .LVU358
 589:Drivers/STM32G4xx_HAL_Driver/Src/stm32g4xx_hal_exti.c **** 
 590:Drivers/STM32G4xx_HAL_Driver/Src/stm32g4xx_hal_exti.c ****   /* Check parameters */
 591:Drivers/STM32G4xx_HAL_Driver/Src/stm32g4xx_hal_exti.c ****   assert_param(IS_EXTI_LINE(hexti->Line));
 1002              		.loc 1 591 3 view .LVU359
ARM GAS  /tmp/ccmTh9p3.s 			page 30


 592:Drivers/STM32G4xx_HAL_Driver/Src/stm32g4xx_hal_exti.c ****   assert_param(IS_EXTI_CONFIG_LINE(hexti->Line));
 1003              		.loc 1 592 3 view .LVU360
 593:Drivers/STM32G4xx_HAL_Driver/Src/stm32g4xx_hal_exti.c ****   UNUSED(Edge);
 1004              		.loc 1 593 3 view .LVU361
 594:Drivers/STM32G4xx_HAL_Driver/Src/stm32g4xx_hal_exti.c **** 
 595:Drivers/STM32G4xx_HAL_Driver/Src/stm32g4xx_hal_exti.c ****   /* Compute line register offset */
 596:Drivers/STM32G4xx_HAL_Driver/Src/stm32g4xx_hal_exti.c ****   offset = ((hexti->Line & EXTI_REG_MASK) >> EXTI_REG_SHIFT);
 1005              		.loc 1 596 3 view .LVU362
 1006              		.loc 1 596 19 is_stmt 0 view .LVU363
 1007 0000 0368     		ldr	r3, [r0]
 1008              		.loc 1 596 10 view .LVU364
 1009 0002 C3F30042 		ubfx	r2, r3, #16, #1
 1010              	.LVL132:
 597:Drivers/STM32G4xx_HAL_Driver/Src/stm32g4xx_hal_exti.c ****   /* Compute line mask */
 598:Drivers/STM32G4xx_HAL_Driver/Src/stm32g4xx_hal_exti.c ****   maskline = (1uL << (hexti->Line & EXTI_PIN_MASK));
 1011              		.loc 1 598 3 is_stmt 1 view .LVU365
 1012              		.loc 1 598 35 is_stmt 0 view .LVU366
 1013 0006 03F01F03 		and	r3, r3, #31
 1014              		.loc 1 598 12 view .LVU367
 1015 000a 0121     		movs	r1, #1
 1016              	.LVL133:
 1017              		.loc 1 598 12 view .LVU368
 1018 000c 01FA03F3 		lsl	r3, r1, r3
 1019              	.LVL134:
 599:Drivers/STM32G4xx_HAL_Driver/Src/stm32g4xx_hal_exti.c **** 
 600:Drivers/STM32G4xx_HAL_Driver/Src/stm32g4xx_hal_exti.c ****   /* Get pending register address */
 601:Drivers/STM32G4xx_HAL_Driver/Src/stm32g4xx_hal_exti.c ****   regaddr = (&EXTI->PR1 + (EXTI_CONFIG_OFFSET * offset));
 1020              		.loc 1 601 3 is_stmt 1 view .LVU369
 1021              		.loc 1 601 25 is_stmt 0 view .LVU370
 1022 0010 5201     		lsls	r2, r2, #5
 1023              	.LVL135:
 1024              		.loc 1 601 11 view .LVU371
 1025 0012 0149     		ldr	r1, .L67
 1026              	.LVL136:
 602:Drivers/STM32G4xx_HAL_Driver/Src/stm32g4xx_hal_exti.c **** 
 603:Drivers/STM32G4xx_HAL_Driver/Src/stm32g4xx_hal_exti.c ****   /* Clear Pending bit */
 604:Drivers/STM32G4xx_HAL_Driver/Src/stm32g4xx_hal_exti.c ****   *regaddr =  maskline;
 1027              		.loc 1 604 3 is_stmt 1 view .LVU372
 1028              		.loc 1 604 12 is_stmt 0 view .LVU373
 1029 0014 5350     		str	r3, [r2, r1]
 1030              	.LVL137:
 605:Drivers/STM32G4xx_HAL_Driver/Src/stm32g4xx_hal_exti.c **** }
 1031              		.loc 1 605 1 view .LVU374
 1032 0016 7047     		bx	lr
 1033              	.L68:
 1034              		.align	2
 1035              	.L67:
 1036 0018 14040140 		.word	1073808404
 1037              		.cfi_endproc
 1038              	.LFE169:
 1040              		.section	.text.HAL_EXTI_GenerateSWI,"ax",%progbits
 1041              		.align	1
 1042              		.global	HAL_EXTI_GenerateSWI
 1043              		.syntax unified
 1044              		.thumb
 1045              		.thumb_func
 1046              		.fpu fpv4-sp-d16
ARM GAS  /tmp/ccmTh9p3.s 			page 31


 1048              	HAL_EXTI_GenerateSWI:
 1049              	.LVL138:
 1050              	.LFB170:
 606:Drivers/STM32G4xx_HAL_Driver/Src/stm32g4xx_hal_exti.c **** 
 607:Drivers/STM32G4xx_HAL_Driver/Src/stm32g4xx_hal_exti.c **** 
 608:Drivers/STM32G4xx_HAL_Driver/Src/stm32g4xx_hal_exti.c **** /**
 609:Drivers/STM32G4xx_HAL_Driver/Src/stm32g4xx_hal_exti.c ****   * @brief  Generate a software interrupt for a dedicated line.
 610:Drivers/STM32G4xx_HAL_Driver/Src/stm32g4xx_hal_exti.c ****   * @param  hexti Exti handle.
 611:Drivers/STM32G4xx_HAL_Driver/Src/stm32g4xx_hal_exti.c ****   * @retval None.
 612:Drivers/STM32G4xx_HAL_Driver/Src/stm32g4xx_hal_exti.c ****   */
 613:Drivers/STM32G4xx_HAL_Driver/Src/stm32g4xx_hal_exti.c **** void HAL_EXTI_GenerateSWI(EXTI_HandleTypeDef *hexti)
 614:Drivers/STM32G4xx_HAL_Driver/Src/stm32g4xx_hal_exti.c **** {
 1051              		.loc 1 614 1 is_stmt 1 view -0
 1052              		.cfi_startproc
 1053              		@ args = 0, pretend = 0, frame = 0
 1054              		@ frame_needed = 0, uses_anonymous_args = 0
 1055              		@ link register save eliminated.
 615:Drivers/STM32G4xx_HAL_Driver/Src/stm32g4xx_hal_exti.c ****   __IO uint32_t *regaddr;
 1056              		.loc 1 615 3 view .LVU376
 616:Drivers/STM32G4xx_HAL_Driver/Src/stm32g4xx_hal_exti.c ****   uint32_t maskline;
 1057              		.loc 1 616 3 view .LVU377
 617:Drivers/STM32G4xx_HAL_Driver/Src/stm32g4xx_hal_exti.c ****   uint32_t offset;
 1058              		.loc 1 617 3 view .LVU378
 618:Drivers/STM32G4xx_HAL_Driver/Src/stm32g4xx_hal_exti.c **** 
 619:Drivers/STM32G4xx_HAL_Driver/Src/stm32g4xx_hal_exti.c ****   /* Check parameter */
 620:Drivers/STM32G4xx_HAL_Driver/Src/stm32g4xx_hal_exti.c ****   assert_param(IS_EXTI_LINE(hexti->Line));
 1059              		.loc 1 620 3 view .LVU379
 621:Drivers/STM32G4xx_HAL_Driver/Src/stm32g4xx_hal_exti.c ****   assert_param(IS_EXTI_CONFIG_LINE(hexti->Line));
 1060              		.loc 1 621 3 view .LVU380
 622:Drivers/STM32G4xx_HAL_Driver/Src/stm32g4xx_hal_exti.c **** 
 623:Drivers/STM32G4xx_HAL_Driver/Src/stm32g4xx_hal_exti.c ****   /* compute line register offset */
 624:Drivers/STM32G4xx_HAL_Driver/Src/stm32g4xx_hal_exti.c ****   offset = ((hexti->Line & EXTI_REG_MASK) >> EXTI_REG_SHIFT);
 1061              		.loc 1 624 3 view .LVU381
 1062              		.loc 1 624 19 is_stmt 0 view .LVU382
 1063 0000 0368     		ldr	r3, [r0]
 1064              		.loc 1 624 10 view .LVU383
 1065 0002 C3F30042 		ubfx	r2, r3, #16, #1
 1066              	.LVL139:
 625:Drivers/STM32G4xx_HAL_Driver/Src/stm32g4xx_hal_exti.c ****   /* compute line mask */
 626:Drivers/STM32G4xx_HAL_Driver/Src/stm32g4xx_hal_exti.c ****   maskline = (1uL << (hexti->Line & EXTI_PIN_MASK));
 1067              		.loc 1 626 3 is_stmt 1 view .LVU384
 1068              		.loc 1 626 35 is_stmt 0 view .LVU385
 1069 0006 03F01F03 		and	r3, r3, #31
 1070              		.loc 1 626 12 view .LVU386
 1071 000a 0121     		movs	r1, #1
 1072 000c 01FA03F3 		lsl	r3, r1, r3
 1073              	.LVL140:
 627:Drivers/STM32G4xx_HAL_Driver/Src/stm32g4xx_hal_exti.c **** 
 628:Drivers/STM32G4xx_HAL_Driver/Src/stm32g4xx_hal_exti.c ****   regaddr = (&EXTI->SWIER1 + (EXTI_CONFIG_OFFSET * offset));
 1074              		.loc 1 628 3 is_stmt 1 view .LVU387
 1075              		.loc 1 628 28 is_stmt 0 view .LVU388
 1076 0010 5201     		lsls	r2, r2, #5
 1077              	.LVL141:
 1078              		.loc 1 628 11 view .LVU389
 1079 0012 0149     		ldr	r1, .L70
 1080              	.LVL142:
 629:Drivers/STM32G4xx_HAL_Driver/Src/stm32g4xx_hal_exti.c ****   *regaddr = maskline;
ARM GAS  /tmp/ccmTh9p3.s 			page 32


 1081              		.loc 1 629 3 is_stmt 1 view .LVU390
 1082              		.loc 1 629 12 is_stmt 0 view .LVU391
 1083 0014 5350     		str	r3, [r2, r1]
 1084              	.LVL143:
 630:Drivers/STM32G4xx_HAL_Driver/Src/stm32g4xx_hal_exti.c **** }
 1085              		.loc 1 630 1 view .LVU392
 1086 0016 7047     		bx	lr
 1087              	.L71:
 1088              		.align	2
 1089              	.L70:
 1090 0018 10040140 		.word	1073808400
 1091              		.cfi_endproc
 1092              	.LFE170:
 1094              		.text
 1095              	.Letext0:
 1096              		.file 2 "/usr/lib/gcc/arm-none-eabi/9.2.1/include/stdint.h"
 1097              		.file 3 "Drivers/CMSIS/Include/core_cm4.h"
 1098              		.file 4 "Drivers/CMSIS/Device/ST/STM32G4xx/Include/system_stm32g4xx.h"
 1099              		.file 5 "Drivers/CMSIS/Device/ST/STM32G4xx/Include/stm32g474xx.h"
 1100              		.file 6 "Drivers/STM32G4xx_HAL_Driver/Inc/stm32g4xx_hal_def.h"
 1101              		.file 7 "Drivers/STM32G4xx_HAL_Driver/Inc/stm32g4xx_hal_exti.h"
 1102              		.file 8 "Drivers/STM32G4xx_HAL_Driver/Inc/stm32g4xx_hal_flash.h"
 1103              		.file 9 "Drivers/STM32G4xx_HAL_Driver/Inc/stm32g4xx_hal.h"
ARM GAS  /tmp/ccmTh9p3.s 			page 33

