ARM GAS  /tmp/ccpsplAO.s 			page 1


   1              		.cpu cortex-m4
   2              		.eabi_attribute 27, 1
   3              		.eabi_attribute 28, 1
   4              		.eabi_attribute 20, 1
   5              		.eabi_attribute 21, 1
   6              		.eabi_attribute 23, 3
   7              		.eabi_attribute 24, 1
   8              		.eabi_attribute 25, 1
   9              		.eabi_attribute 26, 1
  10              		.eabi_attribute 30, 1
  11              		.eabi_attribute 34, 1
  12              		.eabi_attribute 18, 4
  13              		.file	"stm32g4xx_hal_dac.c"
  14              		.text
  15              	.Ltext0:
  16              		.cfi_sections	.debug_frame
  17              		.section	.text.HAL_DAC_MspInit,"ax",%progbits
  18              		.align	1
  19              		.weak	HAL_DAC_MspInit
  20              		.arch armv7e-m
  21              		.syntax unified
  22              		.thumb
  23              		.thumb_func
  24              		.fpu fpv4-sp-d16
  26              	HAL_DAC_MspInit:
  27              	.LVL0:
  28              	.LFB164:
  29              		.file 1 "Drivers/STM32G4xx_HAL_Driver/Src/stm32g4xx_hal_dac.c"
   1:Drivers/STM32G4xx_HAL_Driver/Src/stm32g4xx_hal_dac.c **** /**
   2:Drivers/STM32G4xx_HAL_Driver/Src/stm32g4xx_hal_dac.c ****   ******************************************************************************
   3:Drivers/STM32G4xx_HAL_Driver/Src/stm32g4xx_hal_dac.c ****   * @file    stm32g4xx_hal_dac.c
   4:Drivers/STM32G4xx_HAL_Driver/Src/stm32g4xx_hal_dac.c ****   * @author  MCD Application Team
   5:Drivers/STM32G4xx_HAL_Driver/Src/stm32g4xx_hal_dac.c ****   * @brief   DAC HAL module driver.
   6:Drivers/STM32G4xx_HAL_Driver/Src/stm32g4xx_hal_dac.c ****   *         This file provides firmware functions to manage the following
   7:Drivers/STM32G4xx_HAL_Driver/Src/stm32g4xx_hal_dac.c ****   *         functionalities of the Digital to Analog Converter (DAC) peripheral:
   8:Drivers/STM32G4xx_HAL_Driver/Src/stm32g4xx_hal_dac.c ****   *           + Initialization and de-initialization functions
   9:Drivers/STM32G4xx_HAL_Driver/Src/stm32g4xx_hal_dac.c ****   *           + IO operation functions
  10:Drivers/STM32G4xx_HAL_Driver/Src/stm32g4xx_hal_dac.c ****   *           + Peripheral Control functions
  11:Drivers/STM32G4xx_HAL_Driver/Src/stm32g4xx_hal_dac.c ****   *           + Peripheral State and Errors functions
  12:Drivers/STM32G4xx_HAL_Driver/Src/stm32g4xx_hal_dac.c ****   *
  13:Drivers/STM32G4xx_HAL_Driver/Src/stm32g4xx_hal_dac.c ****   *
  14:Drivers/STM32G4xx_HAL_Driver/Src/stm32g4xx_hal_dac.c ****   @verbatim
  15:Drivers/STM32G4xx_HAL_Driver/Src/stm32g4xx_hal_dac.c ****   ==============================================================================
  16:Drivers/STM32G4xx_HAL_Driver/Src/stm32g4xx_hal_dac.c ****                       ##### DAC Peripheral features #####
  17:Drivers/STM32G4xx_HAL_Driver/Src/stm32g4xx_hal_dac.c ****   ==============================================================================
  18:Drivers/STM32G4xx_HAL_Driver/Src/stm32g4xx_hal_dac.c ****     [..]
  19:Drivers/STM32G4xx_HAL_Driver/Src/stm32g4xx_hal_dac.c ****       *** DAC Channels ***
  20:Drivers/STM32G4xx_HAL_Driver/Src/stm32g4xx_hal_dac.c ****       ====================
  21:Drivers/STM32G4xx_HAL_Driver/Src/stm32g4xx_hal_dac.c ****     [..]
  22:Drivers/STM32G4xx_HAL_Driver/Src/stm32g4xx_hal_dac.c ****     STM32G4 devices integrate up to seven 12-bit Digital Analog Converters,
  23:Drivers/STM32G4xx_HAL_Driver/Src/stm32g4xx_hal_dac.c ****     up to six of them grouped by pair forming a DAC instance.
  24:Drivers/STM32G4xx_HAL_Driver/Src/stm32g4xx_hal_dac.c **** 
  25:Drivers/STM32G4xx_HAL_Driver/Src/stm32g4xx_hal_dac.c ****     The 2 converters of an single instance (i.e. channel1 & channel2)
  26:Drivers/STM32G4xx_HAL_Driver/Src/stm32g4xx_hal_dac.c ****     can be used independently or simultaneously (dual mode):
  27:Drivers/STM32G4xx_HAL_Driver/Src/stm32g4xx_hal_dac.c ****       (#) DAC channel1 with DAC_OUT1 as output (not for all) or connected to on-chip
  28:Drivers/STM32G4xx_HAL_Driver/Src/stm32g4xx_hal_dac.c ****           peripherals (ex. comparators, operational amplifier).
  29:Drivers/STM32G4xx_HAL_Driver/Src/stm32g4xx_hal_dac.c ****       (#) DAC channel2 with DAC_OUT2 as output (not for all) or connected to on-chip
ARM GAS  /tmp/ccpsplAO.s 			page 2


  30:Drivers/STM32G4xx_HAL_Driver/Src/stm32g4xx_hal_dac.c ****           peripherals (ex. comparators, operational amplifier).
  31:Drivers/STM32G4xx_HAL_Driver/Src/stm32g4xx_hal_dac.c ****     Note: when an instance only includes one converter, only independent mode is
  32:Drivers/STM32G4xx_HAL_Driver/Src/stm32g4xx_hal_dac.c ****         supported by this converter.
  33:Drivers/STM32G4xx_HAL_Driver/Src/stm32g4xx_hal_dac.c **** 
  34:Drivers/STM32G4xx_HAL_Driver/Src/stm32g4xx_hal_dac.c ****     STM32G4 instances & converters availability and output PIO mapping (DAC_OUTx):
  35:Drivers/STM32G4xx_HAL_Driver/Src/stm32g4xx_hal_dac.c ****     ----------------------------------------------------------------------------
  36:Drivers/STM32G4xx_HAL_Driver/Src/stm32g4xx_hal_dac.c ****                            |    DAC1    |    DAC2    |    DAC3    |    DAC4    |
  37:Drivers/STM32G4xx_HAL_Driver/Src/stm32g4xx_hal_dac.c ****     ----------------------------------------------------------------------------
  38:Drivers/STM32G4xx_HAL_Driver/Src/stm32g4xx_hal_dac.c ****     Channel 1  |           |    YES     |    YES     |    YES     |    YES
  39:Drivers/STM32G4xx_HAL_Driver/Src/stm32g4xx_hal_dac.c ****                | DAC_OUT1  |    PA4     |    PA6     |     -      |     -
  40:Drivers/STM32G4xx_HAL_Driver/Src/stm32g4xx_hal_dac.c ****     ----------------------------------------------------------------------------
  41:Drivers/STM32G4xx_HAL_Driver/Src/stm32g4xx_hal_dac.c ****     Channel 2  |           |    YES     |    NO      |    YES     |    YES
  42:Drivers/STM32G4xx_HAL_Driver/Src/stm32g4xx_hal_dac.c ****                | DAC_OUT2  |    PA5     |     -      |     -      |     -
  43:Drivers/STM32G4xx_HAL_Driver/Src/stm32g4xx_hal_dac.c ****     ----------------------------------------------------------------------------
  44:Drivers/STM32G4xx_HAL_Driver/Src/stm32g4xx_hal_dac.c ****     Note: On this STM32 serie, all devices do not include each DAC instances listed
  45:Drivers/STM32G4xx_HAL_Driver/Src/stm32g4xx_hal_dac.c ****           above. Refer to device datasheet for DACx instance availability.
  46:Drivers/STM32G4xx_HAL_Driver/Src/stm32g4xx_hal_dac.c **** 
  47:Drivers/STM32G4xx_HAL_Driver/Src/stm32g4xx_hal_dac.c ****       *** DAC Triggers ***
  48:Drivers/STM32G4xx_HAL_Driver/Src/stm32g4xx_hal_dac.c ****       ====================
  49:Drivers/STM32G4xx_HAL_Driver/Src/stm32g4xx_hal_dac.c ****     [..]
  50:Drivers/STM32G4xx_HAL_Driver/Src/stm32g4xx_hal_dac.c ****     Digital to Analog conversion can be non-triggered using DAC_TRIGGER_NONE
  51:Drivers/STM32G4xx_HAL_Driver/Src/stm32g4xx_hal_dac.c ****     and DAC_OUT1/DAC_OUT2 is available once writing to DHRx register.
  52:Drivers/STM32G4xx_HAL_Driver/Src/stm32g4xx_hal_dac.c ****     [..]
  53:Drivers/STM32G4xx_HAL_Driver/Src/stm32g4xx_hal_dac.c ****     Digital to Analog conversion can be triggered by:
  54:Drivers/STM32G4xx_HAL_Driver/Src/stm32g4xx_hal_dac.c ****       (#) External event: EXTI Line 9 (any GPIOx_PIN_9) using DAC_TRIGGER_EXT_IT9.
  55:Drivers/STM32G4xx_HAL_Driver/Src/stm32g4xx_hal_dac.c ****           The used pin (GPIOx_PIN_9) must be configured in input mode.
  56:Drivers/STM32G4xx_HAL_Driver/Src/stm32g4xx_hal_dac.c **** 
  57:Drivers/STM32G4xx_HAL_Driver/Src/stm32g4xx_hal_dac.c ****       (#) Timers TRGO: TIM1, TIM2, TIM3, TIM4, TIM6, TIM7, TIM8 and TIM15
  58:Drivers/STM32G4xx_HAL_Driver/Src/stm32g4xx_hal_dac.c ****           (DAC_TRIGGER_T2_TRGO, DAC_TRIGGER_T3_TRGO...)
  59:Drivers/STM32G4xx_HAL_Driver/Src/stm32g4xx_hal_dac.c **** 
  60:Drivers/STM32G4xx_HAL_Driver/Src/stm32g4xx_hal_dac.c ****       (#) Software using DAC_TRIGGER_SOFTWARE
  61:Drivers/STM32G4xx_HAL_Driver/Src/stm32g4xx_hal_dac.c **** 
  62:Drivers/STM32G4xx_HAL_Driver/Src/stm32g4xx_hal_dac.c ****       (#) HRTimer TRGO: HRTIM1 (1)
  63:Drivers/STM32G4xx_HAL_Driver/Src/stm32g4xx_hal_dac.c ****           (DAC_TRIGGER_HRTIM_TRG01, DAC_TRIGGER_HRTIM_TRG02...)
  64:Drivers/STM32G4xx_HAL_Driver/Src/stm32g4xx_hal_dac.c **** 
  65:Drivers/STM32G4xx_HAL_Driver/Src/stm32g4xx_hal_dac.c ****     [..]
  66:Drivers/STM32G4xx_HAL_Driver/Src/stm32g4xx_hal_dac.c ****     Specific triggers for sawtooth generation:
  67:Drivers/STM32G4xx_HAL_Driver/Src/stm32g4xx_hal_dac.c ****       (#) External event: EXTI Line 10 (any GPIOx_PIN_10) using DAC_TRIGGER_EXT_IT10.
  68:Drivers/STM32G4xx_HAL_Driver/Src/stm32g4xx_hal_dac.c ****           The used pin (GPIOx_PIN_10) must be configured in input mode.
  69:Drivers/STM32G4xx_HAL_Driver/Src/stm32g4xx_hal_dac.c **** 
  70:Drivers/STM32G4xx_HAL_Driver/Src/stm32g4xx_hal_dac.c ****       (#) HRTimer Step & Reset: HRTIM1 (1)
  71:Drivers/STM32G4xx_HAL_Driver/Src/stm32g4xx_hal_dac.c ****           (DAC_TRIGGER_HRTIM_RST_TRG1, DAC_TRIGGER_HRTIM_STEP_TRG1...)
  72:Drivers/STM32G4xx_HAL_Driver/Src/stm32g4xx_hal_dac.c **** 
  73:Drivers/STM32G4xx_HAL_Driver/Src/stm32g4xx_hal_dac.c ****       Note: On this STM32 serie, parameter only available if HRTIM feature is
  74:Drivers/STM32G4xx_HAL_Driver/Src/stm32g4xx_hal_dac.c ****             supported (refer to device datasheet for supported features list)
  75:Drivers/STM32G4xx_HAL_Driver/Src/stm32g4xx_hal_dac.c **** 
  76:Drivers/STM32G4xx_HAL_Driver/Src/stm32g4xx_hal_dac.c ****       *** DAC Buffer mode feature ***
  77:Drivers/STM32G4xx_HAL_Driver/Src/stm32g4xx_hal_dac.c ****       ===============================
  78:Drivers/STM32G4xx_HAL_Driver/Src/stm32g4xx_hal_dac.c ****       [..]
  79:Drivers/STM32G4xx_HAL_Driver/Src/stm32g4xx_hal_dac.c ****       Each DAC channel integrates an output buffer that can be used to
  80:Drivers/STM32G4xx_HAL_Driver/Src/stm32g4xx_hal_dac.c ****       reduce the output impedance, and to drive external loads directly
  81:Drivers/STM32G4xx_HAL_Driver/Src/stm32g4xx_hal_dac.c ****       without having to add an external operational amplifier.
  82:Drivers/STM32G4xx_HAL_Driver/Src/stm32g4xx_hal_dac.c ****       To enable, the output buffer use
  83:Drivers/STM32G4xx_HAL_Driver/Src/stm32g4xx_hal_dac.c ****       sConfig.DAC_OutputBuffer = DAC_OUTPUTBUFFER_ENABLE;
  84:Drivers/STM32G4xx_HAL_Driver/Src/stm32g4xx_hal_dac.c ****       [..]
  85:Drivers/STM32G4xx_HAL_Driver/Src/stm32g4xx_hal_dac.c ****       (@) Refer to the device datasheet for more details about output
  86:Drivers/STM32G4xx_HAL_Driver/Src/stm32g4xx_hal_dac.c ****           impedance value with and without output buffer.
ARM GAS  /tmp/ccpsplAO.s 			page 3


  87:Drivers/STM32G4xx_HAL_Driver/Src/stm32g4xx_hal_dac.c **** 
  88:Drivers/STM32G4xx_HAL_Driver/Src/stm32g4xx_hal_dac.c ****       *** DAC connect feature ***
  89:Drivers/STM32G4xx_HAL_Driver/Src/stm32g4xx_hal_dac.c ****       ===============================
  90:Drivers/STM32G4xx_HAL_Driver/Src/stm32g4xx_hal_dac.c ****       [..]
  91:Drivers/STM32G4xx_HAL_Driver/Src/stm32g4xx_hal_dac.c ****       Each DAC channel can be connected internally.
  92:Drivers/STM32G4xx_HAL_Driver/Src/stm32g4xx_hal_dac.c ****       To connect, use
  93:Drivers/STM32G4xx_HAL_Driver/Src/stm32g4xx_hal_dac.c ****       sConfig.DAC_ConnectOnChipPeripheral = DAC_CHIPCONNECT_INTERNAL;
  94:Drivers/STM32G4xx_HAL_Driver/Src/stm32g4xx_hal_dac.c ****       or
  95:Drivers/STM32G4xx_HAL_Driver/Src/stm32g4xx_hal_dac.c ****       sConfig.DAC_ConnectOnChipPeripheral = DAC_CHIPCONNECT_BOTH;
  96:Drivers/STM32G4xx_HAL_Driver/Src/stm32g4xx_hal_dac.c **** 
  97:Drivers/STM32G4xx_HAL_Driver/Src/stm32g4xx_hal_dac.c ****       *** GPIO configurations guidelines ***
  98:Drivers/STM32G4xx_HAL_Driver/Src/stm32g4xx_hal_dac.c ****       =====================
  99:Drivers/STM32G4xx_HAL_Driver/Src/stm32g4xx_hal_dac.c ****       [..]
 100:Drivers/STM32G4xx_HAL_Driver/Src/stm32g4xx_hal_dac.c ****       When a DAC channel is used (ex channel1 on PA4) and the other is not
 101:Drivers/STM32G4xx_HAL_Driver/Src/stm32g4xx_hal_dac.c ****       (ex channel2 on PA5 is configured in Analog and disabled).
 102:Drivers/STM32G4xx_HAL_Driver/Src/stm32g4xx_hal_dac.c ****       Channel1 may disturb channel2 as coupling effect.
 103:Drivers/STM32G4xx_HAL_Driver/Src/stm32g4xx_hal_dac.c ****       Note that there is no coupling on channel2 as soon as channel2 is turned on.
 104:Drivers/STM32G4xx_HAL_Driver/Src/stm32g4xx_hal_dac.c ****       Coupling on adjacent channel could be avoided as follows:
 105:Drivers/STM32G4xx_HAL_Driver/Src/stm32g4xx_hal_dac.c ****       when unused PA5 is configured as INPUT PULL-UP or DOWN.
 106:Drivers/STM32G4xx_HAL_Driver/Src/stm32g4xx_hal_dac.c ****       PA5 is configured in ANALOG just before it is turned on.
 107:Drivers/STM32G4xx_HAL_Driver/Src/stm32g4xx_hal_dac.c **** 
 108:Drivers/STM32G4xx_HAL_Driver/Src/stm32g4xx_hal_dac.c ****       *** DAC Sample and Hold feature ***
 109:Drivers/STM32G4xx_HAL_Driver/Src/stm32g4xx_hal_dac.c ****       ========================
 110:Drivers/STM32G4xx_HAL_Driver/Src/stm32g4xx_hal_dac.c ****       [..]
 111:Drivers/STM32G4xx_HAL_Driver/Src/stm32g4xx_hal_dac.c ****       For each converter, 2 modes are supported: normal mode and
 112:Drivers/STM32G4xx_HAL_Driver/Src/stm32g4xx_hal_dac.c ****       "sample and hold" mode (i.e. low power mode).
 113:Drivers/STM32G4xx_HAL_Driver/Src/stm32g4xx_hal_dac.c ****       In the sample and hold mode, the DAC core converts data, then holds the
 114:Drivers/STM32G4xx_HAL_Driver/Src/stm32g4xx_hal_dac.c ****       converted voltage on a capacitor. When not converting, the DAC cores and
 115:Drivers/STM32G4xx_HAL_Driver/Src/stm32g4xx_hal_dac.c ****       buffer are completely turned off between samples and the DAC output is
 116:Drivers/STM32G4xx_HAL_Driver/Src/stm32g4xx_hal_dac.c ****       tri-stated, therefore  reducing the overall power consumption. A new
 117:Drivers/STM32G4xx_HAL_Driver/Src/stm32g4xx_hal_dac.c ****       stabilization period is needed before each new conversion.
 118:Drivers/STM32G4xx_HAL_Driver/Src/stm32g4xx_hal_dac.c **** 
 119:Drivers/STM32G4xx_HAL_Driver/Src/stm32g4xx_hal_dac.c ****       The sample and hold allow setting internal or external voltage @
 120:Drivers/STM32G4xx_HAL_Driver/Src/stm32g4xx_hal_dac.c ****       low power consumption cost (output value can be at any given rate either
 121:Drivers/STM32G4xx_HAL_Driver/Src/stm32g4xx_hal_dac.c ****       by CPU or DMA).
 122:Drivers/STM32G4xx_HAL_Driver/Src/stm32g4xx_hal_dac.c **** 
 123:Drivers/STM32G4xx_HAL_Driver/Src/stm32g4xx_hal_dac.c ****       The Sample and hold block and registers uses either LSI & run in
 124:Drivers/STM32G4xx_HAL_Driver/Src/stm32g4xx_hal_dac.c ****       several power modes: run mode, sleep mode, low power run, low power sleep
 125:Drivers/STM32G4xx_HAL_Driver/Src/stm32g4xx_hal_dac.c ****       mode & stop1 mode.
 126:Drivers/STM32G4xx_HAL_Driver/Src/stm32g4xx_hal_dac.c **** 
 127:Drivers/STM32G4xx_HAL_Driver/Src/stm32g4xx_hal_dac.c ****       Low power stop1 mode allows only static conversion.
 128:Drivers/STM32G4xx_HAL_Driver/Src/stm32g4xx_hal_dac.c **** 
 129:Drivers/STM32G4xx_HAL_Driver/Src/stm32g4xx_hal_dac.c ****       To enable Sample and Hold mode
 130:Drivers/STM32G4xx_HAL_Driver/Src/stm32g4xx_hal_dac.c ****       Enable LSI using HAL_RCC_OscConfig with RCC_OSCILLATORTYPE_LSI &
 131:Drivers/STM32G4xx_HAL_Driver/Src/stm32g4xx_hal_dac.c ****       RCC_LSI_ON parameters.
 132:Drivers/STM32G4xx_HAL_Driver/Src/stm32g4xx_hal_dac.c **** 
 133:Drivers/STM32G4xx_HAL_Driver/Src/stm32g4xx_hal_dac.c ****       Use DAC_InitStructure.DAC_SampleAndHold = DAC_SAMPLEANDHOLD_ENABLE;
 134:Drivers/STM32G4xx_HAL_Driver/Src/stm32g4xx_hal_dac.c ****          & DAC_ChannelConfTypeDef.DAC_SampleAndHoldConfig.DAC_SampleTime,
 135:Drivers/STM32G4xx_HAL_Driver/Src/stm32g4xx_hal_dac.c ****            DAC_HoldTime & DAC_RefreshTime;
 136:Drivers/STM32G4xx_HAL_Driver/Src/stm32g4xx_hal_dac.c **** 
 137:Drivers/STM32G4xx_HAL_Driver/Src/stm32g4xx_hal_dac.c ****        *** DAC calibration feature ***
 138:Drivers/STM32G4xx_HAL_Driver/Src/stm32g4xx_hal_dac.c ****        ===================================
 139:Drivers/STM32G4xx_HAL_Driver/Src/stm32g4xx_hal_dac.c ****       [..]
 140:Drivers/STM32G4xx_HAL_Driver/Src/stm32g4xx_hal_dac.c ****        (#)  The 2 converters (channel1 & channel2) provide calibration capabilities.
 141:Drivers/STM32G4xx_HAL_Driver/Src/stm32g4xx_hal_dac.c ****        (++) Calibration aims at correcting some offset of output buffer.
 142:Drivers/STM32G4xx_HAL_Driver/Src/stm32g4xx_hal_dac.c ****        (++) The DAC uses either factory calibration settings OR user defined
 143:Drivers/STM32G4xx_HAL_Driver/Src/stm32g4xx_hal_dac.c ****            calibration (trimming) settings (i.e. trimming mode).
ARM GAS  /tmp/ccpsplAO.s 			page 4


 144:Drivers/STM32G4xx_HAL_Driver/Src/stm32g4xx_hal_dac.c ****        (++) The user defined settings can be figured out using self calibration
 145:Drivers/STM32G4xx_HAL_Driver/Src/stm32g4xx_hal_dac.c ****            handled by HAL_DACEx_SelfCalibrate.
 146:Drivers/STM32G4xx_HAL_Driver/Src/stm32g4xx_hal_dac.c ****        (++) HAL_DACEx_SelfCalibrate:
 147:Drivers/STM32G4xx_HAL_Driver/Src/stm32g4xx_hal_dac.c ****        (+++) Runs automatically the calibration.
 148:Drivers/STM32G4xx_HAL_Driver/Src/stm32g4xx_hal_dac.c ****        (+++) Enables the user trimming mode
 149:Drivers/STM32G4xx_HAL_Driver/Src/stm32g4xx_hal_dac.c ****        (+++) Updates a structure with trimming values with fresh calibration
 150:Drivers/STM32G4xx_HAL_Driver/Src/stm32g4xx_hal_dac.c ****             results.
 151:Drivers/STM32G4xx_HAL_Driver/Src/stm32g4xx_hal_dac.c ****             The user may store the calibration results for larger
 152:Drivers/STM32G4xx_HAL_Driver/Src/stm32g4xx_hal_dac.c ****             (ex monitoring the trimming as a function of temperature
 153:Drivers/STM32G4xx_HAL_Driver/Src/stm32g4xx_hal_dac.c ****             for instance)
 154:Drivers/STM32G4xx_HAL_Driver/Src/stm32g4xx_hal_dac.c **** 
 155:Drivers/STM32G4xx_HAL_Driver/Src/stm32g4xx_hal_dac.c ****        *** DAC wave generation feature ***
 156:Drivers/STM32G4xx_HAL_Driver/Src/stm32g4xx_hal_dac.c ****        ===================================
 157:Drivers/STM32G4xx_HAL_Driver/Src/stm32g4xx_hal_dac.c ****        [..]
 158:Drivers/STM32G4xx_HAL_Driver/Src/stm32g4xx_hal_dac.c ****        Both DAC channels can be used to generate
 159:Drivers/STM32G4xx_HAL_Driver/Src/stm32g4xx_hal_dac.c ****          (#) Noise wave
 160:Drivers/STM32G4xx_HAL_Driver/Src/stm32g4xx_hal_dac.c ****          (#) Triangle wave
 161:Drivers/STM32G4xx_HAL_Driver/Src/stm32g4xx_hal_dac.c ****          (#) Sawtooth wave
 162:Drivers/STM32G4xx_HAL_Driver/Src/stm32g4xx_hal_dac.c **** 
 163:Drivers/STM32G4xx_HAL_Driver/Src/stm32g4xx_hal_dac.c ****        *** DAC data format ***
 164:Drivers/STM32G4xx_HAL_Driver/Src/stm32g4xx_hal_dac.c ****        =======================
 165:Drivers/STM32G4xx_HAL_Driver/Src/stm32g4xx_hal_dac.c ****        [..]
 166:Drivers/STM32G4xx_HAL_Driver/Src/stm32g4xx_hal_dac.c ****        The DAC data format can be:
 167:Drivers/STM32G4xx_HAL_Driver/Src/stm32g4xx_hal_dac.c ****          (#) 8-bit right alignment using DAC_ALIGN_8B_R
 168:Drivers/STM32G4xx_HAL_Driver/Src/stm32g4xx_hal_dac.c ****          (#) 12-bit left alignment using DAC_ALIGN_12B_L
 169:Drivers/STM32G4xx_HAL_Driver/Src/stm32g4xx_hal_dac.c ****          (#) 12-bit right alignment using DAC_ALIGN_12B_R
 170:Drivers/STM32G4xx_HAL_Driver/Src/stm32g4xx_hal_dac.c **** 
 171:Drivers/STM32G4xx_HAL_Driver/Src/stm32g4xx_hal_dac.c ****        *** DAC data value to voltage correspondence ***
 172:Drivers/STM32G4xx_HAL_Driver/Src/stm32g4xx_hal_dac.c ****        ================================================
 173:Drivers/STM32G4xx_HAL_Driver/Src/stm32g4xx_hal_dac.c ****        [..]
 174:Drivers/STM32G4xx_HAL_Driver/Src/stm32g4xx_hal_dac.c ****        The analog output voltage on each DAC channel pin is determined
 175:Drivers/STM32G4xx_HAL_Driver/Src/stm32g4xx_hal_dac.c ****        by the following equation:
 176:Drivers/STM32G4xx_HAL_Driver/Src/stm32g4xx_hal_dac.c ****        [..]
 177:Drivers/STM32G4xx_HAL_Driver/Src/stm32g4xx_hal_dac.c ****        DAC_OUTx = VREF+ * DOR / 4095
 178:Drivers/STM32G4xx_HAL_Driver/Src/stm32g4xx_hal_dac.c ****        (+) with  DOR is the Data Output Register
 179:Drivers/STM32G4xx_HAL_Driver/Src/stm32g4xx_hal_dac.c ****        [..]
 180:Drivers/STM32G4xx_HAL_Driver/Src/stm32g4xx_hal_dac.c ****           VEF+ is the input voltage reference (refer to the device datasheet)
 181:Drivers/STM32G4xx_HAL_Driver/Src/stm32g4xx_hal_dac.c ****        [..]
 182:Drivers/STM32G4xx_HAL_Driver/Src/stm32g4xx_hal_dac.c ****         e.g. To set DAC_OUT1 to 0.7V, use
 183:Drivers/STM32G4xx_HAL_Driver/Src/stm32g4xx_hal_dac.c ****        (+) Assuming that VREF+ = 3.3V, DAC_OUT1 = (3.3 * 868) / 4095 = 0.7V
 184:Drivers/STM32G4xx_HAL_Driver/Src/stm32g4xx_hal_dac.c **** 
 185:Drivers/STM32G4xx_HAL_Driver/Src/stm32g4xx_hal_dac.c ****        *** DMA requests ***
 186:Drivers/STM32G4xx_HAL_Driver/Src/stm32g4xx_hal_dac.c ****        =====================
 187:Drivers/STM32G4xx_HAL_Driver/Src/stm32g4xx_hal_dac.c ****        [..]
 188:Drivers/STM32G4xx_HAL_Driver/Src/stm32g4xx_hal_dac.c ****        A DMAMUX request can be generated when an external trigger (but not a software trigger)
 189:Drivers/STM32G4xx_HAL_Driver/Src/stm32g4xx_hal_dac.c ****        occurs if DMAMUX requests are enabled using HAL_DAC_Start_DMA().
 190:Drivers/STM32G4xx_HAL_Driver/Src/stm32g4xx_hal_dac.c ****        DMAMUX requests are mapped as following:
 191:Drivers/STM32G4xx_HAL_Driver/Src/stm32g4xx_hal_dac.c ****         ----------------------------------------------------------------------------
 192:Drivers/STM32G4xx_HAL_Driver/Src/stm32g4xx_hal_dac.c ****                                |    DAC1    |    DAC2    |    DAC3    |    DAC4    |
 193:Drivers/STM32G4xx_HAL_Driver/Src/stm32g4xx_hal_dac.c ****         ----------------------------------------------------------------------------
 194:Drivers/STM32G4xx_HAL_Driver/Src/stm32g4xx_hal_dac.c ****         Channel 1  |           |     6      |     41     |    102     |    104
 195:Drivers/STM32G4xx_HAL_Driver/Src/stm32g4xx_hal_dac.c ****         ----------------------------------------------------------------------------
 196:Drivers/STM32G4xx_HAL_Driver/Src/stm32g4xx_hal_dac.c ****         Channel 2  |           |     7      |     -      |    103     |    105
 197:Drivers/STM32G4xx_HAL_Driver/Src/stm32g4xx_hal_dac.c ****         ----------------------------------------------------------------------------
 198:Drivers/STM32G4xx_HAL_Driver/Src/stm32g4xx_hal_dac.c ****         Note: On this STM32 serie, all devices do not include each DAC instances listed
 199:Drivers/STM32G4xx_HAL_Driver/Src/stm32g4xx_hal_dac.c ****               above. Refer to device datasheet for DACx instance availability.
 200:Drivers/STM32G4xx_HAL_Driver/Src/stm32g4xx_hal_dac.c **** 
ARM GAS  /tmp/ccpsplAO.s 			page 5


 201:Drivers/STM32G4xx_HAL_Driver/Src/stm32g4xx_hal_dac.c ****        *** High frequency interface mode ***
 202:Drivers/STM32G4xx_HAL_Driver/Src/stm32g4xx_hal_dac.c ****        =====================================
 203:Drivers/STM32G4xx_HAL_Driver/Src/stm32g4xx_hal_dac.c ****        [..]
 204:Drivers/STM32G4xx_HAL_Driver/Src/stm32g4xx_hal_dac.c ****        The high frequency interface informs DAC instance about the bus frequency in use.
 205:Drivers/STM32G4xx_HAL_Driver/Src/stm32g4xx_hal_dac.c ****        It is mandatory information for DAC (as internal timing of DAC is bus frequency dependent)
 206:Drivers/STM32G4xx_HAL_Driver/Src/stm32g4xx_hal_dac.c ****        provided thanks to parameter DAC_HighFrequency handled in HAL_DAC_ConfigChannel () function.
 207:Drivers/STM32G4xx_HAL_Driver/Src/stm32g4xx_hal_dac.c ****        Use of DAC_HIGH_FREQUENCY_INTERFACE_MODE_AUTOMATIC value of DAC_HighFrequency is recommended
 208:Drivers/STM32G4xx_HAL_Driver/Src/stm32g4xx_hal_dac.c ****        function figured out the correct setting.
 209:Drivers/STM32G4xx_HAL_Driver/Src/stm32g4xx_hal_dac.c ****        The high frequency mode is same for all converters of a same DAC instance. Either same
 210:Drivers/STM32G4xx_HAL_Driver/Src/stm32g4xx_hal_dac.c ****        parameter DAC_HighFrequency is used for all DAC converters or again self
 211:Drivers/STM32G4xx_HAL_Driver/Src/stm32g4xx_hal_dac.c ****        DAC_HIGH_FREQUENCY_INTERFACE_MODE_AUTOMATIC detection parameter.
 212:Drivers/STM32G4xx_HAL_Driver/Src/stm32g4xx_hal_dac.c **** 
 213:Drivers/STM32G4xx_HAL_Driver/Src/stm32g4xx_hal_dac.c ****      [..]
 214:Drivers/STM32G4xx_HAL_Driver/Src/stm32g4xx_hal_dac.c ****     (@) For Dual mode and specific signal (Sawtooth, triangle and noise) generation
 215:Drivers/STM32G4xx_HAL_Driver/Src/stm32g4xx_hal_dac.c ****         please refer to Extended Features Driver description
 216:Drivers/STM32G4xx_HAL_Driver/Src/stm32g4xx_hal_dac.c **** 
 217:Drivers/STM32G4xx_HAL_Driver/Src/stm32g4xx_hal_dac.c ****                       ##### How to use this driver #####
 218:Drivers/STM32G4xx_HAL_Driver/Src/stm32g4xx_hal_dac.c ****   ==============================================================================
 219:Drivers/STM32G4xx_HAL_Driver/Src/stm32g4xx_hal_dac.c ****     [..]
 220:Drivers/STM32G4xx_HAL_Driver/Src/stm32g4xx_hal_dac.c ****       (+) DAC APB clock must be enabled to get write access to DAC
 221:Drivers/STM32G4xx_HAL_Driver/Src/stm32g4xx_hal_dac.c ****           registers using HAL_DAC_Init()
 222:Drivers/STM32G4xx_HAL_Driver/Src/stm32g4xx_hal_dac.c ****       (+) If available & needed, configure DAC_OUTx (DAC_OUT1, DAC_OUT2) in analog mode.
 223:Drivers/STM32G4xx_HAL_Driver/Src/stm32g4xx_hal_dac.c ****       (+) Configure the DAC channel using HAL_DAC_ConfigChannel() function.
 224:Drivers/STM32G4xx_HAL_Driver/Src/stm32g4xx_hal_dac.c ****       (+) Enable the DAC channel using HAL_DAC_Start() or HAL_DAC_Start_DMA() functions.
 225:Drivers/STM32G4xx_HAL_Driver/Src/stm32g4xx_hal_dac.c **** 
 226:Drivers/STM32G4xx_HAL_Driver/Src/stm32g4xx_hal_dac.c ****      *** Calibration mode IO operation ***
 227:Drivers/STM32G4xx_HAL_Driver/Src/stm32g4xx_hal_dac.c ****      ======================================
 228:Drivers/STM32G4xx_HAL_Driver/Src/stm32g4xx_hal_dac.c ****      [..]
 229:Drivers/STM32G4xx_HAL_Driver/Src/stm32g4xx_hal_dac.c ****        (+) Retrieve the factory trimming (calibration settings) using HAL_DACEx_GetTrimOffset()
 230:Drivers/STM32G4xx_HAL_Driver/Src/stm32g4xx_hal_dac.c ****        (+) Run the calibration using HAL_DACEx_SelfCalibrate()
 231:Drivers/STM32G4xx_HAL_Driver/Src/stm32g4xx_hal_dac.c ****        (+) Update the trimming while DAC running using HAL_DACEx_SetUserTrimming()
 232:Drivers/STM32G4xx_HAL_Driver/Src/stm32g4xx_hal_dac.c **** 
 233:Drivers/STM32G4xx_HAL_Driver/Src/stm32g4xx_hal_dac.c ****      *** Polling mode IO operation ***
 234:Drivers/STM32G4xx_HAL_Driver/Src/stm32g4xx_hal_dac.c ****      =================================
 235:Drivers/STM32G4xx_HAL_Driver/Src/stm32g4xx_hal_dac.c ****      [..]
 236:Drivers/STM32G4xx_HAL_Driver/Src/stm32g4xx_hal_dac.c ****        (+) Start the DAC peripheral using HAL_DAC_Start()
 237:Drivers/STM32G4xx_HAL_Driver/Src/stm32g4xx_hal_dac.c ****        (+) To read the DAC last data output value, use the HAL_DAC_GetValue() function.
 238:Drivers/STM32G4xx_HAL_Driver/Src/stm32g4xx_hal_dac.c ****        (+) Stop the DAC peripheral using HAL_DAC_Stop()
 239:Drivers/STM32G4xx_HAL_Driver/Src/stm32g4xx_hal_dac.c **** 
 240:Drivers/STM32G4xx_HAL_Driver/Src/stm32g4xx_hal_dac.c ****      *** DMA mode IO operation ***
 241:Drivers/STM32G4xx_HAL_Driver/Src/stm32g4xx_hal_dac.c ****      ==============================
 242:Drivers/STM32G4xx_HAL_Driver/Src/stm32g4xx_hal_dac.c ****      [..]
 243:Drivers/STM32G4xx_HAL_Driver/Src/stm32g4xx_hal_dac.c ****        (+) Start the DAC peripheral using HAL_DAC_Start_DMA(), at this stage the user specify the l
 244:Drivers/STM32G4xx_HAL_Driver/Src/stm32g4xx_hal_dac.c ****            of data to be transferred at each end of conversion
 245:Drivers/STM32G4xx_HAL_Driver/Src/stm32g4xx_hal_dac.c ****            First issued trigger will start the conversion of the value previously set by HAL_DAC_Se
 246:Drivers/STM32G4xx_HAL_Driver/Src/stm32g4xx_hal_dac.c ****        (+) At the middle of data transfer HAL_DAC_ConvHalfCpltCallbackCh1() or HAL_DACEx_ConvHalfCp
 247:Drivers/STM32G4xx_HAL_Driver/Src/stm32g4xx_hal_dac.c ****            function is executed and user can add his own code by customization of function pointer
 248:Drivers/STM32G4xx_HAL_Driver/Src/stm32g4xx_hal_dac.c ****            HAL_DAC_ConvHalfCpltCallbackCh1() or HAL_DACEx_ConvHalfCpltCallbackCh2()
 249:Drivers/STM32G4xx_HAL_Driver/Src/stm32g4xx_hal_dac.c ****        (+) At The end of data transfer HAL_DAC_ConvCpltCallbackCh1() or HAL_DACEx_ConvHalfCpltCallb
 250:Drivers/STM32G4xx_HAL_Driver/Src/stm32g4xx_hal_dac.c ****            function is executed and user can add his own code by customization of function pointer
 251:Drivers/STM32G4xx_HAL_Driver/Src/stm32g4xx_hal_dac.c ****            HAL_DAC_ConvCpltCallbackCh1() or HAL_DACEx_ConvHalfCpltCallbackCh2()
 252:Drivers/STM32G4xx_HAL_Driver/Src/stm32g4xx_hal_dac.c ****        (+) In case of transfer Error, HAL_DAC_ErrorCallbackCh1() function is executed and user can
 253:Drivers/STM32G4xx_HAL_Driver/Src/stm32g4xx_hal_dac.c ****             add his own code by customization of function pointer HAL_DAC_ErrorCallbackCh1
 254:Drivers/STM32G4xx_HAL_Driver/Src/stm32g4xx_hal_dac.c ****        (+) In case of DMA underrun, DAC interruption triggers and execute internal function HAL_DAC
 255:Drivers/STM32G4xx_HAL_Driver/Src/stm32g4xx_hal_dac.c ****            HAL_DAC_DMAUnderrunCallbackCh1() or HAL_DACEx_DMAUnderrunCallbackCh2()
 256:Drivers/STM32G4xx_HAL_Driver/Src/stm32g4xx_hal_dac.c ****            function is executed and user can add his own code by customization of function pointer
 257:Drivers/STM32G4xx_HAL_Driver/Src/stm32g4xx_hal_dac.c ****            HAL_DAC_DMAUnderrunCallbackCh1() or HAL_DACEx_DMAUnderrunCallbackCh2() and
ARM GAS  /tmp/ccpsplAO.s 			page 6


 258:Drivers/STM32G4xx_HAL_Driver/Src/stm32g4xx_hal_dac.c ****            add his own code by customization of function pointer HAL_DAC_ErrorCallbackCh1()
 259:Drivers/STM32G4xx_HAL_Driver/Src/stm32g4xx_hal_dac.c ****        (+) Stop the DAC peripheral using HAL_DAC_Stop_DMA()
 260:Drivers/STM32G4xx_HAL_Driver/Src/stm32g4xx_hal_dac.c **** 
 261:Drivers/STM32G4xx_HAL_Driver/Src/stm32g4xx_hal_dac.c ****     *** Callback registration ***
 262:Drivers/STM32G4xx_HAL_Driver/Src/stm32g4xx_hal_dac.c ****     =============================================
 263:Drivers/STM32G4xx_HAL_Driver/Src/stm32g4xx_hal_dac.c ****     [..]
 264:Drivers/STM32G4xx_HAL_Driver/Src/stm32g4xx_hal_dac.c ****       The compilation define  USE_HAL_DAC_REGISTER_CALLBACKS when set to 1
 265:Drivers/STM32G4xx_HAL_Driver/Src/stm32g4xx_hal_dac.c ****       allows the user to configure dynamically the driver callbacks.
 266:Drivers/STM32G4xx_HAL_Driver/Src/stm32g4xx_hal_dac.c **** 
 267:Drivers/STM32G4xx_HAL_Driver/Src/stm32g4xx_hal_dac.c ****     Use Functions @ref HAL_DAC_RegisterCallback() to register a user callback,
 268:Drivers/STM32G4xx_HAL_Driver/Src/stm32g4xx_hal_dac.c ****       it allows to register following callbacks:
 269:Drivers/STM32G4xx_HAL_Driver/Src/stm32g4xx_hal_dac.c ****       (+) ConvCpltCallbackCh1     : callback when a half transfer is completed on Ch1.
 270:Drivers/STM32G4xx_HAL_Driver/Src/stm32g4xx_hal_dac.c ****       (+) ConvHalfCpltCallbackCh1 : callback when a transfer is completed on Ch1.
 271:Drivers/STM32G4xx_HAL_Driver/Src/stm32g4xx_hal_dac.c ****       (+) ErrorCallbackCh1        : callback when an error occurs on Ch1.
 272:Drivers/STM32G4xx_HAL_Driver/Src/stm32g4xx_hal_dac.c ****       (+) DMAUnderrunCallbackCh1  : callback when an underrun error occurs on Ch1.
 273:Drivers/STM32G4xx_HAL_Driver/Src/stm32g4xx_hal_dac.c ****       (+) ConvCpltCallbackCh2     : callback when a half transfer is completed on Ch2.
 274:Drivers/STM32G4xx_HAL_Driver/Src/stm32g4xx_hal_dac.c ****       (+) ConvHalfCpltCallbackCh2 : callback when a transfer is completed on Ch2.
 275:Drivers/STM32G4xx_HAL_Driver/Src/stm32g4xx_hal_dac.c ****       (+) ErrorCallbackCh2        : callback when an error occurs on Ch2.
 276:Drivers/STM32G4xx_HAL_Driver/Src/stm32g4xx_hal_dac.c ****       (+) DMAUnderrunCallbackCh2  : callback when an underrun error occurs on Ch2.
 277:Drivers/STM32G4xx_HAL_Driver/Src/stm32g4xx_hal_dac.c ****       (+) MspInitCallback         : DAC MspInit.
 278:Drivers/STM32G4xx_HAL_Driver/Src/stm32g4xx_hal_dac.c ****       (+) MspDeInitCallback       : DAC MspdeInit.
 279:Drivers/STM32G4xx_HAL_Driver/Src/stm32g4xx_hal_dac.c ****       This function takes as parameters the HAL peripheral handle, the Callback ID
 280:Drivers/STM32G4xx_HAL_Driver/Src/stm32g4xx_hal_dac.c ****       and a pointer to the user callback function.
 281:Drivers/STM32G4xx_HAL_Driver/Src/stm32g4xx_hal_dac.c **** 
 282:Drivers/STM32G4xx_HAL_Driver/Src/stm32g4xx_hal_dac.c ****     Use function @ref HAL_DAC_UnRegisterCallback() to reset a callback to the default
 283:Drivers/STM32G4xx_HAL_Driver/Src/stm32g4xx_hal_dac.c ****       weak (surcharged) function. It allows to reset following callbacks:
 284:Drivers/STM32G4xx_HAL_Driver/Src/stm32g4xx_hal_dac.c ****       (+) ConvCpltCallbackCh1     : callback when a half transfer is completed on Ch1.
 285:Drivers/STM32G4xx_HAL_Driver/Src/stm32g4xx_hal_dac.c ****       (+) ConvHalfCpltCallbackCh1 : callback when a transfer is completed on Ch1.
 286:Drivers/STM32G4xx_HAL_Driver/Src/stm32g4xx_hal_dac.c ****       (+) ErrorCallbackCh1        : callback when an error occurs on Ch1.
 287:Drivers/STM32G4xx_HAL_Driver/Src/stm32g4xx_hal_dac.c ****       (+) DMAUnderrunCallbackCh1  : callback when an underrun error occurs on Ch1.
 288:Drivers/STM32G4xx_HAL_Driver/Src/stm32g4xx_hal_dac.c ****       (+) ConvCpltCallbackCh2     : callback when a half transfer is completed on Ch2.
 289:Drivers/STM32G4xx_HAL_Driver/Src/stm32g4xx_hal_dac.c ****       (+) ConvHalfCpltCallbackCh2 : callback when a transfer is completed on Ch2.
 290:Drivers/STM32G4xx_HAL_Driver/Src/stm32g4xx_hal_dac.c ****       (+) ErrorCallbackCh2        : callback when an error occurs on Ch2.
 291:Drivers/STM32G4xx_HAL_Driver/Src/stm32g4xx_hal_dac.c ****       (+) DMAUnderrunCallbackCh2  : callback when an underrun error occurs on Ch2.
 292:Drivers/STM32G4xx_HAL_Driver/Src/stm32g4xx_hal_dac.c ****       (+) MspInitCallback         : DAC MspInit.
 293:Drivers/STM32G4xx_HAL_Driver/Src/stm32g4xx_hal_dac.c ****       (+) MspDeInitCallback       : DAC MspdeInit.
 294:Drivers/STM32G4xx_HAL_Driver/Src/stm32g4xx_hal_dac.c ****       (+) All Callbacks
 295:Drivers/STM32G4xx_HAL_Driver/Src/stm32g4xx_hal_dac.c ****       This function) takes as parameters the HAL peripheral handle and the Callback ID.
 296:Drivers/STM32G4xx_HAL_Driver/Src/stm32g4xx_hal_dac.c **** 
 297:Drivers/STM32G4xx_HAL_Driver/Src/stm32g4xx_hal_dac.c ****       By default, after the @ref HAL_DAC_Init and if the state is HAL_DAC_STATE_RESET
 298:Drivers/STM32G4xx_HAL_Driver/Src/stm32g4xx_hal_dac.c ****       all callbacks are reset to the corresponding legacy weak (surcharged) functions.
 299:Drivers/STM32G4xx_HAL_Driver/Src/stm32g4xx_hal_dac.c ****       Exception done for MspInit and MspDeInit callbacks that are respectively
 300:Drivers/STM32G4xx_HAL_Driver/Src/stm32g4xx_hal_dac.c ****       reset to the legacy weak (surcharged) functions in the @ref HAL_DAC_Init
 301:Drivers/STM32G4xx_HAL_Driver/Src/stm32g4xx_hal_dac.c ****       and @ref  HAL_DAC_DeInit only when these callbacks are null (not registered beforehand).
 302:Drivers/STM32G4xx_HAL_Driver/Src/stm32g4xx_hal_dac.c ****       If not, MspInit or MspDeInit are not null, the @ref HAL_DAC_Init and @ref HAL_DAC_DeInit
 303:Drivers/STM32G4xx_HAL_Driver/Src/stm32g4xx_hal_dac.c ****       keep and use the user MspInit/MspDeInit callbacks (registered beforehand)
 304:Drivers/STM32G4xx_HAL_Driver/Src/stm32g4xx_hal_dac.c **** 
 305:Drivers/STM32G4xx_HAL_Driver/Src/stm32g4xx_hal_dac.c ****       Callbacks can be registered/unregistered in READY state only.
 306:Drivers/STM32G4xx_HAL_Driver/Src/stm32g4xx_hal_dac.c ****       Exception done for MspInit/MspDeInit callbacks that can be registered/unregistered
 307:Drivers/STM32G4xx_HAL_Driver/Src/stm32g4xx_hal_dac.c ****       in READY or RESET state, thus registered (user) MspInit/DeInit callbacks can be used
 308:Drivers/STM32G4xx_HAL_Driver/Src/stm32g4xx_hal_dac.c ****       during the Init/DeInit.
 309:Drivers/STM32G4xx_HAL_Driver/Src/stm32g4xx_hal_dac.c ****       In that case first register the MspInit/MspDeInit user callbacks
 310:Drivers/STM32G4xx_HAL_Driver/Src/stm32g4xx_hal_dac.c ****       using @ref HAL_DAC_RegisterCallback before calling @ref HAL_DAC_DeInit
 311:Drivers/STM32G4xx_HAL_Driver/Src/stm32g4xx_hal_dac.c ****       or @ref HAL_DAC_Init function.
 312:Drivers/STM32G4xx_HAL_Driver/Src/stm32g4xx_hal_dac.c **** 
 313:Drivers/STM32G4xx_HAL_Driver/Src/stm32g4xx_hal_dac.c ****       When The compilation define USE_HAL_DAC_REGISTER_CALLBACKS is set to 0 or
 314:Drivers/STM32G4xx_HAL_Driver/Src/stm32g4xx_hal_dac.c ****       not defined, the callback registering feature is not available
ARM GAS  /tmp/ccpsplAO.s 			page 7


 315:Drivers/STM32G4xx_HAL_Driver/Src/stm32g4xx_hal_dac.c ****       and weak (surcharged) callbacks are used.
 316:Drivers/STM32G4xx_HAL_Driver/Src/stm32g4xx_hal_dac.c **** 
 317:Drivers/STM32G4xx_HAL_Driver/Src/stm32g4xx_hal_dac.c ****      *** DAC HAL driver macros list ***
 318:Drivers/STM32G4xx_HAL_Driver/Src/stm32g4xx_hal_dac.c ****      =============================================
 319:Drivers/STM32G4xx_HAL_Driver/Src/stm32g4xx_hal_dac.c ****      [..]
 320:Drivers/STM32G4xx_HAL_Driver/Src/stm32g4xx_hal_dac.c ****        Below the list of most used macros in DAC HAL driver.
 321:Drivers/STM32G4xx_HAL_Driver/Src/stm32g4xx_hal_dac.c **** 
 322:Drivers/STM32G4xx_HAL_Driver/Src/stm32g4xx_hal_dac.c ****       (+) __HAL_DAC_ENABLE : Enable the DAC peripheral
 323:Drivers/STM32G4xx_HAL_Driver/Src/stm32g4xx_hal_dac.c ****       (+) __HAL_DAC_DISABLE : Disable the DAC peripheral
 324:Drivers/STM32G4xx_HAL_Driver/Src/stm32g4xx_hal_dac.c ****       (+) __HAL_DAC_CLEAR_FLAG: Clear the DAC's pending flags
 325:Drivers/STM32G4xx_HAL_Driver/Src/stm32g4xx_hal_dac.c ****       (+) __HAL_DAC_GET_FLAG: Get the selected DAC's flag status
 326:Drivers/STM32G4xx_HAL_Driver/Src/stm32g4xx_hal_dac.c **** 
 327:Drivers/STM32G4xx_HAL_Driver/Src/stm32g4xx_hal_dac.c ****      [..]
 328:Drivers/STM32G4xx_HAL_Driver/Src/stm32g4xx_hal_dac.c ****       (@) You can refer to the DAC HAL driver header file for more useful macros
 329:Drivers/STM32G4xx_HAL_Driver/Src/stm32g4xx_hal_dac.c **** 
 330:Drivers/STM32G4xx_HAL_Driver/Src/stm32g4xx_hal_dac.c ****  @endverbatim
 331:Drivers/STM32G4xx_HAL_Driver/Src/stm32g4xx_hal_dac.c ****   ******************************************************************************
 332:Drivers/STM32G4xx_HAL_Driver/Src/stm32g4xx_hal_dac.c ****   * @attention
 333:Drivers/STM32G4xx_HAL_Driver/Src/stm32g4xx_hal_dac.c ****   *
 334:Drivers/STM32G4xx_HAL_Driver/Src/stm32g4xx_hal_dac.c ****   * <h2><center>&copy; Copyright (c) 2019 STMicroelectronics.
 335:Drivers/STM32G4xx_HAL_Driver/Src/stm32g4xx_hal_dac.c ****   * All rights reserved.</center></h2>
 336:Drivers/STM32G4xx_HAL_Driver/Src/stm32g4xx_hal_dac.c ****   *
 337:Drivers/STM32G4xx_HAL_Driver/Src/stm32g4xx_hal_dac.c ****   * This software component is licensed by ST under BSD 3-Clause license,
 338:Drivers/STM32G4xx_HAL_Driver/Src/stm32g4xx_hal_dac.c ****   * the "License"; You may not use this file except in compliance with the
 339:Drivers/STM32G4xx_HAL_Driver/Src/stm32g4xx_hal_dac.c ****   * License. You may obtain a copy of the License at:
 340:Drivers/STM32G4xx_HAL_Driver/Src/stm32g4xx_hal_dac.c ****   *                        opensource.org/licenses/BSD-3-Clause
 341:Drivers/STM32G4xx_HAL_Driver/Src/stm32g4xx_hal_dac.c ****   *
 342:Drivers/STM32G4xx_HAL_Driver/Src/stm32g4xx_hal_dac.c ****   ******************************************************************************
 343:Drivers/STM32G4xx_HAL_Driver/Src/stm32g4xx_hal_dac.c ****   */
 344:Drivers/STM32G4xx_HAL_Driver/Src/stm32g4xx_hal_dac.c **** 
 345:Drivers/STM32G4xx_HAL_Driver/Src/stm32g4xx_hal_dac.c **** /* Includes ------------------------------------------------------------------*/
 346:Drivers/STM32G4xx_HAL_Driver/Src/stm32g4xx_hal_dac.c **** #include "stm32g4xx_hal.h"
 347:Drivers/STM32G4xx_HAL_Driver/Src/stm32g4xx_hal_dac.c **** 
 348:Drivers/STM32G4xx_HAL_Driver/Src/stm32g4xx_hal_dac.c **** /** @addtogroup STM32G4xx_HAL_Driver
 349:Drivers/STM32G4xx_HAL_Driver/Src/stm32g4xx_hal_dac.c ****   * @{
 350:Drivers/STM32G4xx_HAL_Driver/Src/stm32g4xx_hal_dac.c ****   */
 351:Drivers/STM32G4xx_HAL_Driver/Src/stm32g4xx_hal_dac.c **** 
 352:Drivers/STM32G4xx_HAL_Driver/Src/stm32g4xx_hal_dac.c **** #ifdef HAL_DAC_MODULE_ENABLED
 353:Drivers/STM32G4xx_HAL_Driver/Src/stm32g4xx_hal_dac.c **** #if defined(DAC1) || defined(DAC2) || defined(DAC3) ||defined (DAC4)
 354:Drivers/STM32G4xx_HAL_Driver/Src/stm32g4xx_hal_dac.c **** 
 355:Drivers/STM32G4xx_HAL_Driver/Src/stm32g4xx_hal_dac.c **** /** @defgroup DAC DAC
 356:Drivers/STM32G4xx_HAL_Driver/Src/stm32g4xx_hal_dac.c ****   * @brief DAC driver modules
 357:Drivers/STM32G4xx_HAL_Driver/Src/stm32g4xx_hal_dac.c ****   * @{
 358:Drivers/STM32G4xx_HAL_Driver/Src/stm32g4xx_hal_dac.c ****   */
 359:Drivers/STM32G4xx_HAL_Driver/Src/stm32g4xx_hal_dac.c **** 
 360:Drivers/STM32G4xx_HAL_Driver/Src/stm32g4xx_hal_dac.c **** /* Private typedef -----------------------------------------------------------*/
 361:Drivers/STM32G4xx_HAL_Driver/Src/stm32g4xx_hal_dac.c **** /* Private define ------------------------------------------------------------*/
 362:Drivers/STM32G4xx_HAL_Driver/Src/stm32g4xx_hal_dac.c **** /* Private constants ---------------------------------------------------------*/
 363:Drivers/STM32G4xx_HAL_Driver/Src/stm32g4xx_hal_dac.c **** /** @addtogroup DAC_Private_Constants DAC Private Constants
 364:Drivers/STM32G4xx_HAL_Driver/Src/stm32g4xx_hal_dac.c ****   * @{
 365:Drivers/STM32G4xx_HAL_Driver/Src/stm32g4xx_hal_dac.c ****   */
 366:Drivers/STM32G4xx_HAL_Driver/Src/stm32g4xx_hal_dac.c **** #define TIMEOUT_DAC_CALIBCONFIG        1U         /* 1   ms        */
 367:Drivers/STM32G4xx_HAL_Driver/Src/stm32g4xx_hal_dac.c **** #define HFSEL_ENABLE_THRESHOLD_80MHZ   80000000U  /* 80 MHz        */
 368:Drivers/STM32G4xx_HAL_Driver/Src/stm32g4xx_hal_dac.c **** #define HFSEL_ENABLE_THRESHOLD_160MHZ  160000000U /* 160 MHz       */
 369:Drivers/STM32G4xx_HAL_Driver/Src/stm32g4xx_hal_dac.c **** 
 370:Drivers/STM32G4xx_HAL_Driver/Src/stm32g4xx_hal_dac.c **** /**
 371:Drivers/STM32G4xx_HAL_Driver/Src/stm32g4xx_hal_dac.c ****   * @}
ARM GAS  /tmp/ccpsplAO.s 			page 8


 372:Drivers/STM32G4xx_HAL_Driver/Src/stm32g4xx_hal_dac.c ****   */
 373:Drivers/STM32G4xx_HAL_Driver/Src/stm32g4xx_hal_dac.c **** 
 374:Drivers/STM32G4xx_HAL_Driver/Src/stm32g4xx_hal_dac.c **** /* Private macro -------------------------------------------------------------*/
 375:Drivers/STM32G4xx_HAL_Driver/Src/stm32g4xx_hal_dac.c **** /* Private variables ---------------------------------------------------------*/
 376:Drivers/STM32G4xx_HAL_Driver/Src/stm32g4xx_hal_dac.c **** /* Private function prototypes -----------------------------------------------*/
 377:Drivers/STM32G4xx_HAL_Driver/Src/stm32g4xx_hal_dac.c **** /* Exported functions -------------------------------------------------------*/
 378:Drivers/STM32G4xx_HAL_Driver/Src/stm32g4xx_hal_dac.c **** 
 379:Drivers/STM32G4xx_HAL_Driver/Src/stm32g4xx_hal_dac.c **** /** @defgroup DAC_Exported_Functions DAC Exported Functions
 380:Drivers/STM32G4xx_HAL_Driver/Src/stm32g4xx_hal_dac.c ****   * @{
 381:Drivers/STM32G4xx_HAL_Driver/Src/stm32g4xx_hal_dac.c ****   */
 382:Drivers/STM32G4xx_HAL_Driver/Src/stm32g4xx_hal_dac.c **** 
 383:Drivers/STM32G4xx_HAL_Driver/Src/stm32g4xx_hal_dac.c **** /** @defgroup DAC_Exported_Functions_Group1 Initialization and de-initialization functions
 384:Drivers/STM32G4xx_HAL_Driver/Src/stm32g4xx_hal_dac.c ****   *  @brief    Initialization and Configuration functions
 385:Drivers/STM32G4xx_HAL_Driver/Src/stm32g4xx_hal_dac.c ****   *
 386:Drivers/STM32G4xx_HAL_Driver/Src/stm32g4xx_hal_dac.c **** @verbatim
 387:Drivers/STM32G4xx_HAL_Driver/Src/stm32g4xx_hal_dac.c ****   ==============================================================================
 388:Drivers/STM32G4xx_HAL_Driver/Src/stm32g4xx_hal_dac.c ****               ##### Initialization and de-initialization functions #####
 389:Drivers/STM32G4xx_HAL_Driver/Src/stm32g4xx_hal_dac.c ****   ==============================================================================
 390:Drivers/STM32G4xx_HAL_Driver/Src/stm32g4xx_hal_dac.c ****     [..]  This section provides functions allowing to:
 391:Drivers/STM32G4xx_HAL_Driver/Src/stm32g4xx_hal_dac.c ****       (+) Initialize and configure the DAC.
 392:Drivers/STM32G4xx_HAL_Driver/Src/stm32g4xx_hal_dac.c ****       (+) De-initialize the DAC.
 393:Drivers/STM32G4xx_HAL_Driver/Src/stm32g4xx_hal_dac.c **** 
 394:Drivers/STM32G4xx_HAL_Driver/Src/stm32g4xx_hal_dac.c **** @endverbatim
 395:Drivers/STM32G4xx_HAL_Driver/Src/stm32g4xx_hal_dac.c ****   * @{
 396:Drivers/STM32G4xx_HAL_Driver/Src/stm32g4xx_hal_dac.c ****   */
 397:Drivers/STM32G4xx_HAL_Driver/Src/stm32g4xx_hal_dac.c **** 
 398:Drivers/STM32G4xx_HAL_Driver/Src/stm32g4xx_hal_dac.c **** /**
 399:Drivers/STM32G4xx_HAL_Driver/Src/stm32g4xx_hal_dac.c ****   * @brief  Initialize the DAC peripheral according to the specified parameters
 400:Drivers/STM32G4xx_HAL_Driver/Src/stm32g4xx_hal_dac.c ****   *         in the DAC_InitStruct and initialize the associated handle.
 401:Drivers/STM32G4xx_HAL_Driver/Src/stm32g4xx_hal_dac.c ****   * @param  hdac pointer to a DAC_HandleTypeDef structure that contains
 402:Drivers/STM32G4xx_HAL_Driver/Src/stm32g4xx_hal_dac.c ****   *         the configuration information for the specified DAC.
 403:Drivers/STM32G4xx_HAL_Driver/Src/stm32g4xx_hal_dac.c ****   * @retval HAL status
 404:Drivers/STM32G4xx_HAL_Driver/Src/stm32g4xx_hal_dac.c ****   */
 405:Drivers/STM32G4xx_HAL_Driver/Src/stm32g4xx_hal_dac.c **** HAL_StatusTypeDef HAL_DAC_Init(DAC_HandleTypeDef *hdac)
 406:Drivers/STM32G4xx_HAL_Driver/Src/stm32g4xx_hal_dac.c **** {
 407:Drivers/STM32G4xx_HAL_Driver/Src/stm32g4xx_hal_dac.c ****   /* Check DAC handle */
 408:Drivers/STM32G4xx_HAL_Driver/Src/stm32g4xx_hal_dac.c ****   if (hdac == NULL)
 409:Drivers/STM32G4xx_HAL_Driver/Src/stm32g4xx_hal_dac.c ****   {
 410:Drivers/STM32G4xx_HAL_Driver/Src/stm32g4xx_hal_dac.c ****     return HAL_ERROR;
 411:Drivers/STM32G4xx_HAL_Driver/Src/stm32g4xx_hal_dac.c ****   }
 412:Drivers/STM32G4xx_HAL_Driver/Src/stm32g4xx_hal_dac.c ****   /* Check the parameters */
 413:Drivers/STM32G4xx_HAL_Driver/Src/stm32g4xx_hal_dac.c ****   assert_param(IS_DAC_ALL_INSTANCE(hdac->Instance));
 414:Drivers/STM32G4xx_HAL_Driver/Src/stm32g4xx_hal_dac.c **** 
 415:Drivers/STM32G4xx_HAL_Driver/Src/stm32g4xx_hal_dac.c ****   if (hdac->State == HAL_DAC_STATE_RESET)
 416:Drivers/STM32G4xx_HAL_Driver/Src/stm32g4xx_hal_dac.c ****   {
 417:Drivers/STM32G4xx_HAL_Driver/Src/stm32g4xx_hal_dac.c **** #if (USE_HAL_DAC_REGISTER_CALLBACKS == 1)
 418:Drivers/STM32G4xx_HAL_Driver/Src/stm32g4xx_hal_dac.c ****     /* Init the DAC Callback settings */
 419:Drivers/STM32G4xx_HAL_Driver/Src/stm32g4xx_hal_dac.c ****     hdac->ConvCpltCallbackCh1           = HAL_DAC_ConvCpltCallbackCh1;
 420:Drivers/STM32G4xx_HAL_Driver/Src/stm32g4xx_hal_dac.c ****     hdac->ConvHalfCpltCallbackCh1       = HAL_DAC_ConvHalfCpltCallbackCh1;
 421:Drivers/STM32G4xx_HAL_Driver/Src/stm32g4xx_hal_dac.c ****     hdac->ErrorCallbackCh1              = HAL_DAC_ErrorCallbackCh1;
 422:Drivers/STM32G4xx_HAL_Driver/Src/stm32g4xx_hal_dac.c ****     hdac->DMAUnderrunCallbackCh1        = HAL_DAC_DMAUnderrunCallbackCh1;
 423:Drivers/STM32G4xx_HAL_Driver/Src/stm32g4xx_hal_dac.c **** 
 424:Drivers/STM32G4xx_HAL_Driver/Src/stm32g4xx_hal_dac.c ****     hdac->ConvCpltCallbackCh2           = HAL_DACEx_ConvCpltCallbackCh2;
 425:Drivers/STM32G4xx_HAL_Driver/Src/stm32g4xx_hal_dac.c ****     hdac->ConvHalfCpltCallbackCh2       = HAL_DACEx_ConvHalfCpltCallbackCh2;
 426:Drivers/STM32G4xx_HAL_Driver/Src/stm32g4xx_hal_dac.c ****     hdac->ErrorCallbackCh2              = HAL_DACEx_ErrorCallbackCh2;
 427:Drivers/STM32G4xx_HAL_Driver/Src/stm32g4xx_hal_dac.c ****     hdac->DMAUnderrunCallbackCh2        = HAL_DACEx_DMAUnderrunCallbackCh2;
 428:Drivers/STM32G4xx_HAL_Driver/Src/stm32g4xx_hal_dac.c **** 
ARM GAS  /tmp/ccpsplAO.s 			page 9


 429:Drivers/STM32G4xx_HAL_Driver/Src/stm32g4xx_hal_dac.c ****     if (hdac->MspInitCallback == NULL)
 430:Drivers/STM32G4xx_HAL_Driver/Src/stm32g4xx_hal_dac.c ****     {
 431:Drivers/STM32G4xx_HAL_Driver/Src/stm32g4xx_hal_dac.c ****       hdac->MspInitCallback             = HAL_DAC_MspInit;
 432:Drivers/STM32G4xx_HAL_Driver/Src/stm32g4xx_hal_dac.c ****     }
 433:Drivers/STM32G4xx_HAL_Driver/Src/stm32g4xx_hal_dac.c **** #endif /* USE_HAL_DAC_REGISTER_CALLBACKS */
 434:Drivers/STM32G4xx_HAL_Driver/Src/stm32g4xx_hal_dac.c **** 
 435:Drivers/STM32G4xx_HAL_Driver/Src/stm32g4xx_hal_dac.c ****     /* Allocate lock resource and initialize it */
 436:Drivers/STM32G4xx_HAL_Driver/Src/stm32g4xx_hal_dac.c ****     hdac->Lock = HAL_UNLOCKED;
 437:Drivers/STM32G4xx_HAL_Driver/Src/stm32g4xx_hal_dac.c **** 
 438:Drivers/STM32G4xx_HAL_Driver/Src/stm32g4xx_hal_dac.c **** #if (USE_HAL_DAC_REGISTER_CALLBACKS == 1)
 439:Drivers/STM32G4xx_HAL_Driver/Src/stm32g4xx_hal_dac.c ****     /* Init the low level hardware */
 440:Drivers/STM32G4xx_HAL_Driver/Src/stm32g4xx_hal_dac.c ****     hdac->MspInitCallback(hdac);
 441:Drivers/STM32G4xx_HAL_Driver/Src/stm32g4xx_hal_dac.c **** #else
 442:Drivers/STM32G4xx_HAL_Driver/Src/stm32g4xx_hal_dac.c ****     /* Init the low level hardware */
 443:Drivers/STM32G4xx_HAL_Driver/Src/stm32g4xx_hal_dac.c ****     HAL_DAC_MspInit(hdac);
 444:Drivers/STM32G4xx_HAL_Driver/Src/stm32g4xx_hal_dac.c **** #endif /* USE_HAL_DAC_REGISTER_CALLBACKS */
 445:Drivers/STM32G4xx_HAL_Driver/Src/stm32g4xx_hal_dac.c ****   }
 446:Drivers/STM32G4xx_HAL_Driver/Src/stm32g4xx_hal_dac.c **** 
 447:Drivers/STM32G4xx_HAL_Driver/Src/stm32g4xx_hal_dac.c ****   /* Initialize the DAC state*/
 448:Drivers/STM32G4xx_HAL_Driver/Src/stm32g4xx_hal_dac.c ****   hdac->State = HAL_DAC_STATE_BUSY;
 449:Drivers/STM32G4xx_HAL_Driver/Src/stm32g4xx_hal_dac.c **** 
 450:Drivers/STM32G4xx_HAL_Driver/Src/stm32g4xx_hal_dac.c ****   /* Set DAC error code to none */
 451:Drivers/STM32G4xx_HAL_Driver/Src/stm32g4xx_hal_dac.c ****   hdac->ErrorCode = HAL_DAC_ERROR_NONE;
 452:Drivers/STM32G4xx_HAL_Driver/Src/stm32g4xx_hal_dac.c **** 
 453:Drivers/STM32G4xx_HAL_Driver/Src/stm32g4xx_hal_dac.c ****   /* Initialize the DAC state*/
 454:Drivers/STM32G4xx_HAL_Driver/Src/stm32g4xx_hal_dac.c ****   hdac->State = HAL_DAC_STATE_READY;
 455:Drivers/STM32G4xx_HAL_Driver/Src/stm32g4xx_hal_dac.c **** 
 456:Drivers/STM32G4xx_HAL_Driver/Src/stm32g4xx_hal_dac.c ****   /* Return function status */
 457:Drivers/STM32G4xx_HAL_Driver/Src/stm32g4xx_hal_dac.c ****   return HAL_OK;
 458:Drivers/STM32G4xx_HAL_Driver/Src/stm32g4xx_hal_dac.c **** }
 459:Drivers/STM32G4xx_HAL_Driver/Src/stm32g4xx_hal_dac.c **** 
 460:Drivers/STM32G4xx_HAL_Driver/Src/stm32g4xx_hal_dac.c **** /**
 461:Drivers/STM32G4xx_HAL_Driver/Src/stm32g4xx_hal_dac.c ****   * @brief  Deinitialize the DAC peripheral registers to their default reset values.
 462:Drivers/STM32G4xx_HAL_Driver/Src/stm32g4xx_hal_dac.c ****   * @param  hdac pointer to a DAC_HandleTypeDef structure that contains
 463:Drivers/STM32G4xx_HAL_Driver/Src/stm32g4xx_hal_dac.c ****   *         the configuration information for the specified DAC.
 464:Drivers/STM32G4xx_HAL_Driver/Src/stm32g4xx_hal_dac.c ****   * @retval HAL status
 465:Drivers/STM32G4xx_HAL_Driver/Src/stm32g4xx_hal_dac.c ****   */
 466:Drivers/STM32G4xx_HAL_Driver/Src/stm32g4xx_hal_dac.c **** HAL_StatusTypeDef HAL_DAC_DeInit(DAC_HandleTypeDef *hdac)
 467:Drivers/STM32G4xx_HAL_Driver/Src/stm32g4xx_hal_dac.c **** {
 468:Drivers/STM32G4xx_HAL_Driver/Src/stm32g4xx_hal_dac.c ****   /* Check DAC handle */
 469:Drivers/STM32G4xx_HAL_Driver/Src/stm32g4xx_hal_dac.c ****   if (hdac == NULL)
 470:Drivers/STM32G4xx_HAL_Driver/Src/stm32g4xx_hal_dac.c ****   {
 471:Drivers/STM32G4xx_HAL_Driver/Src/stm32g4xx_hal_dac.c ****     return HAL_ERROR;
 472:Drivers/STM32G4xx_HAL_Driver/Src/stm32g4xx_hal_dac.c ****   }
 473:Drivers/STM32G4xx_HAL_Driver/Src/stm32g4xx_hal_dac.c **** 
 474:Drivers/STM32G4xx_HAL_Driver/Src/stm32g4xx_hal_dac.c ****   /* Check the parameters */
 475:Drivers/STM32G4xx_HAL_Driver/Src/stm32g4xx_hal_dac.c ****   assert_param(IS_DAC_ALL_INSTANCE(hdac->Instance));
 476:Drivers/STM32G4xx_HAL_Driver/Src/stm32g4xx_hal_dac.c **** 
 477:Drivers/STM32G4xx_HAL_Driver/Src/stm32g4xx_hal_dac.c ****   /* Change DAC state */
 478:Drivers/STM32G4xx_HAL_Driver/Src/stm32g4xx_hal_dac.c ****   hdac->State = HAL_DAC_STATE_BUSY;
 479:Drivers/STM32G4xx_HAL_Driver/Src/stm32g4xx_hal_dac.c **** 
 480:Drivers/STM32G4xx_HAL_Driver/Src/stm32g4xx_hal_dac.c **** #if (USE_HAL_DAC_REGISTER_CALLBACKS == 1)
 481:Drivers/STM32G4xx_HAL_Driver/Src/stm32g4xx_hal_dac.c ****   if (hdac->MspDeInitCallback == NULL)
 482:Drivers/STM32G4xx_HAL_Driver/Src/stm32g4xx_hal_dac.c ****   {
 483:Drivers/STM32G4xx_HAL_Driver/Src/stm32g4xx_hal_dac.c ****     hdac->MspDeInitCallback = HAL_DAC_MspDeInit;
 484:Drivers/STM32G4xx_HAL_Driver/Src/stm32g4xx_hal_dac.c ****   }
 485:Drivers/STM32G4xx_HAL_Driver/Src/stm32g4xx_hal_dac.c ****   /* DeInit the low level hardware */
ARM GAS  /tmp/ccpsplAO.s 			page 10


 486:Drivers/STM32G4xx_HAL_Driver/Src/stm32g4xx_hal_dac.c ****   hdac->MspDeInitCallback(hdac);
 487:Drivers/STM32G4xx_HAL_Driver/Src/stm32g4xx_hal_dac.c **** #else
 488:Drivers/STM32G4xx_HAL_Driver/Src/stm32g4xx_hal_dac.c ****   /* DeInit the low level hardware */
 489:Drivers/STM32G4xx_HAL_Driver/Src/stm32g4xx_hal_dac.c ****   HAL_DAC_MspDeInit(hdac);
 490:Drivers/STM32G4xx_HAL_Driver/Src/stm32g4xx_hal_dac.c **** #endif /* USE_HAL_DAC_REGISTER_CALLBACKS */
 491:Drivers/STM32G4xx_HAL_Driver/Src/stm32g4xx_hal_dac.c **** 
 492:Drivers/STM32G4xx_HAL_Driver/Src/stm32g4xx_hal_dac.c ****   /* Set DAC error code to none */
 493:Drivers/STM32G4xx_HAL_Driver/Src/stm32g4xx_hal_dac.c ****   hdac->ErrorCode = HAL_DAC_ERROR_NONE;
 494:Drivers/STM32G4xx_HAL_Driver/Src/stm32g4xx_hal_dac.c **** 
 495:Drivers/STM32G4xx_HAL_Driver/Src/stm32g4xx_hal_dac.c ****   /* Change DAC state */
 496:Drivers/STM32G4xx_HAL_Driver/Src/stm32g4xx_hal_dac.c ****   hdac->State = HAL_DAC_STATE_RESET;
 497:Drivers/STM32G4xx_HAL_Driver/Src/stm32g4xx_hal_dac.c **** 
 498:Drivers/STM32G4xx_HAL_Driver/Src/stm32g4xx_hal_dac.c ****   /* Release Lock */
 499:Drivers/STM32G4xx_HAL_Driver/Src/stm32g4xx_hal_dac.c ****   __HAL_UNLOCK(hdac);
 500:Drivers/STM32G4xx_HAL_Driver/Src/stm32g4xx_hal_dac.c **** 
 501:Drivers/STM32G4xx_HAL_Driver/Src/stm32g4xx_hal_dac.c ****   /* Return function status */
 502:Drivers/STM32G4xx_HAL_Driver/Src/stm32g4xx_hal_dac.c ****   return HAL_OK;
 503:Drivers/STM32G4xx_HAL_Driver/Src/stm32g4xx_hal_dac.c **** }
 504:Drivers/STM32G4xx_HAL_Driver/Src/stm32g4xx_hal_dac.c **** 
 505:Drivers/STM32G4xx_HAL_Driver/Src/stm32g4xx_hal_dac.c **** /**
 506:Drivers/STM32G4xx_HAL_Driver/Src/stm32g4xx_hal_dac.c ****   * @brief  Initialize the DAC MSP.
 507:Drivers/STM32G4xx_HAL_Driver/Src/stm32g4xx_hal_dac.c ****   * @param  hdac pointer to a DAC_HandleTypeDef structure that contains
 508:Drivers/STM32G4xx_HAL_Driver/Src/stm32g4xx_hal_dac.c ****   *         the configuration information for the specified DAC.
 509:Drivers/STM32G4xx_HAL_Driver/Src/stm32g4xx_hal_dac.c ****   * @retval None
 510:Drivers/STM32G4xx_HAL_Driver/Src/stm32g4xx_hal_dac.c ****   */
 511:Drivers/STM32G4xx_HAL_Driver/Src/stm32g4xx_hal_dac.c **** __weak void HAL_DAC_MspInit(DAC_HandleTypeDef *hdac)
 512:Drivers/STM32G4xx_HAL_Driver/Src/stm32g4xx_hal_dac.c **** {
  30              		.loc 1 512 1 view -0
  31              		.cfi_startproc
  32              		@ args = 0, pretend = 0, frame = 0
  33              		@ frame_needed = 0, uses_anonymous_args = 0
  34              		@ link register save eliminated.
 513:Drivers/STM32G4xx_HAL_Driver/Src/stm32g4xx_hal_dac.c ****   /* Prevent unused argument(s) compilation warning */
 514:Drivers/STM32G4xx_HAL_Driver/Src/stm32g4xx_hal_dac.c ****   UNUSED(hdac);
  35              		.loc 1 514 3 view .LVU1
 515:Drivers/STM32G4xx_HAL_Driver/Src/stm32g4xx_hal_dac.c **** 
 516:Drivers/STM32G4xx_HAL_Driver/Src/stm32g4xx_hal_dac.c ****   /* NOTE : This function should not be modified, when the callback is needed,
 517:Drivers/STM32G4xx_HAL_Driver/Src/stm32g4xx_hal_dac.c ****             the HAL_DAC_MspInit could be implemented in the user file
 518:Drivers/STM32G4xx_HAL_Driver/Src/stm32g4xx_hal_dac.c ****    */
 519:Drivers/STM32G4xx_HAL_Driver/Src/stm32g4xx_hal_dac.c **** }
  36              		.loc 1 519 1 is_stmt 0 view .LVU2
  37 0000 7047     		bx	lr
  38              		.cfi_endproc
  39              	.LFE164:
  41              		.section	.text.HAL_DAC_Init,"ax",%progbits
  42              		.align	1
  43              		.global	HAL_DAC_Init
  44              		.syntax unified
  45              		.thumb
  46              		.thumb_func
  47              		.fpu fpv4-sp-d16
  49              	HAL_DAC_Init:
  50              	.LVL1:
  51              	.LFB162:
 406:Drivers/STM32G4xx_HAL_Driver/Src/stm32g4xx_hal_dac.c ****   /* Check DAC handle */
  52              		.loc 1 406 1 is_stmt 1 view -0
  53              		.cfi_startproc
ARM GAS  /tmp/ccpsplAO.s 			page 11


  54              		@ args = 0, pretend = 0, frame = 0
  55              		@ frame_needed = 0, uses_anonymous_args = 0
 408:Drivers/STM32G4xx_HAL_Driver/Src/stm32g4xx_hal_dac.c ****   {
  56              		.loc 1 408 3 view .LVU4
 408:Drivers/STM32G4xx_HAL_Driver/Src/stm32g4xx_hal_dac.c ****   {
  57              		.loc 1 408 6 is_stmt 0 view .LVU5
  58 0000 70B1     		cbz	r0, .L5
 406:Drivers/STM32G4xx_HAL_Driver/Src/stm32g4xx_hal_dac.c ****   /* Check DAC handle */
  59              		.loc 1 406 1 view .LVU6
  60 0002 10B5     		push	{r4, lr}
  61              	.LCFI0:
  62              		.cfi_def_cfa_offset 8
  63              		.cfi_offset 4, -8
  64              		.cfi_offset 14, -4
  65 0004 0446     		mov	r4, r0
 413:Drivers/STM32G4xx_HAL_Driver/Src/stm32g4xx_hal_dac.c **** 
  66              		.loc 1 413 3 is_stmt 1 view .LVU7
 415:Drivers/STM32G4xx_HAL_Driver/Src/stm32g4xx_hal_dac.c ****   {
  67              		.loc 1 415 3 view .LVU8
 415:Drivers/STM32G4xx_HAL_Driver/Src/stm32g4xx_hal_dac.c ****   {
  68              		.loc 1 415 11 is_stmt 0 view .LVU9
  69 0006 0379     		ldrb	r3, [r0, #4]	@ zero_extendqisi2
 415:Drivers/STM32G4xx_HAL_Driver/Src/stm32g4xx_hal_dac.c ****   {
  70              		.loc 1 415 6 view .LVU10
  71 0008 33B1     		cbz	r3, .L10
  72              	.LVL2:
  73              	.L4:
 448:Drivers/STM32G4xx_HAL_Driver/Src/stm32g4xx_hal_dac.c **** 
  74              		.loc 1 448 3 is_stmt 1 view .LVU11
 448:Drivers/STM32G4xx_HAL_Driver/Src/stm32g4xx_hal_dac.c **** 
  75              		.loc 1 448 15 is_stmt 0 view .LVU12
  76 000a 0223     		movs	r3, #2
  77 000c 2371     		strb	r3, [r4, #4]
 451:Drivers/STM32G4xx_HAL_Driver/Src/stm32g4xx_hal_dac.c **** 
  78              		.loc 1 451 3 is_stmt 1 view .LVU13
 451:Drivers/STM32G4xx_HAL_Driver/Src/stm32g4xx_hal_dac.c **** 
  79              		.loc 1 451 19 is_stmt 0 view .LVU14
  80 000e 0020     		movs	r0, #0
  81 0010 2061     		str	r0, [r4, #16]
 454:Drivers/STM32G4xx_HAL_Driver/Src/stm32g4xx_hal_dac.c **** 
  82              		.loc 1 454 3 is_stmt 1 view .LVU15
 454:Drivers/STM32G4xx_HAL_Driver/Src/stm32g4xx_hal_dac.c **** 
  83              		.loc 1 454 15 is_stmt 0 view .LVU16
  84 0012 0123     		movs	r3, #1
  85 0014 2371     		strb	r3, [r4, #4]
 457:Drivers/STM32G4xx_HAL_Driver/Src/stm32g4xx_hal_dac.c **** }
  86              		.loc 1 457 3 is_stmt 1 view .LVU17
 458:Drivers/STM32G4xx_HAL_Driver/Src/stm32g4xx_hal_dac.c **** 
  87              		.loc 1 458 1 is_stmt 0 view .LVU18
  88 0016 10BD     		pop	{r4, pc}
  89              	.LVL3:
  90              	.L10:
 436:Drivers/STM32G4xx_HAL_Driver/Src/stm32g4xx_hal_dac.c **** 
  91              		.loc 1 436 5 is_stmt 1 view .LVU19
 436:Drivers/STM32G4xx_HAL_Driver/Src/stm32g4xx_hal_dac.c **** 
  92              		.loc 1 436 16 is_stmt 0 view .LVU20
  93 0018 4371     		strb	r3, [r0, #5]
ARM GAS  /tmp/ccpsplAO.s 			page 12


 443:Drivers/STM32G4xx_HAL_Driver/Src/stm32g4xx_hal_dac.c **** #endif /* USE_HAL_DAC_REGISTER_CALLBACKS */
  94              		.loc 1 443 5 is_stmt 1 view .LVU21
  95 001a FFF7FEFF 		bl	HAL_DAC_MspInit
  96              	.LVL4:
 443:Drivers/STM32G4xx_HAL_Driver/Src/stm32g4xx_hal_dac.c **** #endif /* USE_HAL_DAC_REGISTER_CALLBACKS */
  97              		.loc 1 443 5 is_stmt 0 view .LVU22
  98 001e F4E7     		b	.L4
  99              	.LVL5:
 100              	.L5:
 101              	.LCFI1:
 102              		.cfi_def_cfa_offset 0
 103              		.cfi_restore 4
 104              		.cfi_restore 14
 410:Drivers/STM32G4xx_HAL_Driver/Src/stm32g4xx_hal_dac.c ****   }
 105              		.loc 1 410 12 view .LVU23
 106 0020 0120     		movs	r0, #1
 107              	.LVL6:
 458:Drivers/STM32G4xx_HAL_Driver/Src/stm32g4xx_hal_dac.c **** 
 108              		.loc 1 458 1 view .LVU24
 109 0022 7047     		bx	lr
 110              		.cfi_endproc
 111              	.LFE162:
 113              		.section	.text.HAL_DAC_MspDeInit,"ax",%progbits
 114              		.align	1
 115              		.weak	HAL_DAC_MspDeInit
 116              		.syntax unified
 117              		.thumb
 118              		.thumb_func
 119              		.fpu fpv4-sp-d16
 121              	HAL_DAC_MspDeInit:
 122              	.LVL7:
 123              	.LFB165:
 520:Drivers/STM32G4xx_HAL_Driver/Src/stm32g4xx_hal_dac.c **** 
 521:Drivers/STM32G4xx_HAL_Driver/Src/stm32g4xx_hal_dac.c **** /**
 522:Drivers/STM32G4xx_HAL_Driver/Src/stm32g4xx_hal_dac.c ****   * @brief  DeInitialize the DAC MSP.
 523:Drivers/STM32G4xx_HAL_Driver/Src/stm32g4xx_hal_dac.c ****   * @param  hdac pointer to a DAC_HandleTypeDef structure that contains
 524:Drivers/STM32G4xx_HAL_Driver/Src/stm32g4xx_hal_dac.c ****   *         the configuration information for the specified DAC.
 525:Drivers/STM32G4xx_HAL_Driver/Src/stm32g4xx_hal_dac.c ****   * @retval None
 526:Drivers/STM32G4xx_HAL_Driver/Src/stm32g4xx_hal_dac.c ****   */
 527:Drivers/STM32G4xx_HAL_Driver/Src/stm32g4xx_hal_dac.c **** __weak void HAL_DAC_MspDeInit(DAC_HandleTypeDef *hdac)
 528:Drivers/STM32G4xx_HAL_Driver/Src/stm32g4xx_hal_dac.c **** {
 124              		.loc 1 528 1 is_stmt 1 view -0
 125              		.cfi_startproc
 126              		@ args = 0, pretend = 0, frame = 0
 127              		@ frame_needed = 0, uses_anonymous_args = 0
 128              		@ link register save eliminated.
 529:Drivers/STM32G4xx_HAL_Driver/Src/stm32g4xx_hal_dac.c ****   /* Prevent unused argument(s) compilation warning */
 530:Drivers/STM32G4xx_HAL_Driver/Src/stm32g4xx_hal_dac.c ****   UNUSED(hdac);
 129              		.loc 1 530 3 view .LVU26
 531:Drivers/STM32G4xx_HAL_Driver/Src/stm32g4xx_hal_dac.c **** 
 532:Drivers/STM32G4xx_HAL_Driver/Src/stm32g4xx_hal_dac.c ****   /* NOTE : This function should not be modified, when the callback is needed,
 533:Drivers/STM32G4xx_HAL_Driver/Src/stm32g4xx_hal_dac.c ****             the HAL_DAC_MspDeInit could be implemented in the user file
 534:Drivers/STM32G4xx_HAL_Driver/Src/stm32g4xx_hal_dac.c ****    */
 535:Drivers/STM32G4xx_HAL_Driver/Src/stm32g4xx_hal_dac.c **** }
 130              		.loc 1 535 1 is_stmt 0 view .LVU27
 131 0000 7047     		bx	lr
 132              		.cfi_endproc
ARM GAS  /tmp/ccpsplAO.s 			page 13


 133              	.LFE165:
 135              		.section	.text.HAL_DAC_DeInit,"ax",%progbits
 136              		.align	1
 137              		.global	HAL_DAC_DeInit
 138              		.syntax unified
 139              		.thumb
 140              		.thumb_func
 141              		.fpu fpv4-sp-d16
 143              	HAL_DAC_DeInit:
 144              	.LVL8:
 145              	.LFB163:
 467:Drivers/STM32G4xx_HAL_Driver/Src/stm32g4xx_hal_dac.c ****   /* Check DAC handle */
 146              		.loc 1 467 1 is_stmt 1 view -0
 147              		.cfi_startproc
 148              		@ args = 0, pretend = 0, frame = 0
 149              		@ frame_needed = 0, uses_anonymous_args = 0
 469:Drivers/STM32G4xx_HAL_Driver/Src/stm32g4xx_hal_dac.c ****   {
 150              		.loc 1 469 3 view .LVU29
 469:Drivers/STM32G4xx_HAL_Driver/Src/stm32g4xx_hal_dac.c ****   {
 151              		.loc 1 469 6 is_stmt 0 view .LVU30
 152 0000 50B1     		cbz	r0, .L14
 467:Drivers/STM32G4xx_HAL_Driver/Src/stm32g4xx_hal_dac.c ****   /* Check DAC handle */
 153              		.loc 1 467 1 view .LVU31
 154 0002 10B5     		push	{r4, lr}
 155              	.LCFI2:
 156              		.cfi_def_cfa_offset 8
 157              		.cfi_offset 4, -8
 158              		.cfi_offset 14, -4
 159 0004 0446     		mov	r4, r0
 475:Drivers/STM32G4xx_HAL_Driver/Src/stm32g4xx_hal_dac.c **** 
 160              		.loc 1 475 3 is_stmt 1 view .LVU32
 478:Drivers/STM32G4xx_HAL_Driver/Src/stm32g4xx_hal_dac.c **** 
 161              		.loc 1 478 3 view .LVU33
 478:Drivers/STM32G4xx_HAL_Driver/Src/stm32g4xx_hal_dac.c **** 
 162              		.loc 1 478 15 is_stmt 0 view .LVU34
 163 0006 0223     		movs	r3, #2
 164 0008 0371     		strb	r3, [r0, #4]
 489:Drivers/STM32G4xx_HAL_Driver/Src/stm32g4xx_hal_dac.c **** #endif /* USE_HAL_DAC_REGISTER_CALLBACKS */
 165              		.loc 1 489 3 is_stmt 1 view .LVU35
 166 000a FFF7FEFF 		bl	HAL_DAC_MspDeInit
 167              	.LVL9:
 493:Drivers/STM32G4xx_HAL_Driver/Src/stm32g4xx_hal_dac.c **** 
 168              		.loc 1 493 3 view .LVU36
 493:Drivers/STM32G4xx_HAL_Driver/Src/stm32g4xx_hal_dac.c **** 
 169              		.loc 1 493 19 is_stmt 0 view .LVU37
 170 000e 0020     		movs	r0, #0
 171 0010 2061     		str	r0, [r4, #16]
 496:Drivers/STM32G4xx_HAL_Driver/Src/stm32g4xx_hal_dac.c **** 
 172              		.loc 1 496 3 is_stmt 1 view .LVU38
 496:Drivers/STM32G4xx_HAL_Driver/Src/stm32g4xx_hal_dac.c **** 
 173              		.loc 1 496 15 is_stmt 0 view .LVU39
 174 0012 2071     		strb	r0, [r4, #4]
 499:Drivers/STM32G4xx_HAL_Driver/Src/stm32g4xx_hal_dac.c **** 
 175              		.loc 1 499 3 is_stmt 1 view .LVU40
 499:Drivers/STM32G4xx_HAL_Driver/Src/stm32g4xx_hal_dac.c **** 
 176              		.loc 1 499 3 view .LVU41
 177 0014 6071     		strb	r0, [r4, #5]
ARM GAS  /tmp/ccpsplAO.s 			page 14


 499:Drivers/STM32G4xx_HAL_Driver/Src/stm32g4xx_hal_dac.c **** 
 178              		.loc 1 499 3 view .LVU42
 502:Drivers/STM32G4xx_HAL_Driver/Src/stm32g4xx_hal_dac.c **** }
 179              		.loc 1 502 3 view .LVU43
 503:Drivers/STM32G4xx_HAL_Driver/Src/stm32g4xx_hal_dac.c **** 
 180              		.loc 1 503 1 is_stmt 0 view .LVU44
 181 0016 10BD     		pop	{r4, pc}
 182              	.LVL10:
 183              	.L14:
 184              	.LCFI3:
 185              		.cfi_def_cfa_offset 0
 186              		.cfi_restore 4
 187              		.cfi_restore 14
 471:Drivers/STM32G4xx_HAL_Driver/Src/stm32g4xx_hal_dac.c ****   }
 188              		.loc 1 471 12 view .LVU45
 189 0018 0120     		movs	r0, #1
 190              	.LVL11:
 503:Drivers/STM32G4xx_HAL_Driver/Src/stm32g4xx_hal_dac.c **** 
 191              		.loc 1 503 1 view .LVU46
 192 001a 7047     		bx	lr
 193              		.cfi_endproc
 194              	.LFE163:
 196              		.section	.text.HAL_DAC_Start,"ax",%progbits
 197              		.align	1
 198              		.global	HAL_DAC_Start
 199              		.syntax unified
 200              		.thumb
 201              		.thumb_func
 202              		.fpu fpv4-sp-d16
 204              	HAL_DAC_Start:
 205              	.LVL12:
 206              	.LFB166:
 536:Drivers/STM32G4xx_HAL_Driver/Src/stm32g4xx_hal_dac.c **** 
 537:Drivers/STM32G4xx_HAL_Driver/Src/stm32g4xx_hal_dac.c **** /**
 538:Drivers/STM32G4xx_HAL_Driver/Src/stm32g4xx_hal_dac.c ****   * @}
 539:Drivers/STM32G4xx_HAL_Driver/Src/stm32g4xx_hal_dac.c ****   */
 540:Drivers/STM32G4xx_HAL_Driver/Src/stm32g4xx_hal_dac.c **** 
 541:Drivers/STM32G4xx_HAL_Driver/Src/stm32g4xx_hal_dac.c **** /** @defgroup DAC_Exported_Functions_Group2 IO operation functions
 542:Drivers/STM32G4xx_HAL_Driver/Src/stm32g4xx_hal_dac.c ****   *  @brief    IO operation functions
 543:Drivers/STM32G4xx_HAL_Driver/Src/stm32g4xx_hal_dac.c ****   *
 544:Drivers/STM32G4xx_HAL_Driver/Src/stm32g4xx_hal_dac.c **** @verbatim
 545:Drivers/STM32G4xx_HAL_Driver/Src/stm32g4xx_hal_dac.c ****   ==============================================================================
 546:Drivers/STM32G4xx_HAL_Driver/Src/stm32g4xx_hal_dac.c ****              ##### IO operation functions #####
 547:Drivers/STM32G4xx_HAL_Driver/Src/stm32g4xx_hal_dac.c ****   ==============================================================================
 548:Drivers/STM32G4xx_HAL_Driver/Src/stm32g4xx_hal_dac.c ****     [..]  This section provides functions allowing to:
 549:Drivers/STM32G4xx_HAL_Driver/Src/stm32g4xx_hal_dac.c ****       (+) Start conversion.
 550:Drivers/STM32G4xx_HAL_Driver/Src/stm32g4xx_hal_dac.c ****       (+) Stop conversion.
 551:Drivers/STM32G4xx_HAL_Driver/Src/stm32g4xx_hal_dac.c ****       (+) Start conversion and enable DMA transfer.
 552:Drivers/STM32G4xx_HAL_Driver/Src/stm32g4xx_hal_dac.c ****       (+) Stop conversion and disable DMA transfer.
 553:Drivers/STM32G4xx_HAL_Driver/Src/stm32g4xx_hal_dac.c ****       (+) Get result of conversion.
 554:Drivers/STM32G4xx_HAL_Driver/Src/stm32g4xx_hal_dac.c **** 
 555:Drivers/STM32G4xx_HAL_Driver/Src/stm32g4xx_hal_dac.c **** @endverbatim
 556:Drivers/STM32G4xx_HAL_Driver/Src/stm32g4xx_hal_dac.c ****   * @{
 557:Drivers/STM32G4xx_HAL_Driver/Src/stm32g4xx_hal_dac.c ****   */
 558:Drivers/STM32G4xx_HAL_Driver/Src/stm32g4xx_hal_dac.c **** 
 559:Drivers/STM32G4xx_HAL_Driver/Src/stm32g4xx_hal_dac.c **** /**
 560:Drivers/STM32G4xx_HAL_Driver/Src/stm32g4xx_hal_dac.c ****   * @brief  Enables DAC and starts conversion of channel.
ARM GAS  /tmp/ccpsplAO.s 			page 15


 561:Drivers/STM32G4xx_HAL_Driver/Src/stm32g4xx_hal_dac.c ****   * @param  hdac pointer to a DAC_HandleTypeDef structure that contains
 562:Drivers/STM32G4xx_HAL_Driver/Src/stm32g4xx_hal_dac.c ****   *         the configuration information for the specified DAC.
 563:Drivers/STM32G4xx_HAL_Driver/Src/stm32g4xx_hal_dac.c ****   * @param  Channel The selected DAC channel.
 564:Drivers/STM32G4xx_HAL_Driver/Src/stm32g4xx_hal_dac.c ****   *          This parameter can be one of the following values:
 565:Drivers/STM32G4xx_HAL_Driver/Src/stm32g4xx_hal_dac.c ****   *            @arg DAC_CHANNEL_1: DAC Channel1 selected
 566:Drivers/STM32G4xx_HAL_Driver/Src/stm32g4xx_hal_dac.c ****   *            @arg DAC_CHANNEL_2: DAC Channel2 selected (1)
 567:Drivers/STM32G4xx_HAL_Driver/Src/stm32g4xx_hal_dac.c ****   *
 568:Drivers/STM32G4xx_HAL_Driver/Src/stm32g4xx_hal_dac.c ****   *         (1) On this STM32 serie, parameter not available on all instances.
 569:Drivers/STM32G4xx_HAL_Driver/Src/stm32g4xx_hal_dac.c ****   *             Refer to device datasheet for channels availability.
 570:Drivers/STM32G4xx_HAL_Driver/Src/stm32g4xx_hal_dac.c ****   * @retval HAL status
 571:Drivers/STM32G4xx_HAL_Driver/Src/stm32g4xx_hal_dac.c ****   */
 572:Drivers/STM32G4xx_HAL_Driver/Src/stm32g4xx_hal_dac.c **** HAL_StatusTypeDef HAL_DAC_Start(DAC_HandleTypeDef *hdac, uint32_t Channel)
 573:Drivers/STM32G4xx_HAL_Driver/Src/stm32g4xx_hal_dac.c **** {
 207              		.loc 1 573 1 is_stmt 1 view -0
 208              		.cfi_startproc
 209              		@ args = 0, pretend = 0, frame = 0
 210              		@ frame_needed = 0, uses_anonymous_args = 0
 574:Drivers/STM32G4xx_HAL_Driver/Src/stm32g4xx_hal_dac.c ****   /* Check the parameters */
 575:Drivers/STM32G4xx_HAL_Driver/Src/stm32g4xx_hal_dac.c ****   assert_param(IS_DAC_CHANNEL(hdac->Instance, Channel));
 211              		.loc 1 575 3 view .LVU48
 576:Drivers/STM32G4xx_HAL_Driver/Src/stm32g4xx_hal_dac.c **** 
 577:Drivers/STM32G4xx_HAL_Driver/Src/stm32g4xx_hal_dac.c ****   /* Process locked */
 578:Drivers/STM32G4xx_HAL_Driver/Src/stm32g4xx_hal_dac.c ****   __HAL_LOCK(hdac);
 212              		.loc 1 578 3 view .LVU49
 213              		.loc 1 578 3 view .LVU50
 214 0000 4379     		ldrb	r3, [r0, #5]	@ zero_extendqisi2
 215 0002 012B     		cmp	r3, #1
 216 0004 2FD0     		beq	.L23
 573:Drivers/STM32G4xx_HAL_Driver/Src/stm32g4xx_hal_dac.c ****   /* Check the parameters */
 217              		.loc 1 573 1 is_stmt 0 discriminator 2 view .LVU51
 218 0006 70B5     		push	{r4, r5, r6, lr}
 219              	.LCFI4:
 220              		.cfi_def_cfa_offset 16
 221              		.cfi_offset 4, -16
 222              		.cfi_offset 5, -12
 223              		.cfi_offset 6, -8
 224              		.cfi_offset 14, -4
 225 0008 0446     		mov	r4, r0
 226 000a 0D46     		mov	r5, r1
 227              		.loc 1 578 3 is_stmt 1 discriminator 2 view .LVU52
 228 000c 0120     		movs	r0, #1
 229              	.LVL13:
 230              		.loc 1 578 3 is_stmt 0 discriminator 2 view .LVU53
 231 000e 6071     		strb	r0, [r4, #5]
 232              		.loc 1 578 3 is_stmt 1 discriminator 2 view .LVU54
 579:Drivers/STM32G4xx_HAL_Driver/Src/stm32g4xx_hal_dac.c **** 
 580:Drivers/STM32G4xx_HAL_Driver/Src/stm32g4xx_hal_dac.c ****   /* Change DAC state */
 581:Drivers/STM32G4xx_HAL_Driver/Src/stm32g4xx_hal_dac.c ****   hdac->State = HAL_DAC_STATE_BUSY;
 233              		.loc 1 581 3 discriminator 2 view .LVU55
 234              		.loc 1 581 15 is_stmt 0 discriminator 2 view .LVU56
 235 0010 0223     		movs	r3, #2
 236 0012 2371     		strb	r3, [r4, #4]
 582:Drivers/STM32G4xx_HAL_Driver/Src/stm32g4xx_hal_dac.c **** 
 583:Drivers/STM32G4xx_HAL_Driver/Src/stm32g4xx_hal_dac.c ****   /* Enable the Peripheral */
 584:Drivers/STM32G4xx_HAL_Driver/Src/stm32g4xx_hal_dac.c ****   __HAL_DAC_ENABLE(hdac, Channel);
 237              		.loc 1 584 3 is_stmt 1 discriminator 2 view .LVU57
 238 0014 2268     		ldr	r2, [r4]
ARM GAS  /tmp/ccpsplAO.s 			page 16


 239 0016 1368     		ldr	r3, [r2]
 240 0018 01F01006 		and	r6, r1, #16
 241 001c 00FA06F1 		lsl	r1, r0, r6
 242              	.LVL14:
 243              		.loc 1 584 3 is_stmt 0 discriminator 2 view .LVU58
 244 0020 0B43     		orrs	r3, r3, r1
 245 0022 1360     		str	r3, [r2]
 585:Drivers/STM32G4xx_HAL_Driver/Src/stm32g4xx_hal_dac.c ****   /* Ensure minimum wait before using peripheral after enabling it */
 586:Drivers/STM32G4xx_HAL_Driver/Src/stm32g4xx_hal_dac.c ****   HAL_Delay(1);
 246              		.loc 1 586 3 is_stmt 1 discriminator 2 view .LVU59
 247 0024 FFF7FEFF 		bl	HAL_Delay
 248              	.LVL15:
 587:Drivers/STM32G4xx_HAL_Driver/Src/stm32g4xx_hal_dac.c **** 
 588:Drivers/STM32G4xx_HAL_Driver/Src/stm32g4xx_hal_dac.c ****   if (Channel == DAC_CHANNEL_1)
 249              		.loc 1 588 3 discriminator 2 view .LVU60
 250              		.loc 1 588 6 is_stmt 0 discriminator 2 view .LVU61
 251 0028 7DB9     		cbnz	r5, .L21
 589:Drivers/STM32G4xx_HAL_Driver/Src/stm32g4xx_hal_dac.c ****   {
 590:Drivers/STM32G4xx_HAL_Driver/Src/stm32g4xx_hal_dac.c ****     /* Check if software trigger enabled */
 591:Drivers/STM32G4xx_HAL_Driver/Src/stm32g4xx_hal_dac.c ****     if ((hdac->Instance->CR & (DAC_CR_TEN1 | DAC_CR_TSEL1)) == DAC_TRIGGER_SOFTWARE)
 252              		.loc 1 591 5 is_stmt 1 view .LVU62
 253              		.loc 1 591 14 is_stmt 0 view .LVU63
 254 002a 2268     		ldr	r2, [r4]
 255              		.loc 1 591 24 view .LVU64
 256 002c 1368     		ldr	r3, [r2]
 257              		.loc 1 591 29 view .LVU65
 258 002e 03F03E03 		and	r3, r3, #62
 259              		.loc 1 591 8 view .LVU66
 260 0032 022B     		cmp	r3, #2
 261 0034 04D0     		beq	.L28
 262              	.L22:
 592:Drivers/STM32G4xx_HAL_Driver/Src/stm32g4xx_hal_dac.c ****     {
 593:Drivers/STM32G4xx_HAL_Driver/Src/stm32g4xx_hal_dac.c ****       /* Enable the selected DAC software conversion */
 594:Drivers/STM32G4xx_HAL_Driver/Src/stm32g4xx_hal_dac.c ****       SET_BIT(hdac->Instance->SWTRIGR, DAC_SWTRIGR_SWTRIG1);
 595:Drivers/STM32G4xx_HAL_Driver/Src/stm32g4xx_hal_dac.c ****     }
 596:Drivers/STM32G4xx_HAL_Driver/Src/stm32g4xx_hal_dac.c ****   }
 597:Drivers/STM32G4xx_HAL_Driver/Src/stm32g4xx_hal_dac.c ****   else
 598:Drivers/STM32G4xx_HAL_Driver/Src/stm32g4xx_hal_dac.c ****   {
 599:Drivers/STM32G4xx_HAL_Driver/Src/stm32g4xx_hal_dac.c ****     /* Check if software trigger enabled */
 600:Drivers/STM32G4xx_HAL_Driver/Src/stm32g4xx_hal_dac.c ****     if ((hdac->Instance->CR & (DAC_CR_TEN2 | DAC_CR_TSEL2)) == (DAC_TRIGGER_SOFTWARE << (Channel & 
 601:Drivers/STM32G4xx_HAL_Driver/Src/stm32g4xx_hal_dac.c ****     {
 602:Drivers/STM32G4xx_HAL_Driver/Src/stm32g4xx_hal_dac.c ****       /* Enable the selected DAC software conversion*/
 603:Drivers/STM32G4xx_HAL_Driver/Src/stm32g4xx_hal_dac.c ****       SET_BIT(hdac->Instance->SWTRIGR, DAC_SWTRIGR_SWTRIG2);
 604:Drivers/STM32G4xx_HAL_Driver/Src/stm32g4xx_hal_dac.c ****     }
 605:Drivers/STM32G4xx_HAL_Driver/Src/stm32g4xx_hal_dac.c ****   }
 606:Drivers/STM32G4xx_HAL_Driver/Src/stm32g4xx_hal_dac.c **** 
 607:Drivers/STM32G4xx_HAL_Driver/Src/stm32g4xx_hal_dac.c ****   /* Change DAC state */
 608:Drivers/STM32G4xx_HAL_Driver/Src/stm32g4xx_hal_dac.c ****   hdac->State = HAL_DAC_STATE_READY;
 263              		.loc 1 608 3 is_stmt 1 view .LVU67
 264              		.loc 1 608 15 is_stmt 0 view .LVU68
 265 0036 0123     		movs	r3, #1
 266 0038 2371     		strb	r3, [r4, #4]
 609:Drivers/STM32G4xx_HAL_Driver/Src/stm32g4xx_hal_dac.c **** 
 610:Drivers/STM32G4xx_HAL_Driver/Src/stm32g4xx_hal_dac.c ****   /* Process unlocked */
 611:Drivers/STM32G4xx_HAL_Driver/Src/stm32g4xx_hal_dac.c ****   __HAL_UNLOCK(hdac);
 267              		.loc 1 611 3 is_stmt 1 view .LVU69
 268              		.loc 1 611 3 view .LVU70
ARM GAS  /tmp/ccpsplAO.s 			page 17


 269 003a 0020     		movs	r0, #0
 270 003c 6071     		strb	r0, [r4, #5]
 271              		.loc 1 611 3 view .LVU71
 612:Drivers/STM32G4xx_HAL_Driver/Src/stm32g4xx_hal_dac.c **** 
 613:Drivers/STM32G4xx_HAL_Driver/Src/stm32g4xx_hal_dac.c ****   /* Return function status */
 614:Drivers/STM32G4xx_HAL_Driver/Src/stm32g4xx_hal_dac.c ****   return HAL_OK;
 272              		.loc 1 614 3 view .LVU72
 615:Drivers/STM32G4xx_HAL_Driver/Src/stm32g4xx_hal_dac.c **** }
 273              		.loc 1 615 1 is_stmt 0 view .LVU73
 274 003e 70BD     		pop	{r4, r5, r6, pc}
 275              	.LVL16:
 276              	.L28:
 594:Drivers/STM32G4xx_HAL_Driver/Src/stm32g4xx_hal_dac.c ****     }
 277              		.loc 1 594 7 is_stmt 1 view .LVU74
 278 0040 5368     		ldr	r3, [r2, #4]
 279 0042 43F00103 		orr	r3, r3, #1
 280 0046 5360     		str	r3, [r2, #4]
 281 0048 F5E7     		b	.L22
 282              	.L21:
 600:Drivers/STM32G4xx_HAL_Driver/Src/stm32g4xx_hal_dac.c ****     {
 283              		.loc 1 600 5 view .LVU75
 600:Drivers/STM32G4xx_HAL_Driver/Src/stm32g4xx_hal_dac.c ****     {
 284              		.loc 1 600 14 is_stmt 0 view .LVU76
 285 004a 2168     		ldr	r1, [r4]
 600:Drivers/STM32G4xx_HAL_Driver/Src/stm32g4xx_hal_dac.c ****     {
 286              		.loc 1 600 24 view .LVU77
 287 004c 0A68     		ldr	r2, [r1]
 600:Drivers/STM32G4xx_HAL_Driver/Src/stm32g4xx_hal_dac.c ****     {
 288              		.loc 1 600 29 view .LVU78
 289 004e 02F47812 		and	r2, r2, #4063232
 600:Drivers/STM32G4xx_HAL_Driver/Src/stm32g4xx_hal_dac.c ****     {
 290              		.loc 1 600 86 view .LVU79
 291 0052 0223     		movs	r3, #2
 292 0054 03FA06F6 		lsl	r6, r3, r6
 600:Drivers/STM32G4xx_HAL_Driver/Src/stm32g4xx_hal_dac.c ****     {
 293              		.loc 1 600 8 view .LVU80
 294 0058 B242     		cmp	r2, r6
 295 005a ECD1     		bne	.L22
 603:Drivers/STM32G4xx_HAL_Driver/Src/stm32g4xx_hal_dac.c ****     }
 296              		.loc 1 603 7 is_stmt 1 view .LVU81
 297 005c 4B68     		ldr	r3, [r1, #4]
 298 005e 43F00203 		orr	r3, r3, #2
 299 0062 4B60     		str	r3, [r1, #4]
 300 0064 E7E7     		b	.L22
 301              	.LVL17:
 302              	.L23:
 303              	.LCFI5:
 304              		.cfi_def_cfa_offset 0
 305              		.cfi_restore 4
 306              		.cfi_restore 5
 307              		.cfi_restore 6
 308              		.cfi_restore 14
 578:Drivers/STM32G4xx_HAL_Driver/Src/stm32g4xx_hal_dac.c **** 
 309              		.loc 1 578 3 is_stmt 0 view .LVU82
 310 0066 0220     		movs	r0, #2
 311              	.LVL18:
 312              		.loc 1 615 1 view .LVU83
ARM GAS  /tmp/ccpsplAO.s 			page 18


 313 0068 7047     		bx	lr
 314              		.cfi_endproc
 315              	.LFE166:
 317              		.section	.text.HAL_DAC_Stop,"ax",%progbits
 318              		.align	1
 319              		.global	HAL_DAC_Stop
 320              		.syntax unified
 321              		.thumb
 322              		.thumb_func
 323              		.fpu fpv4-sp-d16
 325              	HAL_DAC_Stop:
 326              	.LVL19:
 327              	.LFB167:
 616:Drivers/STM32G4xx_HAL_Driver/Src/stm32g4xx_hal_dac.c **** 
 617:Drivers/STM32G4xx_HAL_Driver/Src/stm32g4xx_hal_dac.c **** /**
 618:Drivers/STM32G4xx_HAL_Driver/Src/stm32g4xx_hal_dac.c ****   * @brief  Disables DAC and stop conversion of channel.
 619:Drivers/STM32G4xx_HAL_Driver/Src/stm32g4xx_hal_dac.c ****   * @param  hdac pointer to a DAC_HandleTypeDef structure that contains
 620:Drivers/STM32G4xx_HAL_Driver/Src/stm32g4xx_hal_dac.c ****   *         the configuration information for the specified DAC.
 621:Drivers/STM32G4xx_HAL_Driver/Src/stm32g4xx_hal_dac.c ****   * @param  Channel The selected DAC channel.
 622:Drivers/STM32G4xx_HAL_Driver/Src/stm32g4xx_hal_dac.c ****   *          This parameter can be one of the following values:
 623:Drivers/STM32G4xx_HAL_Driver/Src/stm32g4xx_hal_dac.c ****   *            @arg DAC_CHANNEL_1: DAC Channel1 selected
 624:Drivers/STM32G4xx_HAL_Driver/Src/stm32g4xx_hal_dac.c ****   *            @arg DAC_CHANNEL_2: DAC Channel2 selected (1)
 625:Drivers/STM32G4xx_HAL_Driver/Src/stm32g4xx_hal_dac.c ****   *
 626:Drivers/STM32G4xx_HAL_Driver/Src/stm32g4xx_hal_dac.c ****   *         (1) On this STM32 serie, parameter not available on all instances.
 627:Drivers/STM32G4xx_HAL_Driver/Src/stm32g4xx_hal_dac.c ****   *             Refer to device datasheet for channels availability.
 628:Drivers/STM32G4xx_HAL_Driver/Src/stm32g4xx_hal_dac.c ****   * @retval HAL status
 629:Drivers/STM32G4xx_HAL_Driver/Src/stm32g4xx_hal_dac.c ****   */
 630:Drivers/STM32G4xx_HAL_Driver/Src/stm32g4xx_hal_dac.c **** HAL_StatusTypeDef HAL_DAC_Stop(DAC_HandleTypeDef *hdac, uint32_t Channel)
 631:Drivers/STM32G4xx_HAL_Driver/Src/stm32g4xx_hal_dac.c **** {
 328              		.loc 1 631 1 is_stmt 1 view -0
 329              		.cfi_startproc
 330              		@ args = 0, pretend = 0, frame = 0
 331              		@ frame_needed = 0, uses_anonymous_args = 0
 332              		.loc 1 631 1 is_stmt 0 view .LVU85
 333 0000 38B5     		push	{r3, r4, r5, lr}
 334              	.LCFI6:
 335              		.cfi_def_cfa_offset 16
 336              		.cfi_offset 3, -16
 337              		.cfi_offset 4, -12
 338              		.cfi_offset 5, -8
 339              		.cfi_offset 14, -4
 340 0002 0446     		mov	r4, r0
 632:Drivers/STM32G4xx_HAL_Driver/Src/stm32g4xx_hal_dac.c ****   /* Check the parameters */
 633:Drivers/STM32G4xx_HAL_Driver/Src/stm32g4xx_hal_dac.c ****   assert_param(IS_DAC_CHANNEL(hdac->Instance, Channel));
 341              		.loc 1 633 3 is_stmt 1 view .LVU86
 634:Drivers/STM32G4xx_HAL_Driver/Src/stm32g4xx_hal_dac.c **** 
 635:Drivers/STM32G4xx_HAL_Driver/Src/stm32g4xx_hal_dac.c ****   /* Disable the Peripheral */
 636:Drivers/STM32G4xx_HAL_Driver/Src/stm32g4xx_hal_dac.c ****   __HAL_DAC_DISABLE(hdac, Channel);
 342              		.loc 1 636 3 view .LVU87
 343 0004 0268     		ldr	r2, [r0]
 344 0006 1368     		ldr	r3, [r2]
 345 0008 01F01001 		and	r1, r1, #16
 346              	.LVL20:
 347              		.loc 1 636 3 is_stmt 0 view .LVU88
 348 000c 0125     		movs	r5, #1
 349 000e 05FA01F1 		lsl	r1, r5, r1
 350 0012 23EA0101 		bic	r1, r3, r1
ARM GAS  /tmp/ccpsplAO.s 			page 19


 351 0016 1160     		str	r1, [r2]
 637:Drivers/STM32G4xx_HAL_Driver/Src/stm32g4xx_hal_dac.c ****   /* Ensure minimum wait before enabling peripheral after disabling it */
 638:Drivers/STM32G4xx_HAL_Driver/Src/stm32g4xx_hal_dac.c ****   HAL_Delay(1);
 352              		.loc 1 638 3 is_stmt 1 view .LVU89
 353 0018 2846     		mov	r0, r5
 354              	.LVL21:
 355              		.loc 1 638 3 is_stmt 0 view .LVU90
 356 001a FFF7FEFF 		bl	HAL_Delay
 357              	.LVL22:
 639:Drivers/STM32G4xx_HAL_Driver/Src/stm32g4xx_hal_dac.c **** 
 640:Drivers/STM32G4xx_HAL_Driver/Src/stm32g4xx_hal_dac.c ****   /* Change DAC state */
 641:Drivers/STM32G4xx_HAL_Driver/Src/stm32g4xx_hal_dac.c ****   hdac->State = HAL_DAC_STATE_READY;
 358              		.loc 1 641 3 is_stmt 1 view .LVU91
 359              		.loc 1 641 15 is_stmt 0 view .LVU92
 360 001e 2571     		strb	r5, [r4, #4]
 642:Drivers/STM32G4xx_HAL_Driver/Src/stm32g4xx_hal_dac.c **** 
 643:Drivers/STM32G4xx_HAL_Driver/Src/stm32g4xx_hal_dac.c ****   /* Return function status */
 644:Drivers/STM32G4xx_HAL_Driver/Src/stm32g4xx_hal_dac.c ****   return HAL_OK;
 361              		.loc 1 644 3 is_stmt 1 view .LVU93
 645:Drivers/STM32G4xx_HAL_Driver/Src/stm32g4xx_hal_dac.c **** }
 362              		.loc 1 645 1 is_stmt 0 view .LVU94
 363 0020 0020     		movs	r0, #0
 364 0022 38BD     		pop	{r3, r4, r5, pc}
 365              		.loc 1 645 1 view .LVU95
 366              		.cfi_endproc
 367              	.LFE167:
 369              		.section	.text.HAL_DAC_Start_DMA,"ax",%progbits
 370              		.align	1
 371              		.global	HAL_DAC_Start_DMA
 372              		.syntax unified
 373              		.thumb
 374              		.thumb_func
 375              		.fpu fpv4-sp-d16
 377              	HAL_DAC_Start_DMA:
 378              	.LVL23:
 379              	.LFB168:
 646:Drivers/STM32G4xx_HAL_Driver/Src/stm32g4xx_hal_dac.c **** 
 647:Drivers/STM32G4xx_HAL_Driver/Src/stm32g4xx_hal_dac.c **** /**
 648:Drivers/STM32G4xx_HAL_Driver/Src/stm32g4xx_hal_dac.c ****   * @brief  Enables DAC and starts conversion of channel.
 649:Drivers/STM32G4xx_HAL_Driver/Src/stm32g4xx_hal_dac.c ****   * @param  hdac pointer to a DAC_HandleTypeDef structure that contains
 650:Drivers/STM32G4xx_HAL_Driver/Src/stm32g4xx_hal_dac.c ****   *         the configuration information for the specified DAC.
 651:Drivers/STM32G4xx_HAL_Driver/Src/stm32g4xx_hal_dac.c ****   * @param  Channel The selected DAC channel.
 652:Drivers/STM32G4xx_HAL_Driver/Src/stm32g4xx_hal_dac.c ****   *          This parameter can be one of the following values:
 653:Drivers/STM32G4xx_HAL_Driver/Src/stm32g4xx_hal_dac.c ****   *            @arg DAC_CHANNEL_1: DAC Channel1 selected
 654:Drivers/STM32G4xx_HAL_Driver/Src/stm32g4xx_hal_dac.c ****   *            @arg DAC_CHANNEL_2: DAC Channel2 selected (1)
 655:Drivers/STM32G4xx_HAL_Driver/Src/stm32g4xx_hal_dac.c ****   *
 656:Drivers/STM32G4xx_HAL_Driver/Src/stm32g4xx_hal_dac.c ****   *         (1) On this STM32 serie, parameter not available on all instances.
 657:Drivers/STM32G4xx_HAL_Driver/Src/stm32g4xx_hal_dac.c ****   *             Refer to device datasheet for channels availability.
 658:Drivers/STM32G4xx_HAL_Driver/Src/stm32g4xx_hal_dac.c ****   * @param  pData The destination peripheral Buffer address.
 659:Drivers/STM32G4xx_HAL_Driver/Src/stm32g4xx_hal_dac.c ****   * @param  Length The length of data to be transferred from memory to DAC peripheral
 660:Drivers/STM32G4xx_HAL_Driver/Src/stm32g4xx_hal_dac.c ****   * @param  Alignment Specifies the data alignment for DAC channel.
 661:Drivers/STM32G4xx_HAL_Driver/Src/stm32g4xx_hal_dac.c ****   *          This parameter can be one of the following values:
 662:Drivers/STM32G4xx_HAL_Driver/Src/stm32g4xx_hal_dac.c ****   *            @arg DAC_ALIGN_8B_R: 8bit right data alignment selected
 663:Drivers/STM32G4xx_HAL_Driver/Src/stm32g4xx_hal_dac.c ****   *            @arg DAC_ALIGN_12B_L: 12bit left data alignment selected
 664:Drivers/STM32G4xx_HAL_Driver/Src/stm32g4xx_hal_dac.c ****   *            @arg DAC_ALIGN_12B_R: 12bit right data alignment selected
 665:Drivers/STM32G4xx_HAL_Driver/Src/stm32g4xx_hal_dac.c ****   * @retval HAL status
 666:Drivers/STM32G4xx_HAL_Driver/Src/stm32g4xx_hal_dac.c ****   */
ARM GAS  /tmp/ccpsplAO.s 			page 20


 667:Drivers/STM32G4xx_HAL_Driver/Src/stm32g4xx_hal_dac.c **** HAL_StatusTypeDef HAL_DAC_Start_DMA(DAC_HandleTypeDef *hdac, uint32_t Channel, uint32_t *pData, uin
 668:Drivers/STM32G4xx_HAL_Driver/Src/stm32g4xx_hal_dac.c ****                                     uint32_t Alignment)
 669:Drivers/STM32G4xx_HAL_Driver/Src/stm32g4xx_hal_dac.c **** {
 380              		.loc 1 669 1 is_stmt 1 view -0
 381              		.cfi_startproc
 382              		@ args = 4, pretend = 0, frame = 0
 383              		@ frame_needed = 0, uses_anonymous_args = 0
 384              		.loc 1 669 1 is_stmt 0 view .LVU97
 385 0000 70B5     		push	{r4, r5, r6, lr}
 386              	.LCFI7:
 387              		.cfi_def_cfa_offset 16
 388              		.cfi_offset 4, -16
 389              		.cfi_offset 5, -12
 390              		.cfi_offset 6, -8
 391              		.cfi_offset 14, -4
 392 0002 0446     		mov	r4, r0
 393 0004 0D46     		mov	r5, r1
 394 0006 1146     		mov	r1, r2
 395              	.LVL24:
 396              		.loc 1 669 1 view .LVU98
 397 0008 049A     		ldr	r2, [sp, #16]
 398              	.LVL25:
 670:Drivers/STM32G4xx_HAL_Driver/Src/stm32g4xx_hal_dac.c ****   HAL_StatusTypeDef status;
 399              		.loc 1 670 3 is_stmt 1 view .LVU99
 671:Drivers/STM32G4xx_HAL_Driver/Src/stm32g4xx_hal_dac.c ****   uint32_t tmpreg = 0U;
 400              		.loc 1 671 3 view .LVU100
 672:Drivers/STM32G4xx_HAL_Driver/Src/stm32g4xx_hal_dac.c **** 
 673:Drivers/STM32G4xx_HAL_Driver/Src/stm32g4xx_hal_dac.c ****   /* Check the parameters */
 674:Drivers/STM32G4xx_HAL_Driver/Src/stm32g4xx_hal_dac.c ****   assert_param(IS_DAC_CHANNEL(hdac->Instance, Channel));
 401              		.loc 1 674 3 view .LVU101
 675:Drivers/STM32G4xx_HAL_Driver/Src/stm32g4xx_hal_dac.c ****   assert_param(IS_DAC_ALIGN(Alignment));
 402              		.loc 1 675 3 view .LVU102
 676:Drivers/STM32G4xx_HAL_Driver/Src/stm32g4xx_hal_dac.c **** 
 677:Drivers/STM32G4xx_HAL_Driver/Src/stm32g4xx_hal_dac.c ****   /* Process locked */
 678:Drivers/STM32G4xx_HAL_Driver/Src/stm32g4xx_hal_dac.c ****   __HAL_LOCK(hdac);
 403              		.loc 1 678 3 view .LVU103
 404              		.loc 1 678 3 view .LVU104
 405 000a 4079     		ldrb	r0, [r0, #5]	@ zero_extendqisi2
 406              	.LVL26:
 407              		.loc 1 678 3 is_stmt 0 view .LVU105
 408 000c 0128     		cmp	r0, #1
 409 000e 6BD0     		beq	.L42
 410              		.loc 1 678 3 is_stmt 1 discriminator 2 view .LVU106
 411 0010 0120     		movs	r0, #1
 412 0012 6071     		strb	r0, [r4, #5]
 413              		.loc 1 678 3 discriminator 2 view .LVU107
 679:Drivers/STM32G4xx_HAL_Driver/Src/stm32g4xx_hal_dac.c **** 
 680:Drivers/STM32G4xx_HAL_Driver/Src/stm32g4xx_hal_dac.c ****   /* Change DAC state */
 681:Drivers/STM32G4xx_HAL_Driver/Src/stm32g4xx_hal_dac.c ****   hdac->State = HAL_DAC_STATE_BUSY;
 414              		.loc 1 681 3 discriminator 2 view .LVU108
 415              		.loc 1 681 15 is_stmt 0 discriminator 2 view .LVU109
 416 0014 0220     		movs	r0, #2
 417 0016 2071     		strb	r0, [r4, #4]
 682:Drivers/STM32G4xx_HAL_Driver/Src/stm32g4xx_hal_dac.c **** 
 683:Drivers/STM32G4xx_HAL_Driver/Src/stm32g4xx_hal_dac.c ****   if (Channel == DAC_CHANNEL_1)
 418              		.loc 1 683 3 is_stmt 1 discriminator 2 view .LVU110
 419              		.loc 1 683 6 is_stmt 0 discriminator 2 view .LVU111
ARM GAS  /tmp/ccpsplAO.s 			page 21


 420 0018 002D     		cmp	r5, #0
 421 001a 31D1     		bne	.L33
 684:Drivers/STM32G4xx_HAL_Driver/Src/stm32g4xx_hal_dac.c ****   {
 685:Drivers/STM32G4xx_HAL_Driver/Src/stm32g4xx_hal_dac.c ****     /* Set the DMA transfer complete callback for channel1 */
 686:Drivers/STM32G4xx_HAL_Driver/Src/stm32g4xx_hal_dac.c ****     hdac->DMA_Handle1->XferCpltCallback = DAC_DMAConvCpltCh1;
 422              		.loc 1 686 5 is_stmt 1 view .LVU112
 423              		.loc 1 686 9 is_stmt 0 view .LVU113
 424 001c A068     		ldr	r0, [r4, #8]
 425              		.loc 1 686 41 view .LVU114
 426 001e 334E     		ldr	r6, .L49
 427 0020 C662     		str	r6, [r0, #44]
 687:Drivers/STM32G4xx_HAL_Driver/Src/stm32g4xx_hal_dac.c **** 
 688:Drivers/STM32G4xx_HAL_Driver/Src/stm32g4xx_hal_dac.c ****     /* Set the DMA half transfer complete callback for channel1 */
 689:Drivers/STM32G4xx_HAL_Driver/Src/stm32g4xx_hal_dac.c ****     hdac->DMA_Handle1->XferHalfCpltCallback = DAC_DMAHalfConvCpltCh1;
 428              		.loc 1 689 5 is_stmt 1 view .LVU115
 429              		.loc 1 689 9 is_stmt 0 view .LVU116
 430 0022 A068     		ldr	r0, [r4, #8]
 431              		.loc 1 689 45 view .LVU117
 432 0024 324E     		ldr	r6, .L49+4
 433 0026 0663     		str	r6, [r0, #48]
 690:Drivers/STM32G4xx_HAL_Driver/Src/stm32g4xx_hal_dac.c **** 
 691:Drivers/STM32G4xx_HAL_Driver/Src/stm32g4xx_hal_dac.c ****     /* Set the DMA error callback for channel1 */
 692:Drivers/STM32G4xx_HAL_Driver/Src/stm32g4xx_hal_dac.c ****     hdac->DMA_Handle1->XferErrorCallback = DAC_DMAErrorCh1;
 434              		.loc 1 692 5 is_stmt 1 view .LVU118
 435              		.loc 1 692 9 is_stmt 0 view .LVU119
 436 0028 A068     		ldr	r0, [r4, #8]
 437              		.loc 1 692 42 view .LVU120
 438 002a 324E     		ldr	r6, .L49+8
 439 002c 4663     		str	r6, [r0, #52]
 693:Drivers/STM32G4xx_HAL_Driver/Src/stm32g4xx_hal_dac.c **** 
 694:Drivers/STM32G4xx_HAL_Driver/Src/stm32g4xx_hal_dac.c ****     /* Enable the selected DAC channel1 DMA request */
 695:Drivers/STM32G4xx_HAL_Driver/Src/stm32g4xx_hal_dac.c ****     SET_BIT(hdac->Instance->CR, DAC_CR_DMAEN1);
 440              		.loc 1 695 5 is_stmt 1 view .LVU121
 441 002e 2668     		ldr	r6, [r4]
 442 0030 3068     		ldr	r0, [r6]
 443 0032 40F48050 		orr	r0, r0, #4096
 444 0036 3060     		str	r0, [r6]
 696:Drivers/STM32G4xx_HAL_Driver/Src/stm32g4xx_hal_dac.c **** 
 697:Drivers/STM32G4xx_HAL_Driver/Src/stm32g4xx_hal_dac.c ****     /* Case of use of channel 1 */
 698:Drivers/STM32G4xx_HAL_Driver/Src/stm32g4xx_hal_dac.c ****     switch (Alignment)
 445              		.loc 1 698 5 view .LVU122
 446 0038 042A     		cmp	r2, #4
 447 003a 1BD0     		beq	.L34
 448 003c 082A     		cmp	r2, #8
 449 003e 1CD0     		beq	.L35
 450 0040 AAB1     		cbz	r2, .L46
 451 0042 2A46     		mov	r2, r5
 452              	.LVL27:
 453              	.L36:
 699:Drivers/STM32G4xx_HAL_Driver/Src/stm32g4xx_hal_dac.c ****     {
 700:Drivers/STM32G4xx_HAL_Driver/Src/stm32g4xx_hal_dac.c ****       case DAC_ALIGN_12B_R:
 701:Drivers/STM32G4xx_HAL_Driver/Src/stm32g4xx_hal_dac.c ****         /* Get DHR12R1 address */
 702:Drivers/STM32G4xx_HAL_Driver/Src/stm32g4xx_hal_dac.c ****         tmpreg = (uint32_t)&hdac->Instance->DHR12R1;
 703:Drivers/STM32G4xx_HAL_Driver/Src/stm32g4xx_hal_dac.c ****         break;
 704:Drivers/STM32G4xx_HAL_Driver/Src/stm32g4xx_hal_dac.c ****       case DAC_ALIGN_12B_L:
 705:Drivers/STM32G4xx_HAL_Driver/Src/stm32g4xx_hal_dac.c ****         /* Get DHR12L1 address */
 706:Drivers/STM32G4xx_HAL_Driver/Src/stm32g4xx_hal_dac.c ****         tmpreg = (uint32_t)&hdac->Instance->DHR12L1;
ARM GAS  /tmp/ccpsplAO.s 			page 22


 707:Drivers/STM32G4xx_HAL_Driver/Src/stm32g4xx_hal_dac.c ****         break;
 708:Drivers/STM32G4xx_HAL_Driver/Src/stm32g4xx_hal_dac.c ****       case DAC_ALIGN_8B_R:
 709:Drivers/STM32G4xx_HAL_Driver/Src/stm32g4xx_hal_dac.c ****         /* Get DHR8R1 address */
 710:Drivers/STM32G4xx_HAL_Driver/Src/stm32g4xx_hal_dac.c ****         tmpreg = (uint32_t)&hdac->Instance->DHR8R1;
 711:Drivers/STM32G4xx_HAL_Driver/Src/stm32g4xx_hal_dac.c ****         break;
 712:Drivers/STM32G4xx_HAL_Driver/Src/stm32g4xx_hal_dac.c ****       default:
 713:Drivers/STM32G4xx_HAL_Driver/Src/stm32g4xx_hal_dac.c ****         break;
 714:Drivers/STM32G4xx_HAL_Driver/Src/stm32g4xx_hal_dac.c ****     }
 715:Drivers/STM32G4xx_HAL_Driver/Src/stm32g4xx_hal_dac.c ****   }
 716:Drivers/STM32G4xx_HAL_Driver/Src/stm32g4xx_hal_dac.c ****   else
 717:Drivers/STM32G4xx_HAL_Driver/Src/stm32g4xx_hal_dac.c ****   {
 718:Drivers/STM32G4xx_HAL_Driver/Src/stm32g4xx_hal_dac.c ****     /* Set the DMA transfer complete callback for channel2 */
 719:Drivers/STM32G4xx_HAL_Driver/Src/stm32g4xx_hal_dac.c ****     hdac->DMA_Handle2->XferCpltCallback = DAC_DMAConvCpltCh2;
 720:Drivers/STM32G4xx_HAL_Driver/Src/stm32g4xx_hal_dac.c **** 
 721:Drivers/STM32G4xx_HAL_Driver/Src/stm32g4xx_hal_dac.c ****     /* Set the DMA half transfer complete callback for channel2 */
 722:Drivers/STM32G4xx_HAL_Driver/Src/stm32g4xx_hal_dac.c ****     hdac->DMA_Handle2->XferHalfCpltCallback = DAC_DMAHalfConvCpltCh2;
 723:Drivers/STM32G4xx_HAL_Driver/Src/stm32g4xx_hal_dac.c **** 
 724:Drivers/STM32G4xx_HAL_Driver/Src/stm32g4xx_hal_dac.c ****     /* Set the DMA error callback for channel2 */
 725:Drivers/STM32G4xx_HAL_Driver/Src/stm32g4xx_hal_dac.c ****     hdac->DMA_Handle2->XferErrorCallback = DAC_DMAErrorCh2;
 726:Drivers/STM32G4xx_HAL_Driver/Src/stm32g4xx_hal_dac.c **** 
 727:Drivers/STM32G4xx_HAL_Driver/Src/stm32g4xx_hal_dac.c ****     /* Enable the selected DAC channel2 DMA request */
 728:Drivers/STM32G4xx_HAL_Driver/Src/stm32g4xx_hal_dac.c ****     SET_BIT(hdac->Instance->CR, DAC_CR_DMAEN2);
 729:Drivers/STM32G4xx_HAL_Driver/Src/stm32g4xx_hal_dac.c **** 
 730:Drivers/STM32G4xx_HAL_Driver/Src/stm32g4xx_hal_dac.c ****     /* Case of use of channel 2 */
 731:Drivers/STM32G4xx_HAL_Driver/Src/stm32g4xx_hal_dac.c ****     switch (Alignment)
 732:Drivers/STM32G4xx_HAL_Driver/Src/stm32g4xx_hal_dac.c ****     {
 733:Drivers/STM32G4xx_HAL_Driver/Src/stm32g4xx_hal_dac.c ****       case DAC_ALIGN_12B_R:
 734:Drivers/STM32G4xx_HAL_Driver/Src/stm32g4xx_hal_dac.c ****         /* Get DHR12R2 address */
 735:Drivers/STM32G4xx_HAL_Driver/Src/stm32g4xx_hal_dac.c ****         tmpreg = (uint32_t)&hdac->Instance->DHR12R2;
 736:Drivers/STM32G4xx_HAL_Driver/Src/stm32g4xx_hal_dac.c ****         break;
 737:Drivers/STM32G4xx_HAL_Driver/Src/stm32g4xx_hal_dac.c ****       case DAC_ALIGN_12B_L:
 738:Drivers/STM32G4xx_HAL_Driver/Src/stm32g4xx_hal_dac.c ****         /* Get DHR12L2 address */
 739:Drivers/STM32G4xx_HAL_Driver/Src/stm32g4xx_hal_dac.c ****         tmpreg = (uint32_t)&hdac->Instance->DHR12L2;
 740:Drivers/STM32G4xx_HAL_Driver/Src/stm32g4xx_hal_dac.c ****         break;
 741:Drivers/STM32G4xx_HAL_Driver/Src/stm32g4xx_hal_dac.c ****       case DAC_ALIGN_8B_R:
 742:Drivers/STM32G4xx_HAL_Driver/Src/stm32g4xx_hal_dac.c ****         /* Get DHR8R2 address */
 743:Drivers/STM32G4xx_HAL_Driver/Src/stm32g4xx_hal_dac.c ****         tmpreg = (uint32_t)&hdac->Instance->DHR8R2;
 744:Drivers/STM32G4xx_HAL_Driver/Src/stm32g4xx_hal_dac.c ****         break;
 745:Drivers/STM32G4xx_HAL_Driver/Src/stm32g4xx_hal_dac.c ****       default:
 746:Drivers/STM32G4xx_HAL_Driver/Src/stm32g4xx_hal_dac.c ****         break;
 747:Drivers/STM32G4xx_HAL_Driver/Src/stm32g4xx_hal_dac.c ****     }
 748:Drivers/STM32G4xx_HAL_Driver/Src/stm32g4xx_hal_dac.c ****   }
 749:Drivers/STM32G4xx_HAL_Driver/Src/stm32g4xx_hal_dac.c **** 
 750:Drivers/STM32G4xx_HAL_Driver/Src/stm32g4xx_hal_dac.c ****   /* Enable the DMA channel */
 751:Drivers/STM32G4xx_HAL_Driver/Src/stm32g4xx_hal_dac.c ****   if (Channel == DAC_CHANNEL_1)
 454              		.loc 1 751 3 view .LVU123
 455              		.loc 1 751 6 is_stmt 0 view .LVU124
 456 0044 002D     		cmp	r5, #0
 457 0046 39D1     		bne	.L39
 752:Drivers/STM32G4xx_HAL_Driver/Src/stm32g4xx_hal_dac.c ****   {
 753:Drivers/STM32G4xx_HAL_Driver/Src/stm32g4xx_hal_dac.c ****     /* Enable the DAC DMA underrun interrupt */
 754:Drivers/STM32G4xx_HAL_Driver/Src/stm32g4xx_hal_dac.c ****     __HAL_DAC_ENABLE_IT(hdac, DAC_IT_DMAUDR1);
 458              		.loc 1 754 5 is_stmt 1 view .LVU125
 459 0048 2668     		ldr	r6, [r4]
 460 004a 3068     		ldr	r0, [r6]
 461 004c 40F40050 		orr	r0, r0, #8192
 462 0050 3060     		str	r0, [r6]
ARM GAS  /tmp/ccpsplAO.s 			page 23


 755:Drivers/STM32G4xx_HAL_Driver/Src/stm32g4xx_hal_dac.c **** 
 756:Drivers/STM32G4xx_HAL_Driver/Src/stm32g4xx_hal_dac.c ****     /* Enable the DMA channel */
 757:Drivers/STM32G4xx_HAL_Driver/Src/stm32g4xx_hal_dac.c ****     status = HAL_DMA_Start_IT(hdac->DMA_Handle1, (uint32_t)pData, tmpreg, Length);
 463              		.loc 1 757 5 view .LVU126
 464              		.loc 1 757 14 is_stmt 0 view .LVU127
 465 0052 A068     		ldr	r0, [r4, #8]
 466 0054 FFF7FEFF 		bl	HAL_DMA_Start_IT
 467              	.LVL28:
 468              		.loc 1 757 14 view .LVU128
 469 0058 0646     		mov	r6, r0
 470              	.LVL29:
 471              	.L40:
 758:Drivers/STM32G4xx_HAL_Driver/Src/stm32g4xx_hal_dac.c ****   }
 759:Drivers/STM32G4xx_HAL_Driver/Src/stm32g4xx_hal_dac.c ****   else
 760:Drivers/STM32G4xx_HAL_Driver/Src/stm32g4xx_hal_dac.c ****   {
 761:Drivers/STM32G4xx_HAL_Driver/Src/stm32g4xx_hal_dac.c ****     /* Enable the DAC DMA underrun interrupt */
 762:Drivers/STM32G4xx_HAL_Driver/Src/stm32g4xx_hal_dac.c ****     __HAL_DAC_ENABLE_IT(hdac, DAC_IT_DMAUDR2);
 763:Drivers/STM32G4xx_HAL_Driver/Src/stm32g4xx_hal_dac.c **** 
 764:Drivers/STM32G4xx_HAL_Driver/Src/stm32g4xx_hal_dac.c ****     /* Enable the DMA channel */
 765:Drivers/STM32G4xx_HAL_Driver/Src/stm32g4xx_hal_dac.c ****     status = HAL_DMA_Start_IT(hdac->DMA_Handle2, (uint32_t)pData, tmpreg, Length);
 766:Drivers/STM32G4xx_HAL_Driver/Src/stm32g4xx_hal_dac.c ****   }
 767:Drivers/STM32G4xx_HAL_Driver/Src/stm32g4xx_hal_dac.c **** 
 768:Drivers/STM32G4xx_HAL_Driver/Src/stm32g4xx_hal_dac.c ****   /* Process Unlocked */
 769:Drivers/STM32G4xx_HAL_Driver/Src/stm32g4xx_hal_dac.c ****   __HAL_UNLOCK(hdac);
 472              		.loc 1 769 3 is_stmt 1 view .LVU129
 473              		.loc 1 769 3 view .LVU130
 474 005a 0023     		movs	r3, #0
 475 005c 6371     		strb	r3, [r4, #5]
 476              		.loc 1 769 3 view .LVU131
 770:Drivers/STM32G4xx_HAL_Driver/Src/stm32g4xx_hal_dac.c **** 
 771:Drivers/STM32G4xx_HAL_Driver/Src/stm32g4xx_hal_dac.c ****   if (status == HAL_OK)
 477              		.loc 1 771 3 view .LVU132
 478              		.loc 1 771 6 is_stmt 0 view .LVU133
 479 005e 002E     		cmp	r6, #0
 480 0060 36D0     		beq	.L47
 772:Drivers/STM32G4xx_HAL_Driver/Src/stm32g4xx_hal_dac.c ****   {
 773:Drivers/STM32G4xx_HAL_Driver/Src/stm32g4xx_hal_dac.c ****     /* Enable the Peripheral */
 774:Drivers/STM32G4xx_HAL_Driver/Src/stm32g4xx_hal_dac.c ****     __HAL_DAC_ENABLE(hdac, Channel);
 775:Drivers/STM32G4xx_HAL_Driver/Src/stm32g4xx_hal_dac.c ****     /* Ensure minimum wait before using peripheral after enabling it */
 776:Drivers/STM32G4xx_HAL_Driver/Src/stm32g4xx_hal_dac.c ****     HAL_Delay(1);
 777:Drivers/STM32G4xx_HAL_Driver/Src/stm32g4xx_hal_dac.c ****   }
 778:Drivers/STM32G4xx_HAL_Driver/Src/stm32g4xx_hal_dac.c ****   else
 779:Drivers/STM32G4xx_HAL_Driver/Src/stm32g4xx_hal_dac.c ****   {
 780:Drivers/STM32G4xx_HAL_Driver/Src/stm32g4xx_hal_dac.c ****     hdac->ErrorCode |= HAL_DAC_ERROR_DMA;
 481              		.loc 1 780 5 is_stmt 1 view .LVU134
 482              		.loc 1 780 21 is_stmt 0 view .LVU135
 483 0062 2369     		ldr	r3, [r4, #16]
 484 0064 43F00403 		orr	r3, r3, #4
 485 0068 2361     		str	r3, [r4, #16]
 486              	.LVL30:
 487              	.L32:
 781:Drivers/STM32G4xx_HAL_Driver/Src/stm32g4xx_hal_dac.c ****   }
 782:Drivers/STM32G4xx_HAL_Driver/Src/stm32g4xx_hal_dac.c **** 
 783:Drivers/STM32G4xx_HAL_Driver/Src/stm32g4xx_hal_dac.c ****   /* Return function status */
 784:Drivers/STM32G4xx_HAL_Driver/Src/stm32g4xx_hal_dac.c ****   return status;
 785:Drivers/STM32G4xx_HAL_Driver/Src/stm32g4xx_hal_dac.c **** }
 488              		.loc 1 785 1 view .LVU136
ARM GAS  /tmp/ccpsplAO.s 			page 24


 489 006a 3046     		mov	r0, r6
 490 006c 70BD     		pop	{r4, r5, r6, pc}
 491              	.LVL31:
 492              	.L46:
 702:Drivers/STM32G4xx_HAL_Driver/Src/stm32g4xx_hal_dac.c ****         break;
 493              		.loc 1 702 9 is_stmt 1 view .LVU137
 702:Drivers/STM32G4xx_HAL_Driver/Src/stm32g4xx_hal_dac.c ****         break;
 494              		.loc 1 702 33 is_stmt 0 view .LVU138
 495 006e 2268     		ldr	r2, [r4]
 702:Drivers/STM32G4xx_HAL_Driver/Src/stm32g4xx_hal_dac.c ****         break;
 496              		.loc 1 702 28 view .LVU139
 497 0070 0832     		adds	r2, r2, #8
 498              	.LVL32:
 703:Drivers/STM32G4xx_HAL_Driver/Src/stm32g4xx_hal_dac.c ****       case DAC_ALIGN_12B_L:
 499              		.loc 1 703 9 is_stmt 1 view .LVU140
 500 0072 E7E7     		b	.L36
 501              	.LVL33:
 502              	.L34:
 706:Drivers/STM32G4xx_HAL_Driver/Src/stm32g4xx_hal_dac.c ****         break;
 503              		.loc 1 706 9 view .LVU141
 706:Drivers/STM32G4xx_HAL_Driver/Src/stm32g4xx_hal_dac.c ****         break;
 504              		.loc 1 706 33 is_stmt 0 view .LVU142
 505 0074 2268     		ldr	r2, [r4]
 706:Drivers/STM32G4xx_HAL_Driver/Src/stm32g4xx_hal_dac.c ****         break;
 506              		.loc 1 706 28 view .LVU143
 507 0076 0C32     		adds	r2, r2, #12
 508              	.LVL34:
 707:Drivers/STM32G4xx_HAL_Driver/Src/stm32g4xx_hal_dac.c ****       case DAC_ALIGN_8B_R:
 509              		.loc 1 707 9 is_stmt 1 view .LVU144
 510 0078 E4E7     		b	.L36
 511              	.LVL35:
 512              	.L35:
 710:Drivers/STM32G4xx_HAL_Driver/Src/stm32g4xx_hal_dac.c ****         break;
 513              		.loc 1 710 9 view .LVU145
 710:Drivers/STM32G4xx_HAL_Driver/Src/stm32g4xx_hal_dac.c ****         break;
 514              		.loc 1 710 33 is_stmt 0 view .LVU146
 515 007a 2268     		ldr	r2, [r4]
 710:Drivers/STM32G4xx_HAL_Driver/Src/stm32g4xx_hal_dac.c ****         break;
 516              		.loc 1 710 28 view .LVU147
 517 007c 1032     		adds	r2, r2, #16
 518              	.LVL36:
 711:Drivers/STM32G4xx_HAL_Driver/Src/stm32g4xx_hal_dac.c ****       default:
 519              		.loc 1 711 9 is_stmt 1 view .LVU148
 520 007e E1E7     		b	.L36
 521              	.LVL37:
 522              	.L33:
 719:Drivers/STM32G4xx_HAL_Driver/Src/stm32g4xx_hal_dac.c **** 
 523              		.loc 1 719 5 view .LVU149
 719:Drivers/STM32G4xx_HAL_Driver/Src/stm32g4xx_hal_dac.c **** 
 524              		.loc 1 719 9 is_stmt 0 view .LVU150
 525 0080 E068     		ldr	r0, [r4, #12]
 719:Drivers/STM32G4xx_HAL_Driver/Src/stm32g4xx_hal_dac.c **** 
 526              		.loc 1 719 41 view .LVU151
 527 0082 1D4E     		ldr	r6, .L49+12
 528 0084 C662     		str	r6, [r0, #44]
 722:Drivers/STM32G4xx_HAL_Driver/Src/stm32g4xx_hal_dac.c **** 
 529              		.loc 1 722 5 is_stmt 1 view .LVU152
ARM GAS  /tmp/ccpsplAO.s 			page 25


 722:Drivers/STM32G4xx_HAL_Driver/Src/stm32g4xx_hal_dac.c **** 
 530              		.loc 1 722 9 is_stmt 0 view .LVU153
 531 0086 E068     		ldr	r0, [r4, #12]
 722:Drivers/STM32G4xx_HAL_Driver/Src/stm32g4xx_hal_dac.c **** 
 532              		.loc 1 722 45 view .LVU154
 533 0088 1C4E     		ldr	r6, .L49+16
 534 008a 0663     		str	r6, [r0, #48]
 725:Drivers/STM32G4xx_HAL_Driver/Src/stm32g4xx_hal_dac.c **** 
 535              		.loc 1 725 5 is_stmt 1 view .LVU155
 725:Drivers/STM32G4xx_HAL_Driver/Src/stm32g4xx_hal_dac.c **** 
 536              		.loc 1 725 9 is_stmt 0 view .LVU156
 537 008c E068     		ldr	r0, [r4, #12]
 725:Drivers/STM32G4xx_HAL_Driver/Src/stm32g4xx_hal_dac.c **** 
 538              		.loc 1 725 42 view .LVU157
 539 008e 1C4E     		ldr	r6, .L49+20
 540 0090 4663     		str	r6, [r0, #52]
 728:Drivers/STM32G4xx_HAL_Driver/Src/stm32g4xx_hal_dac.c **** 
 541              		.loc 1 728 5 is_stmt 1 view .LVU158
 542 0092 2668     		ldr	r6, [r4]
 543 0094 3068     		ldr	r0, [r6]
 544 0096 40F08050 		orr	r0, r0, #268435456
 545 009a 3060     		str	r0, [r6]
 731:Drivers/STM32G4xx_HAL_Driver/Src/stm32g4xx_hal_dac.c ****     {
 546              		.loc 1 731 5 view .LVU159
 547 009c 042A     		cmp	r2, #4
 548 009e 07D0     		beq	.L37
 549 00a0 082A     		cmp	r2, #8
 550 00a2 08D0     		beq	.L38
 551 00a4 0AB1     		cbz	r2, .L48
 552 00a6 0022     		movs	r2, #0
 553 00a8 CCE7     		b	.L36
 554              	.L48:
 735:Drivers/STM32G4xx_HAL_Driver/Src/stm32g4xx_hal_dac.c ****         break;
 555              		.loc 1 735 9 view .LVU160
 735:Drivers/STM32G4xx_HAL_Driver/Src/stm32g4xx_hal_dac.c ****         break;
 556              		.loc 1 735 33 is_stmt 0 view .LVU161
 557 00aa 2268     		ldr	r2, [r4]
 735:Drivers/STM32G4xx_HAL_Driver/Src/stm32g4xx_hal_dac.c ****         break;
 558              		.loc 1 735 28 view .LVU162
 559 00ac 1432     		adds	r2, r2, #20
 560              	.LVL38:
 736:Drivers/STM32G4xx_HAL_Driver/Src/stm32g4xx_hal_dac.c ****       case DAC_ALIGN_12B_L:
 561              		.loc 1 736 9 is_stmt 1 view .LVU163
 562 00ae C9E7     		b	.L36
 563              	.LVL39:
 564              	.L37:
 739:Drivers/STM32G4xx_HAL_Driver/Src/stm32g4xx_hal_dac.c ****         break;
 565              		.loc 1 739 9 view .LVU164
 739:Drivers/STM32G4xx_HAL_Driver/Src/stm32g4xx_hal_dac.c ****         break;
 566              		.loc 1 739 33 is_stmt 0 view .LVU165
 567 00b0 2268     		ldr	r2, [r4]
 739:Drivers/STM32G4xx_HAL_Driver/Src/stm32g4xx_hal_dac.c ****         break;
 568              		.loc 1 739 28 view .LVU166
 569 00b2 1832     		adds	r2, r2, #24
 570              	.LVL40:
 740:Drivers/STM32G4xx_HAL_Driver/Src/stm32g4xx_hal_dac.c ****       case DAC_ALIGN_8B_R:
 571              		.loc 1 740 9 is_stmt 1 view .LVU167
ARM GAS  /tmp/ccpsplAO.s 			page 26


 572 00b4 C6E7     		b	.L36
 573              	.LVL41:
 574              	.L38:
 743:Drivers/STM32G4xx_HAL_Driver/Src/stm32g4xx_hal_dac.c ****         break;
 575              		.loc 1 743 9 view .LVU168
 743:Drivers/STM32G4xx_HAL_Driver/Src/stm32g4xx_hal_dac.c ****         break;
 576              		.loc 1 743 33 is_stmt 0 view .LVU169
 577 00b6 2268     		ldr	r2, [r4]
 743:Drivers/STM32G4xx_HAL_Driver/Src/stm32g4xx_hal_dac.c ****         break;
 578              		.loc 1 743 28 view .LVU170
 579 00b8 1C32     		adds	r2, r2, #28
 580              	.LVL42:
 744:Drivers/STM32G4xx_HAL_Driver/Src/stm32g4xx_hal_dac.c ****       default:
 581              		.loc 1 744 9 is_stmt 1 view .LVU171
 582 00ba C3E7     		b	.L36
 583              	.L39:
 762:Drivers/STM32G4xx_HAL_Driver/Src/stm32g4xx_hal_dac.c **** 
 584              		.loc 1 762 5 view .LVU172
 585 00bc 2668     		ldr	r6, [r4]
 586 00be 3068     		ldr	r0, [r6]
 587 00c0 40F00050 		orr	r0, r0, #536870912
 588 00c4 3060     		str	r0, [r6]
 765:Drivers/STM32G4xx_HAL_Driver/Src/stm32g4xx_hal_dac.c ****   }
 589              		.loc 1 765 5 view .LVU173
 765:Drivers/STM32G4xx_HAL_Driver/Src/stm32g4xx_hal_dac.c ****   }
 590              		.loc 1 765 14 is_stmt 0 view .LVU174
 591 00c6 E068     		ldr	r0, [r4, #12]
 592 00c8 FFF7FEFF 		bl	HAL_DMA_Start_IT
 593              	.LVL43:
 765:Drivers/STM32G4xx_HAL_Driver/Src/stm32g4xx_hal_dac.c ****   }
 594              		.loc 1 765 14 view .LVU175
 595 00cc 0646     		mov	r6, r0
 596              	.LVL44:
 765:Drivers/STM32G4xx_HAL_Driver/Src/stm32g4xx_hal_dac.c ****   }
 597              		.loc 1 765 14 view .LVU176
 598 00ce C4E7     		b	.L40
 599              	.L47:
 774:Drivers/STM32G4xx_HAL_Driver/Src/stm32g4xx_hal_dac.c ****     /* Ensure minimum wait before using peripheral after enabling it */
 600              		.loc 1 774 5 is_stmt 1 view .LVU177
 601 00d0 2268     		ldr	r2, [r4]
 602 00d2 1368     		ldr	r3, [r2]
 603 00d4 05F01005 		and	r5, r5, #16
 604              	.LVL45:
 774:Drivers/STM32G4xx_HAL_Driver/Src/stm32g4xx_hal_dac.c ****     /* Ensure minimum wait before using peripheral after enabling it */
 605              		.loc 1 774 5 is_stmt 0 view .LVU178
 606 00d8 0120     		movs	r0, #1
 607 00da 00FA05F5 		lsl	r5, r0, r5
 608 00de 1D43     		orrs	r5, r5, r3
 609 00e0 1560     		str	r5, [r2]
 776:Drivers/STM32G4xx_HAL_Driver/Src/stm32g4xx_hal_dac.c ****   }
 610              		.loc 1 776 5 is_stmt 1 view .LVU179
 611 00e2 FFF7FEFF 		bl	HAL_Delay
 612              	.LVL46:
 613 00e6 C0E7     		b	.L32
 614              	.LVL47:
 615              	.L42:
 678:Drivers/STM32G4xx_HAL_Driver/Src/stm32g4xx_hal_dac.c **** 
ARM GAS  /tmp/ccpsplAO.s 			page 27


 616              		.loc 1 678 3 is_stmt 0 view .LVU180
 617 00e8 0226     		movs	r6, #2
 618 00ea BEE7     		b	.L32
 619              	.L50:
 620              		.align	2
 621              	.L49:
 622 00ec 00000000 		.word	DAC_DMAConvCpltCh1
 623 00f0 00000000 		.word	DAC_DMAHalfConvCpltCh1
 624 00f4 00000000 		.word	DAC_DMAErrorCh1
 625 00f8 00000000 		.word	DAC_DMAConvCpltCh2
 626 00fc 00000000 		.word	DAC_DMAHalfConvCpltCh2
 627 0100 00000000 		.word	DAC_DMAErrorCh2
 628              		.cfi_endproc
 629              	.LFE168:
 631              		.section	.text.HAL_DAC_Stop_DMA,"ax",%progbits
 632              		.align	1
 633              		.global	HAL_DAC_Stop_DMA
 634              		.syntax unified
 635              		.thumb
 636              		.thumb_func
 637              		.fpu fpv4-sp-d16
 639              	HAL_DAC_Stop_DMA:
 640              	.LVL48:
 641              	.LFB169:
 786:Drivers/STM32G4xx_HAL_Driver/Src/stm32g4xx_hal_dac.c **** 
 787:Drivers/STM32G4xx_HAL_Driver/Src/stm32g4xx_hal_dac.c **** /**
 788:Drivers/STM32G4xx_HAL_Driver/Src/stm32g4xx_hal_dac.c ****   * @brief  Disables DAC and stop conversion of channel.
 789:Drivers/STM32G4xx_HAL_Driver/Src/stm32g4xx_hal_dac.c ****   * @param  hdac pointer to a DAC_HandleTypeDef structure that contains
 790:Drivers/STM32G4xx_HAL_Driver/Src/stm32g4xx_hal_dac.c ****   *         the configuration information for the specified DAC.
 791:Drivers/STM32G4xx_HAL_Driver/Src/stm32g4xx_hal_dac.c ****   * @param  Channel The selected DAC channel.
 792:Drivers/STM32G4xx_HAL_Driver/Src/stm32g4xx_hal_dac.c ****   *          This parameter can be one of the following values:
 793:Drivers/STM32G4xx_HAL_Driver/Src/stm32g4xx_hal_dac.c ****   *            @arg DAC_CHANNEL_1: DAC Channel1 selected
 794:Drivers/STM32G4xx_HAL_Driver/Src/stm32g4xx_hal_dac.c ****   *            @arg DAC_CHANNEL_2: DAC Channel2 selected (1)
 795:Drivers/STM32G4xx_HAL_Driver/Src/stm32g4xx_hal_dac.c ****   *
 796:Drivers/STM32G4xx_HAL_Driver/Src/stm32g4xx_hal_dac.c ****   *         (1) On this STM32 serie, parameter not available on all instances.
 797:Drivers/STM32G4xx_HAL_Driver/Src/stm32g4xx_hal_dac.c ****   *             Refer to device datasheet for channels availability.
 798:Drivers/STM32G4xx_HAL_Driver/Src/stm32g4xx_hal_dac.c ****   * @retval HAL status
 799:Drivers/STM32G4xx_HAL_Driver/Src/stm32g4xx_hal_dac.c ****   */
 800:Drivers/STM32G4xx_HAL_Driver/Src/stm32g4xx_hal_dac.c **** HAL_StatusTypeDef HAL_DAC_Stop_DMA(DAC_HandleTypeDef *hdac, uint32_t Channel)
 801:Drivers/STM32G4xx_HAL_Driver/Src/stm32g4xx_hal_dac.c **** {
 642              		.loc 1 801 1 is_stmt 1 view -0
 643              		.cfi_startproc
 644              		@ args = 0, pretend = 0, frame = 0
 645              		@ frame_needed = 0, uses_anonymous_args = 0
 646              		.loc 1 801 1 is_stmt 0 view .LVU182
 647 0000 38B5     		push	{r3, r4, r5, lr}
 648              	.LCFI8:
 649              		.cfi_def_cfa_offset 16
 650              		.cfi_offset 3, -16
 651              		.cfi_offset 4, -12
 652              		.cfi_offset 5, -8
 653              		.cfi_offset 14, -4
 654 0002 0446     		mov	r4, r0
 655 0004 0D46     		mov	r5, r1
 802:Drivers/STM32G4xx_HAL_Driver/Src/stm32g4xx_hal_dac.c ****   HAL_StatusTypeDef status;
 656              		.loc 1 802 3 is_stmt 1 view .LVU183
 803:Drivers/STM32G4xx_HAL_Driver/Src/stm32g4xx_hal_dac.c **** 
ARM GAS  /tmp/ccpsplAO.s 			page 28


 804:Drivers/STM32G4xx_HAL_Driver/Src/stm32g4xx_hal_dac.c ****   /* Check the parameters */
 805:Drivers/STM32G4xx_HAL_Driver/Src/stm32g4xx_hal_dac.c ****   assert_param(IS_DAC_CHANNEL(hdac->Instance, Channel));
 657              		.loc 1 805 3 view .LVU184
 806:Drivers/STM32G4xx_HAL_Driver/Src/stm32g4xx_hal_dac.c **** 
 807:Drivers/STM32G4xx_HAL_Driver/Src/stm32g4xx_hal_dac.c ****   /* Disable the selected DAC channel DMA request */
 808:Drivers/STM32G4xx_HAL_Driver/Src/stm32g4xx_hal_dac.c ****   hdac->Instance->CR &= ~(DAC_CR_DMAEN1 << (Channel & 0x10UL));
 658              		.loc 1 808 3 view .LVU185
 659              		.loc 1 808 7 is_stmt 0 view .LVU186
 660 0006 0068     		ldr	r0, [r0]
 661              	.LVL49:
 662              		.loc 1 808 22 view .LVU187
 663 0008 0268     		ldr	r2, [r0]
 664              		.loc 1 808 53 view .LVU188
 665 000a 01F01003 		and	r3, r1, #16
 666              		.loc 1 808 41 view .LVU189
 667 000e 4FF48051 		mov	r1, #4096
 668              	.LVL50:
 669              		.loc 1 808 41 view .LVU190
 670 0012 9940     		lsls	r1, r1, r3
 671              		.loc 1 808 22 view .LVU191
 672 0014 22EA0102 		bic	r2, r2, r1
 673 0018 0260     		str	r2, [r0]
 809:Drivers/STM32G4xx_HAL_Driver/Src/stm32g4xx_hal_dac.c **** 
 810:Drivers/STM32G4xx_HAL_Driver/Src/stm32g4xx_hal_dac.c ****   /* Disable the Peripheral */
 811:Drivers/STM32G4xx_HAL_Driver/Src/stm32g4xx_hal_dac.c ****   __HAL_DAC_DISABLE(hdac, Channel);
 674              		.loc 1 811 3 is_stmt 1 view .LVU192
 675 001a 2168     		ldr	r1, [r4]
 676 001c 0A68     		ldr	r2, [r1]
 677 001e 0120     		movs	r0, #1
 678 0020 00FA03F3 		lsl	r3, r0, r3
 679 0024 22EA0303 		bic	r3, r2, r3
 680 0028 0B60     		str	r3, [r1]
 812:Drivers/STM32G4xx_HAL_Driver/Src/stm32g4xx_hal_dac.c ****   /* Ensure minimum wait before enabling peripheral after disabling it */
 813:Drivers/STM32G4xx_HAL_Driver/Src/stm32g4xx_hal_dac.c ****   HAL_Delay(1);
 681              		.loc 1 813 3 view .LVU193
 682 002a FFF7FEFF 		bl	HAL_Delay
 683              	.LVL51:
 814:Drivers/STM32G4xx_HAL_Driver/Src/stm32g4xx_hal_dac.c **** 
 815:Drivers/STM32G4xx_HAL_Driver/Src/stm32g4xx_hal_dac.c ****   /* Disable the DMA channel */
 816:Drivers/STM32G4xx_HAL_Driver/Src/stm32g4xx_hal_dac.c **** 
 817:Drivers/STM32G4xx_HAL_Driver/Src/stm32g4xx_hal_dac.c ****   /* Channel1 is used */
 818:Drivers/STM32G4xx_HAL_Driver/Src/stm32g4xx_hal_dac.c ****   if (Channel == DAC_CHANNEL_1)
 684              		.loc 1 818 3 view .LVU194
 685              		.loc 1 818 6 is_stmt 0 view .LVU195
 686 002e 5DB9     		cbnz	r5, .L52
 819:Drivers/STM32G4xx_HAL_Driver/Src/stm32g4xx_hal_dac.c ****   {
 820:Drivers/STM32G4xx_HAL_Driver/Src/stm32g4xx_hal_dac.c ****     /* Disable the DMA channel */
 821:Drivers/STM32G4xx_HAL_Driver/Src/stm32g4xx_hal_dac.c ****     status = HAL_DMA_Abort(hdac->DMA_Handle1);
 687              		.loc 1 821 5 is_stmt 1 view .LVU196
 688              		.loc 1 821 14 is_stmt 0 view .LVU197
 689 0030 A068     		ldr	r0, [r4, #8]
 690 0032 FFF7FEFF 		bl	HAL_DMA_Abort
 691              	.LVL52:
 822:Drivers/STM32G4xx_HAL_Driver/Src/stm32g4xx_hal_dac.c **** 
 823:Drivers/STM32G4xx_HAL_Driver/Src/stm32g4xx_hal_dac.c ****     /* Disable the DAC DMA underrun interrupt */
 824:Drivers/STM32G4xx_HAL_Driver/Src/stm32g4xx_hal_dac.c ****     __HAL_DAC_DISABLE_IT(hdac, DAC_IT_DMAUDR1);
 692              		.loc 1 824 5 is_stmt 1 view .LVU198
ARM GAS  /tmp/ccpsplAO.s 			page 29


 693 0036 2268     		ldr	r2, [r4]
 694 0038 1368     		ldr	r3, [r2]
 695 003a 23F40053 		bic	r3, r3, #8192
 696 003e 1360     		str	r3, [r2]
 697              	.L53:
 825:Drivers/STM32G4xx_HAL_Driver/Src/stm32g4xx_hal_dac.c ****   }
 826:Drivers/STM32G4xx_HAL_Driver/Src/stm32g4xx_hal_dac.c ****   else /* Channel2 is used for */
 827:Drivers/STM32G4xx_HAL_Driver/Src/stm32g4xx_hal_dac.c ****   {
 828:Drivers/STM32G4xx_HAL_Driver/Src/stm32g4xx_hal_dac.c ****     /* Disable the DMA channel */
 829:Drivers/STM32G4xx_HAL_Driver/Src/stm32g4xx_hal_dac.c ****     status = HAL_DMA_Abort(hdac->DMA_Handle2);
 830:Drivers/STM32G4xx_HAL_Driver/Src/stm32g4xx_hal_dac.c **** 
 831:Drivers/STM32G4xx_HAL_Driver/Src/stm32g4xx_hal_dac.c ****     /* Disable the DAC DMA underrun interrupt */
 832:Drivers/STM32G4xx_HAL_Driver/Src/stm32g4xx_hal_dac.c ****     __HAL_DAC_DISABLE_IT(hdac, DAC_IT_DMAUDR2);
 833:Drivers/STM32G4xx_HAL_Driver/Src/stm32g4xx_hal_dac.c ****   }
 834:Drivers/STM32G4xx_HAL_Driver/Src/stm32g4xx_hal_dac.c **** 
 835:Drivers/STM32G4xx_HAL_Driver/Src/stm32g4xx_hal_dac.c ****   /* Check if DMA Channel effectively disabled */
 836:Drivers/STM32G4xx_HAL_Driver/Src/stm32g4xx_hal_dac.c ****   if (status != HAL_OK)
 698              		.loc 1 836 3 view .LVU199
 699              		.loc 1 836 6 is_stmt 0 view .LVU200
 700 0040 58B1     		cbz	r0, .L54
 837:Drivers/STM32G4xx_HAL_Driver/Src/stm32g4xx_hal_dac.c ****   {
 838:Drivers/STM32G4xx_HAL_Driver/Src/stm32g4xx_hal_dac.c ****     /* Update DAC state machine to error */
 839:Drivers/STM32G4xx_HAL_Driver/Src/stm32g4xx_hal_dac.c ****     hdac->State = HAL_DAC_STATE_ERROR;
 701              		.loc 1 839 5 is_stmt 1 view .LVU201
 702              		.loc 1 839 17 is_stmt 0 view .LVU202
 703 0042 0423     		movs	r3, #4
 704 0044 2371     		strb	r3, [r4, #4]
 705              	.L55:
 840:Drivers/STM32G4xx_HAL_Driver/Src/stm32g4xx_hal_dac.c ****   }
 841:Drivers/STM32G4xx_HAL_Driver/Src/stm32g4xx_hal_dac.c ****   else
 842:Drivers/STM32G4xx_HAL_Driver/Src/stm32g4xx_hal_dac.c ****   {
 843:Drivers/STM32G4xx_HAL_Driver/Src/stm32g4xx_hal_dac.c ****     /* Change DAC state */
 844:Drivers/STM32G4xx_HAL_Driver/Src/stm32g4xx_hal_dac.c ****     hdac->State = HAL_DAC_STATE_READY;
 845:Drivers/STM32G4xx_HAL_Driver/Src/stm32g4xx_hal_dac.c ****   }
 846:Drivers/STM32G4xx_HAL_Driver/Src/stm32g4xx_hal_dac.c **** 
 847:Drivers/STM32G4xx_HAL_Driver/Src/stm32g4xx_hal_dac.c ****   /* Return function status */
 848:Drivers/STM32G4xx_HAL_Driver/Src/stm32g4xx_hal_dac.c ****   return status;
 706              		.loc 1 848 3 is_stmt 1 view .LVU203
 849:Drivers/STM32G4xx_HAL_Driver/Src/stm32g4xx_hal_dac.c **** }
 707              		.loc 1 849 1 is_stmt 0 view .LVU204
 708 0046 38BD     		pop	{r3, r4, r5, pc}
 709              	.LVL53:
 710              	.L52:
 829:Drivers/STM32G4xx_HAL_Driver/Src/stm32g4xx_hal_dac.c **** 
 711              		.loc 1 829 5 is_stmt 1 view .LVU205
 829:Drivers/STM32G4xx_HAL_Driver/Src/stm32g4xx_hal_dac.c **** 
 712              		.loc 1 829 14 is_stmt 0 view .LVU206
 713 0048 E068     		ldr	r0, [r4, #12]
 714 004a FFF7FEFF 		bl	HAL_DMA_Abort
 715              	.LVL54:
 832:Drivers/STM32G4xx_HAL_Driver/Src/stm32g4xx_hal_dac.c ****   }
 716              		.loc 1 832 5 is_stmt 1 view .LVU207
 717 004e 2268     		ldr	r2, [r4]
 718 0050 1368     		ldr	r3, [r2]
 719 0052 23F00053 		bic	r3, r3, #536870912
 720 0056 1360     		str	r3, [r2]
 721 0058 F2E7     		b	.L53
ARM GAS  /tmp/ccpsplAO.s 			page 30


 722              	.L54:
 844:Drivers/STM32G4xx_HAL_Driver/Src/stm32g4xx_hal_dac.c ****   }
 723              		.loc 1 844 5 view .LVU208
 844:Drivers/STM32G4xx_HAL_Driver/Src/stm32g4xx_hal_dac.c ****   }
 724              		.loc 1 844 17 is_stmt 0 view .LVU209
 725 005a 0123     		movs	r3, #1
 726 005c 2371     		strb	r3, [r4, #4]
 727 005e F2E7     		b	.L55
 728              		.cfi_endproc
 729              	.LFE169:
 731              		.section	.text.HAL_DAC_SetValue,"ax",%progbits
 732              		.align	1
 733              		.global	HAL_DAC_SetValue
 734              		.syntax unified
 735              		.thumb
 736              		.thumb_func
 737              		.fpu fpv4-sp-d16
 739              	HAL_DAC_SetValue:
 740              	.LVL55:
 741              	.LFB171:
 850:Drivers/STM32G4xx_HAL_Driver/Src/stm32g4xx_hal_dac.c **** 
 851:Drivers/STM32G4xx_HAL_Driver/Src/stm32g4xx_hal_dac.c **** /**
 852:Drivers/STM32G4xx_HAL_Driver/Src/stm32g4xx_hal_dac.c ****   * @brief  Handles DAC interrupt request
 853:Drivers/STM32G4xx_HAL_Driver/Src/stm32g4xx_hal_dac.c ****   *         This function uses the interruption of DMA
 854:Drivers/STM32G4xx_HAL_Driver/Src/stm32g4xx_hal_dac.c ****   *         underrun.
 855:Drivers/STM32G4xx_HAL_Driver/Src/stm32g4xx_hal_dac.c ****   * @param  hdac pointer to a DAC_HandleTypeDef structure that contains
 856:Drivers/STM32G4xx_HAL_Driver/Src/stm32g4xx_hal_dac.c ****   *         the configuration information for the specified DAC.
 857:Drivers/STM32G4xx_HAL_Driver/Src/stm32g4xx_hal_dac.c ****   * @retval None
 858:Drivers/STM32G4xx_HAL_Driver/Src/stm32g4xx_hal_dac.c ****   */
 859:Drivers/STM32G4xx_HAL_Driver/Src/stm32g4xx_hal_dac.c **** void HAL_DAC_IRQHandler(DAC_HandleTypeDef *hdac)
 860:Drivers/STM32G4xx_HAL_Driver/Src/stm32g4xx_hal_dac.c **** {
 861:Drivers/STM32G4xx_HAL_Driver/Src/stm32g4xx_hal_dac.c ****   if (__HAL_DAC_GET_IT_SOURCE(hdac, DAC_IT_DMAUDR1))
 862:Drivers/STM32G4xx_HAL_Driver/Src/stm32g4xx_hal_dac.c ****   {
 863:Drivers/STM32G4xx_HAL_Driver/Src/stm32g4xx_hal_dac.c ****     /* Check underrun flag of DAC channel 1 */
 864:Drivers/STM32G4xx_HAL_Driver/Src/stm32g4xx_hal_dac.c ****     if (__HAL_DAC_GET_FLAG(hdac, DAC_FLAG_DMAUDR1))
 865:Drivers/STM32G4xx_HAL_Driver/Src/stm32g4xx_hal_dac.c ****     {
 866:Drivers/STM32G4xx_HAL_Driver/Src/stm32g4xx_hal_dac.c ****       /* Change DAC state to error state */
 867:Drivers/STM32G4xx_HAL_Driver/Src/stm32g4xx_hal_dac.c ****       hdac->State = HAL_DAC_STATE_ERROR;
 868:Drivers/STM32G4xx_HAL_Driver/Src/stm32g4xx_hal_dac.c **** 
 869:Drivers/STM32G4xx_HAL_Driver/Src/stm32g4xx_hal_dac.c ****       /* Set DAC error code to chanel1 DMA underrun error */
 870:Drivers/STM32G4xx_HAL_Driver/Src/stm32g4xx_hal_dac.c ****       SET_BIT(hdac->ErrorCode, HAL_DAC_ERROR_DMAUNDERRUNCH1);
 871:Drivers/STM32G4xx_HAL_Driver/Src/stm32g4xx_hal_dac.c **** 
 872:Drivers/STM32G4xx_HAL_Driver/Src/stm32g4xx_hal_dac.c ****       /* Clear the underrun flag */
 873:Drivers/STM32G4xx_HAL_Driver/Src/stm32g4xx_hal_dac.c ****       __HAL_DAC_CLEAR_FLAG(hdac, DAC_FLAG_DMAUDR1);
 874:Drivers/STM32G4xx_HAL_Driver/Src/stm32g4xx_hal_dac.c **** 
 875:Drivers/STM32G4xx_HAL_Driver/Src/stm32g4xx_hal_dac.c ****       /* Disable the selected DAC channel1 DMA request */
 876:Drivers/STM32G4xx_HAL_Driver/Src/stm32g4xx_hal_dac.c ****       CLEAR_BIT(hdac->Instance->CR, DAC_CR_DMAEN1);
 877:Drivers/STM32G4xx_HAL_Driver/Src/stm32g4xx_hal_dac.c **** 
 878:Drivers/STM32G4xx_HAL_Driver/Src/stm32g4xx_hal_dac.c ****       /* Error callback */
 879:Drivers/STM32G4xx_HAL_Driver/Src/stm32g4xx_hal_dac.c **** #if (USE_HAL_DAC_REGISTER_CALLBACKS == 1)
 880:Drivers/STM32G4xx_HAL_Driver/Src/stm32g4xx_hal_dac.c ****       hdac->DMAUnderrunCallbackCh1(hdac);
 881:Drivers/STM32G4xx_HAL_Driver/Src/stm32g4xx_hal_dac.c **** #else
 882:Drivers/STM32G4xx_HAL_Driver/Src/stm32g4xx_hal_dac.c ****       HAL_DAC_DMAUnderrunCallbackCh1(hdac);
 883:Drivers/STM32G4xx_HAL_Driver/Src/stm32g4xx_hal_dac.c **** #endif /* USE_HAL_DAC_REGISTER_CALLBACKS */
 884:Drivers/STM32G4xx_HAL_Driver/Src/stm32g4xx_hal_dac.c ****     }
 885:Drivers/STM32G4xx_HAL_Driver/Src/stm32g4xx_hal_dac.c ****   }
 886:Drivers/STM32G4xx_HAL_Driver/Src/stm32g4xx_hal_dac.c **** 
ARM GAS  /tmp/ccpsplAO.s 			page 31


 887:Drivers/STM32G4xx_HAL_Driver/Src/stm32g4xx_hal_dac.c ****   if (__HAL_DAC_GET_IT_SOURCE(hdac, DAC_IT_DMAUDR2))
 888:Drivers/STM32G4xx_HAL_Driver/Src/stm32g4xx_hal_dac.c ****   {
 889:Drivers/STM32G4xx_HAL_Driver/Src/stm32g4xx_hal_dac.c ****     /* Check underrun flag of DAC channel 2 */
 890:Drivers/STM32G4xx_HAL_Driver/Src/stm32g4xx_hal_dac.c ****     if (__HAL_DAC_GET_FLAG(hdac, DAC_FLAG_DMAUDR2))
 891:Drivers/STM32G4xx_HAL_Driver/Src/stm32g4xx_hal_dac.c ****     {
 892:Drivers/STM32G4xx_HAL_Driver/Src/stm32g4xx_hal_dac.c ****       /* Change DAC state to error state */
 893:Drivers/STM32G4xx_HAL_Driver/Src/stm32g4xx_hal_dac.c ****       hdac->State = HAL_DAC_STATE_ERROR;
 894:Drivers/STM32G4xx_HAL_Driver/Src/stm32g4xx_hal_dac.c **** 
 895:Drivers/STM32G4xx_HAL_Driver/Src/stm32g4xx_hal_dac.c ****       /* Set DAC error code to channel2 DMA underrun error */
 896:Drivers/STM32G4xx_HAL_Driver/Src/stm32g4xx_hal_dac.c ****       SET_BIT(hdac->ErrorCode, HAL_DAC_ERROR_DMAUNDERRUNCH2);
 897:Drivers/STM32G4xx_HAL_Driver/Src/stm32g4xx_hal_dac.c **** 
 898:Drivers/STM32G4xx_HAL_Driver/Src/stm32g4xx_hal_dac.c ****       /* Clear the underrun flag */
 899:Drivers/STM32G4xx_HAL_Driver/Src/stm32g4xx_hal_dac.c ****       __HAL_DAC_CLEAR_FLAG(hdac, DAC_FLAG_DMAUDR2);
 900:Drivers/STM32G4xx_HAL_Driver/Src/stm32g4xx_hal_dac.c **** 
 901:Drivers/STM32G4xx_HAL_Driver/Src/stm32g4xx_hal_dac.c ****       /* Disable the selected DAC channel2 DMA request */
 902:Drivers/STM32G4xx_HAL_Driver/Src/stm32g4xx_hal_dac.c ****       CLEAR_BIT(hdac->Instance->CR, DAC_CR_DMAEN2);
 903:Drivers/STM32G4xx_HAL_Driver/Src/stm32g4xx_hal_dac.c **** 
 904:Drivers/STM32G4xx_HAL_Driver/Src/stm32g4xx_hal_dac.c ****       /* Error callback */
 905:Drivers/STM32G4xx_HAL_Driver/Src/stm32g4xx_hal_dac.c **** #if (USE_HAL_DAC_REGISTER_CALLBACKS == 1)
 906:Drivers/STM32G4xx_HAL_Driver/Src/stm32g4xx_hal_dac.c ****       hdac->DMAUnderrunCallbackCh2(hdac);
 907:Drivers/STM32G4xx_HAL_Driver/Src/stm32g4xx_hal_dac.c **** #else
 908:Drivers/STM32G4xx_HAL_Driver/Src/stm32g4xx_hal_dac.c ****       HAL_DACEx_DMAUnderrunCallbackCh2(hdac);
 909:Drivers/STM32G4xx_HAL_Driver/Src/stm32g4xx_hal_dac.c **** #endif /* USE_HAL_DAC_REGISTER_CALLBACKS */
 910:Drivers/STM32G4xx_HAL_Driver/Src/stm32g4xx_hal_dac.c ****     }
 911:Drivers/STM32G4xx_HAL_Driver/Src/stm32g4xx_hal_dac.c ****   }
 912:Drivers/STM32G4xx_HAL_Driver/Src/stm32g4xx_hal_dac.c **** }
 913:Drivers/STM32G4xx_HAL_Driver/Src/stm32g4xx_hal_dac.c **** 
 914:Drivers/STM32G4xx_HAL_Driver/Src/stm32g4xx_hal_dac.c **** /**
 915:Drivers/STM32G4xx_HAL_Driver/Src/stm32g4xx_hal_dac.c ****   * @brief  Set the specified data holding register value for DAC channel.
 916:Drivers/STM32G4xx_HAL_Driver/Src/stm32g4xx_hal_dac.c ****   * @param  hdac pointer to a DAC_HandleTypeDef structure that contains
 917:Drivers/STM32G4xx_HAL_Driver/Src/stm32g4xx_hal_dac.c ****   *         the configuration information for the specified DAC.
 918:Drivers/STM32G4xx_HAL_Driver/Src/stm32g4xx_hal_dac.c ****   * @param  Channel The selected DAC channel.
 919:Drivers/STM32G4xx_HAL_Driver/Src/stm32g4xx_hal_dac.c ****   *          This parameter can be one of the following values:
 920:Drivers/STM32G4xx_HAL_Driver/Src/stm32g4xx_hal_dac.c ****   *            @arg DAC_CHANNEL_1: DAC Channel1 selected
 921:Drivers/STM32G4xx_HAL_Driver/Src/stm32g4xx_hal_dac.c ****   *            @arg DAC_CHANNEL_2: DAC Channel2 selected (1)
 922:Drivers/STM32G4xx_HAL_Driver/Src/stm32g4xx_hal_dac.c ****   *
 923:Drivers/STM32G4xx_HAL_Driver/Src/stm32g4xx_hal_dac.c ****   *         (1) On this STM32 serie, parameter not available on all instances.
 924:Drivers/STM32G4xx_HAL_Driver/Src/stm32g4xx_hal_dac.c ****   *             Refer to device datasheet for channels availability.
 925:Drivers/STM32G4xx_HAL_Driver/Src/stm32g4xx_hal_dac.c ****   * @param  Alignment Specifies the data alignment.
 926:Drivers/STM32G4xx_HAL_Driver/Src/stm32g4xx_hal_dac.c ****   *          This parameter can be one of the following values:
 927:Drivers/STM32G4xx_HAL_Driver/Src/stm32g4xx_hal_dac.c ****   *            @arg DAC_ALIGN_8B_R: 8bit right data alignment selected
 928:Drivers/STM32G4xx_HAL_Driver/Src/stm32g4xx_hal_dac.c ****   *            @arg DAC_ALIGN_12B_L: 12bit left data alignment selected
 929:Drivers/STM32G4xx_HAL_Driver/Src/stm32g4xx_hal_dac.c ****   *            @arg DAC_ALIGN_12B_R: 12bit right data alignment selected
 930:Drivers/STM32G4xx_HAL_Driver/Src/stm32g4xx_hal_dac.c ****   * @param  Data Data to be loaded in the selected data holding register.
 931:Drivers/STM32G4xx_HAL_Driver/Src/stm32g4xx_hal_dac.c ****   * @retval HAL status
 932:Drivers/STM32G4xx_HAL_Driver/Src/stm32g4xx_hal_dac.c ****   */
 933:Drivers/STM32G4xx_HAL_Driver/Src/stm32g4xx_hal_dac.c **** HAL_StatusTypeDef HAL_DAC_SetValue(DAC_HandleTypeDef *hdac, uint32_t Channel, uint32_t Alignment, u
 934:Drivers/STM32G4xx_HAL_Driver/Src/stm32g4xx_hal_dac.c **** {
 742              		.loc 1 934 1 is_stmt 1 view -0
 743              		.cfi_startproc
 744              		@ args = 0, pretend = 0, frame = 8
 745              		@ frame_needed = 0, uses_anonymous_args = 0
 746              		@ link register save eliminated.
 747              		.loc 1 934 1 is_stmt 0 view .LVU211
 748 0000 10B4     		push	{r4}
 749              	.LCFI9:
 750              		.cfi_def_cfa_offset 4
ARM GAS  /tmp/ccpsplAO.s 			page 32


 751              		.cfi_offset 4, -4
 752 0002 83B0     		sub	sp, sp, #12
 753              	.LCFI10:
 754              		.cfi_def_cfa_offset 16
 935:Drivers/STM32G4xx_HAL_Driver/Src/stm32g4xx_hal_dac.c ****   __IO uint32_t tmp = 0;
 755              		.loc 1 935 3 is_stmt 1 view .LVU212
 756              		.loc 1 935 17 is_stmt 0 view .LVU213
 757 0004 0024     		movs	r4, #0
 758 0006 0194     		str	r4, [sp, #4]
 936:Drivers/STM32G4xx_HAL_Driver/Src/stm32g4xx_hal_dac.c **** 
 937:Drivers/STM32G4xx_HAL_Driver/Src/stm32g4xx_hal_dac.c ****   /* Check the parameters */
 938:Drivers/STM32G4xx_HAL_Driver/Src/stm32g4xx_hal_dac.c ****   assert_param(IS_DAC_CHANNEL(hdac->Instance, Channel));
 759              		.loc 1 938 3 is_stmt 1 view .LVU214
 939:Drivers/STM32G4xx_HAL_Driver/Src/stm32g4xx_hal_dac.c ****   assert_param(IS_DAC_ALIGN(Alignment));
 760              		.loc 1 939 3 view .LVU215
 940:Drivers/STM32G4xx_HAL_Driver/Src/stm32g4xx_hal_dac.c ****   /* In case DMA Double data mode is activated, DATA range is almost full uin32_t one: no check */
 941:Drivers/STM32G4xx_HAL_Driver/Src/stm32g4xx_hal_dac.c ****   if ((hdac->Instance->MCR & (DAC_MCR_DMADOUBLE1 << (Channel & 0x10UL))) == 0UL)
 761              		.loc 1 941 3 view .LVU216
 762              		.loc 1 941 12 is_stmt 0 view .LVU217
 763 0008 0068     		ldr	r0, [r0]
 764              	.LVL56:
 765              		.loc 1 941 22 view .LVU218
 766 000a C46B     		ldr	r4, [r0, #60]
 942:Drivers/STM32G4xx_HAL_Driver/Src/stm32g4xx_hal_dac.c ****   {
 943:Drivers/STM32G4xx_HAL_Driver/Src/stm32g4xx_hal_dac.c ****     assert_param(IS_DAC_DATA(Data));
 767              		.loc 1 943 5 is_stmt 1 view .LVU219
 944:Drivers/STM32G4xx_HAL_Driver/Src/stm32g4xx_hal_dac.c ****   }
 945:Drivers/STM32G4xx_HAL_Driver/Src/stm32g4xx_hal_dac.c **** 
 946:Drivers/STM32G4xx_HAL_Driver/Src/stm32g4xx_hal_dac.c ****   tmp = (uint32_t)hdac->Instance;
 768              		.loc 1 946 3 view .LVU220
 769              		.loc 1 946 7 is_stmt 0 view .LVU221
 770 000c 0190     		str	r0, [sp, #4]
 947:Drivers/STM32G4xx_HAL_Driver/Src/stm32g4xx_hal_dac.c ****   if (Channel == DAC_CHANNEL_1)
 771              		.loc 1 947 3 is_stmt 1 view .LVU222
 772              		.loc 1 947 6 is_stmt 0 view .LVU223
 773 000e 51B9     		cbnz	r1, .L58
 948:Drivers/STM32G4xx_HAL_Driver/Src/stm32g4xx_hal_dac.c ****   {
 949:Drivers/STM32G4xx_HAL_Driver/Src/stm32g4xx_hal_dac.c ****     tmp += DAC_DHR12R1_ALIGNMENT(Alignment);
 774              		.loc 1 949 5 is_stmt 1 view .LVU224
 775              		.loc 1 949 9 is_stmt 0 view .LVU225
 776 0010 0199     		ldr	r1, [sp, #4]
 777              	.LVL57:
 778              		.loc 1 949 9 view .LVU226
 779 0012 0A44     		add	r2, r2, r1
 780              	.LVL58:
 781              		.loc 1 949 9 view .LVU227
 782 0014 0832     		adds	r2, r2, #8
 783 0016 0192     		str	r2, [sp, #4]
 784              	.L59:
 950:Drivers/STM32G4xx_HAL_Driver/Src/stm32g4xx_hal_dac.c ****   }
 951:Drivers/STM32G4xx_HAL_Driver/Src/stm32g4xx_hal_dac.c ****   else
 952:Drivers/STM32G4xx_HAL_Driver/Src/stm32g4xx_hal_dac.c ****   {
 953:Drivers/STM32G4xx_HAL_Driver/Src/stm32g4xx_hal_dac.c ****     tmp += DAC_DHR12R2_ALIGNMENT(Alignment);
 954:Drivers/STM32G4xx_HAL_Driver/Src/stm32g4xx_hal_dac.c ****   }
 955:Drivers/STM32G4xx_HAL_Driver/Src/stm32g4xx_hal_dac.c **** 
 956:Drivers/STM32G4xx_HAL_Driver/Src/stm32g4xx_hal_dac.c ****   /* Set the DAC channel selected data holding register */
 957:Drivers/STM32G4xx_HAL_Driver/Src/stm32g4xx_hal_dac.c ****   *(__IO uint32_t *) tmp = Data;
ARM GAS  /tmp/ccpsplAO.s 			page 33


 785              		.loc 1 957 3 is_stmt 1 view .LVU228
 786              		.loc 1 957 4 is_stmt 0 view .LVU229
 787 0018 019A     		ldr	r2, [sp, #4]
 788              		.loc 1 957 26 view .LVU230
 789 001a 1360     		str	r3, [r2]
 958:Drivers/STM32G4xx_HAL_Driver/Src/stm32g4xx_hal_dac.c **** 
 959:Drivers/STM32G4xx_HAL_Driver/Src/stm32g4xx_hal_dac.c ****   /* Return function status */
 960:Drivers/STM32G4xx_HAL_Driver/Src/stm32g4xx_hal_dac.c ****   return HAL_OK;
 790              		.loc 1 960 3 is_stmt 1 view .LVU231
 961:Drivers/STM32G4xx_HAL_Driver/Src/stm32g4xx_hal_dac.c **** }
 791              		.loc 1 961 1 is_stmt 0 view .LVU232
 792 001c 0020     		movs	r0, #0
 793 001e 03B0     		add	sp, sp, #12
 794              	.LCFI11:
 795              		.cfi_remember_state
 796              		.cfi_def_cfa_offset 4
 797              		@ sp needed
 798 0020 5DF8044B 		ldr	r4, [sp], #4
 799              	.LCFI12:
 800              		.cfi_restore 4
 801              		.cfi_def_cfa_offset 0
 802 0024 7047     		bx	lr
 803              	.LVL59:
 804              	.L58:
 805              	.LCFI13:
 806              		.cfi_restore_state
 953:Drivers/STM32G4xx_HAL_Driver/Src/stm32g4xx_hal_dac.c ****   }
 807              		.loc 1 953 5 is_stmt 1 view .LVU233
 953:Drivers/STM32G4xx_HAL_Driver/Src/stm32g4xx_hal_dac.c ****   }
 808              		.loc 1 953 9 is_stmt 0 view .LVU234
 809 0026 0199     		ldr	r1, [sp, #4]
 810              	.LVL60:
 953:Drivers/STM32G4xx_HAL_Driver/Src/stm32g4xx_hal_dac.c ****   }
 811              		.loc 1 953 9 view .LVU235
 812 0028 0A44     		add	r2, r2, r1
 813              	.LVL61:
 953:Drivers/STM32G4xx_HAL_Driver/Src/stm32g4xx_hal_dac.c ****   }
 814              		.loc 1 953 9 view .LVU236
 815 002a 1432     		adds	r2, r2, #20
 816 002c 0192     		str	r2, [sp, #4]
 817 002e F3E7     		b	.L59
 818              		.cfi_endproc
 819              	.LFE171:
 821              		.section	.text.HAL_DAC_ConvCpltCallbackCh1,"ax",%progbits
 822              		.align	1
 823              		.weak	HAL_DAC_ConvCpltCallbackCh1
 824              		.syntax unified
 825              		.thumb
 826              		.thumb_func
 827              		.fpu fpv4-sp-d16
 829              	HAL_DAC_ConvCpltCallbackCh1:
 830              	.LVL62:
 831              	.LFB172:
 962:Drivers/STM32G4xx_HAL_Driver/Src/stm32g4xx_hal_dac.c **** 
 963:Drivers/STM32G4xx_HAL_Driver/Src/stm32g4xx_hal_dac.c **** /**
 964:Drivers/STM32G4xx_HAL_Driver/Src/stm32g4xx_hal_dac.c ****   * @brief  Conversion complete callback in non-blocking mode for Channel1
 965:Drivers/STM32G4xx_HAL_Driver/Src/stm32g4xx_hal_dac.c ****   * @param  hdac pointer to a DAC_HandleTypeDef structure that contains
ARM GAS  /tmp/ccpsplAO.s 			page 34


 966:Drivers/STM32G4xx_HAL_Driver/Src/stm32g4xx_hal_dac.c ****   *         the configuration information for the specified DAC.
 967:Drivers/STM32G4xx_HAL_Driver/Src/stm32g4xx_hal_dac.c ****   * @retval None
 968:Drivers/STM32G4xx_HAL_Driver/Src/stm32g4xx_hal_dac.c ****   */
 969:Drivers/STM32G4xx_HAL_Driver/Src/stm32g4xx_hal_dac.c **** __weak void HAL_DAC_ConvCpltCallbackCh1(DAC_HandleTypeDef *hdac)
 970:Drivers/STM32G4xx_HAL_Driver/Src/stm32g4xx_hal_dac.c **** {
 832              		.loc 1 970 1 is_stmt 1 view -0
 833              		.cfi_startproc
 834              		@ args = 0, pretend = 0, frame = 0
 835              		@ frame_needed = 0, uses_anonymous_args = 0
 836              		@ link register save eliminated.
 971:Drivers/STM32G4xx_HAL_Driver/Src/stm32g4xx_hal_dac.c ****   /* Prevent unused argument(s) compilation warning */
 972:Drivers/STM32G4xx_HAL_Driver/Src/stm32g4xx_hal_dac.c ****   UNUSED(hdac);
 837              		.loc 1 972 3 view .LVU238
 973:Drivers/STM32G4xx_HAL_Driver/Src/stm32g4xx_hal_dac.c **** 
 974:Drivers/STM32G4xx_HAL_Driver/Src/stm32g4xx_hal_dac.c ****   /* NOTE : This function should not be modified, when the callback is needed,
 975:Drivers/STM32G4xx_HAL_Driver/Src/stm32g4xx_hal_dac.c ****             the HAL_DAC_ConvCpltCallbackCh1 could be implemented in the user file
 976:Drivers/STM32G4xx_HAL_Driver/Src/stm32g4xx_hal_dac.c ****    */
 977:Drivers/STM32G4xx_HAL_Driver/Src/stm32g4xx_hal_dac.c **** }
 838              		.loc 1 977 1 is_stmt 0 view .LVU239
 839 0000 7047     		bx	lr
 840              		.cfi_endproc
 841              	.LFE172:
 843              		.section	.text.DAC_DMAConvCpltCh1,"ax",%progbits
 844              		.align	1
 845              		.global	DAC_DMAConvCpltCh1
 846              		.syntax unified
 847              		.thumb
 848              		.thumb_func
 849              		.fpu fpv4-sp-d16
 851              	DAC_DMAConvCpltCh1:
 852              	.LVL63:
 853              	.LFB180:
 978:Drivers/STM32G4xx_HAL_Driver/Src/stm32g4xx_hal_dac.c **** 
 979:Drivers/STM32G4xx_HAL_Driver/Src/stm32g4xx_hal_dac.c **** /**
 980:Drivers/STM32G4xx_HAL_Driver/Src/stm32g4xx_hal_dac.c ****   * @brief  Conversion half DMA transfer callback in non-blocking mode for Channel1
 981:Drivers/STM32G4xx_HAL_Driver/Src/stm32g4xx_hal_dac.c ****   * @param  hdac pointer to a DAC_HandleTypeDef structure that contains
 982:Drivers/STM32G4xx_HAL_Driver/Src/stm32g4xx_hal_dac.c ****   *         the configuration information for the specified DAC.
 983:Drivers/STM32G4xx_HAL_Driver/Src/stm32g4xx_hal_dac.c ****   * @retval None
 984:Drivers/STM32G4xx_HAL_Driver/Src/stm32g4xx_hal_dac.c ****   */
 985:Drivers/STM32G4xx_HAL_Driver/Src/stm32g4xx_hal_dac.c **** __weak void HAL_DAC_ConvHalfCpltCallbackCh1(DAC_HandleTypeDef *hdac)
 986:Drivers/STM32G4xx_HAL_Driver/Src/stm32g4xx_hal_dac.c **** {
 987:Drivers/STM32G4xx_HAL_Driver/Src/stm32g4xx_hal_dac.c ****   /* Prevent unused argument(s) compilation warning */
 988:Drivers/STM32G4xx_HAL_Driver/Src/stm32g4xx_hal_dac.c ****   UNUSED(hdac);
 989:Drivers/STM32G4xx_HAL_Driver/Src/stm32g4xx_hal_dac.c **** 
 990:Drivers/STM32G4xx_HAL_Driver/Src/stm32g4xx_hal_dac.c ****   /* NOTE : This function should not be modified, when the callback is needed,
 991:Drivers/STM32G4xx_HAL_Driver/Src/stm32g4xx_hal_dac.c ****             the HAL_DAC_ConvHalfCpltCallbackCh1 could be implemented in the user file
 992:Drivers/STM32G4xx_HAL_Driver/Src/stm32g4xx_hal_dac.c ****    */
 993:Drivers/STM32G4xx_HAL_Driver/Src/stm32g4xx_hal_dac.c **** }
 994:Drivers/STM32G4xx_HAL_Driver/Src/stm32g4xx_hal_dac.c **** 
 995:Drivers/STM32G4xx_HAL_Driver/Src/stm32g4xx_hal_dac.c **** /**
 996:Drivers/STM32G4xx_HAL_Driver/Src/stm32g4xx_hal_dac.c ****   * @brief  Error DAC callback for Channel1.
 997:Drivers/STM32G4xx_HAL_Driver/Src/stm32g4xx_hal_dac.c ****   * @param  hdac pointer to a DAC_HandleTypeDef structure that contains
 998:Drivers/STM32G4xx_HAL_Driver/Src/stm32g4xx_hal_dac.c ****   *         the configuration information for the specified DAC.
 999:Drivers/STM32G4xx_HAL_Driver/Src/stm32g4xx_hal_dac.c ****   * @retval None
1000:Drivers/STM32G4xx_HAL_Driver/Src/stm32g4xx_hal_dac.c ****   */
1001:Drivers/STM32G4xx_HAL_Driver/Src/stm32g4xx_hal_dac.c **** __weak void HAL_DAC_ErrorCallbackCh1(DAC_HandleTypeDef *hdac)
1002:Drivers/STM32G4xx_HAL_Driver/Src/stm32g4xx_hal_dac.c **** {
ARM GAS  /tmp/ccpsplAO.s 			page 35


1003:Drivers/STM32G4xx_HAL_Driver/Src/stm32g4xx_hal_dac.c ****   /* Prevent unused argument(s) compilation warning */
1004:Drivers/STM32G4xx_HAL_Driver/Src/stm32g4xx_hal_dac.c ****   UNUSED(hdac);
1005:Drivers/STM32G4xx_HAL_Driver/Src/stm32g4xx_hal_dac.c **** 
1006:Drivers/STM32G4xx_HAL_Driver/Src/stm32g4xx_hal_dac.c ****   /* NOTE : This function should not be modified, when the callback is needed,
1007:Drivers/STM32G4xx_HAL_Driver/Src/stm32g4xx_hal_dac.c ****             the HAL_DAC_ErrorCallbackCh1 could be implemented in the user file
1008:Drivers/STM32G4xx_HAL_Driver/Src/stm32g4xx_hal_dac.c ****    */
1009:Drivers/STM32G4xx_HAL_Driver/Src/stm32g4xx_hal_dac.c **** }
1010:Drivers/STM32G4xx_HAL_Driver/Src/stm32g4xx_hal_dac.c **** 
1011:Drivers/STM32G4xx_HAL_Driver/Src/stm32g4xx_hal_dac.c **** /**
1012:Drivers/STM32G4xx_HAL_Driver/Src/stm32g4xx_hal_dac.c ****   * @brief  DMA underrun DAC callback for channel1.
1013:Drivers/STM32G4xx_HAL_Driver/Src/stm32g4xx_hal_dac.c ****   * @param  hdac pointer to a DAC_HandleTypeDef structure that contains
1014:Drivers/STM32G4xx_HAL_Driver/Src/stm32g4xx_hal_dac.c ****   *         the configuration information for the specified DAC.
1015:Drivers/STM32G4xx_HAL_Driver/Src/stm32g4xx_hal_dac.c ****   * @retval None
1016:Drivers/STM32G4xx_HAL_Driver/Src/stm32g4xx_hal_dac.c ****   */
1017:Drivers/STM32G4xx_HAL_Driver/Src/stm32g4xx_hal_dac.c **** __weak void HAL_DAC_DMAUnderrunCallbackCh1(DAC_HandleTypeDef *hdac)
1018:Drivers/STM32G4xx_HAL_Driver/Src/stm32g4xx_hal_dac.c **** {
1019:Drivers/STM32G4xx_HAL_Driver/Src/stm32g4xx_hal_dac.c ****   /* Prevent unused argument(s) compilation warning */
1020:Drivers/STM32G4xx_HAL_Driver/Src/stm32g4xx_hal_dac.c ****   UNUSED(hdac);
1021:Drivers/STM32G4xx_HAL_Driver/Src/stm32g4xx_hal_dac.c **** 
1022:Drivers/STM32G4xx_HAL_Driver/Src/stm32g4xx_hal_dac.c ****   /* NOTE : This function should not be modified, when the callback is needed,
1023:Drivers/STM32G4xx_HAL_Driver/Src/stm32g4xx_hal_dac.c ****             the HAL_DAC_DMAUnderrunCallbackCh1 could be implemented in the user file
1024:Drivers/STM32G4xx_HAL_Driver/Src/stm32g4xx_hal_dac.c ****    */
1025:Drivers/STM32G4xx_HAL_Driver/Src/stm32g4xx_hal_dac.c **** }
1026:Drivers/STM32G4xx_HAL_Driver/Src/stm32g4xx_hal_dac.c **** 
1027:Drivers/STM32G4xx_HAL_Driver/Src/stm32g4xx_hal_dac.c **** /**
1028:Drivers/STM32G4xx_HAL_Driver/Src/stm32g4xx_hal_dac.c ****   * @}
1029:Drivers/STM32G4xx_HAL_Driver/Src/stm32g4xx_hal_dac.c ****   */
1030:Drivers/STM32G4xx_HAL_Driver/Src/stm32g4xx_hal_dac.c **** 
1031:Drivers/STM32G4xx_HAL_Driver/Src/stm32g4xx_hal_dac.c **** /** @defgroup DAC_Exported_Functions_Group3 Peripheral Control functions
1032:Drivers/STM32G4xx_HAL_Driver/Src/stm32g4xx_hal_dac.c ****   *  @brief    Peripheral Control functions
1033:Drivers/STM32G4xx_HAL_Driver/Src/stm32g4xx_hal_dac.c ****   *
1034:Drivers/STM32G4xx_HAL_Driver/Src/stm32g4xx_hal_dac.c **** @verbatim
1035:Drivers/STM32G4xx_HAL_Driver/Src/stm32g4xx_hal_dac.c ****   ==============================================================================
1036:Drivers/STM32G4xx_HAL_Driver/Src/stm32g4xx_hal_dac.c ****              ##### Peripheral Control functions #####
1037:Drivers/STM32G4xx_HAL_Driver/Src/stm32g4xx_hal_dac.c ****   ==============================================================================
1038:Drivers/STM32G4xx_HAL_Driver/Src/stm32g4xx_hal_dac.c ****     [..]  This section provides functions allowing to:
1039:Drivers/STM32G4xx_HAL_Driver/Src/stm32g4xx_hal_dac.c ****       (+) Configure channels.
1040:Drivers/STM32G4xx_HAL_Driver/Src/stm32g4xx_hal_dac.c ****       (+) Set the specified data holding register value for DAC channel.
1041:Drivers/STM32G4xx_HAL_Driver/Src/stm32g4xx_hal_dac.c **** 
1042:Drivers/STM32G4xx_HAL_Driver/Src/stm32g4xx_hal_dac.c **** @endverbatim
1043:Drivers/STM32G4xx_HAL_Driver/Src/stm32g4xx_hal_dac.c ****   * @{
1044:Drivers/STM32G4xx_HAL_Driver/Src/stm32g4xx_hal_dac.c ****   */
1045:Drivers/STM32G4xx_HAL_Driver/Src/stm32g4xx_hal_dac.c **** 
1046:Drivers/STM32G4xx_HAL_Driver/Src/stm32g4xx_hal_dac.c **** /**
1047:Drivers/STM32G4xx_HAL_Driver/Src/stm32g4xx_hal_dac.c ****   * @brief  Returns the last data output value of the selected DAC channel.
1048:Drivers/STM32G4xx_HAL_Driver/Src/stm32g4xx_hal_dac.c ****   * @param  hdac pointer to a DAC_HandleTypeDef structure that contains
1049:Drivers/STM32G4xx_HAL_Driver/Src/stm32g4xx_hal_dac.c ****   *         the configuration information for the specified DAC.
1050:Drivers/STM32G4xx_HAL_Driver/Src/stm32g4xx_hal_dac.c ****   * @param  Channel The selected DAC channel.
1051:Drivers/STM32G4xx_HAL_Driver/Src/stm32g4xx_hal_dac.c ****   *          This parameter can be one of the following values:
1052:Drivers/STM32G4xx_HAL_Driver/Src/stm32g4xx_hal_dac.c ****   *            @arg DAC_CHANNEL_1: DAC Channel1 selected
1053:Drivers/STM32G4xx_HAL_Driver/Src/stm32g4xx_hal_dac.c ****   *            @arg DAC_CHANNEL_2: DAC Channel2 selected (1)
1054:Drivers/STM32G4xx_HAL_Driver/Src/stm32g4xx_hal_dac.c ****   *
1055:Drivers/STM32G4xx_HAL_Driver/Src/stm32g4xx_hal_dac.c ****   *         (1) On this STM32 serie, parameter not available on all instances.
1056:Drivers/STM32G4xx_HAL_Driver/Src/stm32g4xx_hal_dac.c ****   *             Refer to device datasheet for channels availability.
1057:Drivers/STM32G4xx_HAL_Driver/Src/stm32g4xx_hal_dac.c ****   * @retval The selected DAC channel data output value.
1058:Drivers/STM32G4xx_HAL_Driver/Src/stm32g4xx_hal_dac.c ****   */
1059:Drivers/STM32G4xx_HAL_Driver/Src/stm32g4xx_hal_dac.c **** uint32_t HAL_DAC_GetValue(DAC_HandleTypeDef *hdac, uint32_t Channel)
ARM GAS  /tmp/ccpsplAO.s 			page 36


1060:Drivers/STM32G4xx_HAL_Driver/Src/stm32g4xx_hal_dac.c **** {
1061:Drivers/STM32G4xx_HAL_Driver/Src/stm32g4xx_hal_dac.c ****   /* Check the parameters */
1062:Drivers/STM32G4xx_HAL_Driver/Src/stm32g4xx_hal_dac.c ****   assert_param(IS_DAC_CHANNEL(hdac->Instance, Channel));
1063:Drivers/STM32G4xx_HAL_Driver/Src/stm32g4xx_hal_dac.c **** 
1064:Drivers/STM32G4xx_HAL_Driver/Src/stm32g4xx_hal_dac.c ****   /* Returns the DAC channel data output register value */
1065:Drivers/STM32G4xx_HAL_Driver/Src/stm32g4xx_hal_dac.c ****   if (Channel == DAC_CHANNEL_1)
1066:Drivers/STM32G4xx_HAL_Driver/Src/stm32g4xx_hal_dac.c ****   {
1067:Drivers/STM32G4xx_HAL_Driver/Src/stm32g4xx_hal_dac.c ****     return hdac->Instance->DOR1;
1068:Drivers/STM32G4xx_HAL_Driver/Src/stm32g4xx_hal_dac.c ****   }
1069:Drivers/STM32G4xx_HAL_Driver/Src/stm32g4xx_hal_dac.c ****   else
1070:Drivers/STM32G4xx_HAL_Driver/Src/stm32g4xx_hal_dac.c ****   {
1071:Drivers/STM32G4xx_HAL_Driver/Src/stm32g4xx_hal_dac.c ****     return hdac->Instance->DOR2;
1072:Drivers/STM32G4xx_HAL_Driver/Src/stm32g4xx_hal_dac.c ****   }
1073:Drivers/STM32G4xx_HAL_Driver/Src/stm32g4xx_hal_dac.c **** }
1074:Drivers/STM32G4xx_HAL_Driver/Src/stm32g4xx_hal_dac.c **** 
1075:Drivers/STM32G4xx_HAL_Driver/Src/stm32g4xx_hal_dac.c **** /**
1076:Drivers/STM32G4xx_HAL_Driver/Src/stm32g4xx_hal_dac.c ****   * @brief  Configures the selected DAC channel.
1077:Drivers/STM32G4xx_HAL_Driver/Src/stm32g4xx_hal_dac.c ****   * @note   By calling this function, the high frequency interface mode (HFSEL bits)
1078:Drivers/STM32G4xx_HAL_Driver/Src/stm32g4xx_hal_dac.c ****   *         will be set. This parameter scope is the DAC instance. As the function
1079:Drivers/STM32G4xx_HAL_Driver/Src/stm32g4xx_hal_dac.c ****   *         is called for each channel, the @ref DAC_HighFrequency of @arg sConfig
1080:Drivers/STM32G4xx_HAL_Driver/Src/stm32g4xx_hal_dac.c ****   *         must be the same at each call.
1081:Drivers/STM32G4xx_HAL_Driver/Src/stm32g4xx_hal_dac.c ****   *         (or DAC_HIGH_FREQUENCY_INTERFACE_MODE_AUTOMATIC self detect).
1082:Drivers/STM32G4xx_HAL_Driver/Src/stm32g4xx_hal_dac.c ****   * @param  hdac pointer to a DAC_HandleTypeDef structure that contains
1083:Drivers/STM32G4xx_HAL_Driver/Src/stm32g4xx_hal_dac.c ****   *         the configuration information for the specified DAC.
1084:Drivers/STM32G4xx_HAL_Driver/Src/stm32g4xx_hal_dac.c ****   * @param  sConfig DAC configuration structure.
1085:Drivers/STM32G4xx_HAL_Driver/Src/stm32g4xx_hal_dac.c ****   * @param  Channel The selected DAC channel.
1086:Drivers/STM32G4xx_HAL_Driver/Src/stm32g4xx_hal_dac.c ****   *          This parameter can be one of the following values:
1087:Drivers/STM32G4xx_HAL_Driver/Src/stm32g4xx_hal_dac.c ****   *            @arg DAC_CHANNEL_1: DAC Channel1 selected
1088:Drivers/STM32G4xx_HAL_Driver/Src/stm32g4xx_hal_dac.c ****   *            @arg DAC_CHANNEL_2: DAC Channel2 selected (1)
1089:Drivers/STM32G4xx_HAL_Driver/Src/stm32g4xx_hal_dac.c ****   *
1090:Drivers/STM32G4xx_HAL_Driver/Src/stm32g4xx_hal_dac.c ****   *         (1) On this STM32 serie, parameter not available on all instances.
1091:Drivers/STM32G4xx_HAL_Driver/Src/stm32g4xx_hal_dac.c ****   *             Refer to device datasheet for channels availability.
1092:Drivers/STM32G4xx_HAL_Driver/Src/stm32g4xx_hal_dac.c ****   * @retval HAL status
1093:Drivers/STM32G4xx_HAL_Driver/Src/stm32g4xx_hal_dac.c ****   */
1094:Drivers/STM32G4xx_HAL_Driver/Src/stm32g4xx_hal_dac.c **** HAL_StatusTypeDef HAL_DAC_ConfigChannel(DAC_HandleTypeDef *hdac, DAC_ChannelConfTypeDef *sConfig, u
1095:Drivers/STM32G4xx_HAL_Driver/Src/stm32g4xx_hal_dac.c **** {
1096:Drivers/STM32G4xx_HAL_Driver/Src/stm32g4xx_hal_dac.c ****   uint32_t tmpreg1;
1097:Drivers/STM32G4xx_HAL_Driver/Src/stm32g4xx_hal_dac.c ****   uint32_t tmpreg2;
1098:Drivers/STM32G4xx_HAL_Driver/Src/stm32g4xx_hal_dac.c ****   uint32_t tickstart = 0U;
1099:Drivers/STM32G4xx_HAL_Driver/Src/stm32g4xx_hal_dac.c ****   uint32_t hclkfreq;
1100:Drivers/STM32G4xx_HAL_Driver/Src/stm32g4xx_hal_dac.c ****   uint32_t connectOnChip;
1101:Drivers/STM32G4xx_HAL_Driver/Src/stm32g4xx_hal_dac.c **** 
1102:Drivers/STM32G4xx_HAL_Driver/Src/stm32g4xx_hal_dac.c ****   /* Check the DAC parameters */
1103:Drivers/STM32G4xx_HAL_Driver/Src/stm32g4xx_hal_dac.c ****   assert_param(IS_DAC_HIGH_FREQUENCY_MODE(sConfig->DAC_HighFrequency));
1104:Drivers/STM32G4xx_HAL_Driver/Src/stm32g4xx_hal_dac.c ****   assert_param(IS_DAC_TRIGGER(hdac->Instance, sConfig->DAC_Trigger));
1105:Drivers/STM32G4xx_HAL_Driver/Src/stm32g4xx_hal_dac.c ****   assert_param(IS_DAC_TRIGGER(hdac->Instance, sConfig->DAC_Trigger2));
1106:Drivers/STM32G4xx_HAL_Driver/Src/stm32g4xx_hal_dac.c ****   assert_param(IS_DAC_OUTPUT_BUFFER_STATE(sConfig->DAC_OutputBuffer));
1107:Drivers/STM32G4xx_HAL_Driver/Src/stm32g4xx_hal_dac.c ****   assert_param(IS_DAC_CHIP_CONNECTION(sConfig->DAC_ConnectOnChipPeripheral));
1108:Drivers/STM32G4xx_HAL_Driver/Src/stm32g4xx_hal_dac.c ****   assert_param(IS_DAC_TRIMMING(sConfig->DAC_UserTrimming));
1109:Drivers/STM32G4xx_HAL_Driver/Src/stm32g4xx_hal_dac.c ****   if ((sConfig->DAC_UserTrimming) == DAC_TRIMMING_USER)
1110:Drivers/STM32G4xx_HAL_Driver/Src/stm32g4xx_hal_dac.c ****   {
1111:Drivers/STM32G4xx_HAL_Driver/Src/stm32g4xx_hal_dac.c ****     assert_param(IS_DAC_TRIMMINGVALUE(sConfig->DAC_TrimmingValue));
1112:Drivers/STM32G4xx_HAL_Driver/Src/stm32g4xx_hal_dac.c ****   }
1113:Drivers/STM32G4xx_HAL_Driver/Src/stm32g4xx_hal_dac.c ****   assert_param(IS_DAC_SAMPLEANDHOLD(sConfig->DAC_SampleAndHold));
1114:Drivers/STM32G4xx_HAL_Driver/Src/stm32g4xx_hal_dac.c ****   if ((sConfig->DAC_SampleAndHold) == DAC_SAMPLEANDHOLD_ENABLE)
1115:Drivers/STM32G4xx_HAL_Driver/Src/stm32g4xx_hal_dac.c ****   {
1116:Drivers/STM32G4xx_HAL_Driver/Src/stm32g4xx_hal_dac.c ****     assert_param(IS_DAC_SAMPLETIME(sConfig->DAC_SampleAndHoldConfig.DAC_SampleTime));
ARM GAS  /tmp/ccpsplAO.s 			page 37


1117:Drivers/STM32G4xx_HAL_Driver/Src/stm32g4xx_hal_dac.c ****     assert_param(IS_DAC_HOLDTIME(sConfig->DAC_SampleAndHoldConfig.DAC_HoldTime));
1118:Drivers/STM32G4xx_HAL_Driver/Src/stm32g4xx_hal_dac.c ****     assert_param(IS_DAC_REFRESHTIME(sConfig->DAC_SampleAndHoldConfig.DAC_RefreshTime));
1119:Drivers/STM32G4xx_HAL_Driver/Src/stm32g4xx_hal_dac.c ****   }
1120:Drivers/STM32G4xx_HAL_Driver/Src/stm32g4xx_hal_dac.c ****   assert_param(IS_DAC_CHANNEL(hdac->Instance, Channel));
1121:Drivers/STM32G4xx_HAL_Driver/Src/stm32g4xx_hal_dac.c ****   assert_param(IS_FUNCTIONAL_STATE(sConfig->DAC_DMADoubleDataMode));
1122:Drivers/STM32G4xx_HAL_Driver/Src/stm32g4xx_hal_dac.c ****   assert_param(IS_FUNCTIONAL_STATE(sConfig->DAC_SignedFormat));
1123:Drivers/STM32G4xx_HAL_Driver/Src/stm32g4xx_hal_dac.c **** 
1124:Drivers/STM32G4xx_HAL_Driver/Src/stm32g4xx_hal_dac.c ****   /* Process locked */
1125:Drivers/STM32G4xx_HAL_Driver/Src/stm32g4xx_hal_dac.c ****   __HAL_LOCK(hdac);
1126:Drivers/STM32G4xx_HAL_Driver/Src/stm32g4xx_hal_dac.c **** 
1127:Drivers/STM32G4xx_HAL_Driver/Src/stm32g4xx_hal_dac.c ****   /* Change DAC state */
1128:Drivers/STM32G4xx_HAL_Driver/Src/stm32g4xx_hal_dac.c ****   hdac->State = HAL_DAC_STATE_BUSY;
1129:Drivers/STM32G4xx_HAL_Driver/Src/stm32g4xx_hal_dac.c **** 
1130:Drivers/STM32G4xx_HAL_Driver/Src/stm32g4xx_hal_dac.c ****   if (sConfig->DAC_SampleAndHold == DAC_SAMPLEANDHOLD_ENABLE)
1131:Drivers/STM32G4xx_HAL_Driver/Src/stm32g4xx_hal_dac.c ****     /* Sample on old configuration */
1132:Drivers/STM32G4xx_HAL_Driver/Src/stm32g4xx_hal_dac.c ****   {
1133:Drivers/STM32G4xx_HAL_Driver/Src/stm32g4xx_hal_dac.c ****     /* SampleTime */
1134:Drivers/STM32G4xx_HAL_Driver/Src/stm32g4xx_hal_dac.c ****     if (Channel == DAC_CHANNEL_1)
1135:Drivers/STM32G4xx_HAL_Driver/Src/stm32g4xx_hal_dac.c ****     {
1136:Drivers/STM32G4xx_HAL_Driver/Src/stm32g4xx_hal_dac.c ****       /* Get timeout */
1137:Drivers/STM32G4xx_HAL_Driver/Src/stm32g4xx_hal_dac.c ****       tickstart = HAL_GetTick();
1138:Drivers/STM32G4xx_HAL_Driver/Src/stm32g4xx_hal_dac.c **** 
1139:Drivers/STM32G4xx_HAL_Driver/Src/stm32g4xx_hal_dac.c ****       /* SHSR1 can be written when BWST1 is cleared */
1140:Drivers/STM32G4xx_HAL_Driver/Src/stm32g4xx_hal_dac.c ****       while (((hdac->Instance->SR) & DAC_SR_BWST1) != 0UL)
1141:Drivers/STM32G4xx_HAL_Driver/Src/stm32g4xx_hal_dac.c ****       {
1142:Drivers/STM32G4xx_HAL_Driver/Src/stm32g4xx_hal_dac.c ****         /* Check for the Timeout */
1143:Drivers/STM32G4xx_HAL_Driver/Src/stm32g4xx_hal_dac.c ****         if ((HAL_GetTick() - tickstart) > TIMEOUT_DAC_CALIBCONFIG)
1144:Drivers/STM32G4xx_HAL_Driver/Src/stm32g4xx_hal_dac.c ****         {
1145:Drivers/STM32G4xx_HAL_Driver/Src/stm32g4xx_hal_dac.c ****           /* Update error code */
1146:Drivers/STM32G4xx_HAL_Driver/Src/stm32g4xx_hal_dac.c ****           SET_BIT(hdac->ErrorCode, HAL_DAC_ERROR_TIMEOUT);
1147:Drivers/STM32G4xx_HAL_Driver/Src/stm32g4xx_hal_dac.c **** 
1148:Drivers/STM32G4xx_HAL_Driver/Src/stm32g4xx_hal_dac.c ****           /* Change the DMA state */
1149:Drivers/STM32G4xx_HAL_Driver/Src/stm32g4xx_hal_dac.c ****           hdac->State = HAL_DAC_STATE_TIMEOUT;
1150:Drivers/STM32G4xx_HAL_Driver/Src/stm32g4xx_hal_dac.c **** 
1151:Drivers/STM32G4xx_HAL_Driver/Src/stm32g4xx_hal_dac.c ****           return HAL_TIMEOUT;
1152:Drivers/STM32G4xx_HAL_Driver/Src/stm32g4xx_hal_dac.c ****         }
1153:Drivers/STM32G4xx_HAL_Driver/Src/stm32g4xx_hal_dac.c ****       }
1154:Drivers/STM32G4xx_HAL_Driver/Src/stm32g4xx_hal_dac.c ****       HAL_Delay(1);
1155:Drivers/STM32G4xx_HAL_Driver/Src/stm32g4xx_hal_dac.c ****       hdac->Instance->SHSR1 = sConfig->DAC_SampleAndHoldConfig.DAC_SampleTime;
1156:Drivers/STM32G4xx_HAL_Driver/Src/stm32g4xx_hal_dac.c ****     }
1157:Drivers/STM32G4xx_HAL_Driver/Src/stm32g4xx_hal_dac.c ****     else /* Channel 2 */
1158:Drivers/STM32G4xx_HAL_Driver/Src/stm32g4xx_hal_dac.c ****     {
1159:Drivers/STM32G4xx_HAL_Driver/Src/stm32g4xx_hal_dac.c ****       /* SHSR2 can be written when BWST2 is cleared */
1160:Drivers/STM32G4xx_HAL_Driver/Src/stm32g4xx_hal_dac.c **** 
1161:Drivers/STM32G4xx_HAL_Driver/Src/stm32g4xx_hal_dac.c ****       while (((hdac->Instance->SR) & DAC_SR_BWST2) != 0UL)
1162:Drivers/STM32G4xx_HAL_Driver/Src/stm32g4xx_hal_dac.c ****       {
1163:Drivers/STM32G4xx_HAL_Driver/Src/stm32g4xx_hal_dac.c ****         /* Check for the Timeout */
1164:Drivers/STM32G4xx_HAL_Driver/Src/stm32g4xx_hal_dac.c ****         if ((HAL_GetTick() - tickstart) > TIMEOUT_DAC_CALIBCONFIG)
1165:Drivers/STM32G4xx_HAL_Driver/Src/stm32g4xx_hal_dac.c ****         {
1166:Drivers/STM32G4xx_HAL_Driver/Src/stm32g4xx_hal_dac.c ****           /* Update error code */
1167:Drivers/STM32G4xx_HAL_Driver/Src/stm32g4xx_hal_dac.c ****           SET_BIT(hdac->ErrorCode, HAL_DAC_ERROR_TIMEOUT);
1168:Drivers/STM32G4xx_HAL_Driver/Src/stm32g4xx_hal_dac.c **** 
1169:Drivers/STM32G4xx_HAL_Driver/Src/stm32g4xx_hal_dac.c ****           /* Change the DMA state */
1170:Drivers/STM32G4xx_HAL_Driver/Src/stm32g4xx_hal_dac.c ****           hdac->State = HAL_DAC_STATE_TIMEOUT;
1171:Drivers/STM32G4xx_HAL_Driver/Src/stm32g4xx_hal_dac.c **** 
1172:Drivers/STM32G4xx_HAL_Driver/Src/stm32g4xx_hal_dac.c ****           return HAL_TIMEOUT;
1173:Drivers/STM32G4xx_HAL_Driver/Src/stm32g4xx_hal_dac.c ****         }
ARM GAS  /tmp/ccpsplAO.s 			page 38


1174:Drivers/STM32G4xx_HAL_Driver/Src/stm32g4xx_hal_dac.c ****       }
1175:Drivers/STM32G4xx_HAL_Driver/Src/stm32g4xx_hal_dac.c ****       HAL_Delay(1U);
1176:Drivers/STM32G4xx_HAL_Driver/Src/stm32g4xx_hal_dac.c ****       hdac->Instance->SHSR2 = sConfig->DAC_SampleAndHoldConfig.DAC_SampleTime;
1177:Drivers/STM32G4xx_HAL_Driver/Src/stm32g4xx_hal_dac.c ****     }
1178:Drivers/STM32G4xx_HAL_Driver/Src/stm32g4xx_hal_dac.c **** 
1179:Drivers/STM32G4xx_HAL_Driver/Src/stm32g4xx_hal_dac.c ****     /* HoldTime */
1180:Drivers/STM32G4xx_HAL_Driver/Src/stm32g4xx_hal_dac.c ****     MODIFY_REG(hdac->Instance->SHHR, DAC_SHHR_THOLD1 << (Channel & 0x10UL), (sConfig->DAC_SampleAnd
1181:Drivers/STM32G4xx_HAL_Driver/Src/stm32g4xx_hal_dac.c ****     /* RefreshTime */
1182:Drivers/STM32G4xx_HAL_Driver/Src/stm32g4xx_hal_dac.c ****     MODIFY_REG(hdac->Instance->SHRR, DAC_SHRR_TREFRESH1 << (Channel & 0x10UL), (sConfig->DAC_Sample
1183:Drivers/STM32G4xx_HAL_Driver/Src/stm32g4xx_hal_dac.c ****   }
1184:Drivers/STM32G4xx_HAL_Driver/Src/stm32g4xx_hal_dac.c **** 
1185:Drivers/STM32G4xx_HAL_Driver/Src/stm32g4xx_hal_dac.c ****   if (sConfig->DAC_UserTrimming == DAC_TRIMMING_USER)
1186:Drivers/STM32G4xx_HAL_Driver/Src/stm32g4xx_hal_dac.c ****     /* USER TRIMMING */
1187:Drivers/STM32G4xx_HAL_Driver/Src/stm32g4xx_hal_dac.c ****   {
1188:Drivers/STM32G4xx_HAL_Driver/Src/stm32g4xx_hal_dac.c ****     /* Get the DAC CCR value */
1189:Drivers/STM32G4xx_HAL_Driver/Src/stm32g4xx_hal_dac.c ****     tmpreg1 = hdac->Instance->CCR;
1190:Drivers/STM32G4xx_HAL_Driver/Src/stm32g4xx_hal_dac.c ****     /* Clear trimming value */
1191:Drivers/STM32G4xx_HAL_Driver/Src/stm32g4xx_hal_dac.c ****     tmpreg1 &= ~(((uint32_t)(DAC_CCR_OTRIM1)) << (Channel & 0x10UL));
1192:Drivers/STM32G4xx_HAL_Driver/Src/stm32g4xx_hal_dac.c ****     /* Configure for the selected trimming offset */
1193:Drivers/STM32G4xx_HAL_Driver/Src/stm32g4xx_hal_dac.c ****     tmpreg2 = sConfig->DAC_TrimmingValue;
1194:Drivers/STM32G4xx_HAL_Driver/Src/stm32g4xx_hal_dac.c ****     /* Calculate CCR register value depending on DAC_Channel */
1195:Drivers/STM32G4xx_HAL_Driver/Src/stm32g4xx_hal_dac.c ****     tmpreg1 |= tmpreg2 << (Channel & 0x10UL);
1196:Drivers/STM32G4xx_HAL_Driver/Src/stm32g4xx_hal_dac.c ****     /* Write to DAC CCR */
1197:Drivers/STM32G4xx_HAL_Driver/Src/stm32g4xx_hal_dac.c ****     hdac->Instance->CCR = tmpreg1;
1198:Drivers/STM32G4xx_HAL_Driver/Src/stm32g4xx_hal_dac.c ****   }
1199:Drivers/STM32G4xx_HAL_Driver/Src/stm32g4xx_hal_dac.c ****   /* else factory trimming is used (factory setting are available at reset)*/
1200:Drivers/STM32G4xx_HAL_Driver/Src/stm32g4xx_hal_dac.c ****   /* SW Nothing has nothing to do */
1201:Drivers/STM32G4xx_HAL_Driver/Src/stm32g4xx_hal_dac.c **** 
1202:Drivers/STM32G4xx_HAL_Driver/Src/stm32g4xx_hal_dac.c ****   /* Get the DAC MCR value */
1203:Drivers/STM32G4xx_HAL_Driver/Src/stm32g4xx_hal_dac.c ****   tmpreg1 = hdac->Instance->MCR;
1204:Drivers/STM32G4xx_HAL_Driver/Src/stm32g4xx_hal_dac.c ****   /* Clear DAC_MCR_MODEx bits */
1205:Drivers/STM32G4xx_HAL_Driver/Src/stm32g4xx_hal_dac.c ****   tmpreg1 &= ~(((uint32_t)(DAC_MCR_MODE1)) << (Channel & 0x10UL));
1206:Drivers/STM32G4xx_HAL_Driver/Src/stm32g4xx_hal_dac.c ****   /* Configure for the selected DAC channel: mode, buffer output & on chip peripheral connect */
1207:Drivers/STM32G4xx_HAL_Driver/Src/stm32g4xx_hal_dac.c ****   if ((sConfig->DAC_ConnectOnChipPeripheral & DAC_CHIPCONNECT_EXTERNAL) == DAC_CHIPCONNECT_EXTERNAL
1208:Drivers/STM32G4xx_HAL_Driver/Src/stm32g4xx_hal_dac.c ****   {
1209:Drivers/STM32G4xx_HAL_Driver/Src/stm32g4xx_hal_dac.c ****     connectOnChip = 0x00000000UL;
1210:Drivers/STM32G4xx_HAL_Driver/Src/stm32g4xx_hal_dac.c ****   }
1211:Drivers/STM32G4xx_HAL_Driver/Src/stm32g4xx_hal_dac.c ****   else if ((sConfig->DAC_ConnectOnChipPeripheral & DAC_CHIPCONNECT_INTERNAL) == DAC_CHIPCONNECT_INT
1212:Drivers/STM32G4xx_HAL_Driver/Src/stm32g4xx_hal_dac.c ****   {
1213:Drivers/STM32G4xx_HAL_Driver/Src/stm32g4xx_hal_dac.c ****     connectOnChip = DAC_MCR_MODE1_0;
1214:Drivers/STM32G4xx_HAL_Driver/Src/stm32g4xx_hal_dac.c ****   }
1215:Drivers/STM32G4xx_HAL_Driver/Src/stm32g4xx_hal_dac.c ****   else /* (sConfig->DAC_ConnectOnChipPeripheral & DAC_CHIPCONNECT_BOTH) == DAC_CHIPCONNECT_BOTH */
1216:Drivers/STM32G4xx_HAL_Driver/Src/stm32g4xx_hal_dac.c ****   {
1217:Drivers/STM32G4xx_HAL_Driver/Src/stm32g4xx_hal_dac.c ****     if (sConfig->DAC_OutputBuffer == DAC_OUTPUTBUFFER_ENABLE)
1218:Drivers/STM32G4xx_HAL_Driver/Src/stm32g4xx_hal_dac.c ****     {
1219:Drivers/STM32G4xx_HAL_Driver/Src/stm32g4xx_hal_dac.c ****       connectOnChip = DAC_MCR_MODE1_0;
1220:Drivers/STM32G4xx_HAL_Driver/Src/stm32g4xx_hal_dac.c ****     }
1221:Drivers/STM32G4xx_HAL_Driver/Src/stm32g4xx_hal_dac.c ****     else
1222:Drivers/STM32G4xx_HAL_Driver/Src/stm32g4xx_hal_dac.c ****     {
1223:Drivers/STM32G4xx_HAL_Driver/Src/stm32g4xx_hal_dac.c ****       connectOnChip = 0x00000000UL;
1224:Drivers/STM32G4xx_HAL_Driver/Src/stm32g4xx_hal_dac.c ****     }
1225:Drivers/STM32G4xx_HAL_Driver/Src/stm32g4xx_hal_dac.c ****   }
1226:Drivers/STM32G4xx_HAL_Driver/Src/stm32g4xx_hal_dac.c ****   tmpreg2 = (sConfig->DAC_SampleAndHold | sConfig->DAC_OutputBuffer | connectOnChip);
1227:Drivers/STM32G4xx_HAL_Driver/Src/stm32g4xx_hal_dac.c ****   /* Clear DAC_MCR_DMADOUBLEx */
1228:Drivers/STM32G4xx_HAL_Driver/Src/stm32g4xx_hal_dac.c ****   tmpreg1 &= ~(((uint32_t)(DAC_MCR_DMADOUBLE1)) << (Channel & 0x10UL));
1229:Drivers/STM32G4xx_HAL_Driver/Src/stm32g4xx_hal_dac.c ****   /* Configure for the selected DAC channel: DMA double data mode */
1230:Drivers/STM32G4xx_HAL_Driver/Src/stm32g4xx_hal_dac.c ****   tmpreg2 |= (sConfig->DAC_DMADoubleDataMode == ENABLE) ? DAC_MCR_DMADOUBLE1 : 0UL;
ARM GAS  /tmp/ccpsplAO.s 			page 39


1231:Drivers/STM32G4xx_HAL_Driver/Src/stm32g4xx_hal_dac.c ****   /* Clear DAC_MCR_SINFORMATx */
1232:Drivers/STM32G4xx_HAL_Driver/Src/stm32g4xx_hal_dac.c ****   tmpreg1 &= ~(((uint32_t)(DAC_MCR_SINFORMAT1)) << (Channel & 0x10UL));
1233:Drivers/STM32G4xx_HAL_Driver/Src/stm32g4xx_hal_dac.c ****   /* Configure for the selected DAC channel: Signed format */
1234:Drivers/STM32G4xx_HAL_Driver/Src/stm32g4xx_hal_dac.c ****   tmpreg2 |= (sConfig->DAC_SignedFormat == ENABLE) ? DAC_MCR_SINFORMAT1 : 0UL;
1235:Drivers/STM32G4xx_HAL_Driver/Src/stm32g4xx_hal_dac.c ****   /* Clear DAC_MCR_HFSEL bits */
1236:Drivers/STM32G4xx_HAL_Driver/Src/stm32g4xx_hal_dac.c ****   tmpreg1 &= ~(DAC_MCR_HFSEL);
1237:Drivers/STM32G4xx_HAL_Driver/Src/stm32g4xx_hal_dac.c ****   /* Configure for both DAC channels: high frequency mode */
1238:Drivers/STM32G4xx_HAL_Driver/Src/stm32g4xx_hal_dac.c ****   if (DAC_HIGH_FREQUENCY_INTERFACE_MODE_AUTOMATIC == sConfig->DAC_HighFrequency)
1239:Drivers/STM32G4xx_HAL_Driver/Src/stm32g4xx_hal_dac.c ****   {
1240:Drivers/STM32G4xx_HAL_Driver/Src/stm32g4xx_hal_dac.c ****     hclkfreq = HAL_RCC_GetHCLKFreq();
1241:Drivers/STM32G4xx_HAL_Driver/Src/stm32g4xx_hal_dac.c ****     if (hclkfreq > HFSEL_ENABLE_THRESHOLD_160MHZ)
1242:Drivers/STM32G4xx_HAL_Driver/Src/stm32g4xx_hal_dac.c ****     {
1243:Drivers/STM32G4xx_HAL_Driver/Src/stm32g4xx_hal_dac.c ****       tmpreg1 |= DAC_HIGH_FREQUENCY_INTERFACE_MODE_ABOVE_160MHZ;
1244:Drivers/STM32G4xx_HAL_Driver/Src/stm32g4xx_hal_dac.c ****     }
1245:Drivers/STM32G4xx_HAL_Driver/Src/stm32g4xx_hal_dac.c ****     else if (hclkfreq > HFSEL_ENABLE_THRESHOLD_80MHZ)
1246:Drivers/STM32G4xx_HAL_Driver/Src/stm32g4xx_hal_dac.c ****     {
1247:Drivers/STM32G4xx_HAL_Driver/Src/stm32g4xx_hal_dac.c ****       tmpreg1 |= DAC_HIGH_FREQUENCY_INTERFACE_MODE_ABOVE_80MHZ;
1248:Drivers/STM32G4xx_HAL_Driver/Src/stm32g4xx_hal_dac.c ****     }
1249:Drivers/STM32G4xx_HAL_Driver/Src/stm32g4xx_hal_dac.c ****     else
1250:Drivers/STM32G4xx_HAL_Driver/Src/stm32g4xx_hal_dac.c ****     {
1251:Drivers/STM32G4xx_HAL_Driver/Src/stm32g4xx_hal_dac.c ****       tmpreg1 |= DAC_HIGH_FREQUENCY_INTERFACE_MODE_DISABLE;
1252:Drivers/STM32G4xx_HAL_Driver/Src/stm32g4xx_hal_dac.c ****     }
1253:Drivers/STM32G4xx_HAL_Driver/Src/stm32g4xx_hal_dac.c ****   }
1254:Drivers/STM32G4xx_HAL_Driver/Src/stm32g4xx_hal_dac.c ****   else
1255:Drivers/STM32G4xx_HAL_Driver/Src/stm32g4xx_hal_dac.c ****   {
1256:Drivers/STM32G4xx_HAL_Driver/Src/stm32g4xx_hal_dac.c ****     tmpreg1 |= sConfig->DAC_HighFrequency;
1257:Drivers/STM32G4xx_HAL_Driver/Src/stm32g4xx_hal_dac.c ****   }
1258:Drivers/STM32G4xx_HAL_Driver/Src/stm32g4xx_hal_dac.c ****   /* Calculate MCR register value depending on DAC_Channel */
1259:Drivers/STM32G4xx_HAL_Driver/Src/stm32g4xx_hal_dac.c ****   tmpreg1 |= tmpreg2 << (Channel & 0x10UL);
1260:Drivers/STM32G4xx_HAL_Driver/Src/stm32g4xx_hal_dac.c ****   /* Write to DAC MCR */
1261:Drivers/STM32G4xx_HAL_Driver/Src/stm32g4xx_hal_dac.c ****   hdac->Instance->MCR = tmpreg1;
1262:Drivers/STM32G4xx_HAL_Driver/Src/stm32g4xx_hal_dac.c **** 
1263:Drivers/STM32G4xx_HAL_Driver/Src/stm32g4xx_hal_dac.c ****   /* DAC in normal operating mode hence clear DAC_CR_CENx bit */
1264:Drivers/STM32G4xx_HAL_Driver/Src/stm32g4xx_hal_dac.c ****   CLEAR_BIT(hdac->Instance->CR, DAC_CR_CEN1 << (Channel & 0x10UL));
1265:Drivers/STM32G4xx_HAL_Driver/Src/stm32g4xx_hal_dac.c **** 
1266:Drivers/STM32G4xx_HAL_Driver/Src/stm32g4xx_hal_dac.c ****   /* Get the DAC CR value */
1267:Drivers/STM32G4xx_HAL_Driver/Src/stm32g4xx_hal_dac.c ****   tmpreg1 = hdac->Instance->CR;
1268:Drivers/STM32G4xx_HAL_Driver/Src/stm32g4xx_hal_dac.c ****   /* Clear TENx, TSELx, WAVEx and MAMPx bits */
1269:Drivers/STM32G4xx_HAL_Driver/Src/stm32g4xx_hal_dac.c ****   tmpreg1 &= ~(((uint32_t)(DAC_CR_MAMP1 | DAC_CR_WAVE1 | DAC_CR_TSEL1 | DAC_CR_TEN1)) << (Channel &
1270:Drivers/STM32G4xx_HAL_Driver/Src/stm32g4xx_hal_dac.c ****   /* Configure for the selected DAC channel: trigger */
1271:Drivers/STM32G4xx_HAL_Driver/Src/stm32g4xx_hal_dac.c ****   /* Set TSELx and TENx bits according to DAC_Trigger value */
1272:Drivers/STM32G4xx_HAL_Driver/Src/stm32g4xx_hal_dac.c ****   tmpreg2 = sConfig->DAC_Trigger;
1273:Drivers/STM32G4xx_HAL_Driver/Src/stm32g4xx_hal_dac.c ****   /* Calculate CR register value depending on DAC_Channel */
1274:Drivers/STM32G4xx_HAL_Driver/Src/stm32g4xx_hal_dac.c ****   tmpreg1 |= tmpreg2 << (Channel & 0x10UL);
1275:Drivers/STM32G4xx_HAL_Driver/Src/stm32g4xx_hal_dac.c ****   /* Write to DAC CR */
1276:Drivers/STM32G4xx_HAL_Driver/Src/stm32g4xx_hal_dac.c ****   hdac->Instance->CR = tmpreg1;
1277:Drivers/STM32G4xx_HAL_Driver/Src/stm32g4xx_hal_dac.c ****   /* Disable wave generation */
1278:Drivers/STM32G4xx_HAL_Driver/Src/stm32g4xx_hal_dac.c ****   hdac->Instance->CR &= ~(DAC_CR_WAVE1 << (Channel & 0x10UL));
1279:Drivers/STM32G4xx_HAL_Driver/Src/stm32g4xx_hal_dac.c **** 
1280:Drivers/STM32G4xx_HAL_Driver/Src/stm32g4xx_hal_dac.c ****   /* Set STRSTTRIGSELx and STINCTRIGSELx bits according to DAC_Trigger & DAC_Trigger2 values */
1281:Drivers/STM32G4xx_HAL_Driver/Src/stm32g4xx_hal_dac.c ****   tmpreg2 = ((sConfig->DAC_Trigger & DAC_CR_TSEL1) >> DAC_CR_TSEL1_Pos) << DAC_STMODR_STRSTTRIGSEL1
1282:Drivers/STM32G4xx_HAL_Driver/Src/stm32g4xx_hal_dac.c ****   tmpreg2 |= ((sConfig->DAC_Trigger2 & DAC_CR_TSEL1) >> DAC_CR_TSEL1_Pos) << DAC_STMODR_STINCTRIGSE
1283:Drivers/STM32G4xx_HAL_Driver/Src/stm32g4xx_hal_dac.c ****   /* Modify STMODR register value depending on DAC_Channel */
1284:Drivers/STM32G4xx_HAL_Driver/Src/stm32g4xx_hal_dac.c ****   MODIFY_REG(hdac->Instance->STMODR, (DAC_STMODR_STINCTRIGSEL1 | DAC_STMODR_STRSTTRIGSEL1) << (Chan
1285:Drivers/STM32G4xx_HAL_Driver/Src/stm32g4xx_hal_dac.c ****   /* Change DAC state */
1286:Drivers/STM32G4xx_HAL_Driver/Src/stm32g4xx_hal_dac.c ****   hdac->State = HAL_DAC_STATE_READY;
1287:Drivers/STM32G4xx_HAL_Driver/Src/stm32g4xx_hal_dac.c **** 
ARM GAS  /tmp/ccpsplAO.s 			page 40


1288:Drivers/STM32G4xx_HAL_Driver/Src/stm32g4xx_hal_dac.c ****   /* Process unlocked */
1289:Drivers/STM32G4xx_HAL_Driver/Src/stm32g4xx_hal_dac.c ****   __HAL_UNLOCK(hdac);
1290:Drivers/STM32G4xx_HAL_Driver/Src/stm32g4xx_hal_dac.c **** 
1291:Drivers/STM32G4xx_HAL_Driver/Src/stm32g4xx_hal_dac.c ****   /* Return function status */
1292:Drivers/STM32G4xx_HAL_Driver/Src/stm32g4xx_hal_dac.c ****   return HAL_OK;
1293:Drivers/STM32G4xx_HAL_Driver/Src/stm32g4xx_hal_dac.c **** }
1294:Drivers/STM32G4xx_HAL_Driver/Src/stm32g4xx_hal_dac.c **** 
1295:Drivers/STM32G4xx_HAL_Driver/Src/stm32g4xx_hal_dac.c **** /**
1296:Drivers/STM32G4xx_HAL_Driver/Src/stm32g4xx_hal_dac.c ****   * @}
1297:Drivers/STM32G4xx_HAL_Driver/Src/stm32g4xx_hal_dac.c ****   */
1298:Drivers/STM32G4xx_HAL_Driver/Src/stm32g4xx_hal_dac.c **** 
1299:Drivers/STM32G4xx_HAL_Driver/Src/stm32g4xx_hal_dac.c **** /** @defgroup DAC_Exported_Functions_Group4 Peripheral State and Errors functions
1300:Drivers/STM32G4xx_HAL_Driver/Src/stm32g4xx_hal_dac.c ****   *  @brief   Peripheral State and Errors functions
1301:Drivers/STM32G4xx_HAL_Driver/Src/stm32g4xx_hal_dac.c ****   *
1302:Drivers/STM32G4xx_HAL_Driver/Src/stm32g4xx_hal_dac.c **** @verbatim
1303:Drivers/STM32G4xx_HAL_Driver/Src/stm32g4xx_hal_dac.c ****   ==============================================================================
1304:Drivers/STM32G4xx_HAL_Driver/Src/stm32g4xx_hal_dac.c ****             ##### Peripheral State and Errors functions #####
1305:Drivers/STM32G4xx_HAL_Driver/Src/stm32g4xx_hal_dac.c ****   ==============================================================================
1306:Drivers/STM32G4xx_HAL_Driver/Src/stm32g4xx_hal_dac.c ****     [..]
1307:Drivers/STM32G4xx_HAL_Driver/Src/stm32g4xx_hal_dac.c ****     This subsection provides functions allowing to
1308:Drivers/STM32G4xx_HAL_Driver/Src/stm32g4xx_hal_dac.c ****       (+) Check the DAC state.
1309:Drivers/STM32G4xx_HAL_Driver/Src/stm32g4xx_hal_dac.c ****       (+) Check the DAC Errors.
1310:Drivers/STM32G4xx_HAL_Driver/Src/stm32g4xx_hal_dac.c **** 
1311:Drivers/STM32G4xx_HAL_Driver/Src/stm32g4xx_hal_dac.c **** @endverbatim
1312:Drivers/STM32G4xx_HAL_Driver/Src/stm32g4xx_hal_dac.c ****   * @{
1313:Drivers/STM32G4xx_HAL_Driver/Src/stm32g4xx_hal_dac.c ****   */
1314:Drivers/STM32G4xx_HAL_Driver/Src/stm32g4xx_hal_dac.c **** 
1315:Drivers/STM32G4xx_HAL_Driver/Src/stm32g4xx_hal_dac.c **** /**
1316:Drivers/STM32G4xx_HAL_Driver/Src/stm32g4xx_hal_dac.c ****   * @brief  return the DAC handle state
1317:Drivers/STM32G4xx_HAL_Driver/Src/stm32g4xx_hal_dac.c ****   * @param  hdac pointer to a DAC_HandleTypeDef structure that contains
1318:Drivers/STM32G4xx_HAL_Driver/Src/stm32g4xx_hal_dac.c ****   *         the configuration information for the specified DAC.
1319:Drivers/STM32G4xx_HAL_Driver/Src/stm32g4xx_hal_dac.c ****   * @retval HAL state
1320:Drivers/STM32G4xx_HAL_Driver/Src/stm32g4xx_hal_dac.c ****   */
1321:Drivers/STM32G4xx_HAL_Driver/Src/stm32g4xx_hal_dac.c **** HAL_DAC_StateTypeDef HAL_DAC_GetState(DAC_HandleTypeDef *hdac)
1322:Drivers/STM32G4xx_HAL_Driver/Src/stm32g4xx_hal_dac.c **** {
1323:Drivers/STM32G4xx_HAL_Driver/Src/stm32g4xx_hal_dac.c ****   /* Return DAC handle state */
1324:Drivers/STM32G4xx_HAL_Driver/Src/stm32g4xx_hal_dac.c ****   return hdac->State;
1325:Drivers/STM32G4xx_HAL_Driver/Src/stm32g4xx_hal_dac.c **** }
1326:Drivers/STM32G4xx_HAL_Driver/Src/stm32g4xx_hal_dac.c **** 
1327:Drivers/STM32G4xx_HAL_Driver/Src/stm32g4xx_hal_dac.c **** 
1328:Drivers/STM32G4xx_HAL_Driver/Src/stm32g4xx_hal_dac.c **** /**
1329:Drivers/STM32G4xx_HAL_Driver/Src/stm32g4xx_hal_dac.c ****   * @brief  Return the DAC error code
1330:Drivers/STM32G4xx_HAL_Driver/Src/stm32g4xx_hal_dac.c ****   * @param  hdac pointer to a DAC_HandleTypeDef structure that contains
1331:Drivers/STM32G4xx_HAL_Driver/Src/stm32g4xx_hal_dac.c ****   *         the configuration information for the specified DAC.
1332:Drivers/STM32G4xx_HAL_Driver/Src/stm32g4xx_hal_dac.c ****   * @retval DAC Error Code
1333:Drivers/STM32G4xx_HAL_Driver/Src/stm32g4xx_hal_dac.c ****   */
1334:Drivers/STM32G4xx_HAL_Driver/Src/stm32g4xx_hal_dac.c **** uint32_t HAL_DAC_GetError(DAC_HandleTypeDef *hdac)
1335:Drivers/STM32G4xx_HAL_Driver/Src/stm32g4xx_hal_dac.c **** {
1336:Drivers/STM32G4xx_HAL_Driver/Src/stm32g4xx_hal_dac.c ****   return hdac->ErrorCode;
1337:Drivers/STM32G4xx_HAL_Driver/Src/stm32g4xx_hal_dac.c **** }
1338:Drivers/STM32G4xx_HAL_Driver/Src/stm32g4xx_hal_dac.c **** 
1339:Drivers/STM32G4xx_HAL_Driver/Src/stm32g4xx_hal_dac.c **** /**
1340:Drivers/STM32G4xx_HAL_Driver/Src/stm32g4xx_hal_dac.c ****   * @}
1341:Drivers/STM32G4xx_HAL_Driver/Src/stm32g4xx_hal_dac.c ****   */
1342:Drivers/STM32G4xx_HAL_Driver/Src/stm32g4xx_hal_dac.c **** 
1343:Drivers/STM32G4xx_HAL_Driver/Src/stm32g4xx_hal_dac.c **** /**
1344:Drivers/STM32G4xx_HAL_Driver/Src/stm32g4xx_hal_dac.c ****   * @}
ARM GAS  /tmp/ccpsplAO.s 			page 41


1345:Drivers/STM32G4xx_HAL_Driver/Src/stm32g4xx_hal_dac.c ****   */
1346:Drivers/STM32G4xx_HAL_Driver/Src/stm32g4xx_hal_dac.c **** 
1347:Drivers/STM32G4xx_HAL_Driver/Src/stm32g4xx_hal_dac.c **** /** @addtogroup DAC_Exported_Functions
1348:Drivers/STM32G4xx_HAL_Driver/Src/stm32g4xx_hal_dac.c ****   * @{
1349:Drivers/STM32G4xx_HAL_Driver/Src/stm32g4xx_hal_dac.c ****   */
1350:Drivers/STM32G4xx_HAL_Driver/Src/stm32g4xx_hal_dac.c **** 
1351:Drivers/STM32G4xx_HAL_Driver/Src/stm32g4xx_hal_dac.c **** /** @addtogroup DAC_Exported_Functions_Group1
1352:Drivers/STM32G4xx_HAL_Driver/Src/stm32g4xx_hal_dac.c ****   * @{
1353:Drivers/STM32G4xx_HAL_Driver/Src/stm32g4xx_hal_dac.c ****   */
1354:Drivers/STM32G4xx_HAL_Driver/Src/stm32g4xx_hal_dac.c **** #if (USE_HAL_DAC_REGISTER_CALLBACKS == 1)
1355:Drivers/STM32G4xx_HAL_Driver/Src/stm32g4xx_hal_dac.c **** /**
1356:Drivers/STM32G4xx_HAL_Driver/Src/stm32g4xx_hal_dac.c ****   * @brief  Register a User DAC Callback
1357:Drivers/STM32G4xx_HAL_Driver/Src/stm32g4xx_hal_dac.c ****   *         To be used instead of the weak (surcharged) predefined callback
1358:Drivers/STM32G4xx_HAL_Driver/Src/stm32g4xx_hal_dac.c ****   * @param  hdac DAC handle
1359:Drivers/STM32G4xx_HAL_Driver/Src/stm32g4xx_hal_dac.c ****   * @param  CallbackID ID of the callback to be registered
1360:Drivers/STM32G4xx_HAL_Driver/Src/stm32g4xx_hal_dac.c ****   *         This parameter can be one of the following values:
1361:Drivers/STM32G4xx_HAL_Driver/Src/stm32g4xx_hal_dac.c ****   *          @arg @ref HAL_DAC_ERROR_INVALID_CALLBACK   DAC Error Callback ID
1362:Drivers/STM32G4xx_HAL_Driver/Src/stm32g4xx_hal_dac.c ****   *          @arg @ref HAL_DAC_CH1_COMPLETE_CB_ID       DAC CH1 Complete Callback ID
1363:Drivers/STM32G4xx_HAL_Driver/Src/stm32g4xx_hal_dac.c ****   *          @arg @ref HAL_DAC_CH1_HALF_COMPLETE_CB_ID  DAC CH1 Half Complete Callback ID
1364:Drivers/STM32G4xx_HAL_Driver/Src/stm32g4xx_hal_dac.c ****   *          @arg @ref HAL_DAC_CH1_ERROR_ID             DAC CH1 Error Callback ID
1365:Drivers/STM32G4xx_HAL_Driver/Src/stm32g4xx_hal_dac.c ****   *          @arg @ref HAL_DAC_CH1_UNDERRUN_CB_ID       DAC CH1 UnderRun Callback ID
1366:Drivers/STM32G4xx_HAL_Driver/Src/stm32g4xx_hal_dac.c ****   *          @arg @ref HAL_DAC_CH2_COMPLETE_CB_ID       DAC CH2 Complete Callback ID
1367:Drivers/STM32G4xx_HAL_Driver/Src/stm32g4xx_hal_dac.c ****   *          @arg @ref HAL_DAC_CH2_HALF_COMPLETE_CB_ID  DAC CH2 Half Complete Callback ID
1368:Drivers/STM32G4xx_HAL_Driver/Src/stm32g4xx_hal_dac.c ****   *          @arg @ref HAL_DAC_CH2_ERROR_ID             DAC CH2 Error Callback ID
1369:Drivers/STM32G4xx_HAL_Driver/Src/stm32g4xx_hal_dac.c ****   *          @arg @ref HAL_DAC_CH2_UNDERRUN_CB_ID       DAC CH2 UnderRun Callback ID
1370:Drivers/STM32G4xx_HAL_Driver/Src/stm32g4xx_hal_dac.c ****   *          @arg @ref HAL_DAC_MSPINIT_CB_ID            DAC MSP Init Callback ID
1371:Drivers/STM32G4xx_HAL_Driver/Src/stm32g4xx_hal_dac.c ****   *          @arg @ref HAL_DAC_MSPDEINIT_CB_ID          DAC MSP DeInit Callback ID
1372:Drivers/STM32G4xx_HAL_Driver/Src/stm32g4xx_hal_dac.c ****   *
1373:Drivers/STM32G4xx_HAL_Driver/Src/stm32g4xx_hal_dac.c ****   * @param  pCallback pointer to the Callback function
1374:Drivers/STM32G4xx_HAL_Driver/Src/stm32g4xx_hal_dac.c ****   * @retval status
1375:Drivers/STM32G4xx_HAL_Driver/Src/stm32g4xx_hal_dac.c ****   */
1376:Drivers/STM32G4xx_HAL_Driver/Src/stm32g4xx_hal_dac.c **** HAL_StatusTypeDef HAL_DAC_RegisterCallback(DAC_HandleTypeDef *hdac, HAL_DAC_CallbackIDTypeDef Callb
1377:Drivers/STM32G4xx_HAL_Driver/Src/stm32g4xx_hal_dac.c ****                                            pDAC_CallbackTypeDef pCallback)
1378:Drivers/STM32G4xx_HAL_Driver/Src/stm32g4xx_hal_dac.c **** {
1379:Drivers/STM32G4xx_HAL_Driver/Src/stm32g4xx_hal_dac.c ****   HAL_StatusTypeDef status = HAL_OK;
1380:Drivers/STM32G4xx_HAL_Driver/Src/stm32g4xx_hal_dac.c **** 
1381:Drivers/STM32G4xx_HAL_Driver/Src/stm32g4xx_hal_dac.c ****   if (pCallback == NULL)
1382:Drivers/STM32G4xx_HAL_Driver/Src/stm32g4xx_hal_dac.c ****   {
1383:Drivers/STM32G4xx_HAL_Driver/Src/stm32g4xx_hal_dac.c ****     /* Update the error code */
1384:Drivers/STM32G4xx_HAL_Driver/Src/stm32g4xx_hal_dac.c ****     hdac->ErrorCode |= HAL_DAC_ERROR_INVALID_CALLBACK;
1385:Drivers/STM32G4xx_HAL_Driver/Src/stm32g4xx_hal_dac.c ****     return HAL_ERROR;
1386:Drivers/STM32G4xx_HAL_Driver/Src/stm32g4xx_hal_dac.c ****   }
1387:Drivers/STM32G4xx_HAL_Driver/Src/stm32g4xx_hal_dac.c **** 
1388:Drivers/STM32G4xx_HAL_Driver/Src/stm32g4xx_hal_dac.c ****   /* Process locked */
1389:Drivers/STM32G4xx_HAL_Driver/Src/stm32g4xx_hal_dac.c ****   __HAL_LOCK(hdac);
1390:Drivers/STM32G4xx_HAL_Driver/Src/stm32g4xx_hal_dac.c **** 
1391:Drivers/STM32G4xx_HAL_Driver/Src/stm32g4xx_hal_dac.c ****   if (hdac->State == HAL_DAC_STATE_READY)
1392:Drivers/STM32G4xx_HAL_Driver/Src/stm32g4xx_hal_dac.c ****   {
1393:Drivers/STM32G4xx_HAL_Driver/Src/stm32g4xx_hal_dac.c ****     switch (CallbackID)
1394:Drivers/STM32G4xx_HAL_Driver/Src/stm32g4xx_hal_dac.c ****     {
1395:Drivers/STM32G4xx_HAL_Driver/Src/stm32g4xx_hal_dac.c ****       case HAL_DAC_CH1_COMPLETE_CB_ID :
1396:Drivers/STM32G4xx_HAL_Driver/Src/stm32g4xx_hal_dac.c ****         hdac->ConvCpltCallbackCh1 = pCallback;
1397:Drivers/STM32G4xx_HAL_Driver/Src/stm32g4xx_hal_dac.c ****         break;
1398:Drivers/STM32G4xx_HAL_Driver/Src/stm32g4xx_hal_dac.c ****       case HAL_DAC_CH1_HALF_COMPLETE_CB_ID :
1399:Drivers/STM32G4xx_HAL_Driver/Src/stm32g4xx_hal_dac.c ****         hdac->ConvHalfCpltCallbackCh1 = pCallback;
1400:Drivers/STM32G4xx_HAL_Driver/Src/stm32g4xx_hal_dac.c ****         break;
1401:Drivers/STM32G4xx_HAL_Driver/Src/stm32g4xx_hal_dac.c ****       case HAL_DAC_CH1_ERROR_ID :
ARM GAS  /tmp/ccpsplAO.s 			page 42


1402:Drivers/STM32G4xx_HAL_Driver/Src/stm32g4xx_hal_dac.c ****         hdac->ErrorCallbackCh1 = pCallback;
1403:Drivers/STM32G4xx_HAL_Driver/Src/stm32g4xx_hal_dac.c ****         break;
1404:Drivers/STM32G4xx_HAL_Driver/Src/stm32g4xx_hal_dac.c ****       case HAL_DAC_CH1_UNDERRUN_CB_ID :
1405:Drivers/STM32G4xx_HAL_Driver/Src/stm32g4xx_hal_dac.c ****         hdac->DMAUnderrunCallbackCh1 = pCallback;
1406:Drivers/STM32G4xx_HAL_Driver/Src/stm32g4xx_hal_dac.c ****         break;
1407:Drivers/STM32G4xx_HAL_Driver/Src/stm32g4xx_hal_dac.c ****       case HAL_DAC_CH2_COMPLETE_CB_ID :
1408:Drivers/STM32G4xx_HAL_Driver/Src/stm32g4xx_hal_dac.c ****         hdac->ConvCpltCallbackCh2 = pCallback;
1409:Drivers/STM32G4xx_HAL_Driver/Src/stm32g4xx_hal_dac.c ****         break;
1410:Drivers/STM32G4xx_HAL_Driver/Src/stm32g4xx_hal_dac.c ****       case HAL_DAC_CH2_HALF_COMPLETE_CB_ID :
1411:Drivers/STM32G4xx_HAL_Driver/Src/stm32g4xx_hal_dac.c ****         hdac->ConvHalfCpltCallbackCh2 = pCallback;
1412:Drivers/STM32G4xx_HAL_Driver/Src/stm32g4xx_hal_dac.c ****         break;
1413:Drivers/STM32G4xx_HAL_Driver/Src/stm32g4xx_hal_dac.c ****       case HAL_DAC_CH2_ERROR_ID :
1414:Drivers/STM32G4xx_HAL_Driver/Src/stm32g4xx_hal_dac.c ****         hdac->ErrorCallbackCh2 = pCallback;
1415:Drivers/STM32G4xx_HAL_Driver/Src/stm32g4xx_hal_dac.c ****         break;
1416:Drivers/STM32G4xx_HAL_Driver/Src/stm32g4xx_hal_dac.c ****       case HAL_DAC_CH2_UNDERRUN_CB_ID :
1417:Drivers/STM32G4xx_HAL_Driver/Src/stm32g4xx_hal_dac.c ****         hdac->DMAUnderrunCallbackCh2 = pCallback;
1418:Drivers/STM32G4xx_HAL_Driver/Src/stm32g4xx_hal_dac.c ****         break;
1419:Drivers/STM32G4xx_HAL_Driver/Src/stm32g4xx_hal_dac.c ****       case HAL_DAC_MSPINIT_CB_ID :
1420:Drivers/STM32G4xx_HAL_Driver/Src/stm32g4xx_hal_dac.c ****         hdac->MspInitCallback = pCallback;
1421:Drivers/STM32G4xx_HAL_Driver/Src/stm32g4xx_hal_dac.c ****         break;
1422:Drivers/STM32G4xx_HAL_Driver/Src/stm32g4xx_hal_dac.c ****       case HAL_DAC_MSPDEINIT_CB_ID :
1423:Drivers/STM32G4xx_HAL_Driver/Src/stm32g4xx_hal_dac.c ****         hdac->MspDeInitCallback = pCallback;
1424:Drivers/STM32G4xx_HAL_Driver/Src/stm32g4xx_hal_dac.c ****         break;
1425:Drivers/STM32G4xx_HAL_Driver/Src/stm32g4xx_hal_dac.c ****       default :
1426:Drivers/STM32G4xx_HAL_Driver/Src/stm32g4xx_hal_dac.c ****         /* Update the error code */
1427:Drivers/STM32G4xx_HAL_Driver/Src/stm32g4xx_hal_dac.c ****         hdac->ErrorCode |= HAL_DAC_ERROR_INVALID_CALLBACK;
1428:Drivers/STM32G4xx_HAL_Driver/Src/stm32g4xx_hal_dac.c ****         /* update return status */
1429:Drivers/STM32G4xx_HAL_Driver/Src/stm32g4xx_hal_dac.c ****         status =  HAL_ERROR;
1430:Drivers/STM32G4xx_HAL_Driver/Src/stm32g4xx_hal_dac.c ****         break;
1431:Drivers/STM32G4xx_HAL_Driver/Src/stm32g4xx_hal_dac.c ****     }
1432:Drivers/STM32G4xx_HAL_Driver/Src/stm32g4xx_hal_dac.c ****   }
1433:Drivers/STM32G4xx_HAL_Driver/Src/stm32g4xx_hal_dac.c ****   else if (hdac->State == HAL_DAC_STATE_RESET)
1434:Drivers/STM32G4xx_HAL_Driver/Src/stm32g4xx_hal_dac.c ****   {
1435:Drivers/STM32G4xx_HAL_Driver/Src/stm32g4xx_hal_dac.c ****     switch (CallbackID)
1436:Drivers/STM32G4xx_HAL_Driver/Src/stm32g4xx_hal_dac.c ****     {
1437:Drivers/STM32G4xx_HAL_Driver/Src/stm32g4xx_hal_dac.c ****       case HAL_DAC_MSPINIT_CB_ID :
1438:Drivers/STM32G4xx_HAL_Driver/Src/stm32g4xx_hal_dac.c ****         hdac->MspInitCallback = pCallback;
1439:Drivers/STM32G4xx_HAL_Driver/Src/stm32g4xx_hal_dac.c ****         break;
1440:Drivers/STM32G4xx_HAL_Driver/Src/stm32g4xx_hal_dac.c ****       case HAL_DAC_MSPDEINIT_CB_ID :
1441:Drivers/STM32G4xx_HAL_Driver/Src/stm32g4xx_hal_dac.c ****         hdac->MspDeInitCallback = pCallback;
1442:Drivers/STM32G4xx_HAL_Driver/Src/stm32g4xx_hal_dac.c ****         break;
1443:Drivers/STM32G4xx_HAL_Driver/Src/stm32g4xx_hal_dac.c ****       default :
1444:Drivers/STM32G4xx_HAL_Driver/Src/stm32g4xx_hal_dac.c ****         /* Update the error code */
1445:Drivers/STM32G4xx_HAL_Driver/Src/stm32g4xx_hal_dac.c ****         hdac->ErrorCode |= HAL_DAC_ERROR_INVALID_CALLBACK;
1446:Drivers/STM32G4xx_HAL_Driver/Src/stm32g4xx_hal_dac.c ****         /* update return status */
1447:Drivers/STM32G4xx_HAL_Driver/Src/stm32g4xx_hal_dac.c ****         status =  HAL_ERROR;
1448:Drivers/STM32G4xx_HAL_Driver/Src/stm32g4xx_hal_dac.c ****         break;
1449:Drivers/STM32G4xx_HAL_Driver/Src/stm32g4xx_hal_dac.c ****     }
1450:Drivers/STM32G4xx_HAL_Driver/Src/stm32g4xx_hal_dac.c ****   }
1451:Drivers/STM32G4xx_HAL_Driver/Src/stm32g4xx_hal_dac.c ****   else
1452:Drivers/STM32G4xx_HAL_Driver/Src/stm32g4xx_hal_dac.c ****   {
1453:Drivers/STM32G4xx_HAL_Driver/Src/stm32g4xx_hal_dac.c ****     /* Update the error code */
1454:Drivers/STM32G4xx_HAL_Driver/Src/stm32g4xx_hal_dac.c ****     hdac->ErrorCode |= HAL_DAC_ERROR_INVALID_CALLBACK;
1455:Drivers/STM32G4xx_HAL_Driver/Src/stm32g4xx_hal_dac.c ****     /* update return status */
1456:Drivers/STM32G4xx_HAL_Driver/Src/stm32g4xx_hal_dac.c ****     status =  HAL_ERROR;
1457:Drivers/STM32G4xx_HAL_Driver/Src/stm32g4xx_hal_dac.c ****   }
1458:Drivers/STM32G4xx_HAL_Driver/Src/stm32g4xx_hal_dac.c **** 
ARM GAS  /tmp/ccpsplAO.s 			page 43


1459:Drivers/STM32G4xx_HAL_Driver/Src/stm32g4xx_hal_dac.c ****   /* Release Lock */
1460:Drivers/STM32G4xx_HAL_Driver/Src/stm32g4xx_hal_dac.c ****   __HAL_UNLOCK(hdac);
1461:Drivers/STM32G4xx_HAL_Driver/Src/stm32g4xx_hal_dac.c ****   return status;
1462:Drivers/STM32G4xx_HAL_Driver/Src/stm32g4xx_hal_dac.c **** }
1463:Drivers/STM32G4xx_HAL_Driver/Src/stm32g4xx_hal_dac.c **** 
1464:Drivers/STM32G4xx_HAL_Driver/Src/stm32g4xx_hal_dac.c **** /**
1465:Drivers/STM32G4xx_HAL_Driver/Src/stm32g4xx_hal_dac.c ****   * @brief  Unregister a User DAC Callback
1466:Drivers/STM32G4xx_HAL_Driver/Src/stm32g4xx_hal_dac.c ****   *         DAC Callback is redirected to the weak (surcharged) predefined callback
1467:Drivers/STM32G4xx_HAL_Driver/Src/stm32g4xx_hal_dac.c ****   * @param  hdac DAC handle
1468:Drivers/STM32G4xx_HAL_Driver/Src/stm32g4xx_hal_dac.c ****   * @param  CallbackID ID of the callback to be unregistered
1469:Drivers/STM32G4xx_HAL_Driver/Src/stm32g4xx_hal_dac.c ****   *         This parameter can be one of the following values:
1470:Drivers/STM32G4xx_HAL_Driver/Src/stm32g4xx_hal_dac.c ****   *          @arg @ref HAL_DAC_CH1_COMPLETE_CB_ID          DAC CH1 tranfer Complete Callback ID
1471:Drivers/STM32G4xx_HAL_Driver/Src/stm32g4xx_hal_dac.c ****   *          @arg @ref HAL_DAC_CH1_HALF_COMPLETE_CB_ID     DAC CH1 Half Complete Callback ID
1472:Drivers/STM32G4xx_HAL_Driver/Src/stm32g4xx_hal_dac.c ****   *          @arg @ref HAL_DAC_CH1_ERROR_ID                DAC CH1 Error Callback ID
1473:Drivers/STM32G4xx_HAL_Driver/Src/stm32g4xx_hal_dac.c ****   *          @arg @ref HAL_DAC_CH1_UNDERRUN_CB_ID          DAC CH1 UnderRun Callback ID
1474:Drivers/STM32G4xx_HAL_Driver/Src/stm32g4xx_hal_dac.c ****   *          @arg @ref HAL_DAC_CH2_COMPLETE_CB_ID          DAC CH2 Complete Callback ID
1475:Drivers/STM32G4xx_HAL_Driver/Src/stm32g4xx_hal_dac.c ****   *          @arg @ref HAL_DAC_CH2_HALF_COMPLETE_CB_ID     DAC CH2 Half Complete Callback ID
1476:Drivers/STM32G4xx_HAL_Driver/Src/stm32g4xx_hal_dac.c ****   *          @arg @ref HAL_DAC_CH2_ERROR_ID                DAC CH2 Error Callback ID
1477:Drivers/STM32G4xx_HAL_Driver/Src/stm32g4xx_hal_dac.c ****   *          @arg @ref HAL_DAC_CH2_UNDERRUN_CB_ID          DAC CH2 UnderRun Callback ID
1478:Drivers/STM32G4xx_HAL_Driver/Src/stm32g4xx_hal_dac.c ****   *          @arg @ref HAL_DAC_MSPINIT_CB_ID               DAC MSP Init Callback ID
1479:Drivers/STM32G4xx_HAL_Driver/Src/stm32g4xx_hal_dac.c ****   *          @arg @ref HAL_DAC_MSPDEINIT_CB_ID             DAC MSP DeInit Callback ID
1480:Drivers/STM32G4xx_HAL_Driver/Src/stm32g4xx_hal_dac.c ****   *          @arg @ref HAL_DAC_ALL_CB_ID                   DAC All callbacks
1481:Drivers/STM32G4xx_HAL_Driver/Src/stm32g4xx_hal_dac.c ****   * @retval status
1482:Drivers/STM32G4xx_HAL_Driver/Src/stm32g4xx_hal_dac.c ****   */
1483:Drivers/STM32G4xx_HAL_Driver/Src/stm32g4xx_hal_dac.c **** HAL_StatusTypeDef HAL_DAC_UnRegisterCallback(DAC_HandleTypeDef *hdac, HAL_DAC_CallbackIDTypeDef Cal
1484:Drivers/STM32G4xx_HAL_Driver/Src/stm32g4xx_hal_dac.c **** {
1485:Drivers/STM32G4xx_HAL_Driver/Src/stm32g4xx_hal_dac.c ****   HAL_StatusTypeDef status = HAL_OK;
1486:Drivers/STM32G4xx_HAL_Driver/Src/stm32g4xx_hal_dac.c **** 
1487:Drivers/STM32G4xx_HAL_Driver/Src/stm32g4xx_hal_dac.c ****   /* Process locked */
1488:Drivers/STM32G4xx_HAL_Driver/Src/stm32g4xx_hal_dac.c ****   __HAL_LOCK(hdac);
1489:Drivers/STM32G4xx_HAL_Driver/Src/stm32g4xx_hal_dac.c **** 
1490:Drivers/STM32G4xx_HAL_Driver/Src/stm32g4xx_hal_dac.c ****   if (hdac->State == HAL_DAC_STATE_READY)
1491:Drivers/STM32G4xx_HAL_Driver/Src/stm32g4xx_hal_dac.c ****   {
1492:Drivers/STM32G4xx_HAL_Driver/Src/stm32g4xx_hal_dac.c ****     switch (CallbackID)
1493:Drivers/STM32G4xx_HAL_Driver/Src/stm32g4xx_hal_dac.c ****     {
1494:Drivers/STM32G4xx_HAL_Driver/Src/stm32g4xx_hal_dac.c ****       case HAL_DAC_CH1_COMPLETE_CB_ID :
1495:Drivers/STM32G4xx_HAL_Driver/Src/stm32g4xx_hal_dac.c ****         hdac->ConvCpltCallbackCh1 = HAL_DAC_ConvCpltCallbackCh1;
1496:Drivers/STM32G4xx_HAL_Driver/Src/stm32g4xx_hal_dac.c ****         break;
1497:Drivers/STM32G4xx_HAL_Driver/Src/stm32g4xx_hal_dac.c ****       case HAL_DAC_CH1_HALF_COMPLETE_CB_ID :
1498:Drivers/STM32G4xx_HAL_Driver/Src/stm32g4xx_hal_dac.c ****         hdac->ConvHalfCpltCallbackCh1 = HAL_DAC_ConvHalfCpltCallbackCh1;
1499:Drivers/STM32G4xx_HAL_Driver/Src/stm32g4xx_hal_dac.c ****         break;
1500:Drivers/STM32G4xx_HAL_Driver/Src/stm32g4xx_hal_dac.c ****       case HAL_DAC_CH1_ERROR_ID :
1501:Drivers/STM32G4xx_HAL_Driver/Src/stm32g4xx_hal_dac.c ****         hdac->ErrorCallbackCh1 = HAL_DAC_ErrorCallbackCh1;
1502:Drivers/STM32G4xx_HAL_Driver/Src/stm32g4xx_hal_dac.c ****         break;
1503:Drivers/STM32G4xx_HAL_Driver/Src/stm32g4xx_hal_dac.c ****       case HAL_DAC_CH1_UNDERRUN_CB_ID :
1504:Drivers/STM32G4xx_HAL_Driver/Src/stm32g4xx_hal_dac.c ****         hdac->DMAUnderrunCallbackCh1 = HAL_DAC_DMAUnderrunCallbackCh1;
1505:Drivers/STM32G4xx_HAL_Driver/Src/stm32g4xx_hal_dac.c ****         break;
1506:Drivers/STM32G4xx_HAL_Driver/Src/stm32g4xx_hal_dac.c ****       case HAL_DAC_CH2_COMPLETE_CB_ID :
1507:Drivers/STM32G4xx_HAL_Driver/Src/stm32g4xx_hal_dac.c ****         hdac->ConvCpltCallbackCh2 = HAL_DACEx_ConvCpltCallbackCh2;
1508:Drivers/STM32G4xx_HAL_Driver/Src/stm32g4xx_hal_dac.c ****         break;
1509:Drivers/STM32G4xx_HAL_Driver/Src/stm32g4xx_hal_dac.c ****       case HAL_DAC_CH2_HALF_COMPLETE_CB_ID :
1510:Drivers/STM32G4xx_HAL_Driver/Src/stm32g4xx_hal_dac.c ****         hdac->ConvHalfCpltCallbackCh2 = HAL_DACEx_ConvHalfCpltCallbackCh2;
1511:Drivers/STM32G4xx_HAL_Driver/Src/stm32g4xx_hal_dac.c ****         break;
1512:Drivers/STM32G4xx_HAL_Driver/Src/stm32g4xx_hal_dac.c ****       case HAL_DAC_CH2_ERROR_ID :
1513:Drivers/STM32G4xx_HAL_Driver/Src/stm32g4xx_hal_dac.c ****         hdac->ErrorCallbackCh2 = HAL_DACEx_ErrorCallbackCh2;
1514:Drivers/STM32G4xx_HAL_Driver/Src/stm32g4xx_hal_dac.c ****         break;
1515:Drivers/STM32G4xx_HAL_Driver/Src/stm32g4xx_hal_dac.c ****       case HAL_DAC_CH2_UNDERRUN_CB_ID :
ARM GAS  /tmp/ccpsplAO.s 			page 44


1516:Drivers/STM32G4xx_HAL_Driver/Src/stm32g4xx_hal_dac.c ****         hdac->DMAUnderrunCallbackCh2 = HAL_DACEx_DMAUnderrunCallbackCh2;
1517:Drivers/STM32G4xx_HAL_Driver/Src/stm32g4xx_hal_dac.c ****         break;
1518:Drivers/STM32G4xx_HAL_Driver/Src/stm32g4xx_hal_dac.c ****       case HAL_DAC_MSPINIT_CB_ID :
1519:Drivers/STM32G4xx_HAL_Driver/Src/stm32g4xx_hal_dac.c ****         hdac->MspInitCallback = HAL_DAC_MspInit;
1520:Drivers/STM32G4xx_HAL_Driver/Src/stm32g4xx_hal_dac.c ****         break;
1521:Drivers/STM32G4xx_HAL_Driver/Src/stm32g4xx_hal_dac.c ****       case HAL_DAC_MSPDEINIT_CB_ID :
1522:Drivers/STM32G4xx_HAL_Driver/Src/stm32g4xx_hal_dac.c ****         hdac->MspDeInitCallback = HAL_DAC_MspDeInit;
1523:Drivers/STM32G4xx_HAL_Driver/Src/stm32g4xx_hal_dac.c ****         break;
1524:Drivers/STM32G4xx_HAL_Driver/Src/stm32g4xx_hal_dac.c ****       case HAL_DAC_ALL_CB_ID :
1525:Drivers/STM32G4xx_HAL_Driver/Src/stm32g4xx_hal_dac.c ****         hdac->ConvCpltCallbackCh1 = HAL_DAC_ConvCpltCallbackCh1;
1526:Drivers/STM32G4xx_HAL_Driver/Src/stm32g4xx_hal_dac.c ****         hdac->ConvHalfCpltCallbackCh1 = HAL_DAC_ConvHalfCpltCallbackCh1;
1527:Drivers/STM32G4xx_HAL_Driver/Src/stm32g4xx_hal_dac.c ****         hdac->ErrorCallbackCh1 = HAL_DAC_ErrorCallbackCh1;
1528:Drivers/STM32G4xx_HAL_Driver/Src/stm32g4xx_hal_dac.c ****         hdac->DMAUnderrunCallbackCh1 = HAL_DAC_DMAUnderrunCallbackCh1;
1529:Drivers/STM32G4xx_HAL_Driver/Src/stm32g4xx_hal_dac.c ****         hdac->ConvCpltCallbackCh2 = HAL_DACEx_ConvCpltCallbackCh2;
1530:Drivers/STM32G4xx_HAL_Driver/Src/stm32g4xx_hal_dac.c ****         hdac->ConvHalfCpltCallbackCh2 = HAL_DACEx_ConvHalfCpltCallbackCh2;
1531:Drivers/STM32G4xx_HAL_Driver/Src/stm32g4xx_hal_dac.c ****         hdac->ErrorCallbackCh2 = HAL_DACEx_ErrorCallbackCh2;
1532:Drivers/STM32G4xx_HAL_Driver/Src/stm32g4xx_hal_dac.c ****         hdac->DMAUnderrunCallbackCh2 = HAL_DACEx_DMAUnderrunCallbackCh2;
1533:Drivers/STM32G4xx_HAL_Driver/Src/stm32g4xx_hal_dac.c ****         hdac->MspInitCallback = HAL_DAC_MspInit;
1534:Drivers/STM32G4xx_HAL_Driver/Src/stm32g4xx_hal_dac.c ****         hdac->MspDeInitCallback = HAL_DAC_MspDeInit;
1535:Drivers/STM32G4xx_HAL_Driver/Src/stm32g4xx_hal_dac.c ****         break;
1536:Drivers/STM32G4xx_HAL_Driver/Src/stm32g4xx_hal_dac.c ****       default :
1537:Drivers/STM32G4xx_HAL_Driver/Src/stm32g4xx_hal_dac.c ****         /* Update the error code */
1538:Drivers/STM32G4xx_HAL_Driver/Src/stm32g4xx_hal_dac.c ****         hdac->ErrorCode |= HAL_DAC_ERROR_INVALID_CALLBACK;
1539:Drivers/STM32G4xx_HAL_Driver/Src/stm32g4xx_hal_dac.c ****         /* update return status */
1540:Drivers/STM32G4xx_HAL_Driver/Src/stm32g4xx_hal_dac.c ****         status =  HAL_ERROR;
1541:Drivers/STM32G4xx_HAL_Driver/Src/stm32g4xx_hal_dac.c ****         break;
1542:Drivers/STM32G4xx_HAL_Driver/Src/stm32g4xx_hal_dac.c ****     }
1543:Drivers/STM32G4xx_HAL_Driver/Src/stm32g4xx_hal_dac.c ****   }
1544:Drivers/STM32G4xx_HAL_Driver/Src/stm32g4xx_hal_dac.c ****   else if (hdac->State == HAL_DAC_STATE_RESET)
1545:Drivers/STM32G4xx_HAL_Driver/Src/stm32g4xx_hal_dac.c ****   {
1546:Drivers/STM32G4xx_HAL_Driver/Src/stm32g4xx_hal_dac.c ****     switch (CallbackID)
1547:Drivers/STM32G4xx_HAL_Driver/Src/stm32g4xx_hal_dac.c ****     {
1548:Drivers/STM32G4xx_HAL_Driver/Src/stm32g4xx_hal_dac.c ****       case HAL_DAC_MSPINIT_CB_ID :
1549:Drivers/STM32G4xx_HAL_Driver/Src/stm32g4xx_hal_dac.c ****         hdac->MspInitCallback = HAL_DAC_MspInit;
1550:Drivers/STM32G4xx_HAL_Driver/Src/stm32g4xx_hal_dac.c ****         break;
1551:Drivers/STM32G4xx_HAL_Driver/Src/stm32g4xx_hal_dac.c ****       case HAL_DAC_MSPDEINIT_CB_ID :
1552:Drivers/STM32G4xx_HAL_Driver/Src/stm32g4xx_hal_dac.c ****         hdac->MspDeInitCallback = HAL_DAC_MspDeInit;
1553:Drivers/STM32G4xx_HAL_Driver/Src/stm32g4xx_hal_dac.c ****         break;
1554:Drivers/STM32G4xx_HAL_Driver/Src/stm32g4xx_hal_dac.c ****       default :
1555:Drivers/STM32G4xx_HAL_Driver/Src/stm32g4xx_hal_dac.c ****         /* Update the error code */
1556:Drivers/STM32G4xx_HAL_Driver/Src/stm32g4xx_hal_dac.c ****         hdac->ErrorCode |= HAL_DAC_ERROR_INVALID_CALLBACK;
1557:Drivers/STM32G4xx_HAL_Driver/Src/stm32g4xx_hal_dac.c ****         /* update return status */
1558:Drivers/STM32G4xx_HAL_Driver/Src/stm32g4xx_hal_dac.c ****         status =  HAL_ERROR;
1559:Drivers/STM32G4xx_HAL_Driver/Src/stm32g4xx_hal_dac.c ****         break;
1560:Drivers/STM32G4xx_HAL_Driver/Src/stm32g4xx_hal_dac.c ****     }
1561:Drivers/STM32G4xx_HAL_Driver/Src/stm32g4xx_hal_dac.c ****   }
1562:Drivers/STM32G4xx_HAL_Driver/Src/stm32g4xx_hal_dac.c ****   else
1563:Drivers/STM32G4xx_HAL_Driver/Src/stm32g4xx_hal_dac.c ****   {
1564:Drivers/STM32G4xx_HAL_Driver/Src/stm32g4xx_hal_dac.c ****     /* Update the error code */
1565:Drivers/STM32G4xx_HAL_Driver/Src/stm32g4xx_hal_dac.c ****     hdac->ErrorCode |= HAL_DAC_ERROR_INVALID_CALLBACK;
1566:Drivers/STM32G4xx_HAL_Driver/Src/stm32g4xx_hal_dac.c ****     /* update return status */
1567:Drivers/STM32G4xx_HAL_Driver/Src/stm32g4xx_hal_dac.c ****     status =  HAL_ERROR;
1568:Drivers/STM32G4xx_HAL_Driver/Src/stm32g4xx_hal_dac.c ****   }
1569:Drivers/STM32G4xx_HAL_Driver/Src/stm32g4xx_hal_dac.c **** 
1570:Drivers/STM32G4xx_HAL_Driver/Src/stm32g4xx_hal_dac.c ****   /* Release Lock */
1571:Drivers/STM32G4xx_HAL_Driver/Src/stm32g4xx_hal_dac.c ****   __HAL_UNLOCK(hdac);
1572:Drivers/STM32G4xx_HAL_Driver/Src/stm32g4xx_hal_dac.c ****   return status;
ARM GAS  /tmp/ccpsplAO.s 			page 45


1573:Drivers/STM32G4xx_HAL_Driver/Src/stm32g4xx_hal_dac.c **** }
1574:Drivers/STM32G4xx_HAL_Driver/Src/stm32g4xx_hal_dac.c **** #endif /* USE_HAL_DAC_REGISTER_CALLBACKS */
1575:Drivers/STM32G4xx_HAL_Driver/Src/stm32g4xx_hal_dac.c **** 
1576:Drivers/STM32G4xx_HAL_Driver/Src/stm32g4xx_hal_dac.c **** /**
1577:Drivers/STM32G4xx_HAL_Driver/Src/stm32g4xx_hal_dac.c ****   * @}
1578:Drivers/STM32G4xx_HAL_Driver/Src/stm32g4xx_hal_dac.c ****   */
1579:Drivers/STM32G4xx_HAL_Driver/Src/stm32g4xx_hal_dac.c **** 
1580:Drivers/STM32G4xx_HAL_Driver/Src/stm32g4xx_hal_dac.c **** /**
1581:Drivers/STM32G4xx_HAL_Driver/Src/stm32g4xx_hal_dac.c ****   * @}
1582:Drivers/STM32G4xx_HAL_Driver/Src/stm32g4xx_hal_dac.c ****   */
1583:Drivers/STM32G4xx_HAL_Driver/Src/stm32g4xx_hal_dac.c **** 
1584:Drivers/STM32G4xx_HAL_Driver/Src/stm32g4xx_hal_dac.c **** /** @addtogroup DAC_Private_Functions
1585:Drivers/STM32G4xx_HAL_Driver/Src/stm32g4xx_hal_dac.c ****   * @{
1586:Drivers/STM32G4xx_HAL_Driver/Src/stm32g4xx_hal_dac.c ****   */
1587:Drivers/STM32G4xx_HAL_Driver/Src/stm32g4xx_hal_dac.c **** 
1588:Drivers/STM32G4xx_HAL_Driver/Src/stm32g4xx_hal_dac.c **** /**
1589:Drivers/STM32G4xx_HAL_Driver/Src/stm32g4xx_hal_dac.c ****   * @brief  DMA conversion complete callback.
1590:Drivers/STM32G4xx_HAL_Driver/Src/stm32g4xx_hal_dac.c ****   * @param  hdma pointer to a DMA_HandleTypeDef structure that contains
1591:Drivers/STM32G4xx_HAL_Driver/Src/stm32g4xx_hal_dac.c ****   *                the configuration information for the specified DMA module.
1592:Drivers/STM32G4xx_HAL_Driver/Src/stm32g4xx_hal_dac.c ****   * @retval None
1593:Drivers/STM32G4xx_HAL_Driver/Src/stm32g4xx_hal_dac.c ****   */
1594:Drivers/STM32G4xx_HAL_Driver/Src/stm32g4xx_hal_dac.c **** void DAC_DMAConvCpltCh1(DMA_HandleTypeDef *hdma)
1595:Drivers/STM32G4xx_HAL_Driver/Src/stm32g4xx_hal_dac.c **** {
 854              		.loc 1 1595 1 is_stmt 1 view -0
 855              		.cfi_startproc
 856              		@ args = 0, pretend = 0, frame = 0
 857              		@ frame_needed = 0, uses_anonymous_args = 0
 858              		.loc 1 1595 1 is_stmt 0 view .LVU241
 859 0000 10B5     		push	{r4, lr}
 860              	.LCFI14:
 861              		.cfi_def_cfa_offset 8
 862              		.cfi_offset 4, -8
 863              		.cfi_offset 14, -4
1596:Drivers/STM32G4xx_HAL_Driver/Src/stm32g4xx_hal_dac.c ****   DAC_HandleTypeDef *hdac = (DAC_HandleTypeDef *)((DMA_HandleTypeDef *)hdma)->Parent;
 864              		.loc 1 1596 3 is_stmt 1 view .LVU242
 865              		.loc 1 1596 22 is_stmt 0 view .LVU243
 866 0002 846A     		ldr	r4, [r0, #40]
 867              	.LVL64:
1597:Drivers/STM32G4xx_HAL_Driver/Src/stm32g4xx_hal_dac.c **** 
1598:Drivers/STM32G4xx_HAL_Driver/Src/stm32g4xx_hal_dac.c **** #if (USE_HAL_DAC_REGISTER_CALLBACKS == 1)
1599:Drivers/STM32G4xx_HAL_Driver/Src/stm32g4xx_hal_dac.c ****   hdac->ConvCpltCallbackCh1(hdac);
1600:Drivers/STM32G4xx_HAL_Driver/Src/stm32g4xx_hal_dac.c **** #else
1601:Drivers/STM32G4xx_HAL_Driver/Src/stm32g4xx_hal_dac.c ****   HAL_DAC_ConvCpltCallbackCh1(hdac);
 868              		.loc 1 1601 3 is_stmt 1 view .LVU244
 869 0004 2046     		mov	r0, r4
 870              	.LVL65:
 871              		.loc 1 1601 3 is_stmt 0 view .LVU245
 872 0006 FFF7FEFF 		bl	HAL_DAC_ConvCpltCallbackCh1
 873              	.LVL66:
1602:Drivers/STM32G4xx_HAL_Driver/Src/stm32g4xx_hal_dac.c **** #endif /* USE_HAL_DAC_REGISTER_CALLBACKS */
1603:Drivers/STM32G4xx_HAL_Driver/Src/stm32g4xx_hal_dac.c **** 
1604:Drivers/STM32G4xx_HAL_Driver/Src/stm32g4xx_hal_dac.c ****   hdac->State = HAL_DAC_STATE_READY;
 874              		.loc 1 1604 3 is_stmt 1 view .LVU246
 875              		.loc 1 1604 15 is_stmt 0 view .LVU247
 876 000a 0123     		movs	r3, #1
 877 000c 2371     		strb	r3, [r4, #4]
1605:Drivers/STM32G4xx_HAL_Driver/Src/stm32g4xx_hal_dac.c **** }
ARM GAS  /tmp/ccpsplAO.s 			page 46


 878              		.loc 1 1605 1 view .LVU248
 879 000e 10BD     		pop	{r4, pc}
 880              		.loc 1 1605 1 view .LVU249
 881              		.cfi_endproc
 882              	.LFE180:
 884              		.section	.text.HAL_DAC_ConvHalfCpltCallbackCh1,"ax",%progbits
 885              		.align	1
 886              		.weak	HAL_DAC_ConvHalfCpltCallbackCh1
 887              		.syntax unified
 888              		.thumb
 889              		.thumb_func
 890              		.fpu fpv4-sp-d16
 892              	HAL_DAC_ConvHalfCpltCallbackCh1:
 893              	.LVL67:
 894              	.LFB173:
 986:Drivers/STM32G4xx_HAL_Driver/Src/stm32g4xx_hal_dac.c ****   /* Prevent unused argument(s) compilation warning */
 895              		.loc 1 986 1 is_stmt 1 view -0
 896              		.cfi_startproc
 897              		@ args = 0, pretend = 0, frame = 0
 898              		@ frame_needed = 0, uses_anonymous_args = 0
 899              		@ link register save eliminated.
 988:Drivers/STM32G4xx_HAL_Driver/Src/stm32g4xx_hal_dac.c **** 
 900              		.loc 1 988 3 view .LVU251
 993:Drivers/STM32G4xx_HAL_Driver/Src/stm32g4xx_hal_dac.c **** 
 901              		.loc 1 993 1 is_stmt 0 view .LVU252
 902 0000 7047     		bx	lr
 903              		.cfi_endproc
 904              	.LFE173:
 906              		.section	.text.DAC_DMAHalfConvCpltCh1,"ax",%progbits
 907              		.align	1
 908              		.global	DAC_DMAHalfConvCpltCh1
 909              		.syntax unified
 910              		.thumb
 911              		.thumb_func
 912              		.fpu fpv4-sp-d16
 914              	DAC_DMAHalfConvCpltCh1:
 915              	.LVL68:
 916              	.LFB181:
1606:Drivers/STM32G4xx_HAL_Driver/Src/stm32g4xx_hal_dac.c **** 
1607:Drivers/STM32G4xx_HAL_Driver/Src/stm32g4xx_hal_dac.c **** /**
1608:Drivers/STM32G4xx_HAL_Driver/Src/stm32g4xx_hal_dac.c ****   * @brief  DMA half transfer complete callback.
1609:Drivers/STM32G4xx_HAL_Driver/Src/stm32g4xx_hal_dac.c ****   * @param  hdma pointer to a DMA_HandleTypeDef structure that contains
1610:Drivers/STM32G4xx_HAL_Driver/Src/stm32g4xx_hal_dac.c ****   *                the configuration information for the specified DMA module.
1611:Drivers/STM32G4xx_HAL_Driver/Src/stm32g4xx_hal_dac.c ****   * @retval None
1612:Drivers/STM32G4xx_HAL_Driver/Src/stm32g4xx_hal_dac.c ****   */
1613:Drivers/STM32G4xx_HAL_Driver/Src/stm32g4xx_hal_dac.c **** void DAC_DMAHalfConvCpltCh1(DMA_HandleTypeDef *hdma)
1614:Drivers/STM32G4xx_HAL_Driver/Src/stm32g4xx_hal_dac.c **** {
 917              		.loc 1 1614 1 is_stmt 1 view -0
 918              		.cfi_startproc
 919              		@ args = 0, pretend = 0, frame = 0
 920              		@ frame_needed = 0, uses_anonymous_args = 0
 921              		.loc 1 1614 1 is_stmt 0 view .LVU254
 922 0000 08B5     		push	{r3, lr}
 923              	.LCFI15:
 924              		.cfi_def_cfa_offset 8
 925              		.cfi_offset 3, -8
 926              		.cfi_offset 14, -4
ARM GAS  /tmp/ccpsplAO.s 			page 47


1615:Drivers/STM32G4xx_HAL_Driver/Src/stm32g4xx_hal_dac.c ****   DAC_HandleTypeDef *hdac = (DAC_HandleTypeDef *)((DMA_HandleTypeDef *)hdma)->Parent;
 927              		.loc 1 1615 3 is_stmt 1 view .LVU255
 928              	.LVL69:
1616:Drivers/STM32G4xx_HAL_Driver/Src/stm32g4xx_hal_dac.c ****   /* Conversion complete callback */
1617:Drivers/STM32G4xx_HAL_Driver/Src/stm32g4xx_hal_dac.c **** #if (USE_HAL_DAC_REGISTER_CALLBACKS == 1)
1618:Drivers/STM32G4xx_HAL_Driver/Src/stm32g4xx_hal_dac.c ****   hdac->ConvHalfCpltCallbackCh1(hdac);
1619:Drivers/STM32G4xx_HAL_Driver/Src/stm32g4xx_hal_dac.c **** #else
1620:Drivers/STM32G4xx_HAL_Driver/Src/stm32g4xx_hal_dac.c ****   HAL_DAC_ConvHalfCpltCallbackCh1(hdac);
 929              		.loc 1 1620 3 view .LVU256
 930 0002 806A     		ldr	r0, [r0, #40]
 931              	.LVL70:
 932              		.loc 1 1620 3 is_stmt 0 view .LVU257
 933 0004 FFF7FEFF 		bl	HAL_DAC_ConvHalfCpltCallbackCh1
 934              	.LVL71:
1621:Drivers/STM32G4xx_HAL_Driver/Src/stm32g4xx_hal_dac.c **** #endif  /* USE_HAL_DAC_REGISTER_CALLBACKS */
1622:Drivers/STM32G4xx_HAL_Driver/Src/stm32g4xx_hal_dac.c **** }
 935              		.loc 1 1622 1 view .LVU258
 936 0008 08BD     		pop	{r3, pc}
 937              		.cfi_endproc
 938              	.LFE181:
 940              		.section	.text.HAL_DAC_ErrorCallbackCh1,"ax",%progbits
 941              		.align	1
 942              		.weak	HAL_DAC_ErrorCallbackCh1
 943              		.syntax unified
 944              		.thumb
 945              		.thumb_func
 946              		.fpu fpv4-sp-d16
 948              	HAL_DAC_ErrorCallbackCh1:
 949              	.LVL72:
 950              	.LFB174:
1002:Drivers/STM32G4xx_HAL_Driver/Src/stm32g4xx_hal_dac.c ****   /* Prevent unused argument(s) compilation warning */
 951              		.loc 1 1002 1 is_stmt 1 view -0
 952              		.cfi_startproc
 953              		@ args = 0, pretend = 0, frame = 0
 954              		@ frame_needed = 0, uses_anonymous_args = 0
 955              		@ link register save eliminated.
1004:Drivers/STM32G4xx_HAL_Driver/Src/stm32g4xx_hal_dac.c **** 
 956              		.loc 1 1004 3 view .LVU260
1009:Drivers/STM32G4xx_HAL_Driver/Src/stm32g4xx_hal_dac.c **** 
 957              		.loc 1 1009 1 is_stmt 0 view .LVU261
 958 0000 7047     		bx	lr
 959              		.cfi_endproc
 960              	.LFE174:
 962              		.section	.text.DAC_DMAErrorCh1,"ax",%progbits
 963              		.align	1
 964              		.global	DAC_DMAErrorCh1
 965              		.syntax unified
 966              		.thumb
 967              		.thumb_func
 968              		.fpu fpv4-sp-d16
 970              	DAC_DMAErrorCh1:
 971              	.LVL73:
 972              	.LFB182:
1623:Drivers/STM32G4xx_HAL_Driver/Src/stm32g4xx_hal_dac.c **** 
1624:Drivers/STM32G4xx_HAL_Driver/Src/stm32g4xx_hal_dac.c **** /**
1625:Drivers/STM32G4xx_HAL_Driver/Src/stm32g4xx_hal_dac.c ****   * @brief  DMA error callback
1626:Drivers/STM32G4xx_HAL_Driver/Src/stm32g4xx_hal_dac.c ****   * @param  hdma pointer to a DMA_HandleTypeDef structure that contains
ARM GAS  /tmp/ccpsplAO.s 			page 48


1627:Drivers/STM32G4xx_HAL_Driver/Src/stm32g4xx_hal_dac.c ****   *                the configuration information for the specified DMA module.
1628:Drivers/STM32G4xx_HAL_Driver/Src/stm32g4xx_hal_dac.c ****   * @retval None
1629:Drivers/STM32G4xx_HAL_Driver/Src/stm32g4xx_hal_dac.c ****   */
1630:Drivers/STM32G4xx_HAL_Driver/Src/stm32g4xx_hal_dac.c **** void DAC_DMAErrorCh1(DMA_HandleTypeDef *hdma)
1631:Drivers/STM32G4xx_HAL_Driver/Src/stm32g4xx_hal_dac.c **** {
 973              		.loc 1 1631 1 is_stmt 1 view -0
 974              		.cfi_startproc
 975              		@ args = 0, pretend = 0, frame = 0
 976              		@ frame_needed = 0, uses_anonymous_args = 0
 977              		.loc 1 1631 1 is_stmt 0 view .LVU263
 978 0000 10B5     		push	{r4, lr}
 979              	.LCFI16:
 980              		.cfi_def_cfa_offset 8
 981              		.cfi_offset 4, -8
 982              		.cfi_offset 14, -4
1632:Drivers/STM32G4xx_HAL_Driver/Src/stm32g4xx_hal_dac.c ****   DAC_HandleTypeDef *hdac = (DAC_HandleTypeDef *)((DMA_HandleTypeDef *)hdma)->Parent;
 983              		.loc 1 1632 3 is_stmt 1 view .LVU264
 984              		.loc 1 1632 22 is_stmt 0 view .LVU265
 985 0002 846A     		ldr	r4, [r0, #40]
 986              	.LVL74:
1633:Drivers/STM32G4xx_HAL_Driver/Src/stm32g4xx_hal_dac.c **** 
1634:Drivers/STM32G4xx_HAL_Driver/Src/stm32g4xx_hal_dac.c ****   /* Set DAC error code to DMA error */
1635:Drivers/STM32G4xx_HAL_Driver/Src/stm32g4xx_hal_dac.c ****   hdac->ErrorCode |= HAL_DAC_ERROR_DMA;
 987              		.loc 1 1635 3 is_stmt 1 view .LVU266
 988              		.loc 1 1635 19 is_stmt 0 view .LVU267
 989 0004 2369     		ldr	r3, [r4, #16]
 990 0006 43F00403 		orr	r3, r3, #4
 991 000a 2361     		str	r3, [r4, #16]
1636:Drivers/STM32G4xx_HAL_Driver/Src/stm32g4xx_hal_dac.c **** 
1637:Drivers/STM32G4xx_HAL_Driver/Src/stm32g4xx_hal_dac.c **** #if (USE_HAL_DAC_REGISTER_CALLBACKS == 1)
1638:Drivers/STM32G4xx_HAL_Driver/Src/stm32g4xx_hal_dac.c ****   hdac->ErrorCallbackCh1(hdac);
1639:Drivers/STM32G4xx_HAL_Driver/Src/stm32g4xx_hal_dac.c **** #else
1640:Drivers/STM32G4xx_HAL_Driver/Src/stm32g4xx_hal_dac.c ****   HAL_DAC_ErrorCallbackCh1(hdac);
 992              		.loc 1 1640 3 is_stmt 1 view .LVU268
 993 000c 2046     		mov	r0, r4
 994              	.LVL75:
 995              		.loc 1 1640 3 is_stmt 0 view .LVU269
 996 000e FFF7FEFF 		bl	HAL_DAC_ErrorCallbackCh1
 997              	.LVL76:
1641:Drivers/STM32G4xx_HAL_Driver/Src/stm32g4xx_hal_dac.c **** #endif /* USE_HAL_DAC_REGISTER_CALLBACKS */
1642:Drivers/STM32G4xx_HAL_Driver/Src/stm32g4xx_hal_dac.c **** 
1643:Drivers/STM32G4xx_HAL_Driver/Src/stm32g4xx_hal_dac.c ****   hdac->State = HAL_DAC_STATE_READY;
 998              		.loc 1 1643 3 is_stmt 1 view .LVU270
 999              		.loc 1 1643 15 is_stmt 0 view .LVU271
 1000 0012 0123     		movs	r3, #1
 1001 0014 2371     		strb	r3, [r4, #4]
1644:Drivers/STM32G4xx_HAL_Driver/Src/stm32g4xx_hal_dac.c **** }
 1002              		.loc 1 1644 1 view .LVU272
 1003 0016 10BD     		pop	{r4, pc}
 1004              		.loc 1 1644 1 view .LVU273
 1005              		.cfi_endproc
 1006              	.LFE182:
 1008              		.section	.text.HAL_DAC_DMAUnderrunCallbackCh1,"ax",%progbits
 1009              		.align	1
 1010              		.weak	HAL_DAC_DMAUnderrunCallbackCh1
 1011              		.syntax unified
 1012              		.thumb
ARM GAS  /tmp/ccpsplAO.s 			page 49


 1013              		.thumb_func
 1014              		.fpu fpv4-sp-d16
 1016              	HAL_DAC_DMAUnderrunCallbackCh1:
 1017              	.LVL77:
 1018              	.LFB175:
1018:Drivers/STM32G4xx_HAL_Driver/Src/stm32g4xx_hal_dac.c ****   /* Prevent unused argument(s) compilation warning */
 1019              		.loc 1 1018 1 is_stmt 1 view -0
 1020              		.cfi_startproc
 1021              		@ args = 0, pretend = 0, frame = 0
 1022              		@ frame_needed = 0, uses_anonymous_args = 0
 1023              		@ link register save eliminated.
1020:Drivers/STM32G4xx_HAL_Driver/Src/stm32g4xx_hal_dac.c **** 
 1024              		.loc 1 1020 3 view .LVU275
1025:Drivers/STM32G4xx_HAL_Driver/Src/stm32g4xx_hal_dac.c **** 
 1025              		.loc 1 1025 1 is_stmt 0 view .LVU276
 1026 0000 7047     		bx	lr
 1027              		.cfi_endproc
 1028              	.LFE175:
 1030              		.section	.text.HAL_DAC_IRQHandler,"ax",%progbits
 1031              		.align	1
 1032              		.global	HAL_DAC_IRQHandler
 1033              		.syntax unified
 1034              		.thumb
 1035              		.thumb_func
 1036              		.fpu fpv4-sp-d16
 1038              	HAL_DAC_IRQHandler:
 1039              	.LVL78:
 1040              	.LFB170:
 860:Drivers/STM32G4xx_HAL_Driver/Src/stm32g4xx_hal_dac.c ****   if (__HAL_DAC_GET_IT_SOURCE(hdac, DAC_IT_DMAUDR1))
 1041              		.loc 1 860 1 is_stmt 1 view -0
 1042              		.cfi_startproc
 1043              		@ args = 0, pretend = 0, frame = 0
 1044              		@ frame_needed = 0, uses_anonymous_args = 0
 860:Drivers/STM32G4xx_HAL_Driver/Src/stm32g4xx_hal_dac.c ****   if (__HAL_DAC_GET_IT_SOURCE(hdac, DAC_IT_DMAUDR1))
 1045              		.loc 1 860 1 is_stmt 0 view .LVU278
 1046 0000 10B5     		push	{r4, lr}
 1047              	.LCFI17:
 1048              		.cfi_def_cfa_offset 8
 1049              		.cfi_offset 4, -8
 1050              		.cfi_offset 14, -4
 1051 0002 0446     		mov	r4, r0
 861:Drivers/STM32G4xx_HAL_Driver/Src/stm32g4xx_hal_dac.c ****   {
 1052              		.loc 1 861 3 is_stmt 1 view .LVU279
 861:Drivers/STM32G4xx_HAL_Driver/Src/stm32g4xx_hal_dac.c ****   {
 1053              		.loc 1 861 7 is_stmt 0 view .LVU280
 1054 0004 0368     		ldr	r3, [r0]
 1055 0006 1A68     		ldr	r2, [r3]
 861:Drivers/STM32G4xx_HAL_Driver/Src/stm32g4xx_hal_dac.c ****   {
 1056              		.loc 1 861 6 view .LVU281
 1057 0008 12F4005F 		tst	r2, #8192
 1058 000c 03D0     		beq	.L72
 864:Drivers/STM32G4xx_HAL_Driver/Src/stm32g4xx_hal_dac.c ****     {
 1059              		.loc 1 864 5 is_stmt 1 view .LVU282
 864:Drivers/STM32G4xx_HAL_Driver/Src/stm32g4xx_hal_dac.c ****     {
 1060              		.loc 1 864 9 is_stmt 0 view .LVU283
 1061 000e 5A6B     		ldr	r2, [r3, #52]
 864:Drivers/STM32G4xx_HAL_Driver/Src/stm32g4xx_hal_dac.c ****     {
ARM GAS  /tmp/ccpsplAO.s 			page 50


 1062              		.loc 1 864 8 view .LVU284
 1063 0010 12F4005F 		tst	r2, #8192
 1064 0014 09D1     		bne	.L75
 1065              	.LVL79:
 1066              	.L72:
 887:Drivers/STM32G4xx_HAL_Driver/Src/stm32g4xx_hal_dac.c ****   {
 1067              		.loc 1 887 3 is_stmt 1 view .LVU285
 887:Drivers/STM32G4xx_HAL_Driver/Src/stm32g4xx_hal_dac.c ****   {
 1068              		.loc 1 887 7 is_stmt 0 view .LVU286
 1069 0016 2368     		ldr	r3, [r4]
 1070 0018 1A68     		ldr	r2, [r3]
 887:Drivers/STM32G4xx_HAL_Driver/Src/stm32g4xx_hal_dac.c ****   {
 1071              		.loc 1 887 6 view .LVU287
 1072 001a 12F0005F 		tst	r2, #536870912
 1073 001e 03D0     		beq	.L71
 890:Drivers/STM32G4xx_HAL_Driver/Src/stm32g4xx_hal_dac.c ****     {
 1074              		.loc 1 890 5 is_stmt 1 view .LVU288
 890:Drivers/STM32G4xx_HAL_Driver/Src/stm32g4xx_hal_dac.c ****     {
 1075              		.loc 1 890 9 is_stmt 0 view .LVU289
 1076 0020 5A6B     		ldr	r2, [r3, #52]
 890:Drivers/STM32G4xx_HAL_Driver/Src/stm32g4xx_hal_dac.c ****     {
 1077              		.loc 1 890 8 view .LVU290
 1078 0022 12F0005F 		tst	r2, #536870912
 1079 0026 11D1     		bne	.L76
 1080              	.L71:
 912:Drivers/STM32G4xx_HAL_Driver/Src/stm32g4xx_hal_dac.c **** 
 1081              		.loc 1 912 1 view .LVU291
 1082 0028 10BD     		pop	{r4, pc}
 1083              	.LVL80:
 1084              	.L75:
 867:Drivers/STM32G4xx_HAL_Driver/Src/stm32g4xx_hal_dac.c **** 
 1085              		.loc 1 867 7 is_stmt 1 view .LVU292
 867:Drivers/STM32G4xx_HAL_Driver/Src/stm32g4xx_hal_dac.c **** 
 1086              		.loc 1 867 19 is_stmt 0 view .LVU293
 1087 002a 0422     		movs	r2, #4
 1088 002c 0271     		strb	r2, [r0, #4]
 870:Drivers/STM32G4xx_HAL_Driver/Src/stm32g4xx_hal_dac.c **** 
 1089              		.loc 1 870 7 is_stmt 1 view .LVU294
 1090 002e 0269     		ldr	r2, [r0, #16]
 1091 0030 42F00102 		orr	r2, r2, #1
 1092 0034 0261     		str	r2, [r0, #16]
 873:Drivers/STM32G4xx_HAL_Driver/Src/stm32g4xx_hal_dac.c **** 
 1093              		.loc 1 873 7 view .LVU295
 1094 0036 4FF40052 		mov	r2, #8192
 1095 003a 5A63     		str	r2, [r3, #52]
 876:Drivers/STM32G4xx_HAL_Driver/Src/stm32g4xx_hal_dac.c **** 
 1096              		.loc 1 876 7 view .LVU296
 1097 003c 0268     		ldr	r2, [r0]
 1098 003e 1368     		ldr	r3, [r2]
 1099 0040 23F48053 		bic	r3, r3, #4096
 1100 0044 1360     		str	r3, [r2]
 882:Drivers/STM32G4xx_HAL_Driver/Src/stm32g4xx_hal_dac.c **** #endif /* USE_HAL_DAC_REGISTER_CALLBACKS */
 1101              		.loc 1 882 7 view .LVU297
 1102 0046 FFF7FEFF 		bl	HAL_DAC_DMAUnderrunCallbackCh1
 1103              	.LVL81:
 882:Drivers/STM32G4xx_HAL_Driver/Src/stm32g4xx_hal_dac.c **** #endif /* USE_HAL_DAC_REGISTER_CALLBACKS */
 1104              		.loc 1 882 7 is_stmt 0 view .LVU298
ARM GAS  /tmp/ccpsplAO.s 			page 51


 1105 004a E4E7     		b	.L72
 1106              	.L76:
 893:Drivers/STM32G4xx_HAL_Driver/Src/stm32g4xx_hal_dac.c **** 
 1107              		.loc 1 893 7 is_stmt 1 view .LVU299
 893:Drivers/STM32G4xx_HAL_Driver/Src/stm32g4xx_hal_dac.c **** 
 1108              		.loc 1 893 19 is_stmt 0 view .LVU300
 1109 004c 0422     		movs	r2, #4
 1110 004e 2271     		strb	r2, [r4, #4]
 896:Drivers/STM32G4xx_HAL_Driver/Src/stm32g4xx_hal_dac.c **** 
 1111              		.loc 1 896 7 is_stmt 1 view .LVU301
 1112 0050 2269     		ldr	r2, [r4, #16]
 1113 0052 42F00202 		orr	r2, r2, #2
 1114 0056 2261     		str	r2, [r4, #16]
 899:Drivers/STM32G4xx_HAL_Driver/Src/stm32g4xx_hal_dac.c **** 
 1115              		.loc 1 899 7 view .LVU302
 1116 0058 4FF00052 		mov	r2, #536870912
 1117 005c 5A63     		str	r2, [r3, #52]
 902:Drivers/STM32G4xx_HAL_Driver/Src/stm32g4xx_hal_dac.c **** 
 1118              		.loc 1 902 7 view .LVU303
 1119 005e 2268     		ldr	r2, [r4]
 1120 0060 1368     		ldr	r3, [r2]
 1121 0062 23F08053 		bic	r3, r3, #268435456
 1122 0066 1360     		str	r3, [r2]
 908:Drivers/STM32G4xx_HAL_Driver/Src/stm32g4xx_hal_dac.c **** #endif /* USE_HAL_DAC_REGISTER_CALLBACKS */
 1123              		.loc 1 908 7 view .LVU304
 1124 0068 2046     		mov	r0, r4
 1125 006a FFF7FEFF 		bl	HAL_DACEx_DMAUnderrunCallbackCh2
 1126              	.LVL82:
 912:Drivers/STM32G4xx_HAL_Driver/Src/stm32g4xx_hal_dac.c **** 
 1127              		.loc 1 912 1 is_stmt 0 view .LVU305
 1128 006e DBE7     		b	.L71
 1129              		.cfi_endproc
 1130              	.LFE170:
 1132              		.section	.text.HAL_DAC_GetValue,"ax",%progbits
 1133              		.align	1
 1134              		.global	HAL_DAC_GetValue
 1135              		.syntax unified
 1136              		.thumb
 1137              		.thumb_func
 1138              		.fpu fpv4-sp-d16
 1140              	HAL_DAC_GetValue:
 1141              	.LVL83:
 1142              	.LFB176:
1060:Drivers/STM32G4xx_HAL_Driver/Src/stm32g4xx_hal_dac.c ****   /* Check the parameters */
 1143              		.loc 1 1060 1 is_stmt 1 view -0
 1144              		.cfi_startproc
 1145              		@ args = 0, pretend = 0, frame = 0
 1146              		@ frame_needed = 0, uses_anonymous_args = 0
 1147              		@ link register save eliminated.
1062:Drivers/STM32G4xx_HAL_Driver/Src/stm32g4xx_hal_dac.c **** 
 1148              		.loc 1 1062 3 view .LVU307
1065:Drivers/STM32G4xx_HAL_Driver/Src/stm32g4xx_hal_dac.c ****   {
 1149              		.loc 1 1065 3 view .LVU308
1065:Drivers/STM32G4xx_HAL_Driver/Src/stm32g4xx_hal_dac.c ****   {
 1150              		.loc 1 1065 6 is_stmt 0 view .LVU309
 1151 0000 11B9     		cbnz	r1, .L78
1067:Drivers/STM32G4xx_HAL_Driver/Src/stm32g4xx_hal_dac.c ****   }
ARM GAS  /tmp/ccpsplAO.s 			page 52


 1152              		.loc 1 1067 5 is_stmt 1 view .LVU310
1067:Drivers/STM32G4xx_HAL_Driver/Src/stm32g4xx_hal_dac.c ****   }
 1153              		.loc 1 1067 16 is_stmt 0 view .LVU311
 1154 0002 0368     		ldr	r3, [r0]
1067:Drivers/STM32G4xx_HAL_Driver/Src/stm32g4xx_hal_dac.c ****   }
 1155              		.loc 1 1067 26 view .LVU312
 1156 0004 D86A     		ldr	r0, [r3, #44]
 1157              	.LVL84:
1067:Drivers/STM32G4xx_HAL_Driver/Src/stm32g4xx_hal_dac.c ****   }
 1158              		.loc 1 1067 26 view .LVU313
 1159 0006 7047     		bx	lr
 1160              	.LVL85:
 1161              	.L78:
1071:Drivers/STM32G4xx_HAL_Driver/Src/stm32g4xx_hal_dac.c ****   }
 1162              		.loc 1 1071 5 is_stmt 1 view .LVU314
1071:Drivers/STM32G4xx_HAL_Driver/Src/stm32g4xx_hal_dac.c ****   }
 1163              		.loc 1 1071 16 is_stmt 0 view .LVU315
 1164 0008 0368     		ldr	r3, [r0]
1071:Drivers/STM32G4xx_HAL_Driver/Src/stm32g4xx_hal_dac.c ****   }
 1165              		.loc 1 1071 26 view .LVU316
 1166 000a 186B     		ldr	r0, [r3, #48]
 1167              	.LVL86:
1073:Drivers/STM32G4xx_HAL_Driver/Src/stm32g4xx_hal_dac.c **** 
 1168              		.loc 1 1073 1 view .LVU317
 1169 000c 7047     		bx	lr
 1170              		.cfi_endproc
 1171              	.LFE176:
 1173              		.section	.text.HAL_DAC_ConfigChannel,"ax",%progbits
 1174              		.align	1
 1175              		.global	HAL_DAC_ConfigChannel
 1176              		.syntax unified
 1177              		.thumb
 1178              		.thumb_func
 1179              		.fpu fpv4-sp-d16
 1181              	HAL_DAC_ConfigChannel:
 1182              	.LVL87:
 1183              	.LFB177:
1095:Drivers/STM32G4xx_HAL_Driver/Src/stm32g4xx_hal_dac.c ****   uint32_t tmpreg1;
 1184              		.loc 1 1095 1 is_stmt 1 view -0
 1185              		.cfi_startproc
 1186              		@ args = 0, pretend = 0, frame = 0
 1187              		@ frame_needed = 0, uses_anonymous_args = 0
1096:Drivers/STM32G4xx_HAL_Driver/Src/stm32g4xx_hal_dac.c ****   uint32_t tmpreg2;
 1188              		.loc 1 1096 3 view .LVU319
1097:Drivers/STM32G4xx_HAL_Driver/Src/stm32g4xx_hal_dac.c ****   uint32_t tickstart = 0U;
 1189              		.loc 1 1097 3 view .LVU320
1098:Drivers/STM32G4xx_HAL_Driver/Src/stm32g4xx_hal_dac.c ****   uint32_t hclkfreq;
 1190              		.loc 1 1098 3 view .LVU321
1099:Drivers/STM32G4xx_HAL_Driver/Src/stm32g4xx_hal_dac.c ****   uint32_t connectOnChip;
 1191              		.loc 1 1099 3 view .LVU322
1100:Drivers/STM32G4xx_HAL_Driver/Src/stm32g4xx_hal_dac.c **** 
 1192              		.loc 1 1100 3 view .LVU323
1103:Drivers/STM32G4xx_HAL_Driver/Src/stm32g4xx_hal_dac.c ****   assert_param(IS_DAC_TRIGGER(hdac->Instance, sConfig->DAC_Trigger));
 1193              		.loc 1 1103 3 view .LVU324
1104:Drivers/STM32G4xx_HAL_Driver/Src/stm32g4xx_hal_dac.c ****   assert_param(IS_DAC_TRIGGER(hdac->Instance, sConfig->DAC_Trigger2));
 1194              		.loc 1 1104 3 view .LVU325
1105:Drivers/STM32G4xx_HAL_Driver/Src/stm32g4xx_hal_dac.c ****   assert_param(IS_DAC_OUTPUT_BUFFER_STATE(sConfig->DAC_OutputBuffer));
ARM GAS  /tmp/ccpsplAO.s 			page 53


 1195              		.loc 1 1105 3 view .LVU326
1106:Drivers/STM32G4xx_HAL_Driver/Src/stm32g4xx_hal_dac.c ****   assert_param(IS_DAC_CHIP_CONNECTION(sConfig->DAC_ConnectOnChipPeripheral));
 1196              		.loc 1 1106 3 view .LVU327
1107:Drivers/STM32G4xx_HAL_Driver/Src/stm32g4xx_hal_dac.c ****   assert_param(IS_DAC_TRIMMING(sConfig->DAC_UserTrimming));
 1197              		.loc 1 1107 3 view .LVU328
1108:Drivers/STM32G4xx_HAL_Driver/Src/stm32g4xx_hal_dac.c ****   if ((sConfig->DAC_UserTrimming) == DAC_TRIMMING_USER)
 1198              		.loc 1 1108 3 view .LVU329
1109:Drivers/STM32G4xx_HAL_Driver/Src/stm32g4xx_hal_dac.c ****   {
 1199              		.loc 1 1109 3 view .LVU330
1111:Drivers/STM32G4xx_HAL_Driver/Src/stm32g4xx_hal_dac.c ****   }
 1200              		.loc 1 1111 5 view .LVU331
1113:Drivers/STM32G4xx_HAL_Driver/Src/stm32g4xx_hal_dac.c ****   if ((sConfig->DAC_SampleAndHold) == DAC_SAMPLEANDHOLD_ENABLE)
 1201              		.loc 1 1113 3 view .LVU332
1114:Drivers/STM32G4xx_HAL_Driver/Src/stm32g4xx_hal_dac.c ****   {
 1202              		.loc 1 1114 3 view .LVU333
1116:Drivers/STM32G4xx_HAL_Driver/Src/stm32g4xx_hal_dac.c ****     assert_param(IS_DAC_HOLDTIME(sConfig->DAC_SampleAndHoldConfig.DAC_HoldTime));
 1203              		.loc 1 1116 5 view .LVU334
1117:Drivers/STM32G4xx_HAL_Driver/Src/stm32g4xx_hal_dac.c ****     assert_param(IS_DAC_REFRESHTIME(sConfig->DAC_SampleAndHoldConfig.DAC_RefreshTime));
 1204              		.loc 1 1117 5 view .LVU335
1118:Drivers/STM32G4xx_HAL_Driver/Src/stm32g4xx_hal_dac.c ****   }
 1205              		.loc 1 1118 5 view .LVU336
1120:Drivers/STM32G4xx_HAL_Driver/Src/stm32g4xx_hal_dac.c ****   assert_param(IS_FUNCTIONAL_STATE(sConfig->DAC_DMADoubleDataMode));
 1206              		.loc 1 1120 3 view .LVU337
1121:Drivers/STM32G4xx_HAL_Driver/Src/stm32g4xx_hal_dac.c ****   assert_param(IS_FUNCTIONAL_STATE(sConfig->DAC_SignedFormat));
 1207              		.loc 1 1121 3 view .LVU338
1122:Drivers/STM32G4xx_HAL_Driver/Src/stm32g4xx_hal_dac.c **** 
 1208              		.loc 1 1122 3 view .LVU339
1125:Drivers/STM32G4xx_HAL_Driver/Src/stm32g4xx_hal_dac.c **** 
 1209              		.loc 1 1125 3 view .LVU340
1125:Drivers/STM32G4xx_HAL_Driver/Src/stm32g4xx_hal_dac.c **** 
 1210              		.loc 1 1125 3 view .LVU341
 1211 0000 4379     		ldrb	r3, [r0, #5]	@ zero_extendqisi2
 1212 0002 012B     		cmp	r3, #1
 1213 0004 00F0F280 		beq	.L95
1095:Drivers/STM32G4xx_HAL_Driver/Src/stm32g4xx_hal_dac.c ****   uint32_t tmpreg1;
 1214              		.loc 1 1095 1 is_stmt 0 discriminator 2 view .LVU342
 1215 0008 2DE9F041 		push	{r4, r5, r6, r7, r8, lr}
 1216              	.LCFI18:
 1217              		.cfi_def_cfa_offset 24
 1218              		.cfi_offset 4, -24
 1219              		.cfi_offset 5, -20
 1220              		.cfi_offset 6, -16
 1221              		.cfi_offset 7, -12
 1222              		.cfi_offset 8, -8
 1223              		.cfi_offset 14, -4
 1224 000c 0446     		mov	r4, r0
 1225 000e 0E46     		mov	r6, r1
 1226 0010 1546     		mov	r5, r2
1125:Drivers/STM32G4xx_HAL_Driver/Src/stm32g4xx_hal_dac.c **** 
 1227              		.loc 1 1125 3 is_stmt 1 discriminator 2 view .LVU343
 1228 0012 0123     		movs	r3, #1
 1229 0014 4371     		strb	r3, [r0, #5]
1125:Drivers/STM32G4xx_HAL_Driver/Src/stm32g4xx_hal_dac.c **** 
 1230              		.loc 1 1125 3 discriminator 2 view .LVU344
1128:Drivers/STM32G4xx_HAL_Driver/Src/stm32g4xx_hal_dac.c **** 
 1231              		.loc 1 1128 3 discriminator 2 view .LVU345
1128:Drivers/STM32G4xx_HAL_Driver/Src/stm32g4xx_hal_dac.c **** 
ARM GAS  /tmp/ccpsplAO.s 			page 54


 1232              		.loc 1 1128 15 is_stmt 0 discriminator 2 view .LVU346
 1233 0016 0223     		movs	r3, #2
 1234 0018 0371     		strb	r3, [r0, #4]
1130:Drivers/STM32G4xx_HAL_Driver/Src/stm32g4xx_hal_dac.c ****     /* Sample on old configuration */
 1235              		.loc 1 1130 3 is_stmt 1 discriminator 2 view .LVU347
1130:Drivers/STM32G4xx_HAL_Driver/Src/stm32g4xx_hal_dac.c ****     /* Sample on old configuration */
 1236              		.loc 1 1130 14 is_stmt 0 discriminator 2 view .LVU348
 1237 001a 8B68     		ldr	r3, [r1, #8]
1130:Drivers/STM32G4xx_HAL_Driver/Src/stm32g4xx_hal_dac.c ****     /* Sample on old configuration */
 1238              		.loc 1 1130 6 discriminator 2 view .LVU349
 1239 001c 042B     		cmp	r3, #4
 1240 001e 18D0     		beq	.L104
 1241              	.LVL88:
 1242              	.L82:
1185:Drivers/STM32G4xx_HAL_Driver/Src/stm32g4xx_hal_dac.c ****     /* USER TRIMMING */
 1243              		.loc 1 1185 3 is_stmt 1 view .LVU350
1185:Drivers/STM32G4xx_HAL_Driver/Src/stm32g4xx_hal_dac.c ****     /* USER TRIMMING */
 1244              		.loc 1 1185 14 is_stmt 0 view .LVU351
 1245 0020 F369     		ldr	r3, [r6, #28]
1185:Drivers/STM32G4xx_HAL_Driver/Src/stm32g4xx_hal_dac.c ****     /* USER TRIMMING */
 1246              		.loc 1 1185 6 view .LVU352
 1247 0022 012B     		cmp	r3, #1
 1248 0024 5FD0     		beq	.L105
 1249              	.L88:
1203:Drivers/STM32G4xx_HAL_Driver/Src/stm32g4xx_hal_dac.c ****   /* Clear DAC_MCR_MODEx bits */
 1250              		.loc 1 1203 3 is_stmt 1 view .LVU353
1203:Drivers/STM32G4xx_HAL_Driver/Src/stm32g4xx_hal_dac.c ****   /* Clear DAC_MCR_MODEx bits */
 1251              		.loc 1 1203 17 is_stmt 0 view .LVU354
 1252 0026 2368     		ldr	r3, [r4]
1203:Drivers/STM32G4xx_HAL_Driver/Src/stm32g4xx_hal_dac.c ****   /* Clear DAC_MCR_MODEx bits */
 1253              		.loc 1 1203 11 view .LVU355
 1254 0028 DF6B     		ldr	r7, [r3, #60]
 1255              	.LVL89:
1205:Drivers/STM32G4xx_HAL_Driver/Src/stm32g4xx_hal_dac.c ****   /* Configure for the selected DAC channel: mode, buffer output & on chip peripheral connect */
 1256              		.loc 1 1205 3 is_stmt 1 view .LVU356
1205:Drivers/STM32G4xx_HAL_Driver/Src/stm32g4xx_hal_dac.c ****   /* Configure for the selected DAC channel: mode, buffer output & on chip peripheral connect */
 1257              		.loc 1 1205 56 is_stmt 0 view .LVU357
 1258 002a 05F01005 		and	r5, r5, #16
 1259              	.LVL90:
1205:Drivers/STM32G4xx_HAL_Driver/Src/stm32g4xx_hal_dac.c ****   /* Configure for the selected DAC channel: mode, buffer output & on chip peripheral connect */
 1260              		.loc 1 1205 44 view .LVU358
 1261 002e 0723     		movs	r3, #7
 1262 0030 AB40     		lsls	r3, r3, r5
1205:Drivers/STM32G4xx_HAL_Driver/Src/stm32g4xx_hal_dac.c ****   /* Configure for the selected DAC channel: mode, buffer output & on chip peripheral connect */
 1263              		.loc 1 1205 11 view .LVU359
 1264 0032 27EA0307 		bic	r7, r7, r3
 1265              	.LVL91:
1207:Drivers/STM32G4xx_HAL_Driver/Src/stm32g4xx_hal_dac.c ****   {
 1266              		.loc 1 1207 3 is_stmt 1 view .LVU360
1207:Drivers/STM32G4xx_HAL_Driver/Src/stm32g4xx_hal_dac.c ****   {
 1267              		.loc 1 1207 15 is_stmt 0 view .LVU361
 1268 0036 B369     		ldr	r3, [r6, #24]
1207:Drivers/STM32G4xx_HAL_Driver/Src/stm32g4xx_hal_dac.c ****   {
 1269              		.loc 1 1207 6 view .LVU362
 1270 0038 13F0010F 		tst	r3, #1
 1271 003c 60D1     		bne	.L96
1211:Drivers/STM32G4xx_HAL_Driver/Src/stm32g4xx_hal_dac.c ****   {
ARM GAS  /tmp/ccpsplAO.s 			page 55


 1272              		.loc 1 1211 8 is_stmt 1 view .LVU363
1211:Drivers/STM32G4xx_HAL_Driver/Src/stm32g4xx_hal_dac.c ****   {
 1273              		.loc 1 1211 11 is_stmt 0 view .LVU364
 1274 003e 13F00208 		ands	r8, r3, #2
 1275 0042 40F0BC80 		bne	.L97
1217:Drivers/STM32G4xx_HAL_Driver/Src/stm32g4xx_hal_dac.c ****     {
 1276              		.loc 1 1217 5 is_stmt 1 view .LVU365
1217:Drivers/STM32G4xx_HAL_Driver/Src/stm32g4xx_hal_dac.c ****     {
 1277              		.loc 1 1217 16 is_stmt 0 view .LVU366
 1278 0046 7369     		ldr	r3, [r6, #20]
1217:Drivers/STM32G4xx_HAL_Driver/Src/stm32g4xx_hal_dac.c ****     {
 1279              		.loc 1 1217 8 view .LVU367
 1280 0048 002B     		cmp	r3, #0
 1281 004a 5BD1     		bne	.L89
1219:Drivers/STM32G4xx_HAL_Driver/Src/stm32g4xx_hal_dac.c ****     }
 1282              		.loc 1 1219 21 view .LVU368
 1283 004c 4FF00108 		mov	r8, #1
 1284 0050 58E0     		b	.L89
 1285              	.LVL92:
 1286              	.L104:
1134:Drivers/STM32G4xx_HAL_Driver/Src/stm32g4xx_hal_dac.c ****     {
 1287              		.loc 1 1134 5 is_stmt 1 view .LVU369
1134:Drivers/STM32G4xx_HAL_Driver/Src/stm32g4xx_hal_dac.c ****     {
 1288              		.loc 1 1134 8 is_stmt 0 view .LVU370
 1289 0052 72B1     		cbz	r2, .L106
 1290              	.LVL93:
 1291              	.L83:
1161:Drivers/STM32G4xx_HAL_Driver/Src/stm32g4xx_hal_dac.c ****       {
 1292              		.loc 1 1161 13 is_stmt 1 view .LVU371
1161:Drivers/STM32G4xx_HAL_Driver/Src/stm32g4xx_hal_dac.c ****       {
 1293              		.loc 1 1161 20 is_stmt 0 view .LVU372
 1294 0054 2368     		ldr	r3, [r4]
1161:Drivers/STM32G4xx_HAL_Driver/Src/stm32g4xx_hal_dac.c ****       {
 1295              		.loc 1 1161 30 view .LVU373
 1296 0056 5B6B     		ldr	r3, [r3, #52]
1161:Drivers/STM32G4xx_HAL_Driver/Src/stm32g4xx_hal_dac.c ****       {
 1297              		.loc 1 1161 13 view .LVU374
 1298 0058 002B     		cmp	r3, #0
 1299 005a 25DA     		bge	.L107
1164:Drivers/STM32G4xx_HAL_Driver/Src/stm32g4xx_hal_dac.c ****         {
 1300              		.loc 1 1164 9 is_stmt 1 view .LVU375
1164:Drivers/STM32G4xx_HAL_Driver/Src/stm32g4xx_hal_dac.c ****         {
 1301              		.loc 1 1164 14 is_stmt 0 view .LVU376
 1302 005c FFF7FEFF 		bl	HAL_GetTick
 1303              	.LVL94:
1164:Drivers/STM32G4xx_HAL_Driver/Src/stm32g4xx_hal_dac.c ****         {
 1304              		.loc 1 1164 12 view .LVU377
 1305 0060 0128     		cmp	r0, #1
 1306 0062 F7D9     		bls	.L83
1167:Drivers/STM32G4xx_HAL_Driver/Src/stm32g4xx_hal_dac.c **** 
 1307              		.loc 1 1167 11 is_stmt 1 view .LVU378
 1308 0064 2369     		ldr	r3, [r4, #16]
 1309 0066 43F00803 		orr	r3, r3, #8
 1310 006a 2361     		str	r3, [r4, #16]
1170:Drivers/STM32G4xx_HAL_Driver/Src/stm32g4xx_hal_dac.c **** 
 1311              		.loc 1 1170 11 view .LVU379
1170:Drivers/STM32G4xx_HAL_Driver/Src/stm32g4xx_hal_dac.c **** 
ARM GAS  /tmp/ccpsplAO.s 			page 56


 1312              		.loc 1 1170 23 is_stmt 0 view .LVU380
 1313 006c 0320     		movs	r0, #3
 1314 006e 2071     		strb	r0, [r4, #4]
1172:Drivers/STM32G4xx_HAL_Driver/Src/stm32g4xx_hal_dac.c ****         }
 1315              		.loc 1 1172 11 is_stmt 1 view .LVU381
1172:Drivers/STM32G4xx_HAL_Driver/Src/stm32g4xx_hal_dac.c ****         }
 1316              		.loc 1 1172 18 is_stmt 0 view .LVU382
 1317 0070 A3E0     		b	.L81
 1318              	.LVL95:
 1319              	.L106:
1137:Drivers/STM32G4xx_HAL_Driver/Src/stm32g4xx_hal_dac.c **** 
 1320              		.loc 1 1137 7 is_stmt 1 view .LVU383
1137:Drivers/STM32G4xx_HAL_Driver/Src/stm32g4xx_hal_dac.c **** 
 1321              		.loc 1 1137 19 is_stmt 0 view .LVU384
 1322 0072 FFF7FEFF 		bl	HAL_GetTick
 1323              	.LVL96:
1137:Drivers/STM32G4xx_HAL_Driver/Src/stm32g4xx_hal_dac.c **** 
 1324              		.loc 1 1137 19 view .LVU385
 1325 0076 0746     		mov	r7, r0
 1326              	.LVL97:
1140:Drivers/STM32G4xx_HAL_Driver/Src/stm32g4xx_hal_dac.c ****       {
 1327              		.loc 1 1140 7 is_stmt 1 view .LVU386
 1328              	.L84:
1140:Drivers/STM32G4xx_HAL_Driver/Src/stm32g4xx_hal_dac.c ****       {
 1329              		.loc 1 1140 13 view .LVU387
1140:Drivers/STM32G4xx_HAL_Driver/Src/stm32g4xx_hal_dac.c ****       {
 1330              		.loc 1 1140 20 is_stmt 0 view .LVU388
 1331 0078 2368     		ldr	r3, [r4]
1140:Drivers/STM32G4xx_HAL_Driver/Src/stm32g4xx_hal_dac.c ****       {
 1332              		.loc 1 1140 30 view .LVU389
 1333 007a 5B6B     		ldr	r3, [r3, #52]
1140:Drivers/STM32G4xx_HAL_Driver/Src/stm32g4xx_hal_dac.c ****       {
 1334              		.loc 1 1140 13 view .LVU390
 1335 007c 13F4004F 		tst	r3, #32768
 1336 0080 0BD0     		beq	.L108
1143:Drivers/STM32G4xx_HAL_Driver/Src/stm32g4xx_hal_dac.c ****         {
 1337              		.loc 1 1143 9 is_stmt 1 view .LVU391
1143:Drivers/STM32G4xx_HAL_Driver/Src/stm32g4xx_hal_dac.c ****         {
 1338              		.loc 1 1143 14 is_stmt 0 view .LVU392
 1339 0082 FFF7FEFF 		bl	HAL_GetTick
 1340              	.LVL98:
1143:Drivers/STM32G4xx_HAL_Driver/Src/stm32g4xx_hal_dac.c ****         {
 1341              		.loc 1 1143 28 view .LVU393
 1342 0086 C01B     		subs	r0, r0, r7
1143:Drivers/STM32G4xx_HAL_Driver/Src/stm32g4xx_hal_dac.c ****         {
 1343              		.loc 1 1143 12 view .LVU394
 1344 0088 0128     		cmp	r0, #1
 1345 008a F5D9     		bls	.L84
1146:Drivers/STM32G4xx_HAL_Driver/Src/stm32g4xx_hal_dac.c **** 
 1346              		.loc 1 1146 11 is_stmt 1 view .LVU395
 1347 008c 2369     		ldr	r3, [r4, #16]
 1348 008e 43F00803 		orr	r3, r3, #8
 1349 0092 2361     		str	r3, [r4, #16]
1149:Drivers/STM32G4xx_HAL_Driver/Src/stm32g4xx_hal_dac.c **** 
 1350              		.loc 1 1149 11 view .LVU396
1149:Drivers/STM32G4xx_HAL_Driver/Src/stm32g4xx_hal_dac.c **** 
 1351              		.loc 1 1149 23 is_stmt 0 view .LVU397
ARM GAS  /tmp/ccpsplAO.s 			page 57


 1352 0094 0320     		movs	r0, #3
 1353 0096 2071     		strb	r0, [r4, #4]
1151:Drivers/STM32G4xx_HAL_Driver/Src/stm32g4xx_hal_dac.c ****         }
 1354              		.loc 1 1151 11 is_stmt 1 view .LVU398
1151:Drivers/STM32G4xx_HAL_Driver/Src/stm32g4xx_hal_dac.c ****         }
 1355              		.loc 1 1151 18 is_stmt 0 view .LVU399
 1356 0098 8FE0     		b	.L81
 1357              	.L108:
1154:Drivers/STM32G4xx_HAL_Driver/Src/stm32g4xx_hal_dac.c ****       hdac->Instance->SHSR1 = sConfig->DAC_SampleAndHoldConfig.DAC_SampleTime;
 1358              		.loc 1 1154 7 is_stmt 1 view .LVU400
 1359 009a 0120     		movs	r0, #1
 1360 009c FFF7FEFF 		bl	HAL_Delay
 1361              	.LVL99:
1155:Drivers/STM32G4xx_HAL_Driver/Src/stm32g4xx_hal_dac.c ****     }
 1362              		.loc 1 1155 7 view .LVU401
1155:Drivers/STM32G4xx_HAL_Driver/Src/stm32g4xx_hal_dac.c ****     }
 1363              		.loc 1 1155 11 is_stmt 0 view .LVU402
 1364 00a0 2368     		ldr	r3, [r4]
1155:Drivers/STM32G4xx_HAL_Driver/Src/stm32g4xx_hal_dac.c ****     }
 1365              		.loc 1 1155 63 view .LVU403
 1366 00a2 726A     		ldr	r2, [r6, #36]
1155:Drivers/STM32G4xx_HAL_Driver/Src/stm32g4xx_hal_dac.c ****     }
 1367              		.loc 1 1155 29 view .LVU404
 1368 00a4 1A64     		str	r2, [r3, #64]
 1369 00a6 05E0     		b	.L86
 1370              	.LVL100:
 1371              	.L107:
1175:Drivers/STM32G4xx_HAL_Driver/Src/stm32g4xx_hal_dac.c ****       hdac->Instance->SHSR2 = sConfig->DAC_SampleAndHoldConfig.DAC_SampleTime;
 1372              		.loc 1 1175 7 is_stmt 1 view .LVU405
 1373 00a8 0120     		movs	r0, #1
 1374 00aa FFF7FEFF 		bl	HAL_Delay
 1375              	.LVL101:
1176:Drivers/STM32G4xx_HAL_Driver/Src/stm32g4xx_hal_dac.c ****     }
 1376              		.loc 1 1176 7 view .LVU406
1176:Drivers/STM32G4xx_HAL_Driver/Src/stm32g4xx_hal_dac.c ****     }
 1377              		.loc 1 1176 11 is_stmt 0 view .LVU407
 1378 00ae 2368     		ldr	r3, [r4]
1176:Drivers/STM32G4xx_HAL_Driver/Src/stm32g4xx_hal_dac.c ****     }
 1379              		.loc 1 1176 63 view .LVU408
 1380 00b0 726A     		ldr	r2, [r6, #36]
1176:Drivers/STM32G4xx_HAL_Driver/Src/stm32g4xx_hal_dac.c ****     }
 1381              		.loc 1 1176 29 view .LVU409
 1382 00b2 5A64     		str	r2, [r3, #68]
 1383              	.LVL102:
 1384              	.L86:
1180:Drivers/STM32G4xx_HAL_Driver/Src/stm32g4xx_hal_dac.c ****     /* RefreshTime */
 1385              		.loc 1 1180 5 is_stmt 1 view .LVU410
 1386 00b4 2068     		ldr	r0, [r4]
 1387 00b6 826C     		ldr	r2, [r0, #72]
 1388 00b8 05F01001 		and	r1, r5, #16
 1389 00bc 40F2FF33 		movw	r3, #1023
 1390 00c0 8B40     		lsls	r3, r3, r1
 1391 00c2 22EA0302 		bic	r2, r2, r3
 1392 00c6 B36A     		ldr	r3, [r6, #40]
 1393 00c8 8B40     		lsls	r3, r3, r1
 1394 00ca 1A43     		orrs	r2, r2, r3
 1395 00cc 8264     		str	r2, [r0, #72]
ARM GAS  /tmp/ccpsplAO.s 			page 58


1182:Drivers/STM32G4xx_HAL_Driver/Src/stm32g4xx_hal_dac.c ****   }
 1396              		.loc 1 1182 5 view .LVU411
 1397 00ce 2068     		ldr	r0, [r4]
 1398 00d0 C36C     		ldr	r3, [r0, #76]
 1399 00d2 FF22     		movs	r2, #255
 1400 00d4 8A40     		lsls	r2, r2, r1
 1401 00d6 23EA0203 		bic	r3, r3, r2
 1402 00da F26A     		ldr	r2, [r6, #44]
 1403 00dc 02FA01F1 		lsl	r1, r2, r1
 1404 00e0 0B43     		orrs	r3, r3, r1
 1405 00e2 C364     		str	r3, [r0, #76]
 1406 00e4 9CE7     		b	.L82
 1407              	.L105:
1189:Drivers/STM32G4xx_HAL_Driver/Src/stm32g4xx_hal_dac.c ****     /* Clear trimming value */
 1408              		.loc 1 1189 5 view .LVU412
1189:Drivers/STM32G4xx_HAL_Driver/Src/stm32g4xx_hal_dac.c ****     /* Clear trimming value */
 1409              		.loc 1 1189 19 is_stmt 0 view .LVU413
 1410 00e6 2168     		ldr	r1, [r4]
1189:Drivers/STM32G4xx_HAL_Driver/Src/stm32g4xx_hal_dac.c ****     /* Clear trimming value */
 1411              		.loc 1 1189 13 view .LVU414
 1412 00e8 8A6B     		ldr	r2, [r1, #56]
 1413              	.LVL103:
1191:Drivers/STM32G4xx_HAL_Driver/Src/stm32g4xx_hal_dac.c ****     /* Configure for the selected trimming offset */
 1414              		.loc 1 1191 5 is_stmt 1 view .LVU415
1191:Drivers/STM32G4xx_HAL_Driver/Src/stm32g4xx_hal_dac.c ****     /* Configure for the selected trimming offset */
 1415              		.loc 1 1191 59 is_stmt 0 view .LVU416
 1416 00ea 05F01000 		and	r0, r5, #16
1191:Drivers/STM32G4xx_HAL_Driver/Src/stm32g4xx_hal_dac.c ****     /* Configure for the selected trimming offset */
 1417              		.loc 1 1191 47 view .LVU417
 1418 00ee 1F23     		movs	r3, #31
 1419 00f0 8340     		lsls	r3, r3, r0
1191:Drivers/STM32G4xx_HAL_Driver/Src/stm32g4xx_hal_dac.c ****     /* Configure for the selected trimming offset */
 1420              		.loc 1 1191 13 view .LVU418
 1421 00f2 22EA0302 		bic	r2, r2, r3
 1422              	.LVL104:
1193:Drivers/STM32G4xx_HAL_Driver/Src/stm32g4xx_hal_dac.c ****     /* Calculate CCR register value depending on DAC_Channel */
 1423              		.loc 1 1193 5 is_stmt 1 view .LVU419
1193:Drivers/STM32G4xx_HAL_Driver/Src/stm32g4xx_hal_dac.c ****     /* Calculate CCR register value depending on DAC_Channel */
 1424              		.loc 1 1193 13 is_stmt 0 view .LVU420
 1425 00f6 336A     		ldr	r3, [r6, #32]
 1426              	.LVL105:
1195:Drivers/STM32G4xx_HAL_Driver/Src/stm32g4xx_hal_dac.c ****     /* Write to DAC CCR */
 1427              		.loc 1 1195 5 is_stmt 1 view .LVU421
1195:Drivers/STM32G4xx_HAL_Driver/Src/stm32g4xx_hal_dac.c ****     /* Write to DAC CCR */
 1428              		.loc 1 1195 24 is_stmt 0 view .LVU422
 1429 00f8 8340     		lsls	r3, r3, r0
 1430              	.LVL106:
1195:Drivers/STM32G4xx_HAL_Driver/Src/stm32g4xx_hal_dac.c ****     /* Write to DAC CCR */
 1431              		.loc 1 1195 13 view .LVU423
 1432 00fa 1343     		orrs	r3, r3, r2
 1433              	.LVL107:
1197:Drivers/STM32G4xx_HAL_Driver/Src/stm32g4xx_hal_dac.c ****   }
 1434              		.loc 1 1197 5 is_stmt 1 view .LVU424
1197:Drivers/STM32G4xx_HAL_Driver/Src/stm32g4xx_hal_dac.c ****   }
 1435              		.loc 1 1197 25 is_stmt 0 view .LVU425
 1436 00fc 8B63     		str	r3, [r1, #56]
 1437              	.LVL108:
ARM GAS  /tmp/ccpsplAO.s 			page 59


1197:Drivers/STM32G4xx_HAL_Driver/Src/stm32g4xx_hal_dac.c ****   }
 1438              		.loc 1 1197 25 view .LVU426
 1439 00fe 92E7     		b	.L88
 1440              	.LVL109:
 1441              	.L96:
1209:Drivers/STM32G4xx_HAL_Driver/Src/stm32g4xx_hal_dac.c ****   }
 1442              		.loc 1 1209 19 view .LVU427
 1443 0100 4FF00008 		mov	r8, #0
 1444              	.L89:
 1445              	.LVL110:
1226:Drivers/STM32G4xx_HAL_Driver/Src/stm32g4xx_hal_dac.c ****   /* Clear DAC_MCR_DMADOUBLEx */
 1446              		.loc 1 1226 3 is_stmt 1 view .LVU428
1226:Drivers/STM32G4xx_HAL_Driver/Src/stm32g4xx_hal_dac.c ****   /* Clear DAC_MCR_DMADOUBLEx */
 1447              		.loc 1 1226 21 is_stmt 0 view .LVU429
 1448 0104 B368     		ldr	r3, [r6, #8]
1226:Drivers/STM32G4xx_HAL_Driver/Src/stm32g4xx_hal_dac.c ****   /* Clear DAC_MCR_DMADOUBLEx */
 1449              		.loc 1 1226 50 view .LVU430
 1450 0106 7269     		ldr	r2, [r6, #20]
1226:Drivers/STM32G4xx_HAL_Driver/Src/stm32g4xx_hal_dac.c ****   /* Clear DAC_MCR_DMADOUBLEx */
 1451              		.loc 1 1226 41 view .LVU431
 1452 0108 1343     		orrs	r3, r3, r2
1226:Drivers/STM32G4xx_HAL_Driver/Src/stm32g4xx_hal_dac.c ****   /* Clear DAC_MCR_DMADOUBLEx */
 1453              		.loc 1 1226 11 view .LVU432
 1454 010a 43EA0803 		orr	r3, r3, r8
 1455              	.LVL111:
1228:Drivers/STM32G4xx_HAL_Driver/Src/stm32g4xx_hal_dac.c ****   /* Configure for the selected DAC channel: DMA double data mode */
 1456              		.loc 1 1228 3 is_stmt 1 view .LVU433
1228:Drivers/STM32G4xx_HAL_Driver/Src/stm32g4xx_hal_dac.c ****   /* Configure for the selected DAC channel: DMA double data mode */
 1457              		.loc 1 1228 49 is_stmt 0 view .LVU434
 1458 010e 4FF48072 		mov	r2, #256
 1459 0112 AA40     		lsls	r2, r2, r5
1228:Drivers/STM32G4xx_HAL_Driver/Src/stm32g4xx_hal_dac.c ****   /* Configure for the selected DAC channel: DMA double data mode */
 1460              		.loc 1 1228 11 view .LVU435
 1461 0114 27EA0207 		bic	r7, r7, r2
 1462              	.LVL112:
1230:Drivers/STM32G4xx_HAL_Driver/Src/stm32g4xx_hal_dac.c ****   /* Clear DAC_MCR_SINFORMATx */
 1463              		.loc 1 1230 3 is_stmt 1 view .LVU436
1230:Drivers/STM32G4xx_HAL_Driver/Src/stm32g4xx_hal_dac.c ****   /* Clear DAC_MCR_SINFORMATx */
 1464              		.loc 1 1230 22 is_stmt 0 view .LVU437
 1465 0118 3279     		ldrb	r2, [r6, #4]	@ zero_extendqisi2
1230:Drivers/STM32G4xx_HAL_Driver/Src/stm32g4xx_hal_dac.c ****   /* Clear DAC_MCR_SINFORMATx */
 1466              		.loc 1 1230 78 view .LVU438
 1467 011a 012A     		cmp	r2, #1
 1468 011c 52D0     		beq	.L109
 1469 011e 4FF00008 		mov	r8, #0
 1470              	.LVL113:
 1471              	.L90:
1230:Drivers/STM32G4xx_HAL_Driver/Src/stm32g4xx_hal_dac.c ****   /* Clear DAC_MCR_SINFORMATx */
 1472              		.loc 1 1230 11 discriminator 4 view .LVU439
 1473 0122 48EA0303 		orr	r3, r8, r3
 1474              	.LVL114:
1232:Drivers/STM32G4xx_HAL_Driver/Src/stm32g4xx_hal_dac.c ****   /* Configure for the selected DAC channel: Signed format */
 1475              		.loc 1 1232 3 is_stmt 1 discriminator 4 view .LVU440
1232:Drivers/STM32G4xx_HAL_Driver/Src/stm32g4xx_hal_dac.c ****   /* Configure for the selected DAC channel: Signed format */
 1476              		.loc 1 1232 49 is_stmt 0 discriminator 4 view .LVU441
 1477 0126 4FF40072 		mov	r2, #512
 1478 012a AA40     		lsls	r2, r2, r5
ARM GAS  /tmp/ccpsplAO.s 			page 60


1232:Drivers/STM32G4xx_HAL_Driver/Src/stm32g4xx_hal_dac.c ****   /* Configure for the selected DAC channel: Signed format */
 1479              		.loc 1 1232 11 discriminator 4 view .LVU442
 1480 012c 27EA0207 		bic	r7, r7, r2
 1481              	.LVL115:
1234:Drivers/STM32G4xx_HAL_Driver/Src/stm32g4xx_hal_dac.c ****   /* Clear DAC_MCR_HFSEL bits */
 1482              		.loc 1 1234 3 is_stmt 1 discriminator 4 view .LVU443
1234:Drivers/STM32G4xx_HAL_Driver/Src/stm32g4xx_hal_dac.c ****   /* Clear DAC_MCR_HFSEL bits */
 1483              		.loc 1 1234 22 is_stmt 0 discriminator 4 view .LVU444
 1484 0130 7279     		ldrb	r2, [r6, #5]	@ zero_extendqisi2
1234:Drivers/STM32G4xx_HAL_Driver/Src/stm32g4xx_hal_dac.c ****   /* Clear DAC_MCR_HFSEL bits */
 1485              		.loc 1 1234 73 discriminator 4 view .LVU445
 1486 0132 012A     		cmp	r2, #1
 1487 0134 49D0     		beq	.L110
1234:Drivers/STM32G4xx_HAL_Driver/Src/stm32g4xx_hal_dac.c ****   /* Clear DAC_MCR_HFSEL bits */
 1488              		.loc 1 1234 73 view .LVU446
 1489 0136 4FF00008 		mov	r8, #0
 1490              	.L91:
1234:Drivers/STM32G4xx_HAL_Driver/Src/stm32g4xx_hal_dac.c ****   /* Clear DAC_MCR_HFSEL bits */
 1491              		.loc 1 1234 11 discriminator 4 view .LVU447
 1492 013a 48EA0308 		orr	r8, r8, r3
 1493              	.LVL116:
1236:Drivers/STM32G4xx_HAL_Driver/Src/stm32g4xx_hal_dac.c ****   /* Configure for both DAC channels: high frequency mode */
 1494              		.loc 1 1236 3 is_stmt 1 discriminator 4 view .LVU448
1236:Drivers/STM32G4xx_HAL_Driver/Src/stm32g4xx_hal_dac.c ****   /* Configure for both DAC channels: high frequency mode */
 1495              		.loc 1 1236 11 is_stmt 0 discriminator 4 view .LVU449
 1496 013e 27F44047 		bic	r7, r7, #49152
 1497              	.LVL117:
1238:Drivers/STM32G4xx_HAL_Driver/Src/stm32g4xx_hal_dac.c ****   {
 1498              		.loc 1 1238 3 is_stmt 1 discriminator 4 view .LVU450
